
motorcontrol.elf:     file format elf32-littlearm

Sections:
Idx Name          Size      VMA       LMA       File off  Algn
  0 .isr_vector   000001c4  08000000  08000000  00010000  2**0
                  CONTENTS, ALLOC, LOAD, READONLY, DATA
  1 .text         0000c900  080001d0  080001d0  000101d0  2**4
                  CONTENTS, ALLOC, LOAD, READONLY, CODE
  2 .rodata       00000cf8  0800cad0  0800cad0  0001cad0  2**3
                  CONTENTS, ALLOC, LOAD, READONLY, DATA
  3 .ARM.extab    00000000  0800d7c8  0800d7c8  000209c0  2**0
                  CONTENTS
  4 .ARM          00000008  0800d7c8  0800d7c8  0001d7c8  2**2
                  CONTENTS, ALLOC, LOAD, READONLY, DATA
  5 .preinit_array 00000000  0800d7d0  0800d7d0  000209c0  2**0
                  CONTENTS, ALLOC, LOAD, DATA
  6 .init_array   00000008  0800d7d0  0800d7d0  0001d7d0  2**2
                  CONTENTS, ALLOC, LOAD, DATA
  7 .fini_array   00000004  0800d7d8  0800d7d8  0001d7d8  2**2
                  CONTENTS, ALLOC, LOAD, DATA
  8 .data         000009c0  20000000  0800d7dc  00020000  2**3
                  CONTENTS, ALLOC, LOAD, DATA
  9 .bss          0000928c  200009c0  0800e19c  000209c0  2**3
                  ALLOC
 10 ._user_heap_stack 00000604  20009c4c  0800e19c  00029c4c  2**0
                  ALLOC
 11 .ARM.attributes 00000030  00000000  00000000  000209c0  2**0
                  CONTENTS, READONLY
 12 .comment      0000007b  00000000  00000000  000209f0  2**0
                  CONTENTS, READONLY
 13 .debug_frame  00001a0c  00000000  00000000  00020a6c  2**2
                  CONTENTS, READONLY, DEBUGGING

Disassembly of section .text:

080001d0 <__do_global_dtors_aux>:
 80001d0:	b510      	push	{r4, lr}
 80001d2:	4c05      	ldr	r4, [pc, #20]	; (80001e8 <__do_global_dtors_aux+0x18>)
 80001d4:	7823      	ldrb	r3, [r4, #0]
 80001d6:	b933      	cbnz	r3, 80001e6 <__do_global_dtors_aux+0x16>
 80001d8:	4b04      	ldr	r3, [pc, #16]	; (80001ec <__do_global_dtors_aux+0x1c>)
 80001da:	b113      	cbz	r3, 80001e2 <__do_global_dtors_aux+0x12>
 80001dc:	4804      	ldr	r0, [pc, #16]	; (80001f0 <__do_global_dtors_aux+0x20>)
 80001de:	f3af 8000 	nop.w
 80001e2:	2301      	movs	r3, #1
 80001e4:	7023      	strb	r3, [r4, #0]
 80001e6:	bd10      	pop	{r4, pc}
 80001e8:	200009c0 	.word	0x200009c0
 80001ec:	00000000 	.word	0x00000000
 80001f0:	0800cab8 	.word	0x0800cab8

080001f4 <frame_dummy>:
 80001f4:	b508      	push	{r3, lr}
 80001f6:	4b03      	ldr	r3, [pc, #12]	; (8000204 <frame_dummy+0x10>)
 80001f8:	b11b      	cbz	r3, 8000202 <frame_dummy+0xe>
 80001fa:	4903      	ldr	r1, [pc, #12]	; (8000208 <frame_dummy+0x14>)
 80001fc:	4803      	ldr	r0, [pc, #12]	; (800020c <frame_dummy+0x18>)
 80001fe:	f3af 8000 	nop.w
 8000202:	bd08      	pop	{r3, pc}
 8000204:	00000000 	.word	0x00000000
 8000208:	200009c4 	.word	0x200009c4
 800020c:	0800cab8 	.word	0x0800cab8

08000210 <strlen>:
 8000210:	4603      	mov	r3, r0
 8000212:	f813 2b01 	ldrb.w	r2, [r3], #1
 8000216:	2a00      	cmp	r2, #0
 8000218:	d1fb      	bne.n	8000212 <strlen+0x2>
 800021a:	1a18      	subs	r0, r3, r0
 800021c:	3801      	subs	r0, #1
 800021e:	4770      	bx	lr

08000220 <memchr>:
 8000220:	f001 01ff 	and.w	r1, r1, #255	; 0xff
 8000224:	2a10      	cmp	r2, #16
 8000226:	db2b      	blt.n	8000280 <memchr+0x60>
 8000228:	f010 0f07 	tst.w	r0, #7
 800022c:	d008      	beq.n	8000240 <memchr+0x20>
 800022e:	f810 3b01 	ldrb.w	r3, [r0], #1
 8000232:	3a01      	subs	r2, #1
 8000234:	428b      	cmp	r3, r1
 8000236:	d02d      	beq.n	8000294 <memchr+0x74>
 8000238:	f010 0f07 	tst.w	r0, #7
 800023c:	b342      	cbz	r2, 8000290 <memchr+0x70>
 800023e:	d1f6      	bne.n	800022e <memchr+0xe>
 8000240:	b4f0      	push	{r4, r5, r6, r7}
 8000242:	ea41 2101 	orr.w	r1, r1, r1, lsl #8
 8000246:	ea41 4101 	orr.w	r1, r1, r1, lsl #16
 800024a:	f022 0407 	bic.w	r4, r2, #7
 800024e:	f07f 0700 	mvns.w	r7, #0
 8000252:	2300      	movs	r3, #0
 8000254:	e8f0 5602 	ldrd	r5, r6, [r0], #8
 8000258:	3c08      	subs	r4, #8
 800025a:	ea85 0501 	eor.w	r5, r5, r1
 800025e:	ea86 0601 	eor.w	r6, r6, r1
 8000262:	fa85 f547 	uadd8	r5, r5, r7
 8000266:	faa3 f587 	sel	r5, r3, r7
 800026a:	fa86 f647 	uadd8	r6, r6, r7
 800026e:	faa5 f687 	sel	r6, r5, r7
 8000272:	b98e      	cbnz	r6, 8000298 <memchr+0x78>
 8000274:	d1ee      	bne.n	8000254 <memchr+0x34>
 8000276:	bcf0      	pop	{r4, r5, r6, r7}
 8000278:	f001 01ff 	and.w	r1, r1, #255	; 0xff
 800027c:	f002 0207 	and.w	r2, r2, #7
 8000280:	b132      	cbz	r2, 8000290 <memchr+0x70>
 8000282:	f810 3b01 	ldrb.w	r3, [r0], #1
 8000286:	3a01      	subs	r2, #1
 8000288:	ea83 0301 	eor.w	r3, r3, r1
 800028c:	b113      	cbz	r3, 8000294 <memchr+0x74>
 800028e:	d1f8      	bne.n	8000282 <memchr+0x62>
 8000290:	2000      	movs	r0, #0
 8000292:	4770      	bx	lr
 8000294:	3801      	subs	r0, #1
 8000296:	4770      	bx	lr
 8000298:	2d00      	cmp	r5, #0
 800029a:	bf06      	itte	eq
 800029c:	4635      	moveq	r5, r6
 800029e:	3803      	subeq	r0, #3
 80002a0:	3807      	subne	r0, #7
 80002a2:	f015 0f01 	tst.w	r5, #1
 80002a6:	d107      	bne.n	80002b8 <memchr+0x98>
 80002a8:	3001      	adds	r0, #1
 80002aa:	f415 7f80 	tst.w	r5, #256	; 0x100
 80002ae:	bf02      	ittt	eq
 80002b0:	3001      	addeq	r0, #1
 80002b2:	f415 3fc0 	tsteq.w	r5, #98304	; 0x18000
 80002b6:	3001      	addeq	r0, #1
 80002b8:	bcf0      	pop	{r4, r5, r6, r7}
 80002ba:	3801      	subs	r0, #1
 80002bc:	4770      	bx	lr
 80002be:	bf00      	nop

080002c0 <__aeabi_drsub>:
 80002c0:	f081 4100 	eor.w	r1, r1, #2147483648	; 0x80000000
 80002c4:	e002      	b.n	80002cc <__adddf3>
 80002c6:	bf00      	nop

080002c8 <__aeabi_dsub>:
 80002c8:	f083 4300 	eor.w	r3, r3, #2147483648	; 0x80000000

080002cc <__adddf3>:
 80002cc:	b530      	push	{r4, r5, lr}
 80002ce:	ea4f 0441 	mov.w	r4, r1, lsl #1
 80002d2:	ea4f 0543 	mov.w	r5, r3, lsl #1
 80002d6:	ea94 0f05 	teq	r4, r5
 80002da:	bf08      	it	eq
 80002dc:	ea90 0f02 	teqeq	r0, r2
 80002e0:	bf1f      	itttt	ne
 80002e2:	ea54 0c00 	orrsne.w	ip, r4, r0
 80002e6:	ea55 0c02 	orrsne.w	ip, r5, r2
 80002ea:	ea7f 5c64 	mvnsne.w	ip, r4, asr #21
 80002ee:	ea7f 5c65 	mvnsne.w	ip, r5, asr #21
 80002f2:	f000 80e2 	beq.w	80004ba <__adddf3+0x1ee>
 80002f6:	ea4f 5454 	mov.w	r4, r4, lsr #21
 80002fa:	ebd4 5555 	rsbs	r5, r4, r5, lsr #21
 80002fe:	bfb8      	it	lt
 8000300:	426d      	neglt	r5, r5
 8000302:	dd0c      	ble.n	800031e <__adddf3+0x52>
 8000304:	442c      	add	r4, r5
 8000306:	ea80 0202 	eor.w	r2, r0, r2
 800030a:	ea81 0303 	eor.w	r3, r1, r3
 800030e:	ea82 0000 	eor.w	r0, r2, r0
 8000312:	ea83 0101 	eor.w	r1, r3, r1
 8000316:	ea80 0202 	eor.w	r2, r0, r2
 800031a:	ea81 0303 	eor.w	r3, r1, r3
 800031e:	2d36      	cmp	r5, #54	; 0x36
 8000320:	bf88      	it	hi
 8000322:	bd30      	pophi	{r4, r5, pc}
 8000324:	f011 4f00 	tst.w	r1, #2147483648	; 0x80000000
 8000328:	ea4f 3101 	mov.w	r1, r1, lsl #12
 800032c:	f44f 1c80 	mov.w	ip, #1048576	; 0x100000
 8000330:	ea4c 3111 	orr.w	r1, ip, r1, lsr #12
 8000334:	d002      	beq.n	800033c <__adddf3+0x70>
 8000336:	4240      	negs	r0, r0
 8000338:	eb61 0141 	sbc.w	r1, r1, r1, lsl #1
 800033c:	f013 4f00 	tst.w	r3, #2147483648	; 0x80000000
 8000340:	ea4f 3303 	mov.w	r3, r3, lsl #12
 8000344:	ea4c 3313 	orr.w	r3, ip, r3, lsr #12
 8000348:	d002      	beq.n	8000350 <__adddf3+0x84>
 800034a:	4252      	negs	r2, r2
 800034c:	eb63 0343 	sbc.w	r3, r3, r3, lsl #1
 8000350:	ea94 0f05 	teq	r4, r5
 8000354:	f000 80a7 	beq.w	80004a6 <__adddf3+0x1da>
 8000358:	f1a4 0401 	sub.w	r4, r4, #1
 800035c:	f1d5 0e20 	rsbs	lr, r5, #32
 8000360:	db0d      	blt.n	800037e <__adddf3+0xb2>
 8000362:	fa02 fc0e 	lsl.w	ip, r2, lr
 8000366:	fa22 f205 	lsr.w	r2, r2, r5
 800036a:	1880      	adds	r0, r0, r2
 800036c:	f141 0100 	adc.w	r1, r1, #0
 8000370:	fa03 f20e 	lsl.w	r2, r3, lr
 8000374:	1880      	adds	r0, r0, r2
 8000376:	fa43 f305 	asr.w	r3, r3, r5
 800037a:	4159      	adcs	r1, r3
 800037c:	e00e      	b.n	800039c <__adddf3+0xd0>
 800037e:	f1a5 0520 	sub.w	r5, r5, #32
 8000382:	f10e 0e20 	add.w	lr, lr, #32
 8000386:	2a01      	cmp	r2, #1
 8000388:	fa03 fc0e 	lsl.w	ip, r3, lr
 800038c:	bf28      	it	cs
 800038e:	f04c 0c02 	orrcs.w	ip, ip, #2
 8000392:	fa43 f305 	asr.w	r3, r3, r5
 8000396:	18c0      	adds	r0, r0, r3
 8000398:	eb51 71e3 	adcs.w	r1, r1, r3, asr #31
 800039c:	f001 4500 	and.w	r5, r1, #2147483648	; 0x80000000
 80003a0:	d507      	bpl.n	80003b2 <__adddf3+0xe6>
 80003a2:	f04f 0e00 	mov.w	lr, #0
 80003a6:	f1dc 0c00 	rsbs	ip, ip, #0
 80003aa:	eb7e 0000 	sbcs.w	r0, lr, r0
 80003ae:	eb6e 0101 	sbc.w	r1, lr, r1
 80003b2:	f5b1 1f80 	cmp.w	r1, #1048576	; 0x100000
 80003b6:	d31b      	bcc.n	80003f0 <__adddf3+0x124>
 80003b8:	f5b1 1f00 	cmp.w	r1, #2097152	; 0x200000
 80003bc:	d30c      	bcc.n	80003d8 <__adddf3+0x10c>
 80003be:	0849      	lsrs	r1, r1, #1
 80003c0:	ea5f 0030 	movs.w	r0, r0, rrx
 80003c4:	ea4f 0c3c 	mov.w	ip, ip, rrx
 80003c8:	f104 0401 	add.w	r4, r4, #1
 80003cc:	ea4f 5244 	mov.w	r2, r4, lsl #21
 80003d0:	f512 0f80 	cmn.w	r2, #4194304	; 0x400000
 80003d4:	f080 809a 	bcs.w	800050c <__adddf3+0x240>
 80003d8:	f1bc 4f00 	cmp.w	ip, #2147483648	; 0x80000000
 80003dc:	bf08      	it	eq
 80003de:	ea5f 0c50 	movseq.w	ip, r0, lsr #1
 80003e2:	f150 0000 	adcs.w	r0, r0, #0
 80003e6:	eb41 5104 	adc.w	r1, r1, r4, lsl #20
 80003ea:	ea41 0105 	orr.w	r1, r1, r5
 80003ee:	bd30      	pop	{r4, r5, pc}
 80003f0:	ea5f 0c4c 	movs.w	ip, ip, lsl #1
 80003f4:	4140      	adcs	r0, r0
 80003f6:	eb41 0101 	adc.w	r1, r1, r1
 80003fa:	f411 1f80 	tst.w	r1, #1048576	; 0x100000
 80003fe:	f1a4 0401 	sub.w	r4, r4, #1
 8000402:	d1e9      	bne.n	80003d8 <__adddf3+0x10c>
 8000404:	f091 0f00 	teq	r1, #0
 8000408:	bf04      	itt	eq
 800040a:	4601      	moveq	r1, r0
 800040c:	2000      	moveq	r0, #0
 800040e:	fab1 f381 	clz	r3, r1
 8000412:	bf08      	it	eq
 8000414:	3320      	addeq	r3, #32
 8000416:	f1a3 030b 	sub.w	r3, r3, #11
 800041a:	f1b3 0220 	subs.w	r2, r3, #32
 800041e:	da0c      	bge.n	800043a <__adddf3+0x16e>
 8000420:	320c      	adds	r2, #12
 8000422:	dd08      	ble.n	8000436 <__adddf3+0x16a>
 8000424:	f102 0c14 	add.w	ip, r2, #20
 8000428:	f1c2 020c 	rsb	r2, r2, #12
 800042c:	fa01 f00c 	lsl.w	r0, r1, ip
 8000430:	fa21 f102 	lsr.w	r1, r1, r2
 8000434:	e00c      	b.n	8000450 <__adddf3+0x184>
 8000436:	f102 0214 	add.w	r2, r2, #20
 800043a:	bfd8      	it	le
 800043c:	f1c2 0c20 	rsble	ip, r2, #32
 8000440:	fa01 f102 	lsl.w	r1, r1, r2
 8000444:	fa20 fc0c 	lsr.w	ip, r0, ip
 8000448:	bfdc      	itt	le
 800044a:	ea41 010c 	orrle.w	r1, r1, ip
 800044e:	4090      	lslle	r0, r2
 8000450:	1ae4      	subs	r4, r4, r3
 8000452:	bfa2      	ittt	ge
 8000454:	eb01 5104 	addge.w	r1, r1, r4, lsl #20
 8000458:	4329      	orrge	r1, r5
 800045a:	bd30      	popge	{r4, r5, pc}
 800045c:	ea6f 0404 	mvn.w	r4, r4
 8000460:	3c1f      	subs	r4, #31
 8000462:	da1c      	bge.n	800049e <__adddf3+0x1d2>
 8000464:	340c      	adds	r4, #12
 8000466:	dc0e      	bgt.n	8000486 <__adddf3+0x1ba>
 8000468:	f104 0414 	add.w	r4, r4, #20
 800046c:	f1c4 0220 	rsb	r2, r4, #32
 8000470:	fa20 f004 	lsr.w	r0, r0, r4
 8000474:	fa01 f302 	lsl.w	r3, r1, r2
 8000478:	ea40 0003 	orr.w	r0, r0, r3
 800047c:	fa21 f304 	lsr.w	r3, r1, r4
 8000480:	ea45 0103 	orr.w	r1, r5, r3
 8000484:	bd30      	pop	{r4, r5, pc}
 8000486:	f1c4 040c 	rsb	r4, r4, #12
 800048a:	f1c4 0220 	rsb	r2, r4, #32
 800048e:	fa20 f002 	lsr.w	r0, r0, r2
 8000492:	fa01 f304 	lsl.w	r3, r1, r4
 8000496:	ea40 0003 	orr.w	r0, r0, r3
 800049a:	4629      	mov	r1, r5
 800049c:	bd30      	pop	{r4, r5, pc}
 800049e:	fa21 f004 	lsr.w	r0, r1, r4
 80004a2:	4629      	mov	r1, r5
 80004a4:	bd30      	pop	{r4, r5, pc}
 80004a6:	f094 0f00 	teq	r4, #0
 80004aa:	f483 1380 	eor.w	r3, r3, #1048576	; 0x100000
 80004ae:	bf06      	itte	eq
 80004b0:	f481 1180 	eoreq.w	r1, r1, #1048576	; 0x100000
 80004b4:	3401      	addeq	r4, #1
 80004b6:	3d01      	subne	r5, #1
 80004b8:	e74e      	b.n	8000358 <__adddf3+0x8c>
 80004ba:	ea7f 5c64 	mvns.w	ip, r4, asr #21
 80004be:	bf18      	it	ne
 80004c0:	ea7f 5c65 	mvnsne.w	ip, r5, asr #21
 80004c4:	d029      	beq.n	800051a <__adddf3+0x24e>
 80004c6:	ea94 0f05 	teq	r4, r5
 80004ca:	bf08      	it	eq
 80004cc:	ea90 0f02 	teqeq	r0, r2
 80004d0:	d005      	beq.n	80004de <__adddf3+0x212>
 80004d2:	ea54 0c00 	orrs.w	ip, r4, r0
 80004d6:	bf04      	itt	eq
 80004d8:	4619      	moveq	r1, r3
 80004da:	4610      	moveq	r0, r2
 80004dc:	bd30      	pop	{r4, r5, pc}
 80004de:	ea91 0f03 	teq	r1, r3
 80004e2:	bf1e      	ittt	ne
 80004e4:	2100      	movne	r1, #0
 80004e6:	2000      	movne	r0, #0
 80004e8:	bd30      	popne	{r4, r5, pc}
 80004ea:	ea5f 5c54 	movs.w	ip, r4, lsr #21
 80004ee:	d105      	bne.n	80004fc <__adddf3+0x230>
 80004f0:	0040      	lsls	r0, r0, #1
 80004f2:	4149      	adcs	r1, r1
 80004f4:	bf28      	it	cs
 80004f6:	f041 4100 	orrcs.w	r1, r1, #2147483648	; 0x80000000
 80004fa:	bd30      	pop	{r4, r5, pc}
 80004fc:	f514 0480 	adds.w	r4, r4, #4194304	; 0x400000
 8000500:	bf3c      	itt	cc
 8000502:	f501 1180 	addcc.w	r1, r1, #1048576	; 0x100000
 8000506:	bd30      	popcc	{r4, r5, pc}
 8000508:	f001 4500 	and.w	r5, r1, #2147483648	; 0x80000000
 800050c:	f045 41fe 	orr.w	r1, r5, #2130706432	; 0x7f000000
 8000510:	f441 0170 	orr.w	r1, r1, #15728640	; 0xf00000
 8000514:	f04f 0000 	mov.w	r0, #0
 8000518:	bd30      	pop	{r4, r5, pc}
 800051a:	ea7f 5c64 	mvns.w	ip, r4, asr #21
 800051e:	bf1a      	itte	ne
 8000520:	4619      	movne	r1, r3
 8000522:	4610      	movne	r0, r2
 8000524:	ea7f 5c65 	mvnseq.w	ip, r5, asr #21
 8000528:	bf1c      	itt	ne
 800052a:	460b      	movne	r3, r1
 800052c:	4602      	movne	r2, r0
 800052e:	ea50 3401 	orrs.w	r4, r0, r1, lsl #12
 8000532:	bf06      	itte	eq
 8000534:	ea52 3503 	orrseq.w	r5, r2, r3, lsl #12
 8000538:	ea91 0f03 	teqeq	r1, r3
 800053c:	f441 2100 	orrne.w	r1, r1, #524288	; 0x80000
 8000540:	bd30      	pop	{r4, r5, pc}
 8000542:	bf00      	nop

08000544 <__aeabi_ui2d>:
 8000544:	f090 0f00 	teq	r0, #0
 8000548:	bf04      	itt	eq
 800054a:	2100      	moveq	r1, #0
 800054c:	4770      	bxeq	lr
 800054e:	b530      	push	{r4, r5, lr}
 8000550:	f44f 6480 	mov.w	r4, #1024	; 0x400
 8000554:	f104 0432 	add.w	r4, r4, #50	; 0x32
 8000558:	f04f 0500 	mov.w	r5, #0
 800055c:	f04f 0100 	mov.w	r1, #0
 8000560:	e750      	b.n	8000404 <__adddf3+0x138>
 8000562:	bf00      	nop

08000564 <__aeabi_i2d>:
 8000564:	f090 0f00 	teq	r0, #0
 8000568:	bf04      	itt	eq
 800056a:	2100      	moveq	r1, #0
 800056c:	4770      	bxeq	lr
 800056e:	b530      	push	{r4, r5, lr}
 8000570:	f44f 6480 	mov.w	r4, #1024	; 0x400
 8000574:	f104 0432 	add.w	r4, r4, #50	; 0x32
 8000578:	f010 4500 	ands.w	r5, r0, #2147483648	; 0x80000000
 800057c:	bf48      	it	mi
 800057e:	4240      	negmi	r0, r0
 8000580:	f04f 0100 	mov.w	r1, #0
 8000584:	e73e      	b.n	8000404 <__adddf3+0x138>
 8000586:	bf00      	nop

08000588 <__aeabi_f2d>:
 8000588:	0042      	lsls	r2, r0, #1
 800058a:	ea4f 01e2 	mov.w	r1, r2, asr #3
 800058e:	ea4f 0131 	mov.w	r1, r1, rrx
 8000592:	ea4f 7002 	mov.w	r0, r2, lsl #28
 8000596:	bf1f      	itttt	ne
 8000598:	f012 437f 	andsne.w	r3, r2, #4278190080	; 0xff000000
 800059c:	f093 4f7f 	teqne	r3, #4278190080	; 0xff000000
 80005a0:	f081 5160 	eorne.w	r1, r1, #939524096	; 0x38000000
 80005a4:	4770      	bxne	lr
 80005a6:	f032 427f 	bics.w	r2, r2, #4278190080	; 0xff000000
 80005aa:	bf08      	it	eq
 80005ac:	4770      	bxeq	lr
 80005ae:	f093 4f7f 	teq	r3, #4278190080	; 0xff000000
 80005b2:	bf04      	itt	eq
 80005b4:	f441 2100 	orreq.w	r1, r1, #524288	; 0x80000
 80005b8:	4770      	bxeq	lr
 80005ba:	b530      	push	{r4, r5, lr}
 80005bc:	f44f 7460 	mov.w	r4, #896	; 0x380
 80005c0:	f001 4500 	and.w	r5, r1, #2147483648	; 0x80000000
 80005c4:	f021 4100 	bic.w	r1, r1, #2147483648	; 0x80000000
 80005c8:	e71c      	b.n	8000404 <__adddf3+0x138>
 80005ca:	bf00      	nop

080005cc <__aeabi_ul2d>:
 80005cc:	ea50 0201 	orrs.w	r2, r0, r1
 80005d0:	bf08      	it	eq
 80005d2:	4770      	bxeq	lr
 80005d4:	b530      	push	{r4, r5, lr}
 80005d6:	f04f 0500 	mov.w	r5, #0
 80005da:	e00a      	b.n	80005f2 <__aeabi_l2d+0x16>

080005dc <__aeabi_l2d>:
 80005dc:	ea50 0201 	orrs.w	r2, r0, r1
 80005e0:	bf08      	it	eq
 80005e2:	4770      	bxeq	lr
 80005e4:	b530      	push	{r4, r5, lr}
 80005e6:	f011 4500 	ands.w	r5, r1, #2147483648	; 0x80000000
 80005ea:	d502      	bpl.n	80005f2 <__aeabi_l2d+0x16>
 80005ec:	4240      	negs	r0, r0
 80005ee:	eb61 0141 	sbc.w	r1, r1, r1, lsl #1
 80005f2:	f44f 6480 	mov.w	r4, #1024	; 0x400
 80005f6:	f104 0432 	add.w	r4, r4, #50	; 0x32
 80005fa:	ea5f 5c91 	movs.w	ip, r1, lsr #22
 80005fe:	f43f aed8 	beq.w	80003b2 <__adddf3+0xe6>
 8000602:	f04f 0203 	mov.w	r2, #3
 8000606:	ea5f 0cdc 	movs.w	ip, ip, lsr #3
 800060a:	bf18      	it	ne
 800060c:	3203      	addne	r2, #3
 800060e:	ea5f 0cdc 	movs.w	ip, ip, lsr #3
 8000612:	bf18      	it	ne
 8000614:	3203      	addne	r2, #3
 8000616:	eb02 02dc 	add.w	r2, r2, ip, lsr #3
 800061a:	f1c2 0320 	rsb	r3, r2, #32
 800061e:	fa00 fc03 	lsl.w	ip, r0, r3
 8000622:	fa20 f002 	lsr.w	r0, r0, r2
 8000626:	fa01 fe03 	lsl.w	lr, r1, r3
 800062a:	ea40 000e 	orr.w	r0, r0, lr
 800062e:	fa21 f102 	lsr.w	r1, r1, r2
 8000632:	4414      	add	r4, r2
 8000634:	e6bd      	b.n	80003b2 <__adddf3+0xe6>
 8000636:	bf00      	nop

08000638 <__aeabi_dmul>:
 8000638:	b570      	push	{r4, r5, r6, lr}
 800063a:	f04f 0cff 	mov.w	ip, #255	; 0xff
 800063e:	f44c 6ce0 	orr.w	ip, ip, #1792	; 0x700
 8000642:	ea1c 5411 	ands.w	r4, ip, r1, lsr #20
 8000646:	bf1d      	ittte	ne
 8000648:	ea1c 5513 	andsne.w	r5, ip, r3, lsr #20
 800064c:	ea94 0f0c 	teqne	r4, ip
 8000650:	ea95 0f0c 	teqne	r5, ip
 8000654:	f000 f8de 	bleq	8000814 <__aeabi_dmul+0x1dc>
 8000658:	442c      	add	r4, r5
 800065a:	ea81 0603 	eor.w	r6, r1, r3
 800065e:	ea21 514c 	bic.w	r1, r1, ip, lsl #21
 8000662:	ea23 534c 	bic.w	r3, r3, ip, lsl #21
 8000666:	ea50 3501 	orrs.w	r5, r0, r1, lsl #12
 800066a:	bf18      	it	ne
 800066c:	ea52 3503 	orrsne.w	r5, r2, r3, lsl #12
 8000670:	f441 1180 	orr.w	r1, r1, #1048576	; 0x100000
 8000674:	f443 1380 	orr.w	r3, r3, #1048576	; 0x100000
 8000678:	d038      	beq.n	80006ec <__aeabi_dmul+0xb4>
 800067a:	fba0 ce02 	umull	ip, lr, r0, r2
 800067e:	f04f 0500 	mov.w	r5, #0
 8000682:	fbe1 e502 	umlal	lr, r5, r1, r2
 8000686:	f006 4200 	and.w	r2, r6, #2147483648	; 0x80000000
 800068a:	fbe0 e503 	umlal	lr, r5, r0, r3
 800068e:	f04f 0600 	mov.w	r6, #0
 8000692:	fbe1 5603 	umlal	r5, r6, r1, r3
 8000696:	f09c 0f00 	teq	ip, #0
 800069a:	bf18      	it	ne
 800069c:	f04e 0e01 	orrne.w	lr, lr, #1
 80006a0:	f1a4 04ff 	sub.w	r4, r4, #255	; 0xff
 80006a4:	f5b6 7f00 	cmp.w	r6, #512	; 0x200
 80006a8:	f564 7440 	sbc.w	r4, r4, #768	; 0x300
 80006ac:	d204      	bcs.n	80006b8 <__aeabi_dmul+0x80>
 80006ae:	ea5f 0e4e 	movs.w	lr, lr, lsl #1
 80006b2:	416d      	adcs	r5, r5
 80006b4:	eb46 0606 	adc.w	r6, r6, r6
 80006b8:	ea42 21c6 	orr.w	r1, r2, r6, lsl #11
 80006bc:	ea41 5155 	orr.w	r1, r1, r5, lsr #21
 80006c0:	ea4f 20c5 	mov.w	r0, r5, lsl #11
 80006c4:	ea40 505e 	orr.w	r0, r0, lr, lsr #21
 80006c8:	ea4f 2ece 	mov.w	lr, lr, lsl #11
 80006cc:	f1b4 0cfd 	subs.w	ip, r4, #253	; 0xfd
 80006d0:	bf88      	it	hi
 80006d2:	f5bc 6fe0 	cmphi.w	ip, #1792	; 0x700
 80006d6:	d81e      	bhi.n	8000716 <__aeabi_dmul+0xde>
 80006d8:	f1be 4f00 	cmp.w	lr, #2147483648	; 0x80000000
 80006dc:	bf08      	it	eq
 80006de:	ea5f 0e50 	movseq.w	lr, r0, lsr #1
 80006e2:	f150 0000 	adcs.w	r0, r0, #0
 80006e6:	eb41 5104 	adc.w	r1, r1, r4, lsl #20
 80006ea:	bd70      	pop	{r4, r5, r6, pc}
 80006ec:	f006 4600 	and.w	r6, r6, #2147483648	; 0x80000000
 80006f0:	ea46 0101 	orr.w	r1, r6, r1
 80006f4:	ea40 0002 	orr.w	r0, r0, r2
 80006f8:	ea81 0103 	eor.w	r1, r1, r3
 80006fc:	ebb4 045c 	subs.w	r4, r4, ip, lsr #1
 8000700:	bfc2      	ittt	gt
 8000702:	ebd4 050c 	rsbsgt	r5, r4, ip
 8000706:	ea41 5104 	orrgt.w	r1, r1, r4, lsl #20
 800070a:	bd70      	popgt	{r4, r5, r6, pc}
 800070c:	f441 1180 	orr.w	r1, r1, #1048576	; 0x100000
 8000710:	f04f 0e00 	mov.w	lr, #0
 8000714:	3c01      	subs	r4, #1
 8000716:	f300 80ab 	bgt.w	8000870 <__aeabi_dmul+0x238>
 800071a:	f114 0f36 	cmn.w	r4, #54	; 0x36
 800071e:	bfde      	ittt	le
 8000720:	2000      	movle	r0, #0
 8000722:	f001 4100 	andle.w	r1, r1, #2147483648	; 0x80000000
 8000726:	bd70      	pople	{r4, r5, r6, pc}
 8000728:	f1c4 0400 	rsb	r4, r4, #0
 800072c:	3c20      	subs	r4, #32
 800072e:	da35      	bge.n	800079c <__aeabi_dmul+0x164>
 8000730:	340c      	adds	r4, #12
 8000732:	dc1b      	bgt.n	800076c <__aeabi_dmul+0x134>
 8000734:	f104 0414 	add.w	r4, r4, #20
 8000738:	f1c4 0520 	rsb	r5, r4, #32
 800073c:	fa00 f305 	lsl.w	r3, r0, r5
 8000740:	fa20 f004 	lsr.w	r0, r0, r4
 8000744:	fa01 f205 	lsl.w	r2, r1, r5
 8000748:	ea40 0002 	orr.w	r0, r0, r2
 800074c:	f001 4200 	and.w	r2, r1, #2147483648	; 0x80000000
 8000750:	f021 4100 	bic.w	r1, r1, #2147483648	; 0x80000000
 8000754:	eb10 70d3 	adds.w	r0, r0, r3, lsr #31
 8000758:	fa21 f604 	lsr.w	r6, r1, r4
 800075c:	eb42 0106 	adc.w	r1, r2, r6
 8000760:	ea5e 0e43 	orrs.w	lr, lr, r3, lsl #1
 8000764:	bf08      	it	eq
 8000766:	ea20 70d3 	biceq.w	r0, r0, r3, lsr #31
 800076a:	bd70      	pop	{r4, r5, r6, pc}
 800076c:	f1c4 040c 	rsb	r4, r4, #12
 8000770:	f1c4 0520 	rsb	r5, r4, #32
 8000774:	fa00 f304 	lsl.w	r3, r0, r4
 8000778:	fa20 f005 	lsr.w	r0, r0, r5
 800077c:	fa01 f204 	lsl.w	r2, r1, r4
 8000780:	ea40 0002 	orr.w	r0, r0, r2
 8000784:	f001 4100 	and.w	r1, r1, #2147483648	; 0x80000000
 8000788:	eb10 70d3 	adds.w	r0, r0, r3, lsr #31
 800078c:	f141 0100 	adc.w	r1, r1, #0
 8000790:	ea5e 0e43 	orrs.w	lr, lr, r3, lsl #1
 8000794:	bf08      	it	eq
 8000796:	ea20 70d3 	biceq.w	r0, r0, r3, lsr #31
 800079a:	bd70      	pop	{r4, r5, r6, pc}
 800079c:	f1c4 0520 	rsb	r5, r4, #32
 80007a0:	fa00 f205 	lsl.w	r2, r0, r5
 80007a4:	ea4e 0e02 	orr.w	lr, lr, r2
 80007a8:	fa20 f304 	lsr.w	r3, r0, r4
 80007ac:	fa01 f205 	lsl.w	r2, r1, r5
 80007b0:	ea43 0302 	orr.w	r3, r3, r2
 80007b4:	fa21 f004 	lsr.w	r0, r1, r4
 80007b8:	f001 4100 	and.w	r1, r1, #2147483648	; 0x80000000
 80007bc:	fa21 f204 	lsr.w	r2, r1, r4
 80007c0:	ea20 0002 	bic.w	r0, r0, r2
 80007c4:	eb00 70d3 	add.w	r0, r0, r3, lsr #31
 80007c8:	ea5e 0e43 	orrs.w	lr, lr, r3, lsl #1
 80007cc:	bf08      	it	eq
 80007ce:	ea20 70d3 	biceq.w	r0, r0, r3, lsr #31
 80007d2:	bd70      	pop	{r4, r5, r6, pc}
 80007d4:	f094 0f00 	teq	r4, #0
 80007d8:	d10f      	bne.n	80007fa <__aeabi_dmul+0x1c2>
 80007da:	f001 4600 	and.w	r6, r1, #2147483648	; 0x80000000
 80007de:	0040      	lsls	r0, r0, #1
 80007e0:	eb41 0101 	adc.w	r1, r1, r1
 80007e4:	f411 1f80 	tst.w	r1, #1048576	; 0x100000
 80007e8:	bf08      	it	eq
 80007ea:	3c01      	subeq	r4, #1
 80007ec:	d0f7      	beq.n	80007de <__aeabi_dmul+0x1a6>
 80007ee:	ea41 0106 	orr.w	r1, r1, r6
 80007f2:	f095 0f00 	teq	r5, #0
 80007f6:	bf18      	it	ne
 80007f8:	4770      	bxne	lr
 80007fa:	f003 4600 	and.w	r6, r3, #2147483648	; 0x80000000
 80007fe:	0052      	lsls	r2, r2, #1
 8000800:	eb43 0303 	adc.w	r3, r3, r3
 8000804:	f413 1f80 	tst.w	r3, #1048576	; 0x100000
 8000808:	bf08      	it	eq
 800080a:	3d01      	subeq	r5, #1
 800080c:	d0f7      	beq.n	80007fe <__aeabi_dmul+0x1c6>
 800080e:	ea43 0306 	orr.w	r3, r3, r6
 8000812:	4770      	bx	lr
 8000814:	ea94 0f0c 	teq	r4, ip
 8000818:	ea0c 5513 	and.w	r5, ip, r3, lsr #20
 800081c:	bf18      	it	ne
 800081e:	ea95 0f0c 	teqne	r5, ip
 8000822:	d00c      	beq.n	800083e <__aeabi_dmul+0x206>
 8000824:	ea50 0641 	orrs.w	r6, r0, r1, lsl #1
 8000828:	bf18      	it	ne
 800082a:	ea52 0643 	orrsne.w	r6, r2, r3, lsl #1
 800082e:	d1d1      	bne.n	80007d4 <__aeabi_dmul+0x19c>
 8000830:	ea81 0103 	eor.w	r1, r1, r3
 8000834:	f001 4100 	and.w	r1, r1, #2147483648	; 0x80000000
 8000838:	f04f 0000 	mov.w	r0, #0
 800083c:	bd70      	pop	{r4, r5, r6, pc}
 800083e:	ea50 0641 	orrs.w	r6, r0, r1, lsl #1
 8000842:	bf06      	itte	eq
 8000844:	4610      	moveq	r0, r2
 8000846:	4619      	moveq	r1, r3
 8000848:	ea52 0643 	orrsne.w	r6, r2, r3, lsl #1
 800084c:	d019      	beq.n	8000882 <__aeabi_dmul+0x24a>
 800084e:	ea94 0f0c 	teq	r4, ip
 8000852:	d102      	bne.n	800085a <__aeabi_dmul+0x222>
 8000854:	ea50 3601 	orrs.w	r6, r0, r1, lsl #12
 8000858:	d113      	bne.n	8000882 <__aeabi_dmul+0x24a>
 800085a:	ea95 0f0c 	teq	r5, ip
 800085e:	d105      	bne.n	800086c <__aeabi_dmul+0x234>
 8000860:	ea52 3603 	orrs.w	r6, r2, r3, lsl #12
 8000864:	bf1c      	itt	ne
 8000866:	4610      	movne	r0, r2
 8000868:	4619      	movne	r1, r3
 800086a:	d10a      	bne.n	8000882 <__aeabi_dmul+0x24a>
 800086c:	ea81 0103 	eor.w	r1, r1, r3
 8000870:	f001 4100 	and.w	r1, r1, #2147483648	; 0x80000000
 8000874:	f041 41fe 	orr.w	r1, r1, #2130706432	; 0x7f000000
 8000878:	f441 0170 	orr.w	r1, r1, #15728640	; 0xf00000
 800087c:	f04f 0000 	mov.w	r0, #0
 8000880:	bd70      	pop	{r4, r5, r6, pc}
 8000882:	f041 41fe 	orr.w	r1, r1, #2130706432	; 0x7f000000
 8000886:	f441 0178 	orr.w	r1, r1, #16252928	; 0xf80000
 800088a:	bd70      	pop	{r4, r5, r6, pc}

0800088c <__aeabi_ddiv>:
 800088c:	b570      	push	{r4, r5, r6, lr}
 800088e:	f04f 0cff 	mov.w	ip, #255	; 0xff
 8000892:	f44c 6ce0 	orr.w	ip, ip, #1792	; 0x700
 8000896:	ea1c 5411 	ands.w	r4, ip, r1, lsr #20
 800089a:	bf1d      	ittte	ne
 800089c:	ea1c 5513 	andsne.w	r5, ip, r3, lsr #20
 80008a0:	ea94 0f0c 	teqne	r4, ip
 80008a4:	ea95 0f0c 	teqne	r5, ip
 80008a8:	f000 f8a7 	bleq	80009fa <__aeabi_ddiv+0x16e>
 80008ac:	eba4 0405 	sub.w	r4, r4, r5
 80008b0:	ea81 0e03 	eor.w	lr, r1, r3
 80008b4:	ea52 3503 	orrs.w	r5, r2, r3, lsl #12
 80008b8:	ea4f 3101 	mov.w	r1, r1, lsl #12
 80008bc:	f000 8088 	beq.w	80009d0 <__aeabi_ddiv+0x144>
 80008c0:	ea4f 3303 	mov.w	r3, r3, lsl #12
 80008c4:	f04f 5580 	mov.w	r5, #268435456	; 0x10000000
 80008c8:	ea45 1313 	orr.w	r3, r5, r3, lsr #4
 80008cc:	ea43 6312 	orr.w	r3, r3, r2, lsr #24
 80008d0:	ea4f 2202 	mov.w	r2, r2, lsl #8
 80008d4:	ea45 1511 	orr.w	r5, r5, r1, lsr #4
 80008d8:	ea45 6510 	orr.w	r5, r5, r0, lsr #24
 80008dc:	ea4f 2600 	mov.w	r6, r0, lsl #8
 80008e0:	f00e 4100 	and.w	r1, lr, #2147483648	; 0x80000000
 80008e4:	429d      	cmp	r5, r3
 80008e6:	bf08      	it	eq
 80008e8:	4296      	cmpeq	r6, r2
 80008ea:	f144 04fd 	adc.w	r4, r4, #253	; 0xfd
 80008ee:	f504 7440 	add.w	r4, r4, #768	; 0x300
 80008f2:	d202      	bcs.n	80008fa <__aeabi_ddiv+0x6e>
 80008f4:	085b      	lsrs	r3, r3, #1
 80008f6:	ea4f 0232 	mov.w	r2, r2, rrx
 80008fa:	1ab6      	subs	r6, r6, r2
 80008fc:	eb65 0503 	sbc.w	r5, r5, r3
 8000900:	085b      	lsrs	r3, r3, #1
 8000902:	ea4f 0232 	mov.w	r2, r2, rrx
 8000906:	f44f 1080 	mov.w	r0, #1048576	; 0x100000
 800090a:	f44f 2c00 	mov.w	ip, #524288	; 0x80000
 800090e:	ebb6 0e02 	subs.w	lr, r6, r2
 8000912:	eb75 0e03 	sbcs.w	lr, r5, r3
 8000916:	bf22      	ittt	cs
 8000918:	1ab6      	subcs	r6, r6, r2
 800091a:	4675      	movcs	r5, lr
 800091c:	ea40 000c 	orrcs.w	r0, r0, ip
 8000920:	085b      	lsrs	r3, r3, #1
 8000922:	ea4f 0232 	mov.w	r2, r2, rrx
 8000926:	ebb6 0e02 	subs.w	lr, r6, r2
 800092a:	eb75 0e03 	sbcs.w	lr, r5, r3
 800092e:	bf22      	ittt	cs
 8000930:	1ab6      	subcs	r6, r6, r2
 8000932:	4675      	movcs	r5, lr
 8000934:	ea40 005c 	orrcs.w	r0, r0, ip, lsr #1
 8000938:	085b      	lsrs	r3, r3, #1
 800093a:	ea4f 0232 	mov.w	r2, r2, rrx
 800093e:	ebb6 0e02 	subs.w	lr, r6, r2
 8000942:	eb75 0e03 	sbcs.w	lr, r5, r3
 8000946:	bf22      	ittt	cs
 8000948:	1ab6      	subcs	r6, r6, r2
 800094a:	4675      	movcs	r5, lr
 800094c:	ea40 009c 	orrcs.w	r0, r0, ip, lsr #2
 8000950:	085b      	lsrs	r3, r3, #1
 8000952:	ea4f 0232 	mov.w	r2, r2, rrx
 8000956:	ebb6 0e02 	subs.w	lr, r6, r2
 800095a:	eb75 0e03 	sbcs.w	lr, r5, r3
 800095e:	bf22      	ittt	cs
 8000960:	1ab6      	subcs	r6, r6, r2
 8000962:	4675      	movcs	r5, lr
 8000964:	ea40 00dc 	orrcs.w	r0, r0, ip, lsr #3
 8000968:	ea55 0e06 	orrs.w	lr, r5, r6
 800096c:	d018      	beq.n	80009a0 <__aeabi_ddiv+0x114>
 800096e:	ea4f 1505 	mov.w	r5, r5, lsl #4
 8000972:	ea45 7516 	orr.w	r5, r5, r6, lsr #28
 8000976:	ea4f 1606 	mov.w	r6, r6, lsl #4
 800097a:	ea4f 03c3 	mov.w	r3, r3, lsl #3
 800097e:	ea43 7352 	orr.w	r3, r3, r2, lsr #29
 8000982:	ea4f 02c2 	mov.w	r2, r2, lsl #3
 8000986:	ea5f 1c1c 	movs.w	ip, ip, lsr #4
 800098a:	d1c0      	bne.n	800090e <__aeabi_ddiv+0x82>
 800098c:	f411 1f80 	tst.w	r1, #1048576	; 0x100000
 8000990:	d10b      	bne.n	80009aa <__aeabi_ddiv+0x11e>
 8000992:	ea41 0100 	orr.w	r1, r1, r0
 8000996:	f04f 0000 	mov.w	r0, #0
 800099a:	f04f 4c00 	mov.w	ip, #2147483648	; 0x80000000
 800099e:	e7b6      	b.n	800090e <__aeabi_ddiv+0x82>
 80009a0:	f411 1f80 	tst.w	r1, #1048576	; 0x100000
 80009a4:	bf04      	itt	eq
 80009a6:	4301      	orreq	r1, r0
 80009a8:	2000      	moveq	r0, #0
 80009aa:	f1b4 0cfd 	subs.w	ip, r4, #253	; 0xfd
 80009ae:	bf88      	it	hi
 80009b0:	f5bc 6fe0 	cmphi.w	ip, #1792	; 0x700
 80009b4:	f63f aeaf 	bhi.w	8000716 <__aeabi_dmul+0xde>
 80009b8:	ebb5 0c03 	subs.w	ip, r5, r3
 80009bc:	bf04      	itt	eq
 80009be:	ebb6 0c02 	subseq.w	ip, r6, r2
 80009c2:	ea5f 0c50 	movseq.w	ip, r0, lsr #1
 80009c6:	f150 0000 	adcs.w	r0, r0, #0
 80009ca:	eb41 5104 	adc.w	r1, r1, r4, lsl #20
 80009ce:	bd70      	pop	{r4, r5, r6, pc}
 80009d0:	f00e 4e00 	and.w	lr, lr, #2147483648	; 0x80000000
 80009d4:	ea4e 3111 	orr.w	r1, lr, r1, lsr #12
 80009d8:	eb14 045c 	adds.w	r4, r4, ip, lsr #1
 80009dc:	bfc2      	ittt	gt
 80009de:	ebd4 050c 	rsbsgt	r5, r4, ip
 80009e2:	ea41 5104 	orrgt.w	r1, r1, r4, lsl #20
 80009e6:	bd70      	popgt	{r4, r5, r6, pc}
 80009e8:	f441 1180 	orr.w	r1, r1, #1048576	; 0x100000
 80009ec:	f04f 0e00 	mov.w	lr, #0
 80009f0:	3c01      	subs	r4, #1
 80009f2:	e690      	b.n	8000716 <__aeabi_dmul+0xde>
 80009f4:	ea45 0e06 	orr.w	lr, r5, r6
 80009f8:	e68d      	b.n	8000716 <__aeabi_dmul+0xde>
 80009fa:	ea0c 5513 	and.w	r5, ip, r3, lsr #20
 80009fe:	ea94 0f0c 	teq	r4, ip
 8000a02:	bf08      	it	eq
 8000a04:	ea95 0f0c 	teqeq	r5, ip
 8000a08:	f43f af3b 	beq.w	8000882 <__aeabi_dmul+0x24a>
 8000a0c:	ea94 0f0c 	teq	r4, ip
 8000a10:	d10a      	bne.n	8000a28 <__aeabi_ddiv+0x19c>
 8000a12:	ea50 3401 	orrs.w	r4, r0, r1, lsl #12
 8000a16:	f47f af34 	bne.w	8000882 <__aeabi_dmul+0x24a>
 8000a1a:	ea95 0f0c 	teq	r5, ip
 8000a1e:	f47f af25 	bne.w	800086c <__aeabi_dmul+0x234>
 8000a22:	4610      	mov	r0, r2
 8000a24:	4619      	mov	r1, r3
 8000a26:	e72c      	b.n	8000882 <__aeabi_dmul+0x24a>
 8000a28:	ea95 0f0c 	teq	r5, ip
 8000a2c:	d106      	bne.n	8000a3c <__aeabi_ddiv+0x1b0>
 8000a2e:	ea52 3503 	orrs.w	r5, r2, r3, lsl #12
 8000a32:	f43f aefd 	beq.w	8000830 <__aeabi_dmul+0x1f8>
 8000a36:	4610      	mov	r0, r2
 8000a38:	4619      	mov	r1, r3
 8000a3a:	e722      	b.n	8000882 <__aeabi_dmul+0x24a>
 8000a3c:	ea50 0641 	orrs.w	r6, r0, r1, lsl #1
 8000a40:	bf18      	it	ne
 8000a42:	ea52 0643 	orrsne.w	r6, r2, r3, lsl #1
 8000a46:	f47f aec5 	bne.w	80007d4 <__aeabi_dmul+0x19c>
 8000a4a:	ea50 0441 	orrs.w	r4, r0, r1, lsl #1
 8000a4e:	f47f af0d 	bne.w	800086c <__aeabi_dmul+0x234>
 8000a52:	ea52 0543 	orrs.w	r5, r2, r3, lsl #1
 8000a56:	f47f aeeb 	bne.w	8000830 <__aeabi_dmul+0x1f8>
 8000a5a:	e712      	b.n	8000882 <__aeabi_dmul+0x24a>

08000a5c <__gedf2>:
 8000a5c:	f04f 3cff 	mov.w	ip, #4294967295
 8000a60:	e006      	b.n	8000a70 <__cmpdf2+0x4>
 8000a62:	bf00      	nop

08000a64 <__ledf2>:
 8000a64:	f04f 0c01 	mov.w	ip, #1
 8000a68:	e002      	b.n	8000a70 <__cmpdf2+0x4>
 8000a6a:	bf00      	nop

08000a6c <__cmpdf2>:
 8000a6c:	f04f 0c01 	mov.w	ip, #1
 8000a70:	f84d cd04 	str.w	ip, [sp, #-4]!
 8000a74:	ea4f 0c41 	mov.w	ip, r1, lsl #1
 8000a78:	ea7f 5c6c 	mvns.w	ip, ip, asr #21
 8000a7c:	ea4f 0c43 	mov.w	ip, r3, lsl #1
 8000a80:	bf18      	it	ne
 8000a82:	ea7f 5c6c 	mvnsne.w	ip, ip, asr #21
 8000a86:	d01b      	beq.n	8000ac0 <__cmpdf2+0x54>
 8000a88:	b001      	add	sp, #4
 8000a8a:	ea50 0c41 	orrs.w	ip, r0, r1, lsl #1
 8000a8e:	bf0c      	ite	eq
 8000a90:	ea52 0c43 	orrseq.w	ip, r2, r3, lsl #1
 8000a94:	ea91 0f03 	teqne	r1, r3
 8000a98:	bf02      	ittt	eq
 8000a9a:	ea90 0f02 	teqeq	r0, r2
 8000a9e:	2000      	moveq	r0, #0
 8000aa0:	4770      	bxeq	lr
 8000aa2:	f110 0f00 	cmn.w	r0, #0
 8000aa6:	ea91 0f03 	teq	r1, r3
 8000aaa:	bf58      	it	pl
 8000aac:	4299      	cmppl	r1, r3
 8000aae:	bf08      	it	eq
 8000ab0:	4290      	cmpeq	r0, r2
 8000ab2:	bf2c      	ite	cs
 8000ab4:	17d8      	asrcs	r0, r3, #31
 8000ab6:	ea6f 70e3 	mvncc.w	r0, r3, asr #31
 8000aba:	f040 0001 	orr.w	r0, r0, #1
 8000abe:	4770      	bx	lr
 8000ac0:	ea4f 0c41 	mov.w	ip, r1, lsl #1
 8000ac4:	ea7f 5c6c 	mvns.w	ip, ip, asr #21
 8000ac8:	d102      	bne.n	8000ad0 <__cmpdf2+0x64>
 8000aca:	ea50 3c01 	orrs.w	ip, r0, r1, lsl #12
 8000ace:	d107      	bne.n	8000ae0 <__cmpdf2+0x74>
 8000ad0:	ea4f 0c43 	mov.w	ip, r3, lsl #1
 8000ad4:	ea7f 5c6c 	mvns.w	ip, ip, asr #21
 8000ad8:	d1d6      	bne.n	8000a88 <__cmpdf2+0x1c>
 8000ada:	ea52 3c03 	orrs.w	ip, r2, r3, lsl #12
 8000ade:	d0d3      	beq.n	8000a88 <__cmpdf2+0x1c>
 8000ae0:	f85d 0b04 	ldr.w	r0, [sp], #4
 8000ae4:	4770      	bx	lr
 8000ae6:	bf00      	nop

08000ae8 <__aeabi_cdrcmple>:
 8000ae8:	4684      	mov	ip, r0
 8000aea:	4610      	mov	r0, r2
 8000aec:	4662      	mov	r2, ip
 8000aee:	468c      	mov	ip, r1
 8000af0:	4619      	mov	r1, r3
 8000af2:	4663      	mov	r3, ip
 8000af4:	e000      	b.n	8000af8 <__aeabi_cdcmpeq>
 8000af6:	bf00      	nop

08000af8 <__aeabi_cdcmpeq>:
 8000af8:	b501      	push	{r0, lr}
 8000afa:	f7ff ffb7 	bl	8000a6c <__cmpdf2>
 8000afe:	2800      	cmp	r0, #0
 8000b00:	bf48      	it	mi
 8000b02:	f110 0f00 	cmnmi.w	r0, #0
 8000b06:	bd01      	pop	{r0, pc}

08000b08 <__aeabi_dcmpeq>:
 8000b08:	f84d ed08 	str.w	lr, [sp, #-8]!
 8000b0c:	f7ff fff4 	bl	8000af8 <__aeabi_cdcmpeq>
 8000b10:	bf0c      	ite	eq
 8000b12:	2001      	moveq	r0, #1
 8000b14:	2000      	movne	r0, #0
 8000b16:	f85d fb08 	ldr.w	pc, [sp], #8
 8000b1a:	bf00      	nop

08000b1c <__aeabi_dcmplt>:
 8000b1c:	f84d ed08 	str.w	lr, [sp, #-8]!
 8000b20:	f7ff ffea 	bl	8000af8 <__aeabi_cdcmpeq>
 8000b24:	bf34      	ite	cc
 8000b26:	2001      	movcc	r0, #1
 8000b28:	2000      	movcs	r0, #0
 8000b2a:	f85d fb08 	ldr.w	pc, [sp], #8
 8000b2e:	bf00      	nop

08000b30 <__aeabi_dcmple>:
 8000b30:	f84d ed08 	str.w	lr, [sp, #-8]!
 8000b34:	f7ff ffe0 	bl	8000af8 <__aeabi_cdcmpeq>
 8000b38:	bf94      	ite	ls
 8000b3a:	2001      	movls	r0, #1
 8000b3c:	2000      	movhi	r0, #0
 8000b3e:	f85d fb08 	ldr.w	pc, [sp], #8
 8000b42:	bf00      	nop

08000b44 <__aeabi_dcmpge>:
 8000b44:	f84d ed08 	str.w	lr, [sp, #-8]!
 8000b48:	f7ff ffce 	bl	8000ae8 <__aeabi_cdrcmple>
 8000b4c:	bf94      	ite	ls
 8000b4e:	2001      	movls	r0, #1
 8000b50:	2000      	movhi	r0, #0
 8000b52:	f85d fb08 	ldr.w	pc, [sp], #8
 8000b56:	bf00      	nop

08000b58 <__aeabi_dcmpgt>:
 8000b58:	f84d ed08 	str.w	lr, [sp, #-8]!
 8000b5c:	f7ff ffc4 	bl	8000ae8 <__aeabi_cdrcmple>
 8000b60:	bf34      	ite	cc
 8000b62:	2001      	movcc	r0, #1
 8000b64:	2000      	movcs	r0, #0
 8000b66:	f85d fb08 	ldr.w	pc, [sp], #8
 8000b6a:	bf00      	nop

08000b6c <__aeabi_dcmpun>:
 8000b6c:	ea4f 0c41 	mov.w	ip, r1, lsl #1
 8000b70:	ea7f 5c6c 	mvns.w	ip, ip, asr #21
 8000b74:	d102      	bne.n	8000b7c <__aeabi_dcmpun+0x10>
 8000b76:	ea50 3c01 	orrs.w	ip, r0, r1, lsl #12
 8000b7a:	d10a      	bne.n	8000b92 <__aeabi_dcmpun+0x26>
 8000b7c:	ea4f 0c43 	mov.w	ip, r3, lsl #1
 8000b80:	ea7f 5c6c 	mvns.w	ip, ip, asr #21
 8000b84:	d102      	bne.n	8000b8c <__aeabi_dcmpun+0x20>
 8000b86:	ea52 3c03 	orrs.w	ip, r2, r3, lsl #12
 8000b8a:	d102      	bne.n	8000b92 <__aeabi_dcmpun+0x26>
 8000b8c:	f04f 0000 	mov.w	r0, #0
 8000b90:	4770      	bx	lr
 8000b92:	f04f 0001 	mov.w	r0, #1
 8000b96:	4770      	bx	lr

08000b98 <__aeabi_d2iz>:
 8000b98:	ea4f 0241 	mov.w	r2, r1, lsl #1
 8000b9c:	f512 1200 	adds.w	r2, r2, #2097152	; 0x200000
 8000ba0:	d215      	bcs.n	8000bce <__aeabi_d2iz+0x36>
 8000ba2:	d511      	bpl.n	8000bc8 <__aeabi_d2iz+0x30>
 8000ba4:	f46f 7378 	mvn.w	r3, #992	; 0x3e0
 8000ba8:	ebb3 5262 	subs.w	r2, r3, r2, asr #21
 8000bac:	d912      	bls.n	8000bd4 <__aeabi_d2iz+0x3c>
 8000bae:	ea4f 23c1 	mov.w	r3, r1, lsl #11
 8000bb2:	f043 4300 	orr.w	r3, r3, #2147483648	; 0x80000000
 8000bb6:	ea43 5350 	orr.w	r3, r3, r0, lsr #21
 8000bba:	f011 4f00 	tst.w	r1, #2147483648	; 0x80000000
 8000bbe:	fa23 f002 	lsr.w	r0, r3, r2
 8000bc2:	bf18      	it	ne
 8000bc4:	4240      	negne	r0, r0
 8000bc6:	4770      	bx	lr
 8000bc8:	f04f 0000 	mov.w	r0, #0
 8000bcc:	4770      	bx	lr
 8000bce:	ea50 3001 	orrs.w	r0, r0, r1, lsl #12
 8000bd2:	d105      	bne.n	8000be0 <__aeabi_d2iz+0x48>
 8000bd4:	f011 4000 	ands.w	r0, r1, #2147483648	; 0x80000000
 8000bd8:	bf08      	it	eq
 8000bda:	f06f 4000 	mvneq.w	r0, #2147483648	; 0x80000000
 8000bde:	4770      	bx	lr
 8000be0:	f04f 0000 	mov.w	r0, #0
 8000be4:	4770      	bx	lr
 8000be6:	bf00      	nop

08000be8 <__aeabi_d2uiz>:
 8000be8:	004a      	lsls	r2, r1, #1
 8000bea:	d211      	bcs.n	8000c10 <__aeabi_d2uiz+0x28>
 8000bec:	f512 1200 	adds.w	r2, r2, #2097152	; 0x200000
 8000bf0:	d211      	bcs.n	8000c16 <__aeabi_d2uiz+0x2e>
 8000bf2:	d50d      	bpl.n	8000c10 <__aeabi_d2uiz+0x28>
 8000bf4:	f46f 7378 	mvn.w	r3, #992	; 0x3e0
 8000bf8:	ebb3 5262 	subs.w	r2, r3, r2, asr #21
 8000bfc:	d40e      	bmi.n	8000c1c <__aeabi_d2uiz+0x34>
 8000bfe:	ea4f 23c1 	mov.w	r3, r1, lsl #11
 8000c02:	f043 4300 	orr.w	r3, r3, #2147483648	; 0x80000000
 8000c06:	ea43 5350 	orr.w	r3, r3, r0, lsr #21
 8000c0a:	fa23 f002 	lsr.w	r0, r3, r2
 8000c0e:	4770      	bx	lr
 8000c10:	f04f 0000 	mov.w	r0, #0
 8000c14:	4770      	bx	lr
 8000c16:	ea50 3001 	orrs.w	r0, r0, r1, lsl #12
 8000c1a:	d102      	bne.n	8000c22 <__aeabi_d2uiz+0x3a>
 8000c1c:	f04f 30ff 	mov.w	r0, #4294967295
 8000c20:	4770      	bx	lr
 8000c22:	f04f 0000 	mov.w	r0, #0
 8000c26:	4770      	bx	lr

08000c28 <__aeabi_d2f>:
 8000c28:	ea4f 0241 	mov.w	r2, r1, lsl #1
 8000c2c:	f1b2 43e0 	subs.w	r3, r2, #1879048192	; 0x70000000
 8000c30:	bf24      	itt	cs
 8000c32:	f5b3 1c00 	subscs.w	ip, r3, #2097152	; 0x200000
 8000c36:	f1dc 5cfe 	rsbscs	ip, ip, #532676608	; 0x1fc00000
 8000c3a:	d90d      	bls.n	8000c58 <__aeabi_d2f+0x30>
 8000c3c:	f001 4c00 	and.w	ip, r1, #2147483648	; 0x80000000
 8000c40:	ea4f 02c0 	mov.w	r2, r0, lsl #3
 8000c44:	ea4c 7050 	orr.w	r0, ip, r0, lsr #29
 8000c48:	f1b2 4f00 	cmp.w	r2, #2147483648	; 0x80000000
 8000c4c:	eb40 0083 	adc.w	r0, r0, r3, lsl #2
 8000c50:	bf08      	it	eq
 8000c52:	f020 0001 	biceq.w	r0, r0, #1
 8000c56:	4770      	bx	lr
 8000c58:	f011 4f80 	tst.w	r1, #1073741824	; 0x40000000
 8000c5c:	d121      	bne.n	8000ca2 <__aeabi_d2f+0x7a>
 8000c5e:	f113 7238 	adds.w	r2, r3, #48234496	; 0x2e00000
 8000c62:	bfbc      	itt	lt
 8000c64:	f001 4000 	andlt.w	r0, r1, #2147483648	; 0x80000000
 8000c68:	4770      	bxlt	lr
 8000c6a:	f441 1180 	orr.w	r1, r1, #1048576	; 0x100000
 8000c6e:	ea4f 5252 	mov.w	r2, r2, lsr #21
 8000c72:	f1c2 0218 	rsb	r2, r2, #24
 8000c76:	f1c2 0c20 	rsb	ip, r2, #32
 8000c7a:	fa10 f30c 	lsls.w	r3, r0, ip
 8000c7e:	fa20 f002 	lsr.w	r0, r0, r2
 8000c82:	bf18      	it	ne
 8000c84:	f040 0001 	orrne.w	r0, r0, #1
 8000c88:	ea4f 23c1 	mov.w	r3, r1, lsl #11
 8000c8c:	ea4f 23d3 	mov.w	r3, r3, lsr #11
 8000c90:	fa03 fc0c 	lsl.w	ip, r3, ip
 8000c94:	ea40 000c 	orr.w	r0, r0, ip
 8000c98:	fa23 f302 	lsr.w	r3, r3, r2
 8000c9c:	ea4f 0343 	mov.w	r3, r3, lsl #1
 8000ca0:	e7cc      	b.n	8000c3c <__aeabi_d2f+0x14>
 8000ca2:	ea7f 5362 	mvns.w	r3, r2, asr #21
 8000ca6:	d107      	bne.n	8000cb8 <__aeabi_d2f+0x90>
 8000ca8:	ea50 3301 	orrs.w	r3, r0, r1, lsl #12
 8000cac:	bf1e      	ittt	ne
 8000cae:	f04f 40fe 	movne.w	r0, #2130706432	; 0x7f000000
 8000cb2:	f440 0040 	orrne.w	r0, r0, #12582912	; 0xc00000
 8000cb6:	4770      	bxne	lr
 8000cb8:	f001 4000 	and.w	r0, r1, #2147483648	; 0x80000000
 8000cbc:	f040 40fe 	orr.w	r0, r0, #2130706432	; 0x7f000000
 8000cc0:	f440 0000 	orr.w	r0, r0, #8388608	; 0x800000
 8000cc4:	4770      	bx	lr
 8000cc6:	bf00      	nop

08000cc8 <__aeabi_uldivmod>:
 8000cc8:	b953      	cbnz	r3, 8000ce0 <__aeabi_uldivmod+0x18>
 8000cca:	b94a      	cbnz	r2, 8000ce0 <__aeabi_uldivmod+0x18>
 8000ccc:	2900      	cmp	r1, #0
 8000cce:	bf08      	it	eq
 8000cd0:	2800      	cmpeq	r0, #0
 8000cd2:	bf1c      	itt	ne
 8000cd4:	f04f 31ff 	movne.w	r1, #4294967295
 8000cd8:	f04f 30ff 	movne.w	r0, #4294967295
 8000cdc:	f000 b972 	b.w	8000fc4 <__aeabi_idiv0>
 8000ce0:	f1ad 0c08 	sub.w	ip, sp, #8
 8000ce4:	e96d ce04 	strd	ip, lr, [sp, #-16]!
 8000ce8:	f000 f806 	bl	8000cf8 <__udivmoddi4>
 8000cec:	f8dd e004 	ldr.w	lr, [sp, #4]
 8000cf0:	e9dd 2302 	ldrd	r2, r3, [sp, #8]
 8000cf4:	b004      	add	sp, #16
 8000cf6:	4770      	bx	lr

08000cf8 <__udivmoddi4>:
 8000cf8:	e92d 47f0 	stmdb	sp!, {r4, r5, r6, r7, r8, r9, sl, lr}
 8000cfc:	9e08      	ldr	r6, [sp, #32]
 8000cfe:	4604      	mov	r4, r0
 8000d00:	4688      	mov	r8, r1
 8000d02:	2b00      	cmp	r3, #0
 8000d04:	d14b      	bne.n	8000d9e <__udivmoddi4+0xa6>
 8000d06:	428a      	cmp	r2, r1
 8000d08:	4615      	mov	r5, r2
 8000d0a:	d967      	bls.n	8000ddc <__udivmoddi4+0xe4>
 8000d0c:	fab2 f282 	clz	r2, r2
 8000d10:	b14a      	cbz	r2, 8000d26 <__udivmoddi4+0x2e>
 8000d12:	f1c2 0720 	rsb	r7, r2, #32
 8000d16:	fa01 f302 	lsl.w	r3, r1, r2
 8000d1a:	fa20 f707 	lsr.w	r7, r0, r7
 8000d1e:	4095      	lsls	r5, r2
 8000d20:	ea47 0803 	orr.w	r8, r7, r3
 8000d24:	4094      	lsls	r4, r2
 8000d26:	ea4f 4e15 	mov.w	lr, r5, lsr #16
 8000d2a:	0c23      	lsrs	r3, r4, #16
 8000d2c:	fbb8 f7fe 	udiv	r7, r8, lr
 8000d30:	fa1f fc85 	uxth.w	ip, r5
 8000d34:	fb0e 8817 	mls	r8, lr, r7, r8
 8000d38:	ea43 4308 	orr.w	r3, r3, r8, lsl #16
 8000d3c:	fb07 f10c 	mul.w	r1, r7, ip
 8000d40:	4299      	cmp	r1, r3
 8000d42:	d909      	bls.n	8000d58 <__udivmoddi4+0x60>
 8000d44:	18eb      	adds	r3, r5, r3
 8000d46:	f107 30ff 	add.w	r0, r7, #4294967295
 8000d4a:	f080 811b 	bcs.w	8000f84 <__udivmoddi4+0x28c>
 8000d4e:	4299      	cmp	r1, r3
 8000d50:	f240 8118 	bls.w	8000f84 <__udivmoddi4+0x28c>
 8000d54:	3f02      	subs	r7, #2
 8000d56:	442b      	add	r3, r5
 8000d58:	1a5b      	subs	r3, r3, r1
 8000d5a:	b2a4      	uxth	r4, r4
 8000d5c:	fbb3 f0fe 	udiv	r0, r3, lr
 8000d60:	fb0e 3310 	mls	r3, lr, r0, r3
 8000d64:	ea44 4403 	orr.w	r4, r4, r3, lsl #16
 8000d68:	fb00 fc0c 	mul.w	ip, r0, ip
 8000d6c:	45a4      	cmp	ip, r4
 8000d6e:	d909      	bls.n	8000d84 <__udivmoddi4+0x8c>
 8000d70:	192c      	adds	r4, r5, r4
 8000d72:	f100 33ff 	add.w	r3, r0, #4294967295
 8000d76:	f080 8107 	bcs.w	8000f88 <__udivmoddi4+0x290>
 8000d7a:	45a4      	cmp	ip, r4
 8000d7c:	f240 8104 	bls.w	8000f88 <__udivmoddi4+0x290>
 8000d80:	3802      	subs	r0, #2
 8000d82:	442c      	add	r4, r5
 8000d84:	ea40 4007 	orr.w	r0, r0, r7, lsl #16
 8000d88:	eba4 040c 	sub.w	r4, r4, ip
 8000d8c:	2700      	movs	r7, #0
 8000d8e:	b11e      	cbz	r6, 8000d98 <__udivmoddi4+0xa0>
 8000d90:	40d4      	lsrs	r4, r2
 8000d92:	2300      	movs	r3, #0
 8000d94:	e9c6 4300 	strd	r4, r3, [r6]
 8000d98:	4639      	mov	r1, r7
 8000d9a:	e8bd 87f0 	ldmia.w	sp!, {r4, r5, r6, r7, r8, r9, sl, pc}
 8000d9e:	428b      	cmp	r3, r1
 8000da0:	d909      	bls.n	8000db6 <__udivmoddi4+0xbe>
 8000da2:	2e00      	cmp	r6, #0
 8000da4:	f000 80eb 	beq.w	8000f7e <__udivmoddi4+0x286>
 8000da8:	2700      	movs	r7, #0
 8000daa:	e9c6 0100 	strd	r0, r1, [r6]
 8000dae:	4638      	mov	r0, r7
 8000db0:	4639      	mov	r1, r7
 8000db2:	e8bd 87f0 	ldmia.w	sp!, {r4, r5, r6, r7, r8, r9, sl, pc}
 8000db6:	fab3 f783 	clz	r7, r3
 8000dba:	2f00      	cmp	r7, #0
 8000dbc:	d147      	bne.n	8000e4e <__udivmoddi4+0x156>
 8000dbe:	428b      	cmp	r3, r1
 8000dc0:	d302      	bcc.n	8000dc8 <__udivmoddi4+0xd0>
 8000dc2:	4282      	cmp	r2, r0
 8000dc4:	f200 80fa 	bhi.w	8000fbc <__udivmoddi4+0x2c4>
 8000dc8:	1a84      	subs	r4, r0, r2
 8000dca:	eb61 0303 	sbc.w	r3, r1, r3
 8000dce:	2001      	movs	r0, #1
 8000dd0:	4698      	mov	r8, r3
 8000dd2:	2e00      	cmp	r6, #0
 8000dd4:	d0e0      	beq.n	8000d98 <__udivmoddi4+0xa0>
 8000dd6:	e9c6 4800 	strd	r4, r8, [r6]
 8000dda:	e7dd      	b.n	8000d98 <__udivmoddi4+0xa0>
 8000ddc:	b902      	cbnz	r2, 8000de0 <__udivmoddi4+0xe8>
 8000dde:	deff      	udf	#255	; 0xff
 8000de0:	fab2 f282 	clz	r2, r2
 8000de4:	2a00      	cmp	r2, #0
 8000de6:	f040 808f 	bne.w	8000f08 <__udivmoddi4+0x210>
 8000dea:	1b49      	subs	r1, r1, r5
 8000dec:	ea4f 4e15 	mov.w	lr, r5, lsr #16
 8000df0:	fa1f f885 	uxth.w	r8, r5
 8000df4:	2701      	movs	r7, #1
 8000df6:	fbb1 fcfe 	udiv	ip, r1, lr
 8000dfa:	0c23      	lsrs	r3, r4, #16
 8000dfc:	fb0e 111c 	mls	r1, lr, ip, r1
 8000e00:	ea43 4301 	orr.w	r3, r3, r1, lsl #16
 8000e04:	fb08 f10c 	mul.w	r1, r8, ip
 8000e08:	4299      	cmp	r1, r3
 8000e0a:	d907      	bls.n	8000e1c <__udivmoddi4+0x124>
 8000e0c:	18eb      	adds	r3, r5, r3
 8000e0e:	f10c 30ff 	add.w	r0, ip, #4294967295
 8000e12:	d202      	bcs.n	8000e1a <__udivmoddi4+0x122>
 8000e14:	4299      	cmp	r1, r3
 8000e16:	f200 80cd 	bhi.w	8000fb4 <__udivmoddi4+0x2bc>
 8000e1a:	4684      	mov	ip, r0
 8000e1c:	1a59      	subs	r1, r3, r1
 8000e1e:	b2a3      	uxth	r3, r4
 8000e20:	fbb1 f0fe 	udiv	r0, r1, lr
 8000e24:	fb0e 1410 	mls	r4, lr, r0, r1
 8000e28:	ea43 4404 	orr.w	r4, r3, r4, lsl #16
 8000e2c:	fb08 f800 	mul.w	r8, r8, r0
 8000e30:	45a0      	cmp	r8, r4
 8000e32:	d907      	bls.n	8000e44 <__udivmoddi4+0x14c>
 8000e34:	192c      	adds	r4, r5, r4
 8000e36:	f100 33ff 	add.w	r3, r0, #4294967295
 8000e3a:	d202      	bcs.n	8000e42 <__udivmoddi4+0x14a>
 8000e3c:	45a0      	cmp	r8, r4
 8000e3e:	f200 80b6 	bhi.w	8000fae <__udivmoddi4+0x2b6>
 8000e42:	4618      	mov	r0, r3
 8000e44:	eba4 0408 	sub.w	r4, r4, r8
 8000e48:	ea40 400c 	orr.w	r0, r0, ip, lsl #16
 8000e4c:	e79f      	b.n	8000d8e <__udivmoddi4+0x96>
 8000e4e:	f1c7 0c20 	rsb	ip, r7, #32
 8000e52:	40bb      	lsls	r3, r7
 8000e54:	fa22 fe0c 	lsr.w	lr, r2, ip
 8000e58:	ea4e 0e03 	orr.w	lr, lr, r3
 8000e5c:	fa01 f407 	lsl.w	r4, r1, r7
 8000e60:	fa20 f50c 	lsr.w	r5, r0, ip
 8000e64:	fa21 f30c 	lsr.w	r3, r1, ip
 8000e68:	ea4f 481e 	mov.w	r8, lr, lsr #16
 8000e6c:	4325      	orrs	r5, r4
 8000e6e:	fbb3 f9f8 	udiv	r9, r3, r8
 8000e72:	0c2c      	lsrs	r4, r5, #16
 8000e74:	fb08 3319 	mls	r3, r8, r9, r3
 8000e78:	fa1f fa8e 	uxth.w	sl, lr
 8000e7c:	ea44 4303 	orr.w	r3, r4, r3, lsl #16
 8000e80:	fb09 f40a 	mul.w	r4, r9, sl
 8000e84:	429c      	cmp	r4, r3
 8000e86:	fa02 f207 	lsl.w	r2, r2, r7
 8000e8a:	fa00 f107 	lsl.w	r1, r0, r7
 8000e8e:	d90b      	bls.n	8000ea8 <__udivmoddi4+0x1b0>
 8000e90:	eb1e 0303 	adds.w	r3, lr, r3
 8000e94:	f109 30ff 	add.w	r0, r9, #4294967295
 8000e98:	f080 8087 	bcs.w	8000faa <__udivmoddi4+0x2b2>
 8000e9c:	429c      	cmp	r4, r3
 8000e9e:	f240 8084 	bls.w	8000faa <__udivmoddi4+0x2b2>
 8000ea2:	f1a9 0902 	sub.w	r9, r9, #2
 8000ea6:	4473      	add	r3, lr
 8000ea8:	1b1b      	subs	r3, r3, r4
 8000eaa:	b2ad      	uxth	r5, r5
 8000eac:	fbb3 f0f8 	udiv	r0, r3, r8
 8000eb0:	fb08 3310 	mls	r3, r8, r0, r3
 8000eb4:	ea45 4403 	orr.w	r4, r5, r3, lsl #16
 8000eb8:	fb00 fa0a 	mul.w	sl, r0, sl
 8000ebc:	45a2      	cmp	sl, r4
 8000ebe:	d908      	bls.n	8000ed2 <__udivmoddi4+0x1da>
 8000ec0:	eb1e 0404 	adds.w	r4, lr, r4
 8000ec4:	f100 33ff 	add.w	r3, r0, #4294967295
 8000ec8:	d26b      	bcs.n	8000fa2 <__udivmoddi4+0x2aa>
 8000eca:	45a2      	cmp	sl, r4
 8000ecc:	d969      	bls.n	8000fa2 <__udivmoddi4+0x2aa>
 8000ece:	3802      	subs	r0, #2
 8000ed0:	4474      	add	r4, lr
 8000ed2:	ea40 4009 	orr.w	r0, r0, r9, lsl #16
 8000ed6:	fba0 8902 	umull	r8, r9, r0, r2
 8000eda:	eba4 040a 	sub.w	r4, r4, sl
 8000ede:	454c      	cmp	r4, r9
 8000ee0:	46c2      	mov	sl, r8
 8000ee2:	464b      	mov	r3, r9
 8000ee4:	d354      	bcc.n	8000f90 <__udivmoddi4+0x298>
 8000ee6:	d051      	beq.n	8000f8c <__udivmoddi4+0x294>
 8000ee8:	2e00      	cmp	r6, #0
 8000eea:	d069      	beq.n	8000fc0 <__udivmoddi4+0x2c8>
 8000eec:	ebb1 050a 	subs.w	r5, r1, sl
 8000ef0:	eb64 0403 	sbc.w	r4, r4, r3
 8000ef4:	fa04 fc0c 	lsl.w	ip, r4, ip
 8000ef8:	40fd      	lsrs	r5, r7
 8000efa:	40fc      	lsrs	r4, r7
 8000efc:	ea4c 0505 	orr.w	r5, ip, r5
 8000f00:	e9c6 5400 	strd	r5, r4, [r6]
 8000f04:	2700      	movs	r7, #0
 8000f06:	e747      	b.n	8000d98 <__udivmoddi4+0xa0>
 8000f08:	f1c2 0320 	rsb	r3, r2, #32
 8000f0c:	fa20 f703 	lsr.w	r7, r0, r3
 8000f10:	4095      	lsls	r5, r2
 8000f12:	fa01 f002 	lsl.w	r0, r1, r2
 8000f16:	fa21 f303 	lsr.w	r3, r1, r3
 8000f1a:	ea4f 4e15 	mov.w	lr, r5, lsr #16
 8000f1e:	4338      	orrs	r0, r7
 8000f20:	0c01      	lsrs	r1, r0, #16
 8000f22:	fbb3 f7fe 	udiv	r7, r3, lr
 8000f26:	fa1f f885 	uxth.w	r8, r5
 8000f2a:	fb0e 3317 	mls	r3, lr, r7, r3
 8000f2e:	ea41 4103 	orr.w	r1, r1, r3, lsl #16
 8000f32:	fb07 f308 	mul.w	r3, r7, r8
 8000f36:	428b      	cmp	r3, r1
 8000f38:	fa04 f402 	lsl.w	r4, r4, r2
 8000f3c:	d907      	bls.n	8000f4e <__udivmoddi4+0x256>
 8000f3e:	1869      	adds	r1, r5, r1
 8000f40:	f107 3cff 	add.w	ip, r7, #4294967295
 8000f44:	d22f      	bcs.n	8000fa6 <__udivmoddi4+0x2ae>
 8000f46:	428b      	cmp	r3, r1
 8000f48:	d92d      	bls.n	8000fa6 <__udivmoddi4+0x2ae>
 8000f4a:	3f02      	subs	r7, #2
 8000f4c:	4429      	add	r1, r5
 8000f4e:	1acb      	subs	r3, r1, r3
 8000f50:	b281      	uxth	r1, r0
 8000f52:	fbb3 f0fe 	udiv	r0, r3, lr
 8000f56:	fb0e 3310 	mls	r3, lr, r0, r3
 8000f5a:	ea41 4103 	orr.w	r1, r1, r3, lsl #16
 8000f5e:	fb00 f308 	mul.w	r3, r0, r8
 8000f62:	428b      	cmp	r3, r1
 8000f64:	d907      	bls.n	8000f76 <__udivmoddi4+0x27e>
 8000f66:	1869      	adds	r1, r5, r1
 8000f68:	f100 3cff 	add.w	ip, r0, #4294967295
 8000f6c:	d217      	bcs.n	8000f9e <__udivmoddi4+0x2a6>
 8000f6e:	428b      	cmp	r3, r1
 8000f70:	d915      	bls.n	8000f9e <__udivmoddi4+0x2a6>
 8000f72:	3802      	subs	r0, #2
 8000f74:	4429      	add	r1, r5
 8000f76:	1ac9      	subs	r1, r1, r3
 8000f78:	ea40 4707 	orr.w	r7, r0, r7, lsl #16
 8000f7c:	e73b      	b.n	8000df6 <__udivmoddi4+0xfe>
 8000f7e:	4637      	mov	r7, r6
 8000f80:	4630      	mov	r0, r6
 8000f82:	e709      	b.n	8000d98 <__udivmoddi4+0xa0>
 8000f84:	4607      	mov	r7, r0
 8000f86:	e6e7      	b.n	8000d58 <__udivmoddi4+0x60>
 8000f88:	4618      	mov	r0, r3
 8000f8a:	e6fb      	b.n	8000d84 <__udivmoddi4+0x8c>
 8000f8c:	4541      	cmp	r1, r8
 8000f8e:	d2ab      	bcs.n	8000ee8 <__udivmoddi4+0x1f0>
 8000f90:	ebb8 0a02 	subs.w	sl, r8, r2
 8000f94:	eb69 020e 	sbc.w	r2, r9, lr
 8000f98:	3801      	subs	r0, #1
 8000f9a:	4613      	mov	r3, r2
 8000f9c:	e7a4      	b.n	8000ee8 <__udivmoddi4+0x1f0>
 8000f9e:	4660      	mov	r0, ip
 8000fa0:	e7e9      	b.n	8000f76 <__udivmoddi4+0x27e>
 8000fa2:	4618      	mov	r0, r3
 8000fa4:	e795      	b.n	8000ed2 <__udivmoddi4+0x1da>
 8000fa6:	4667      	mov	r7, ip
 8000fa8:	e7d1      	b.n	8000f4e <__udivmoddi4+0x256>
 8000faa:	4681      	mov	r9, r0
 8000fac:	e77c      	b.n	8000ea8 <__udivmoddi4+0x1b0>
 8000fae:	3802      	subs	r0, #2
 8000fb0:	442c      	add	r4, r5
 8000fb2:	e747      	b.n	8000e44 <__udivmoddi4+0x14c>
 8000fb4:	f1ac 0c02 	sub.w	ip, ip, #2
 8000fb8:	442b      	add	r3, r5
 8000fba:	e72f      	b.n	8000e1c <__udivmoddi4+0x124>
 8000fbc:	4638      	mov	r0, r7
 8000fbe:	e708      	b.n	8000dd2 <__udivmoddi4+0xda>
 8000fc0:	4637      	mov	r7, r6
 8000fc2:	e6e9      	b.n	8000d98 <__udivmoddi4+0xa0>

08000fc4 <__aeabi_idiv0>:
 8000fc4:	4770      	bx	lr
 8000fc6:	bf00      	nop

08000fc8 <MX_ADC1_Init>:
 8000fc8:	b510      	push	{r4, lr}
 8000fca:	2210      	movs	r2, #16
 8000fcc:	2400      	movs	r4, #0
 8000fce:	b088      	sub	sp, #32
 8000fd0:	4621      	mov	r1, r4
 8000fd2:	eb0d 0002 	add.w	r0, sp, r2
 8000fd6:	e9cd 4401 	strd	r4, r4, [sp, #4]
 8000fda:	9403      	str	r4, [sp, #12]
 8000fdc:	f006 fa8f 	bl	80074fe <memset>
 8000fe0:	4819      	ldr	r0, [pc, #100]	; (8001048 <MX_ADC1_Init+0x80>)
 8000fe2:	491a      	ldr	r1, [pc, #104]	; (800104c <MX_ADC1_Init+0x84>)
 8000fe4:	6084      	str	r4, [r0, #8]
 8000fe6:	f44f 3380 	mov.w	r3, #65536	; 0x10000
 8000fea:	e9c0 1300 	strd	r1, r3, [r0]
 8000fee:	4b18      	ldr	r3, [pc, #96]	; (8001050 <MX_ADC1_Init+0x88>)
 8000ff0:	6283      	str	r3, [r0, #40]	; 0x28
 8000ff2:	2301      	movs	r3, #1
 8000ff4:	6104      	str	r4, [r0, #16]
 8000ff6:	7604      	strb	r4, [r0, #24]
 8000ff8:	f880 4020 	strb.w	r4, [r0, #32]
 8000ffc:	62c4      	str	r4, [r0, #44]	; 0x2c
 8000ffe:	60c4      	str	r4, [r0, #12]
 8001000:	61c3      	str	r3, [r0, #28]
 8001002:	f880 4030 	strb.w	r4, [r0, #48]	; 0x30
 8001006:	6143      	str	r3, [r0, #20]
 8001008:	f002 fef2 	bl	8003df0 <HAL_ADC_Init>
 800100c:	b108      	cbz	r0, 8001012 <MX_ADC1_Init+0x4a>
 800100e:	f002 f86f 	bl	80030f0 <Error_Handler>
 8001012:	2316      	movs	r3, #22
 8001014:	a901      	add	r1, sp, #4
 8001016:	480c      	ldr	r0, [pc, #48]	; (8001048 <MX_ADC1_Init+0x80>)
 8001018:	9403      	str	r4, [sp, #12]
 800101a:	e9cd 3401 	strd	r3, r4, [sp, #4]
 800101e:	f003 f8f5 	bl	800420c <HAL_ADCEx_MultiModeConfigChannel>
 8001022:	b108      	cbz	r0, 8001028 <MX_ADC1_Init+0x60>
 8001024:	f002 f864 	bl	80030f0 <Error_Handler>
 8001028:	2301      	movs	r3, #1
 800102a:	220a      	movs	r2, #10
 800102c:	e9cd 2304 	strd	r2, r3, [sp, #16]
 8001030:	a904      	add	r1, sp, #16
 8001032:	2300      	movs	r3, #0
 8001034:	4804      	ldr	r0, [pc, #16]	; (8001048 <MX_ADC1_Init+0x80>)
 8001036:	9306      	str	r3, [sp, #24]
 8001038:	f003 f84a 	bl	80040d0 <HAL_ADC_ConfigChannel>
 800103c:	b108      	cbz	r0, 8001042 <MX_ADC1_Init+0x7a>
 800103e:	f002 f857 	bl	80030f0 <Error_Handler>
 8001042:	b008      	add	sp, #32
 8001044:	bd10      	pop	{r4, pc}
 8001046:	bf00      	nop
 8001048:	20000a5c 	.word	0x20000a5c
 800104c:	40012000 	.word	0x40012000
 8001050:	0f000001 	.word	0x0f000001

08001054 <MX_ADC2_Init>:
 8001054:	b51f      	push	{r0, r1, r2, r3, r4, lr}
 8001056:	2210      	movs	r2, #16
 8001058:	2100      	movs	r1, #0
 800105a:	4668      	mov	r0, sp
 800105c:	f006 fa4f 	bl	80074fe <memset>
 8001060:	4812      	ldr	r0, [pc, #72]	; (80010ac <MX_ADC2_Init+0x58>)
 8001062:	4a13      	ldr	r2, [pc, #76]	; (80010b0 <MX_ADC2_Init+0x5c>)
 8001064:	f44f 3380 	mov.w	r3, #65536	; 0x10000
 8001068:	2401      	movs	r4, #1
 800106a:	e9c0 2300 	strd	r2, r3, [r0]
 800106e:	2300      	movs	r3, #0
 8001070:	6083      	str	r3, [r0, #8]
 8001072:	6103      	str	r3, [r0, #16]
 8001074:	7603      	strb	r3, [r0, #24]
 8001076:	f880 3020 	strb.w	r3, [r0, #32]
 800107a:	60c3      	str	r3, [r0, #12]
 800107c:	61c4      	str	r4, [r0, #28]
 800107e:	f880 3030 	strb.w	r3, [r0, #48]	; 0x30
 8001082:	6144      	str	r4, [r0, #20]
 8001084:	f002 feb4 	bl	8003df0 <HAL_ADC_Init>
 8001088:	b108      	cbz	r0, 800108e <MX_ADC2_Init+0x3a>
 800108a:	f002 f831 	bl	80030f0 <Error_Handler>
 800108e:	230b      	movs	r3, #11
 8001090:	e9cd 3400 	strd	r3, r4, [sp]
 8001094:	4669      	mov	r1, sp
 8001096:	2300      	movs	r3, #0
 8001098:	4804      	ldr	r0, [pc, #16]	; (80010ac <MX_ADC2_Init+0x58>)
 800109a:	9302      	str	r3, [sp, #8]
 800109c:	f003 f818 	bl	80040d0 <HAL_ADC_ConfigChannel>
 80010a0:	b108      	cbz	r0, 80010a6 <MX_ADC2_Init+0x52>
 80010a2:	f002 f825 	bl	80030f0 <Error_Handler>
 80010a6:	b004      	add	sp, #16
 80010a8:	bd10      	pop	{r4, pc}
 80010aa:	bf00      	nop
 80010ac:	20000a14 	.word	0x20000a14
 80010b0:	40012100 	.word	0x40012100

080010b4 <MX_ADC3_Init>:
 80010b4:	b530      	push	{r4, r5, lr}
 80010b6:	b085      	sub	sp, #20
 80010b8:	2210      	movs	r2, #16
 80010ba:	2100      	movs	r1, #0
 80010bc:	4668      	mov	r0, sp
 80010be:	f006 fa1e 	bl	80074fe <memset>
 80010c2:	4811      	ldr	r0, [pc, #68]	; (8001108 <MX_ADC3_Init+0x54>)
 80010c4:	4a11      	ldr	r2, [pc, #68]	; (800110c <MX_ADC3_Init+0x58>)
 80010c6:	2400      	movs	r4, #0
 80010c8:	2501      	movs	r5, #1
 80010ca:	f44f 3380 	mov.w	r3, #65536	; 0x10000
 80010ce:	e9c0 2300 	strd	r2, r3, [r0]
 80010d2:	6084      	str	r4, [r0, #8]
 80010d4:	6104      	str	r4, [r0, #16]
 80010d6:	7604      	strb	r4, [r0, #24]
 80010d8:	f880 4020 	strb.w	r4, [r0, #32]
 80010dc:	60c4      	str	r4, [r0, #12]
 80010de:	61c5      	str	r5, [r0, #28]
 80010e0:	f880 4030 	strb.w	r4, [r0, #48]	; 0x30
 80010e4:	6145      	str	r5, [r0, #20]
 80010e6:	f002 fe83 	bl	8003df0 <HAL_ADC_Init>
 80010ea:	b108      	cbz	r0, 80010f0 <MX_ADC3_Init+0x3c>
 80010ec:	f002 f800 	bl	80030f0 <Error_Handler>
 80010f0:	4669      	mov	r1, sp
 80010f2:	4805      	ldr	r0, [pc, #20]	; (8001108 <MX_ADC3_Init+0x54>)
 80010f4:	9402      	str	r4, [sp, #8]
 80010f6:	e9cd 4500 	strd	r4, r5, [sp]
 80010fa:	f002 ffe9 	bl	80040d0 <HAL_ADC_ConfigChannel>
 80010fe:	b108      	cbz	r0, 8001104 <MX_ADC3_Init+0x50>
 8001100:	f001 fff6 	bl	80030f0 <Error_Handler>
 8001104:	b005      	add	sp, #20
 8001106:	bd30      	pop	{r4, r5, pc}
 8001108:	20000aa4 	.word	0x20000aa4
 800110c:	40012200 	.word	0x40012200

08001110 <HAL_ADC_MspInit>:
 8001110:	b510      	push	{r4, lr}
 8001112:	4604      	mov	r4, r0
 8001114:	b08c      	sub	sp, #48	; 0x30
 8001116:	2214      	movs	r2, #20
 8001118:	2100      	movs	r1, #0
 800111a:	a807      	add	r0, sp, #28
 800111c:	f006 f9ef 	bl	80074fe <memset>
 8001120:	6823      	ldr	r3, [r4, #0]
 8001122:	4a2f      	ldr	r2, [pc, #188]	; (80011e0 <HAL_ADC_MspInit+0xd0>)
 8001124:	4293      	cmp	r3, r2
 8001126:	d11f      	bne.n	8001168 <HAL_ADC_MspInit+0x58>
 8001128:	4b2e      	ldr	r3, [pc, #184]	; (80011e4 <HAL_ADC_MspInit+0xd4>)
 800112a:	2100      	movs	r1, #0
 800112c:	9101      	str	r1, [sp, #4]
 800112e:	6c5a      	ldr	r2, [r3, #68]	; 0x44
 8001130:	f442 7280 	orr.w	r2, r2, #256	; 0x100
 8001134:	645a      	str	r2, [r3, #68]	; 0x44
 8001136:	6c5a      	ldr	r2, [r3, #68]	; 0x44
 8001138:	f402 7280 	and.w	r2, r2, #256	; 0x100
 800113c:	9201      	str	r2, [sp, #4]
 800113e:	9a01      	ldr	r2, [sp, #4]
 8001140:	9102      	str	r1, [sp, #8]
 8001142:	6b1a      	ldr	r2, [r3, #48]	; 0x30
 8001144:	f042 0204 	orr.w	r2, r2, #4
 8001148:	631a      	str	r2, [r3, #48]	; 0x30
 800114a:	6b1b      	ldr	r3, [r3, #48]	; 0x30
 800114c:	f003 0304 	and.w	r3, r3, #4
 8001150:	9302      	str	r3, [sp, #8]
 8001152:	9b02      	ldr	r3, [sp, #8]
 8001154:	2301      	movs	r3, #1
 8001156:	9307      	str	r3, [sp, #28]
 8001158:	4823      	ldr	r0, [pc, #140]	; (80011e8 <HAL_ADC_MspInit+0xd8>)
 800115a:	2303      	movs	r3, #3
 800115c:	9308      	str	r3, [sp, #32]
 800115e:	a907      	add	r1, sp, #28
 8001160:	f003 fbf2 	bl	8004948 <HAL_GPIO_Init>
 8001164:	b00c      	add	sp, #48	; 0x30
 8001166:	bd10      	pop	{r4, pc}
 8001168:	4a20      	ldr	r2, [pc, #128]	; (80011ec <HAL_ADC_MspInit+0xdc>)
 800116a:	4293      	cmp	r3, r2
 800116c:	d117      	bne.n	800119e <HAL_ADC_MspInit+0x8e>
 800116e:	4b1d      	ldr	r3, [pc, #116]	; (80011e4 <HAL_ADC_MspInit+0xd4>)
 8001170:	2100      	movs	r1, #0
 8001172:	9103      	str	r1, [sp, #12]
 8001174:	6c5a      	ldr	r2, [r3, #68]	; 0x44
 8001176:	f442 7200 	orr.w	r2, r2, #512	; 0x200
 800117a:	645a      	str	r2, [r3, #68]	; 0x44
 800117c:	6c5a      	ldr	r2, [r3, #68]	; 0x44
 800117e:	f402 7200 	and.w	r2, r2, #512	; 0x200
 8001182:	9203      	str	r2, [sp, #12]
 8001184:	9a03      	ldr	r2, [sp, #12]
 8001186:	9104      	str	r1, [sp, #16]
 8001188:	6b1a      	ldr	r2, [r3, #48]	; 0x30
 800118a:	f042 0204 	orr.w	r2, r2, #4
 800118e:	631a      	str	r2, [r3, #48]	; 0x30
 8001190:	6b1b      	ldr	r3, [r3, #48]	; 0x30
 8001192:	f003 0304 	and.w	r3, r3, #4
 8001196:	9304      	str	r3, [sp, #16]
 8001198:	9b04      	ldr	r3, [sp, #16]
 800119a:	2302      	movs	r3, #2
 800119c:	e7db      	b.n	8001156 <HAL_ADC_MspInit+0x46>
 800119e:	4a14      	ldr	r2, [pc, #80]	; (80011f0 <HAL_ADC_MspInit+0xe0>)
 80011a0:	4293      	cmp	r3, r2
 80011a2:	d1df      	bne.n	8001164 <HAL_ADC_MspInit+0x54>
 80011a4:	4b0f      	ldr	r3, [pc, #60]	; (80011e4 <HAL_ADC_MspInit+0xd4>)
 80011a6:	4813      	ldr	r0, [pc, #76]	; (80011f4 <HAL_ADC_MspInit+0xe4>)
 80011a8:	2100      	movs	r1, #0
 80011aa:	9105      	str	r1, [sp, #20]
 80011ac:	6c5a      	ldr	r2, [r3, #68]	; 0x44
 80011ae:	f442 6280 	orr.w	r2, r2, #1024	; 0x400
 80011b2:	645a      	str	r2, [r3, #68]	; 0x44
 80011b4:	6c5a      	ldr	r2, [r3, #68]	; 0x44
 80011b6:	f402 6280 	and.w	r2, r2, #1024	; 0x400
 80011ba:	9205      	str	r2, [sp, #20]
 80011bc:	9a05      	ldr	r2, [sp, #20]
 80011be:	9106      	str	r1, [sp, #24]
 80011c0:	6b1a      	ldr	r2, [r3, #48]	; 0x30
 80011c2:	f042 0201 	orr.w	r2, r2, #1
 80011c6:	631a      	str	r2, [r3, #48]	; 0x30
 80011c8:	6b1b      	ldr	r3, [r3, #48]	; 0x30
 80011ca:	f003 0301 	and.w	r3, r3, #1
 80011ce:	9306      	str	r3, [sp, #24]
 80011d0:	9b06      	ldr	r3, [sp, #24]
 80011d2:	2201      	movs	r2, #1
 80011d4:	2303      	movs	r3, #3
 80011d6:	e9cd 2307 	strd	r2, r3, [sp, #28]
 80011da:	a907      	add	r1, sp, #28
 80011dc:	e7c0      	b.n	8001160 <HAL_ADC_MspInit+0x50>
 80011de:	bf00      	nop
 80011e0:	40012000 	.word	0x40012000
 80011e4:	40023800 	.word	0x40023800
 80011e8:	40020800 	.word	0x40020800
 80011ec:	40012100 	.word	0x40012100
 80011f0:	40012200 	.word	0x40012200
 80011f4:	40020000 	.word	0x40020000

080011f8 <order_phases>:
 80011f8:	e92d 43f0 	stmdb	sp!, {r4, r5, r6, r7, r8, r9, lr}
 80011fc:	ed2d 8b02 	vpush	{d8}
 8001200:	461e      	mov	r6, r3
 8001202:	7c13      	ldrb	r3, [r2, #16]
 8001204:	b083      	sub	sp, #12
 8001206:	4681      	mov	r9, r0
 8001208:	460c      	mov	r4, r1
 800120a:	4615      	mov	r5, r2
 800120c:	b92b      	cbnz	r3, 800121a <order_phases+0x22>
 800120e:	486f      	ldr	r0, [pc, #444]	; (80013cc <order_phases+0x1d4>)
 8001210:	f006 f9d6 	bl	80075c0 <puts>
 8001214:	2301      	movs	r3, #1
 8001216:	742b      	strb	r3, [r5, #16]
 8001218:	60ee      	str	r6, [r5, #12]
 800121a:	68eb      	ldr	r3, [r5, #12]
 800121c:	eddf 0a6c 	vldr	s1, [pc, #432]	; 80013d0 <order_phases+0x1d8>
 8001220:	1af3      	subs	r3, r6, r3
 8001222:	ee00 3a10 	vmov	s0, r3
 8001226:	eeb8 0ac0 	vcvt.f32.s32	s0, s0
 800122a:	f104 0060 	add.w	r0, r4, #96	; 0x60
 800122e:	ee20 0a20 	vmul.f32	s0, s0, s1
 8001232:	eef7 0a00 	vmov.f32	s1, #112	; 0x3f800000  1.0
 8001236:	eeb4 0ae0 	vcmpe.f32	s0, s1
 800123a:	eef1 fa10 	vmrs	APSR_nzcv, fpscr
 800123e:	ed85 0a05 	vstr	s0, [r5, #20]
 8001242:	f104 0164 	add.w	r1, r4, #100	; 0x64
 8001246:	f104 0268 	add.w	r2, r4, #104	; 0x68
 800124a:	f104 0654 	add.w	r6, r4, #84	; 0x54
 800124e:	f104 0758 	add.w	r7, r4, #88	; 0x58
 8001252:	f104 085c 	add.w	r8, r4, #92	; 0x5c
 8001256:	d523      	bpl.n	80012a0 <order_phases+0xa8>
 8001258:	ed9f 1a5e 	vldr	s2, [pc, #376]	; 80013d4 <order_phases+0x1dc>
 800125c:	ed85 1a02 	vstr	s2, [r5, #8]
 8001260:	eeb0 0a41 	vmov.f32	s0, s2
 8001264:	edc4 0a13 	vstr	s1, [r4, #76]	; 0x4c
 8001268:	ed84 1a14 	vstr	s2, [r4, #80]	; 0x50
 800126c:	f000 fe5a 	bl	8001f24 <abc>
 8001270:	4642      	mov	r2, r8
 8001272:	4639      	mov	r1, r7
 8001274:	4630      	mov	r0, r6
 8001276:	edd4 1a1a 	vldr	s3, [r4, #104]	; 0x68
 800127a:	ed94 1a19 	vldr	s2, [r4, #100]	; 0x64
 800127e:	edd4 0a18 	vldr	s1, [r4, #96]	; 0x60
 8001282:	ed94 0a08 	vldr	s0, [r4, #32]
 8001286:	f000 fedb 	bl	8002040 <svm>
 800128a:	4620      	mov	r0, r4
 800128c:	f000 fd9c 	bl	8001dc8 <set_dtc>
 8001290:	f8d9 3008 	ldr.w	r3, [r9, #8]
 8001294:	61ab      	str	r3, [r5, #24]
 8001296:	b003      	add	sp, #12
 8001298:	ecbd 8b02 	vpop	{d8}
 800129c:	e8bd 83f0 	ldmia.w	sp!, {r4, r5, r6, r7, r8, r9, pc}
 80012a0:	eddf 7a4d 	vldr	s15, [pc, #308]	; 80013d8 <order_phases+0x1e0>
 80012a4:	eeb4 0ae7 	vcmpe.f32	s0, s15
 80012a8:	eef1 fa10 	vmrs	APSR_nzcv, fpscr
 80012ac:	d522      	bpl.n	80012f4 <order_phases+0xfc>
 80012ae:	ee30 0a60 	vsub.f32	s0, s0, s1
 80012b2:	eef2 0a04 	vmov.f32	s1, #36	; 0x41200000  10.0
 80012b6:	ee20 0a20 	vmul.f32	s0, s0, s1
 80012ba:	ed94 1a14 	vldr	s2, [r4, #80]	; 0x50
 80012be:	ed85 0a02 	vstr	s0, [r5, #8]
 80012c2:	edd4 0a13 	vldr	s1, [r4, #76]	; 0x4c
 80012c6:	f000 fe2d 	bl	8001f24 <abc>
 80012ca:	4630      	mov	r0, r6
 80012cc:	4642      	mov	r2, r8
 80012ce:	4639      	mov	r1, r7
 80012d0:	edd4 1a1a 	vldr	s3, [r4, #104]	; 0x68
 80012d4:	ed94 1a19 	vldr	s2, [r4, #100]	; 0x64
 80012d8:	edd4 0a18 	vldr	s1, [r4, #96]	; 0x60
 80012dc:	ed94 0a08 	vldr	s0, [r4, #32]
 80012e0:	f000 feae 	bl	8002040 <svm>
 80012e4:	4620      	mov	r0, r4
 80012e6:	b003      	add	sp, #12
 80012e8:	ecbd 8b02 	vpop	{d8}
 80012ec:	e8bd 43f0 	ldmia.w	sp!, {r4, r5, r6, r7, r8, r9, lr}
 80012f0:	f000 bd6a 	b.w	8001dc8 <set_dtc>
 80012f4:	ed9f 1a37 	vldr	s2, [pc, #220]	; 80013d4 <order_phases+0x1dc>
 80012f8:	ed95 0a02 	vldr	s0, [r5, #8]
 80012fc:	ed84 1a13 	vstr	s2, [r4, #76]	; 0x4c
 8001300:	eef0 0a41 	vmov.f32	s1, s2
 8001304:	ed84 1a14 	vstr	s2, [r4, #80]	; 0x50
 8001308:	f000 fe0c 	bl	8001f24 <abc>
 800130c:	4642      	mov	r2, r8
 800130e:	edd4 1a1a 	vldr	s3, [r4, #104]	; 0x68
 8001312:	ed94 1a19 	vldr	s2, [r4, #100]	; 0x64
 8001316:	edd4 0a18 	vldr	s1, [r4, #96]	; 0x60
 800131a:	ed94 0a08 	vldr	s0, [r4, #32]
 800131e:	4639      	mov	r1, r7
 8001320:	4630      	mov	r0, r6
 8001322:	f000 fe8d 	bl	8002040 <svm>
 8001326:	4620      	mov	r0, r4
 8001328:	f000 fd4e 	bl	8001dc8 <set_dtc>
 800132c:	ed99 8a02 	vldr	s16, [r9, #8]
 8001330:	edd5 8a06 	vldr	s17, [r5, #24]
 8001334:	ed9f 7a29 	vldr	s14, [pc, #164]	; 80013dc <order_phases+0x1e4>
 8001338:	ee78 7a68 	vsub.f32	s15, s16, s17
 800133c:	eef0 7ae7 	vabs.f32	s15, s15
 8001340:	eec7 7a27 	vdiv.f32	s15, s14, s15
 8001344:	ee17 0a90 	vmov	r0, s15
 8001348:	f7ff f91e 	bl	8000588 <__aeabi_f2d>
 800134c:	ec41 0b10 	vmov	d0, r0, r1
 8001350:	f004 fe36 	bl	8005fc0 <round>
 8001354:	ec51 0b10 	vmov	r0, r1, d0
 8001358:	f7ff fc46 	bl	8000be8 <__aeabi_d2uiz>
 800135c:	eef4 8ac8 	vcmpe.f32	s17, s16
 8001360:	eef1 fa10 	vmrs	APSR_nzcv, fpscr
 8001364:	bf4b      	itete	mi
 8001366:	2300      	movmi	r3, #0
 8001368:	2301      	movpl	r3, #1
 800136a:	f885 3020 	strbmi.w	r3, [r5, #32]
 800136e:	f885 3020 	strbpl.w	r3, [r5, #32]
 8001372:	7028      	strb	r0, [r5, #0]
 8001374:	bf4c      	ite	mi
 8001376:	481a      	ldrmi	r0, [pc, #104]	; (80013e0 <order_phases+0x1e8>)
 8001378:	481a      	ldrpl	r0, [pc, #104]	; (80013e4 <order_phases+0x1ec>)
 800137a:	f006 f921 	bl	80075c0 <puts>
 800137e:	7829      	ldrb	r1, [r5, #0]
 8001380:	4819      	ldr	r0, [pc, #100]	; (80013e8 <order_phases+0x1f0>)
 8001382:	f006 f8c5 	bl	8007510 <printf>
 8001386:	69a8      	ldr	r0, [r5, #24]
 8001388:	f7ff f8fe 	bl	8000588 <__aeabi_f2d>
 800138c:	4606      	mov	r6, r0
 800138e:	ee18 0a10 	vmov	r0, s16
 8001392:	460f      	mov	r7, r1
 8001394:	f7ff f8f8 	bl	8000588 <__aeabi_f2d>
 8001398:	4632      	mov	r2, r6
 800139a:	e9cd 0100 	strd	r0, r1, [sp]
 800139e:	463b      	mov	r3, r7
 80013a0:	4812      	ldr	r0, [pc, #72]	; (80013ec <order_phases+0x1f4>)
 80013a2:	f006 f8b5 	bl	8007510 <printf>
 80013a6:	4b12      	ldr	r3, [pc, #72]	; (80013f0 <order_phases+0x1f8>)
 80013a8:	f895 2020 	ldrb.w	r2, [r5, #32]
 80013ac:	601a      	str	r2, [r3, #0]
 80013ae:	782b      	ldrb	r3, [r5, #0]
 80013b0:	ee07 3a90 	vmov	s15, r3
 80013b4:	4b0f      	ldr	r3, [pc, #60]	; (80013f4 <order_phases+0x1fc>)
 80013b6:	eef8 7a67 	vcvt.f32.u32	s15, s15
 80013ba:	edc3 7a0a 	vstr	s15, [r3, #40]	; 0x28
 80013be:	2300      	movs	r3, #0
 80013c0:	742b      	strb	r3, [r5, #16]
 80013c2:	2301      	movs	r3, #1
 80013c4:	f885 3021 	strb.w	r3, [r5, #33]	; 0x21
 80013c8:	e765      	b.n	8001296 <order_phases+0x9e>
 80013ca:	bf00      	nop
 80013cc:	0800cb0b 	.word	0x0800cb0b
 80013d0:	37d1b717 	.word	0x37d1b717
 80013d4:	00000000 	.word	0x00000000
 80013d8:	3fd06cbe 	.word	0x3fd06cbe
 80013dc:	40c90fdb 	.word	0x40c90fdb
 80013e0:	0800cb2c 	.word	0x0800cb2c
 80013e4:	0800cb41 	.word	0x0800cb41
 80013e8:	0800cb56 	.word	0x0800cb56
 80013ec:	0800cb67 	.word	0x0800cb67
 80013f0:	20009664 	.word	0x20009664
 80013f4:	20000dc8 	.word	0x20000dc8

080013f8 <calibrate_encoder>:
 80013f8:	e92d 4ff8 	stmdb	sp!, {r3, r4, r5, r6, r7, r8, r9, sl, fp, lr}
 80013fc:	ed2d 8b04 	vpush	{d8-d9}
 8001400:	7c17      	ldrb	r7, [r2, #16]
 8001402:	4681      	mov	r9, r0
 8001404:	460d      	mov	r5, r1
 8001406:	4614      	mov	r4, r2
 8001408:	461e      	mov	r6, r3
 800140a:	eeb7 8a00 	vmov.f32	s16, #112	; 0x3f800000  1.0
 800140e:	b947      	cbnz	r7, 8001422 <calibrate_encoder+0x2a>
 8001410:	48e0      	ldr	r0, [pc, #896]	; (8001794 <calibrate_encoder+0x39c>)
 8001412:	f006 f8d5 	bl	80075c0 <puts>
 8001416:	2301      	movs	r3, #1
 8001418:	7423      	strb	r3, [r4, #16]
 800141a:	60e6      	str	r6, [r4, #12]
 800141c:	ed84 8a0a 	vstr	s16, [r4, #40]	; 0x28
 8001420:	84a7      	strh	r7, [r4, #36]	; 0x24
 8001422:	68e3      	ldr	r3, [r4, #12]
 8001424:	ed9f 7adc 	vldr	s14, [pc, #880]	; 8001798 <calibrate_encoder+0x3a0>
 8001428:	1af3      	subs	r3, r6, r3
 800142a:	ee07 3a90 	vmov	s15, r3
 800142e:	eef8 7ae7 	vcvt.f32.s32	s15, s15
 8001432:	f105 0060 	add.w	r0, r5, #96	; 0x60
 8001436:	ee67 7a87 	vmul.f32	s15, s15, s14
 800143a:	f105 0164 	add.w	r1, r5, #100	; 0x64
 800143e:	eef4 7ac8 	vcmpe.f32	s15, s16
 8001442:	eef1 fa10 	vmrs	APSR_nzcv, fpscr
 8001446:	edc4 7a05 	vstr	s15, [r4, #20]
 800144a:	f105 0268 	add.w	r2, r5, #104	; 0x68
 800144e:	f105 0854 	add.w	r8, r5, #84	; 0x54
 8001452:	f105 0a58 	add.w	sl, r5, #88	; 0x58
 8001456:	f105 0b5c 	add.w	fp, r5, #92	; 0x5c
 800145a:	d526      	bpl.n	80014aa <calibrate_encoder+0xb2>
 800145c:	ed9f 1acf 	vldr	s2, [pc, #828]	; 800179c <calibrate_encoder+0x3a4>
 8001460:	eef7 0a00 	vmov.f32	s1, #112	; 0x3f800000  1.0
 8001464:	ed84 1a02 	vstr	s2, [r4, #8]
 8001468:	eeb0 0a41 	vmov.f32	s0, s2
 800146c:	ed85 1a14 	vstr	s2, [r5, #80]	; 0x50
 8001470:	ed85 8a13 	vstr	s16, [r5, #76]	; 0x4c
 8001474:	f000 fd56 	bl	8001f24 <abc>
 8001478:	465a      	mov	r2, fp
 800147a:	4651      	mov	r1, sl
 800147c:	4640      	mov	r0, r8
 800147e:	edd5 1a1a 	vldr	s3, [r5, #104]	; 0x68
 8001482:	ed95 1a19 	vldr	s2, [r5, #100]	; 0x64
 8001486:	edd5 0a18 	vldr	s1, [r5, #96]	; 0x60
 800148a:	ed95 0a08 	vldr	s0, [r5, #32]
 800148e:	f000 fdd7 	bl	8002040 <svm>
 8001492:	4628      	mov	r0, r5
 8001494:	f000 fc98 	bl	8001dc8 <set_dtc>
 8001498:	f8d9 3008 	ldr.w	r3, [r9, #8]
 800149c:	61a3      	str	r3, [r4, #24]
 800149e:	6963      	ldr	r3, [r4, #20]
 80014a0:	62a3      	str	r3, [r4, #40]	; 0x28
 80014a2:	ecbd 8b04 	vpop	{d8-d9}
 80014a6:	e8bd 8ff8 	ldmia.w	sp!, {r3, r4, r5, r6, r7, r8, r9, sl, fp, pc}
 80014aa:	4ebd      	ldr	r6, [pc, #756]	; (80017a0 <calibrate_encoder+0x3a8>)
 80014ac:	eddf 8abd 	vldr	s17, [pc, #756]	; 80017a4 <calibrate_encoder+0x3ac>
 80014b0:	ed96 7a0a 	vldr	s14, [r6, #40]	; 0x28
 80014b4:	ed94 0a02 	vldr	s0, [r4, #8]
 80014b8:	ee67 5a28 	vmul.f32	s11, s14, s17
 80014bc:	eeb2 6a04 	vmov.f32	s12, #36	; 0x41200000  10.0
 80014c0:	eec5 6a86 	vdiv.f32	s13, s11, s12
 80014c4:	4637      	mov	r7, r6
 80014c6:	ee76 6a88 	vadd.f32	s13, s13, s16
 80014ca:	eef4 7ae6 	vcmpe.f32	s15, s13
 80014ce:	eef1 fa10 	vmrs	APSR_nzcv, fpscr
 80014d2:	d55f      	bpl.n	8001594 <calibrate_encoder+0x19c>
 80014d4:	eddf 7ab4 	vldr	s15, [pc, #720]	; 80017a8 <calibrate_encoder+0x3b0>
 80014d8:	ed95 1a14 	vldr	s2, [r5, #80]	; 0x50
 80014dc:	edd5 0a13 	vldr	s1, [r5, #76]	; 0x4c
 80014e0:	ee30 0a27 	vadd.f32	s0, s0, s15
 80014e4:	ed84 0a02 	vstr	s0, [r4, #8]
 80014e8:	f000 fd1c 	bl	8001f24 <abc>
 80014ec:	465a      	mov	r2, fp
 80014ee:	4651      	mov	r1, sl
 80014f0:	4640      	mov	r0, r8
 80014f2:	edd5 1a1a 	vldr	s3, [r5, #104]	; 0x68
 80014f6:	ed95 1a19 	vldr	s2, [r5, #100]	; 0x64
 80014fa:	edd5 0a18 	vldr	s1, [r5, #96]	; 0x60
 80014fe:	ed95 0a08 	vldr	s0, [r5, #32]
 8001502:	f000 fd9d 	bl	8002040 <svm>
 8001506:	4628      	mov	r0, r5
 8001508:	f000 fc5e 	bl	8001dc8 <set_dtc>
 800150c:	ed94 7a05 	vldr	s14, [r4, #20]
 8001510:	edd4 7a0a 	vldr	s15, [r4, #40]	; 0x28
 8001514:	eeb4 7ae7 	vcmpe.f32	s14, s15
 8001518:	eef1 fa10 	vmrs	APSR_nzcv, fpscr
 800151c:	ddc1      	ble.n	80014a2 <calibrate_encoder+0xaa>
 800151e:	edd4 6a02 	vldr	s13, [r4, #8]
 8001522:	ed96 7a0a 	vldr	s14, [r6, #40]	; 0x28
 8001526:	eddf 7aa1 	vldr	s15, [pc, #644]	; 80017ac <calibrate_encoder+0x3b4>
 800152a:	f8d9 0070 	ldr.w	r0, [r9, #112]	; 0x70
 800152e:	8ca1      	ldrh	r1, [r4, #36]	; 0x24
 8001530:	ee66 6aa7 	vmul.f32	s13, s13, s15
 8001534:	ee27 7a28 	vmul.f32	s14, s14, s17
 8001538:	eec6 7a87 	vdiv.f32	s15, s13, s14
 800153c:	eefd 7ae7 	vcvt.s32.f32	s15, s15
 8001540:	ee17 2a90 	vmov	r2, s15
 8001544:	1a80      	subs	r0, r0, r2
 8001546:	13c3      	asrs	r3, r0, #15
 8001548:	f403 3380 	and.w	r3, r3, #65536	; 0x10000
 800154c:	4403      	add	r3, r0
 800154e:	eb04 0081 	add.w	r0, r4, r1, lsl #2
 8001552:	62c3      	str	r3, [r0, #44]	; 0x2c
 8001554:	4896      	ldr	r0, [pc, #600]	; (80017b0 <calibrate_encoder+0x3b8>)
 8001556:	f005 ffdb 	bl	8007510 <printf>
 800155a:	edd4 7a0a 	vldr	s15, [r4, #40]	; 0x28
 800155e:	ed9f 7a95 	vldr	s14, [pc, #596]	; 80017b4 <calibrate_encoder+0x3bc>
 8001562:	8ca3      	ldrh	r3, [r4, #36]	; 0x24
 8001564:	eddf 6a94 	vldr	s13, [pc, #592]	; 80017b8 <calibrate_encoder+0x3c0>
 8001568:	ee77 7a87 	vadd.f32	s15, s15, s14
 800156c:	edc4 7a0a 	vstr	s15, [r4, #40]	; 0x28
 8001570:	ee07 3a90 	vmov	s15, r3
 8001574:	ed96 6a0a 	vldr	s12, [r6, #40]	; 0x28
 8001578:	eeb8 7ae7 	vcvt.f32.s32	s14, s15
 800157c:	eeff 7a00 	vmov.f32	s15, #240	; 0xbf800000 -1.0
 8001580:	eee6 7a26 	vfma.f32	s15, s12, s13
 8001584:	eeb4 7a67 	vcmp.f32	s14, s15
 8001588:	eef1 fa10 	vmrs	APSR_nzcv, fpscr
 800158c:	d089      	beq.n	80014a2 <calibrate_encoder+0xaa>
 800158e:	3301      	adds	r3, #1
 8001590:	84a3      	strh	r3, [r4, #36]	; 0x24
 8001592:	e786      	b.n	80014a2 <calibrate_encoder+0xaa>
 8001594:	eddf 6a89 	vldr	s13, [pc, #548]	; 80017bc <calibrate_encoder+0x3c4>
 8001598:	ee27 7a26 	vmul.f32	s14, s14, s13
 800159c:	eec7 6a06 	vdiv.f32	s13, s14, s12
 80015a0:	ee36 7a88 	vadd.f32	s14, s13, s16
 80015a4:	eef4 7ac7 	vcmpe.f32	s15, s14
 80015a8:	eef1 fa10 	vmrs	APSR_nzcv, fpscr
 80015ac:	d557      	bpl.n	800165e <calibrate_encoder+0x266>
 80015ae:	eddf 7a7e 	vldr	s15, [pc, #504]	; 80017a8 <calibrate_encoder+0x3b0>
 80015b2:	ed95 1a14 	vldr	s2, [r5, #80]	; 0x50
 80015b6:	edd5 0a13 	vldr	s1, [r5, #76]	; 0x4c
 80015ba:	ee30 0a67 	vsub.f32	s0, s0, s15
 80015be:	ed84 0a02 	vstr	s0, [r4, #8]
 80015c2:	f000 fcaf 	bl	8001f24 <abc>
 80015c6:	465a      	mov	r2, fp
 80015c8:	4651      	mov	r1, sl
 80015ca:	4640      	mov	r0, r8
 80015cc:	edd5 1a1a 	vldr	s3, [r5, #104]	; 0x68
 80015d0:	ed95 1a19 	vldr	s2, [r5, #100]	; 0x64
 80015d4:	edd5 0a18 	vldr	s1, [r5, #96]	; 0x60
 80015d8:	ed95 0a08 	vldr	s0, [r5, #32]
 80015dc:	f000 fd30 	bl	8002040 <svm>
 80015e0:	4628      	mov	r0, r5
 80015e2:	f000 fbf1 	bl	8001dc8 <set_dtc>
 80015e6:	ed94 7a05 	vldr	s14, [r4, #20]
 80015ea:	edd4 7a0a 	vldr	s15, [r4, #40]	; 0x28
 80015ee:	eeb4 7ae7 	vcmpe.f32	s14, s15
 80015f2:	eef1 fa10 	vmrs	APSR_nzcv, fpscr
 80015f6:	f77f af54 	ble.w	80014a2 <calibrate_encoder+0xaa>
 80015fa:	8ca1      	ldrh	r1, [r4, #36]	; 0x24
 80015fc:	2900      	cmp	r1, #0
 80015fe:	f43f af50 	beq.w	80014a2 <calibrate_encoder+0xaa>
 8001602:	edd4 6a02 	vldr	s13, [r4, #8]
 8001606:	ed96 7a0a 	vldr	s14, [r6, #40]	; 0x28
 800160a:	eddf 7a68 	vldr	s15, [pc, #416]	; 80017ac <calibrate_encoder+0x3b4>
 800160e:	f8d9 0070 	ldr.w	r0, [r9, #112]	; 0x70
 8001612:	ee27 7a28 	vmul.f32	s14, s14, s17
 8001616:	ee66 6aa7 	vmul.f32	s13, s13, s15
 800161a:	eb04 0581 	add.w	r5, r4, r1, lsl #2
 800161e:	eec6 7a87 	vdiv.f32	s15, s13, s14
 8001622:	eefd 7ae7 	vcvt.s32.f32	s15, s15
 8001626:	ee17 2a90 	vmov	r2, s15
 800162a:	1a80      	subs	r0, r0, r2
 800162c:	13c3      	asrs	r3, r0, #15
 800162e:	f403 3380 	and.w	r3, r3, #65536	; 0x10000
 8001632:	4403      	add	r3, r0
 8001634:	6ae8      	ldr	r0, [r5, #44]	; 0x2c
 8001636:	4403      	add	r3, r0
 8001638:	2002      	movs	r0, #2
 800163a:	fb93 f3f0 	sdiv	r3, r3, r0
 800163e:	485c      	ldr	r0, [pc, #368]	; (80017b0 <calibrate_encoder+0x3b8>)
 8001640:	62eb      	str	r3, [r5, #44]	; 0x2c
 8001642:	f005 ff65 	bl	8007510 <printf>
 8001646:	edd4 7a0a 	vldr	s15, [r4, #40]	; 0x28
 800164a:	ed9f 7a5a 	vldr	s14, [pc, #360]	; 80017b4 <calibrate_encoder+0x3bc>
 800164e:	8ca3      	ldrh	r3, [r4, #36]	; 0x24
 8001650:	ee77 7a87 	vadd.f32	s15, s15, s14
 8001654:	3b01      	subs	r3, #1
 8001656:	84a3      	strh	r3, [r4, #36]	; 0x24
 8001658:	edc4 7a0a 	vstr	s15, [r4, #40]	; 0x28
 800165c:	e721      	b.n	80014a2 <calibrate_encoder+0xaa>
 800165e:	ed9f 1a4f 	vldr	s2, [pc, #316]	; 800179c <calibrate_encoder+0x3a4>
 8001662:	eef0 0a41 	vmov.f32	s1, s2
 8001666:	ed85 1a13 	vstr	s2, [r5, #76]	; 0x4c
 800166a:	ed85 1a14 	vstr	s2, [r5, #80]	; 0x50
 800166e:	f000 fc59 	bl	8001f24 <abc>
 8001672:	465a      	mov	r2, fp
 8001674:	4651      	mov	r1, sl
 8001676:	4640      	mov	r0, r8
 8001678:	edd5 1a1a 	vldr	s3, [r5, #104]	; 0x68
 800167c:	ed95 1a19 	vldr	s2, [r5, #100]	; 0x64
 8001680:	edd5 0a18 	vldr	s1, [r5, #96]	; 0x60
 8001684:	ed95 0a08 	vldr	s0, [r5, #32]
 8001688:	f000 fcda 	bl	8002040 <svm>
 800168c:	4628      	mov	r0, r5
 800168e:	f000 fb9b 	bl	8001dc8 <set_dtc>
 8001692:	ed96 7a0a 	vldr	s14, [r6, #40]	; 0x28
 8001696:	eefd 7ac7 	vcvt.s32.f32	s15, s14
 800169a:	2200      	movs	r2, #0
 800169c:	ee17 1a90 	vmov	r1, s15
 80016a0:	f104 002c 	add.w	r0, r4, #44	; 0x2c
 80016a4:	01c9      	lsls	r1, r1, #7
 80016a6:	4613      	mov	r3, r2
 80016a8:	4291      	cmp	r1, r2
 80016aa:	dc64      	bgt.n	8001776 <calibrate_encoder+0x37e>
 80016ac:	ee07 3a90 	vmov	s15, r3
 80016b0:	eddf 8a41 	vldr	s17, [pc, #260]	; 80017b8 <calibrate_encoder+0x3c0>
 80016b4:	6ae5      	ldr	r5, [r4, #44]	; 0x2c
 80016b6:	ed9f 9a42 	vldr	s18, [pc, #264]	; 80017c0 <calibrate_encoder+0x3c8>
 80016ba:	f8df 9108 	ldr.w	r9, [pc, #264]	; 80017c4 <calibrate_encoder+0x3cc>
 80016be:	eef8 7ae7 	vcvt.f32.s32	s15, s15
 80016c2:	ee27 7a28 	vmul.f32	s14, s14, s17
 80016c6:	2600      	movs	r6, #0
 80016c8:	eec7 6a87 	vdiv.f32	s13, s15, s14
 80016cc:	f04f 0880 	mov.w	r8, #128	; 0x80
 80016d0:	f5c5 3580 	rsb	r5, r5, #65536	; 0x10000
 80016d4:	f44f 7300 	mov.w	r3, #512	; 0x200
 80016d8:	fb95 f5f3 	sdiv	r5, r5, r3
 80016dc:	eefd 6ae6 	vcvt.s32.f32	s13, s13
 80016e0:	edc4 6a07 	vstr	s13, [r4, #28]
 80016e4:	ee07 6a90 	vmov	s15, r6
 80016e8:	ed97 6a0a 	vldr	s12, [r7, #40]	; 0x28
 80016ec:	eeb8 7ae7 	vcvt.f32.s32	s14, s15
 80016f0:	f06f 013f 	mvn.w	r1, #63	; 0x3f
 80016f4:	ee27 7a06 	vmul.f32	s14, s14, s12
 80016f8:	ee26 6a28 	vmul.f32	s12, s12, s17
 80016fc:	ee27 7a28 	vmul.f32	s14, s14, s17
 8001700:	2200      	movs	r2, #0
 8001702:	ee27 7a09 	vmul.f32	s14, s14, s18
 8001706:	ee07 1a90 	vmov	s15, r1
 800170a:	eef8 7ae7 	vcvt.f32.s32	s15, s15
 800170e:	ee77 7a87 	vadd.f32	s15, s15, s14
 8001712:	eefd 7ae7 	vcvt.s32.f32	s15, s15
 8001716:	ee17 3a90 	vmov	r3, s15
 800171a:	2b00      	cmp	r3, #0
 800171c:	eef8 6ae7 	vcvt.f32.s32	s13, s15
 8001720:	da2e      	bge.n	8001780 <calibrate_encoder+0x388>
 8001722:	ee76 7a86 	vadd.f32	s15, s13, s12
 8001726:	eefd 7ae7 	vcvt.s32.f32	s15, s15
 800172a:	ee17 3a90 	vmov	r3, s15
 800172e:	eb04 0383 	add.w	r3, r4, r3, lsl #2
 8001732:	3101      	adds	r1, #1
 8001734:	6adb      	ldr	r3, [r3, #44]	; 0x2c
 8001736:	2940      	cmp	r1, #64	; 0x40
 8001738:	441a      	add	r2, r3
 800173a:	d1e4      	bne.n	8001706 <calibrate_encoder+0x30e>
 800173c:	2d7f      	cmp	r5, #127	; 0x7f
 800173e:	69e3      	ldr	r3, [r4, #28]
 8001740:	fb92 f2f8 	sdiv	r2, r2, r8
 8001744:	4629      	mov	r1, r5
 8001746:	bfc8      	it	gt
 8001748:	f1a5 0180 	subgt.w	r1, r5, #128	; 0x80
 800174c:	1ad2      	subs	r2, r2, r3
 800174e:	f501 5300 	add.w	r3, r1, #8192	; 0x2000
 8001752:	330a      	adds	r3, #10
 8001754:	eb04 0383 	add.w	r3, r4, r3, lsl #2
 8001758:	4648      	mov	r0, r9
 800175a:	605a      	str	r2, [r3, #4]
 800175c:	3601      	adds	r6, #1
 800175e:	f005 fed7 	bl	8007510 <printf>
 8001762:	2e80      	cmp	r6, #128	; 0x80
 8001764:	f105 0501 	add.w	r5, r5, #1
 8001768:	d1bc      	bne.n	80016e4 <calibrate_encoder+0x2ec>
 800176a:	2300      	movs	r3, #0
 800176c:	7423      	strb	r3, [r4, #16]
 800176e:	2301      	movs	r3, #1
 8001770:	f884 3022 	strb.w	r3, [r4, #34]	; 0x22
 8001774:	e695      	b.n	80014a2 <calibrate_encoder+0xaa>
 8001776:	f850 5b04 	ldr.w	r5, [r0], #4
 800177a:	3201      	adds	r2, #1
 800177c:	442b      	add	r3, r5
 800177e:	e793      	b.n	80016a8 <calibrate_encoder+0x2b0>
 8001780:	ee76 5a48 	vsub.f32	s11, s12, s16
 8001784:	eef4 5ae6 	vcmpe.f32	s11, s13
 8001788:	eef1 fa10 	vmrs	APSR_nzcv, fpscr
 800178c:	d5cd      	bpl.n	800172a <calibrate_encoder+0x332>
 800178e:	ee76 7ac6 	vsub.f32	s15, s13, s12
 8001792:	e7c8      	b.n	8001726 <calibrate_encoder+0x32e>
 8001794:	0800cad0 	.word	0x0800cad0
 8001798:	37d1b717 	.word	0x37d1b717
 800179c:	00000000 	.word	0x00000000
 80017a0:	20000dc8 	.word	0x20000dc8
 80017a4:	40c90fdb 	.word	0x40c90fdb
 80017a8:	3983126e 	.word	0x3983126e
 80017ac:	47800000 	.word	0x47800000
 80017b0:	0800caf7 	.word	0x0800caf7
 80017b4:	3ba0d97c 	.word	0x3ba0d97c
 80017b8:	43000000 	.word	0x43000000
 80017bc:	41490fdb 	.word	0x41490fdb
 80017c0:	3c000000 	.word	0x3c000000
 80017c4:	0800cb02 	.word	0x0800cb02

080017c8 <MX_CAN1_Init>:
 80017c8:	480e      	ldr	r0, [pc, #56]	; (8001804 <MX_CAN1_Init+0x3c>)
 80017ca:	4a0f      	ldr	r2, [pc, #60]	; (8001808 <MX_CAN1_Init+0x40>)
 80017cc:	b508      	push	{r3, lr}
 80017ce:	2305      	movs	r3, #5
 80017d0:	e9c0 2300 	strd	r2, r3, [r0]
 80017d4:	f44f 21c0 	mov.w	r1, #393216	; 0x60000
 80017d8:	2300      	movs	r3, #0
 80017da:	f44f 1280 	mov.w	r2, #1048576	; 0x100000
 80017de:	e9c0 3302 	strd	r3, r3, [r0, #8]
 80017e2:	e9c0 1204 	strd	r1, r2, [r0, #16]
 80017e6:	7603      	strb	r3, [r0, #24]
 80017e8:	7643      	strb	r3, [r0, #25]
 80017ea:	7683      	strb	r3, [r0, #26]
 80017ec:	76c3      	strb	r3, [r0, #27]
 80017ee:	7703      	strb	r3, [r0, #28]
 80017f0:	7743      	strb	r3, [r0, #29]
 80017f2:	f002 fd33 	bl	800425c <HAL_CAN_Init>
 80017f6:	b118      	cbz	r0, 8001800 <MX_CAN1_Init+0x38>
 80017f8:	e8bd 4008 	ldmia.w	sp!, {r3, lr}
 80017fc:	f001 bc78 	b.w	80030f0 <Error_Handler>
 8001800:	bd08      	pop	{r3, pc}
 8001802:	bf00      	nop
 8001804:	20000aec 	.word	0x20000aec
 8001808:	40006400 	.word	0x40006400

0800180c <HAL_CAN_MspInit>:
 800180c:	b510      	push	{r4, lr}
 800180e:	4604      	mov	r4, r0
 8001810:	b088      	sub	sp, #32
 8001812:	2214      	movs	r2, #20
 8001814:	2100      	movs	r1, #0
 8001816:	a803      	add	r0, sp, #12
 8001818:	f005 fe71 	bl	80074fe <memset>
 800181c:	6822      	ldr	r2, [r4, #0]
 800181e:	4b18      	ldr	r3, [pc, #96]	; (8001880 <HAL_CAN_MspInit+0x74>)
 8001820:	429a      	cmp	r2, r3
 8001822:	d12b      	bne.n	800187c <HAL_CAN_MspInit+0x70>
 8001824:	f503 33ea 	add.w	r3, r3, #119808	; 0x1d400
 8001828:	2400      	movs	r4, #0
 800182a:	9401      	str	r4, [sp, #4]
 800182c:	6c1a      	ldr	r2, [r3, #64]	; 0x40
 800182e:	4815      	ldr	r0, [pc, #84]	; (8001884 <HAL_CAN_MspInit+0x78>)
 8001830:	f042 7200 	orr.w	r2, r2, #33554432	; 0x2000000
 8001834:	641a      	str	r2, [r3, #64]	; 0x40
 8001836:	6c1a      	ldr	r2, [r3, #64]	; 0x40
 8001838:	f002 7200 	and.w	r2, r2, #33554432	; 0x2000000
 800183c:	9201      	str	r2, [sp, #4]
 800183e:	9a01      	ldr	r2, [sp, #4]
 8001840:	9402      	str	r4, [sp, #8]
 8001842:	6b1a      	ldr	r2, [r3, #48]	; 0x30
 8001844:	f042 0202 	orr.w	r2, r2, #2
 8001848:	631a      	str	r2, [r3, #48]	; 0x30
 800184a:	6b1b      	ldr	r3, [r3, #48]	; 0x30
 800184c:	f003 0302 	and.w	r3, r3, #2
 8001850:	9302      	str	r3, [sp, #8]
 8001852:	f44f 7240 	mov.w	r2, #768	; 0x300
 8001856:	9b02      	ldr	r3, [sp, #8]
 8001858:	2302      	movs	r3, #2
 800185a:	e9cd 2303 	strd	r2, r3, [sp, #12]
 800185e:	2103      	movs	r1, #3
 8001860:	2309      	movs	r3, #9
 8001862:	e9cd 1306 	strd	r1, r3, [sp, #24]
 8001866:	a903      	add	r1, sp, #12
 8001868:	f003 f86e 	bl	8004948 <HAL_GPIO_Init>
 800186c:	2014      	movs	r0, #20
 800186e:	4622      	mov	r2, r4
 8001870:	4621      	mov	r1, r4
 8001872:	f002 ffff 	bl	8004874 <HAL_NVIC_SetPriority>
 8001876:	2014      	movs	r0, #20
 8001878:	f003 f830 	bl	80048dc <HAL_NVIC_EnableIRQ>
 800187c:	b008      	add	sp, #32
 800187e:	bd10      	pop	{r4, pc}
 8001880:	40006400 	.word	0x40006400
 8001884:	40020400 	.word	0x40020400

08001888 <can_rx_init>:
 8001888:	4a09      	ldr	r2, [pc, #36]	; (80018b0 <can_rx_init+0x28>)
 800188a:	6852      	ldr	r2, [r2, #4]
 800188c:	2300      	movs	r3, #0
 800188e:	0152      	lsls	r2, r2, #5
 8001890:	e9c0 230a 	strd	r2, r3, [r0, #40]	; 0x28
 8001894:	f640 72ff 	movw	r2, #4095	; 0xfff
 8001898:	6383      	str	r3, [r0, #56]	; 0x38
 800189a:	e9c0 230c 	strd	r2, r3, [r0, #48]	; 0x30
 800189e:	6403      	str	r3, [r0, #64]	; 0x40
 80018a0:	2301      	movs	r3, #1
 80018a2:	e9c0 3311 	strd	r3, r3, [r0, #68]	; 0x44
 80018a6:	f100 0128 	add.w	r1, r0, #40	; 0x28
 80018aa:	4802      	ldr	r0, [pc, #8]	; (80018b4 <can_rx_init+0x2c>)
 80018ac:	f002 bd52 	b.w	8004354 <HAL_CAN_ConfigFilter>
 80018b0:	20009664 	.word	0x20009664
 80018b4:	20000aec 	.word	0x20000aec

080018b8 <can_tx_init>:
 80018b8:	2306      	movs	r3, #6
 80018ba:	6183      	str	r3, [r0, #24]
 80018bc:	2300      	movs	r3, #0
 80018be:	e9c0 3304 	strd	r3, r3, [r0, #16]
 80018c2:	4b02      	ldr	r3, [pc, #8]	; (80018cc <can_tx_init+0x14>)
 80018c4:	689b      	ldr	r3, [r3, #8]
 80018c6:	6083      	str	r3, [r0, #8]
 80018c8:	4770      	bx	lr
 80018ca:	bf00      	nop
 80018cc:	20009664 	.word	0x20009664

080018d0 <pack_reply>:
 80018d0:	b5f8      	push	{r3, r4, r5, r6, r7, lr}
 80018d2:	4604      	mov	r4, r0
 80018d4:	ed2d 8b02 	vpush	{d8}
 80018d8:	2010      	movs	r0, #16
 80018da:	eef0 8a60 	vmov.f32	s17, s1
 80018de:	eeb0 8a41 	vmov.f32	s16, s2
 80018e2:	eefa 0a09 	vmov.f32	s1, #169	; 0xc1480000 -12.5
 80018e6:	eeb2 1a09 	vmov.f32	s2, #41	; 0x41480000  12.5
 80018ea:	460f      	mov	r7, r1
 80018ec:	f001 fc64 	bl	80031b8 <float_to_uint>
 80018f0:	eeb0 0a68 	vmov.f32	s0, s17
 80018f4:	4606      	mov	r6, r0
 80018f6:	ed9f 1a0f 	vldr	s2, [pc, #60]	; 8001934 <pack_reply+0x64>
 80018fa:	eddf 0a0f 	vldr	s1, [pc, #60]	; 8001938 <pack_reply+0x68>
 80018fe:	200c      	movs	r0, #12
 8001900:	f001 fc5a 	bl	80031b8 <float_to_uint>
 8001904:	eeb0 0a48 	vmov.f32	s0, s16
 8001908:	4605      	mov	r5, r0
 800190a:	eeb3 1a02 	vmov.f32	s2, #50	; 0x41900000  18.0
 800190e:	200c      	movs	r0, #12
 8001910:	eefb 0a02 	vmov.f32	s1, #178	; 0xc1900000 -18.0
 8001914:	f001 fc50 	bl	80031b8 <float_to_uint>
 8001918:	ecbd 8b02 	vpop	{d8}
 800191c:	1233      	asrs	r3, r6, #8
 800191e:	70a3      	strb	r3, [r4, #2]
 8001920:	112b      	asrs	r3, r5, #4
 8001922:	7123      	strb	r3, [r4, #4]
 8001924:	1203      	asrs	r3, r0, #8
 8001926:	eb03 1305 	add.w	r3, r3, r5, lsl #4
 800192a:	7067      	strb	r7, [r4, #1]
 800192c:	70e6      	strb	r6, [r4, #3]
 800192e:	7163      	strb	r3, [r4, #5]
 8001930:	71a0      	strb	r0, [r4, #6]
 8001932:	bdf8      	pop	{r3, r4, r5, r6, r7, pc}
 8001934:	42820000 	.word	0x42820000
 8001938:	c2820000 	.word	0xc2820000

0800193c <unpack_cmd>:
 800193c:	b084      	sub	sp, #16
 800193e:	e92d 41f0 	stmdb	sp!, {r4, r5, r6, r7, r8, lr}
 8001942:	ed2d 8b02 	vpush	{d8}
 8001946:	ac08      	add	r4, sp, #32
 8001948:	e884 000f 	stmia.w	r4, {r0, r1, r2, r3}
 800194c:	f89d 2024 	ldrb.w	r2, [sp, #36]	; 0x24
 8001950:	f89d 3027 	ldrb.w	r3, [sp, #39]	; 0x27
 8001954:	f8bd 0021 	ldrh.w	r0, [sp, #33]	; 0x21
 8001958:	f89d 1023 	ldrb.w	r1, [sp, #35]	; 0x23
 800195c:	9e1c      	ldr	r6, [sp, #112]	; 0x70
 800195e:	ed9f 8a28 	vldr	s16, [pc, #160]	; 8001a00 <unpack_cmd+0xc4>
 8001962:	0917      	lsrs	r7, r2, #4
 8001964:	0215      	lsls	r5, r2, #8
 8001966:	f89d 2025 	ldrb.w	r2, [sp, #37]	; 0x25
 800196a:	f405 6570 	and.w	r5, r5, #3840	; 0xf00
 800196e:	4315      	orrs	r5, r2
 8001970:	ea4f 1813 	mov.w	r8, r3, lsr #4
 8001974:	f89d 2026 	ldrb.w	r2, [sp, #38]	; 0x26
 8001978:	021c      	lsls	r4, r3, #8
 800197a:	ba40      	rev16	r0, r0
 800197c:	f89d 3028 	ldrb.w	r3, [sp, #40]	; 0x28
 8001980:	ea47 1701 	orr.w	r7, r7, r1, lsl #4
 8001984:	eef2 0a09 	vmov.f32	s1, #41	; 0x41480000  12.5
 8001988:	2110      	movs	r1, #16
 800198a:	b280      	uxth	r0, r0
 800198c:	f404 6470 	and.w	r4, r4, #3840	; 0xf00
 8001990:	eeba 0a09 	vmov.f32	s0, #169	; 0xc1480000 -12.5
 8001994:	ea48 1802 	orr.w	r8, r8, r2, lsl #4
 8001998:	431c      	orrs	r4, r3
 800199a:	f001 fc22 	bl	80031e2 <uint_to_float>
 800199e:	4638      	mov	r0, r7
 80019a0:	ed86 0a00 	vstr	s0, [r6]
 80019a4:	210c      	movs	r1, #12
 80019a6:	eddf 0a17 	vldr	s1, [pc, #92]	; 8001a04 <unpack_cmd+0xc8>
 80019aa:	ed9f 0a17 	vldr	s0, [pc, #92]	; 8001a08 <unpack_cmd+0xcc>
 80019ae:	f001 fc18 	bl	80031e2 <uint_to_float>
 80019b2:	4628      	mov	r0, r5
 80019b4:	ed86 0a01 	vstr	s0, [r6, #4]
 80019b8:	210c      	movs	r1, #12
 80019ba:	eddf 0a14 	vldr	s1, [pc, #80]	; 8001a0c <unpack_cmd+0xd0>
 80019be:	eeb0 0a48 	vmov.f32	s0, s16
 80019c2:	f001 fc0e 	bl	80031e2 <uint_to_float>
 80019c6:	4640      	mov	r0, r8
 80019c8:	ed86 0a02 	vstr	s0, [r6, #8]
 80019cc:	210c      	movs	r1, #12
 80019ce:	eef1 0a04 	vmov.f32	s1, #20	; 0x40a00000  5.0
 80019d2:	eeb0 0a48 	vmov.f32	s0, s16
 80019d6:	f001 fc04 	bl	80031e2 <uint_to_float>
 80019da:	4620      	mov	r0, r4
 80019dc:	ed86 0a03 	vstr	s0, [r6, #12]
 80019e0:	210c      	movs	r1, #12
 80019e2:	eef3 0a02 	vmov.f32	s1, #50	; 0x41900000  18.0
 80019e6:	eebb 0a02 	vmov.f32	s0, #178	; 0xc1900000 -18.0
 80019ea:	f001 fbfa 	bl	80031e2 <uint_to_float>
 80019ee:	ecbd 8b02 	vpop	{d8}
 80019f2:	ed86 0a04 	vstr	s0, [r6, #16]
 80019f6:	e8bd 41f0 	ldmia.w	sp!, {r4, r5, r6, r7, r8, lr}
 80019fa:	b004      	add	sp, #16
 80019fc:	4770      	bx	lr
 80019fe:	bf00      	nop
 8001a00:	00000000 	.word	0x00000000
 8001a04:	42820000 	.word	0x42820000
 8001a08:	c2820000 	.word	0xc2820000
 8001a0c:	43fa0000 	.word	0x43fa0000

08001a10 <drv_spi_write>:
 8001a10:	b537      	push	{r0, r1, r2, r4, r5, lr}
 8001a12:	4605      	mov	r5, r0
 8001a14:	4604      	mov	r4, r0
 8001a16:	f825 1b02 	strh.w	r1, [r5], #2
 8001a1a:	2200      	movs	r2, #0
 8001a1c:	2110      	movs	r1, #16
 8001a1e:	480c      	ldr	r0, [pc, #48]	; (8001a50 <drv_spi_write+0x40>)
 8001a20:	f003 f86c 	bl	8004afc <HAL_GPIO_WritePin>
 8001a24:	2364      	movs	r3, #100	; 0x64
 8001a26:	9300      	str	r3, [sp, #0]
 8001a28:	462a      	mov	r2, r5
 8001a2a:	2301      	movs	r3, #1
 8001a2c:	4621      	mov	r1, r4
 8001a2e:	4809      	ldr	r0, [pc, #36]	; (8001a54 <drv_spi_write+0x44>)
 8001a30:	f003 fbe7 	bl	8005202 <HAL_SPI_TransmitReceive>
 8001a34:	4a07      	ldr	r2, [pc, #28]	; (8001a54 <drv_spi_write+0x44>)
 8001a36:	f892 3051 	ldrb.w	r3, [r2, #81]	; 0x51
 8001a3a:	2b02      	cmp	r3, #2
 8001a3c:	d0fb      	beq.n	8001a36 <drv_spi_write+0x26>
 8001a3e:	2201      	movs	r2, #1
 8001a40:	2110      	movs	r1, #16
 8001a42:	4803      	ldr	r0, [pc, #12]	; (8001a50 <drv_spi_write+0x40>)
 8001a44:	f003 f85a 	bl	8004afc <HAL_GPIO_WritePin>
 8001a48:	8860      	ldrh	r0, [r4, #2]
 8001a4a:	b003      	add	sp, #12
 8001a4c:	bd30      	pop	{r4, r5, pc}
 8001a4e:	bf00      	nop
 8001a50:	40020000 	.word	0x40020000
 8001a54:	20009b60 	.word	0x20009b60

08001a58 <drv_write_DCR>:
 8001a58:	b513      	push	{r0, r1, r4, lr}
 8001a5a:	466c      	mov	r4, sp
 8001a5c:	e884 0003 	stmia.w	r4, {r0, r1}
 8001a60:	990a      	ldr	r1, [sp, #40]	; 0x28
 8001a62:	9809      	ldr	r0, [sp, #36]	; 0x24
 8001a64:	f441 5180 	orr.w	r1, r1, #4096	; 0x1000
 8001a68:	ea41 0140 	orr.w	r1, r1, r0, lsl #1
 8001a6c:	9808      	ldr	r0, [sp, #32]
 8001a6e:	ea41 0180 	orr.w	r1, r1, r0, lsl #2
 8001a72:	9807      	ldr	r0, [sp, #28]
 8001a74:	ea41 01c0 	orr.w	r1, r1, r0, lsl #3
 8001a78:	9806      	ldr	r0, [sp, #24]
 8001a7a:	ea41 1100 	orr.w	r1, r1, r0, lsl #4
 8001a7e:	9805      	ldr	r0, [sp, #20]
 8001a80:	ea41 1140 	orr.w	r1, r1, r0, lsl #5
 8001a84:	9804      	ldr	r0, [sp, #16]
 8001a86:	ea41 11c0 	orr.w	r1, r1, r0, lsl #7
 8001a8a:	ea41 2103 	orr.w	r1, r1, r3, lsl #8
 8001a8e:	ea41 2142 	orr.w	r1, r1, r2, lsl #9
 8001a92:	b289      	uxth	r1, r1
 8001a94:	4620      	mov	r0, r4
 8001a96:	f7ff ffbb 	bl	8001a10 <drv_spi_write>
 8001a9a:	b002      	add	sp, #8
 8001a9c:	bd10      	pop	{r4, pc}

08001a9e <drv_write_OCPCR>:
 8001a9e:	b513      	push	{r0, r1, r4, lr}
 8001aa0:	466c      	mov	r4, sp
 8001aa2:	e884 0003 	stmia.w	r4, {r0, r1}
 8001aa6:	9906      	ldr	r1, [sp, #24]
 8001aa8:	9805      	ldr	r0, [sp, #20]
 8001aaa:	f441 5120 	orr.w	r1, r1, #10240	; 0x2800
 8001aae:	ea41 1100 	orr.w	r1, r1, r0, lsl #4
 8001ab2:	9804      	ldr	r0, [sp, #16]
 8001ab4:	ea41 1180 	orr.w	r1, r1, r0, lsl #6
 8001ab8:	ea41 2103 	orr.w	r1, r1, r3, lsl #8
 8001abc:	ea41 2182 	orr.w	r1, r1, r2, lsl #10
 8001ac0:	b289      	uxth	r1, r1
 8001ac2:	4620      	mov	r0, r4
 8001ac4:	f7ff ffa4 	bl	8001a10 <drv_spi_write>
 8001ac8:	b002      	add	sp, #8
 8001aca:	bd10      	pop	{r4, pc}

08001acc <drv_write_CSACR>:
 8001acc:	b513      	push	{r0, r1, r4, lr}
 8001ace:	466c      	mov	r4, sp
 8001ad0:	e884 0003 	stmia.w	r4, {r0, r1}
 8001ad4:	990a      	ldr	r1, [sp, #40]	; 0x28
 8001ad6:	9809      	ldr	r0, [sp, #36]	; 0x24
 8001ad8:	f441 5140 	orr.w	r1, r1, #12288	; 0x3000
 8001adc:	ea41 0180 	orr.w	r1, r1, r0, lsl #2
 8001ae0:	9808      	ldr	r0, [sp, #32]
 8001ae2:	ea41 01c0 	orr.w	r1, r1, r0, lsl #3
 8001ae6:	9807      	ldr	r0, [sp, #28]
 8001ae8:	ea41 1100 	orr.w	r1, r1, r0, lsl #4
 8001aec:	9806      	ldr	r0, [sp, #24]
 8001aee:	ea41 1140 	orr.w	r1, r1, r0, lsl #5
 8001af2:	9805      	ldr	r0, [sp, #20]
 8001af4:	ea41 1180 	orr.w	r1, r1, r0, lsl #6
 8001af8:	9804      	ldr	r0, [sp, #16]
 8001afa:	ea41 2100 	orr.w	r1, r1, r0, lsl #8
 8001afe:	ea41 2143 	orr.w	r1, r1, r3, lsl #9
 8001b02:	ea41 2182 	orr.w	r1, r1, r2, lsl #10
 8001b06:	b289      	uxth	r1, r1
 8001b08:	4620      	mov	r0, r4
 8001b0a:	f7ff ff81 	bl	8001a10 <drv_spi_write>
 8001b0e:	b002      	add	sp, #8
 8001b10:	bd10      	pop	{r4, pc}

08001b12 <drv_enable_gd>:
 8001b12:	b510      	push	{r4, lr}
 8001b14:	b086      	sub	sp, #24
 8001b16:	466c      	mov	r4, sp
 8001b18:	e884 0003 	stmia.w	r4, {r0, r1}
 8001b1c:	e894 0003 	ldmia.w	r4, {r0, r1}
 8001b20:	9004      	str	r0, [sp, #16]
 8001b22:	f8ad 1014 	strh.w	r1, [sp, #20]
 8001b26:	a804      	add	r0, sp, #16
 8001b28:	f44f 4110 	mov.w	r1, #36864	; 0x9000
 8001b2c:	f7ff ff70 	bl	8001a10 <drv_spi_write>
 8001b30:	4603      	mov	r3, r0
 8001b32:	e894 0003 	ldmia.w	r4, {r0, r1}
 8001b36:	f8ad 100c 	strh.w	r1, [sp, #12]
 8001b3a:	f023 0104 	bic.w	r1, r3, #4
 8001b3e:	f441 5180 	orr.w	r1, r1, #4096	; 0x1000
 8001b42:	9002      	str	r0, [sp, #8]
 8001b44:	b289      	uxth	r1, r1
 8001b46:	a802      	add	r0, sp, #8
 8001b48:	f7ff ff62 	bl	8001a10 <drv_spi_write>
 8001b4c:	b006      	add	sp, #24
 8001b4e:	bd10      	pop	{r4, pc}

08001b50 <drv_disable_gd>:
 8001b50:	b510      	push	{r4, lr}
 8001b52:	b086      	sub	sp, #24
 8001b54:	466c      	mov	r4, sp
 8001b56:	e884 0003 	stmia.w	r4, {r0, r1}
 8001b5a:	e894 0003 	ldmia.w	r4, {r0, r1}
 8001b5e:	9004      	str	r0, [sp, #16]
 8001b60:	f8ad 1014 	strh.w	r1, [sp, #20]
 8001b64:	a804      	add	r0, sp, #16
 8001b66:	f44f 4110 	mov.w	r1, #36864	; 0x9000
 8001b6a:	f7ff ff51 	bl	8001a10 <drv_spi_write>
 8001b6e:	4603      	mov	r3, r0
 8001b70:	e894 0003 	ldmia.w	r4, {r0, r1}
 8001b74:	f8ad 100c 	strh.w	r1, [sp, #12]
 8001b78:	f443 5180 	orr.w	r1, r3, #4096	; 0x1000
 8001b7c:	f041 0104 	orr.w	r1, r1, #4
 8001b80:	9002      	str	r0, [sp, #8]
 8001b82:	b289      	uxth	r1, r1
 8001b84:	a802      	add	r0, sp, #8
 8001b86:	f7ff ff43 	bl	8001a10 <drv_spi_write>
 8001b8a:	b006      	add	sp, #24
 8001b8c:	bd10      	pop	{r4, pc}
	...

08001b90 <drv_print_faults>:
 8001b90:	b530      	push	{r4, r5, lr}
 8001b92:	b087      	sub	sp, #28
 8001b94:	466c      	mov	r4, sp
 8001b96:	e884 0003 	stmia.w	r4, {r0, r1}
 8001b9a:	e894 0003 	ldmia.w	r4, {r0, r1}
 8001b9e:	9004      	str	r0, [sp, #16]
 8001ba0:	f8ad 1014 	strh.w	r1, [sp, #20]
 8001ba4:	a804      	add	r0, sp, #16
 8001ba6:	f44f 4100 	mov.w	r1, #32768	; 0x8000
 8001baa:	f7ff ff31 	bl	8001a10 <drv_spi_write>
 8001bae:	4605      	mov	r5, r0
 8001bb0:	e894 0003 	ldmia.w	r4, {r0, r1}
 8001bb4:	9002      	str	r0, [sp, #8]
 8001bb6:	f8ad 100c 	strh.w	r1, [sp, #12]
 8001bba:	a802      	add	r0, sp, #8
 8001bbc:	f248 0101 	movw	r1, #32769	; 0x8001
 8001bc0:	f7ff ff26 	bl	8001a10 <drv_spi_write>
 8001bc4:	4604      	mov	r4, r0
 8001bc6:	0568      	lsls	r0, r5, #21
 8001bc8:	d502      	bpl.n	8001bd0 <drv_print_faults+0x40>
 8001bca:	4837      	ldr	r0, [pc, #220]	; (8001ca8 <drv_print_faults+0x118>)
 8001bcc:	f005 fca0 	bl	8007510 <printf>
 8001bd0:	05a9      	lsls	r1, r5, #22
 8001bd2:	d502      	bpl.n	8001bda <drv_print_faults+0x4a>
 8001bd4:	4835      	ldr	r0, [pc, #212]	; (8001cac <drv_print_faults+0x11c>)
 8001bd6:	f005 fc9b 	bl	8007510 <printf>
 8001bda:	05ea      	lsls	r2, r5, #23
 8001bdc:	d502      	bpl.n	8001be4 <drv_print_faults+0x54>
 8001bde:	4834      	ldr	r0, [pc, #208]	; (8001cb0 <drv_print_faults+0x120>)
 8001be0:	f005 fc96 	bl	8007510 <printf>
 8001be4:	062b      	lsls	r3, r5, #24
 8001be6:	d502      	bpl.n	8001bee <drv_print_faults+0x5e>
 8001be8:	4832      	ldr	r0, [pc, #200]	; (8001cb4 <drv_print_faults+0x124>)
 8001bea:	f005 fc91 	bl	8007510 <printf>
 8001bee:	0668      	lsls	r0, r5, #25
 8001bf0:	d502      	bpl.n	8001bf8 <drv_print_faults+0x68>
 8001bf2:	4831      	ldr	r0, [pc, #196]	; (8001cb8 <drv_print_faults+0x128>)
 8001bf4:	f005 fc8c 	bl	8007510 <printf>
 8001bf8:	06a9      	lsls	r1, r5, #26
 8001bfa:	d502      	bpl.n	8001c02 <drv_print_faults+0x72>
 8001bfc:	482f      	ldr	r0, [pc, #188]	; (8001cbc <drv_print_faults+0x12c>)
 8001bfe:	f005 fc87 	bl	8007510 <printf>
 8001c02:	06ea      	lsls	r2, r5, #27
 8001c04:	d502      	bpl.n	8001c0c <drv_print_faults+0x7c>
 8001c06:	482e      	ldr	r0, [pc, #184]	; (8001cc0 <drv_print_faults+0x130>)
 8001c08:	f005 fc82 	bl	8007510 <printf>
 8001c0c:	072b      	lsls	r3, r5, #28
 8001c0e:	d502      	bpl.n	8001c16 <drv_print_faults+0x86>
 8001c10:	482c      	ldr	r0, [pc, #176]	; (8001cc4 <drv_print_faults+0x134>)
 8001c12:	f005 fc7d 	bl	8007510 <printf>
 8001c16:	0768      	lsls	r0, r5, #29
 8001c18:	d502      	bpl.n	8001c20 <drv_print_faults+0x90>
 8001c1a:	482b      	ldr	r0, [pc, #172]	; (8001cc8 <drv_print_faults+0x138>)
 8001c1c:	f005 fc78 	bl	8007510 <printf>
 8001c20:	07a9      	lsls	r1, r5, #30
 8001c22:	d502      	bpl.n	8001c2a <drv_print_faults+0x9a>
 8001c24:	4829      	ldr	r0, [pc, #164]	; (8001ccc <drv_print_faults+0x13c>)
 8001c26:	f005 fc73 	bl	8007510 <printf>
 8001c2a:	07ea      	lsls	r2, r5, #31
 8001c2c:	d502      	bpl.n	8001c34 <drv_print_faults+0xa4>
 8001c2e:	4828      	ldr	r0, [pc, #160]	; (8001cd0 <drv_print_faults+0x140>)
 8001c30:	f005 fc6e 	bl	8007510 <printf>
 8001c34:	0563      	lsls	r3, r4, #21
 8001c36:	d502      	bpl.n	8001c3e <drv_print_faults+0xae>
 8001c38:	4826      	ldr	r0, [pc, #152]	; (8001cd4 <drv_print_faults+0x144>)
 8001c3a:	f005 fc69 	bl	8007510 <printf>
 8001c3e:	05a5      	lsls	r5, r4, #22
 8001c40:	d502      	bpl.n	8001c48 <drv_print_faults+0xb8>
 8001c42:	4825      	ldr	r0, [pc, #148]	; (8001cd8 <drv_print_faults+0x148>)
 8001c44:	f005 fc64 	bl	8007510 <printf>
 8001c48:	05e0      	lsls	r0, r4, #23
 8001c4a:	d502      	bpl.n	8001c52 <drv_print_faults+0xc2>
 8001c4c:	4823      	ldr	r0, [pc, #140]	; (8001cdc <drv_print_faults+0x14c>)
 8001c4e:	f005 fc5f 	bl	8007510 <printf>
 8001c52:	0621      	lsls	r1, r4, #24
 8001c54:	d502      	bpl.n	8001c5c <drv_print_faults+0xcc>
 8001c56:	4822      	ldr	r0, [pc, #136]	; (8001ce0 <drv_print_faults+0x150>)
 8001c58:	f005 fc5a 	bl	8007510 <printf>
 8001c5c:	0662      	lsls	r2, r4, #25
 8001c5e:	d502      	bpl.n	8001c66 <drv_print_faults+0xd6>
 8001c60:	4820      	ldr	r0, [pc, #128]	; (8001ce4 <drv_print_faults+0x154>)
 8001c62:	f005 fc55 	bl	8007510 <printf>
 8001c66:	06a3      	lsls	r3, r4, #26
 8001c68:	d502      	bpl.n	8001c70 <drv_print_faults+0xe0>
 8001c6a:	481f      	ldr	r0, [pc, #124]	; (8001ce8 <drv_print_faults+0x158>)
 8001c6c:	f005 fc50 	bl	8007510 <printf>
 8001c70:	06e5      	lsls	r5, r4, #27
 8001c72:	d502      	bpl.n	8001c7a <drv_print_faults+0xea>
 8001c74:	481d      	ldr	r0, [pc, #116]	; (8001cec <drv_print_faults+0x15c>)
 8001c76:	f005 fc4b 	bl	8007510 <printf>
 8001c7a:	0720      	lsls	r0, r4, #28
 8001c7c:	d502      	bpl.n	8001c84 <drv_print_faults+0xf4>
 8001c7e:	481c      	ldr	r0, [pc, #112]	; (8001cf0 <drv_print_faults+0x160>)
 8001c80:	f005 fc46 	bl	8007510 <printf>
 8001c84:	0761      	lsls	r1, r4, #29
 8001c86:	d502      	bpl.n	8001c8e <drv_print_faults+0xfe>
 8001c88:	481a      	ldr	r0, [pc, #104]	; (8001cf4 <drv_print_faults+0x164>)
 8001c8a:	f005 fc41 	bl	8007510 <printf>
 8001c8e:	07a2      	lsls	r2, r4, #30
 8001c90:	d502      	bpl.n	8001c98 <drv_print_faults+0x108>
 8001c92:	4819      	ldr	r0, [pc, #100]	; (8001cf8 <drv_print_faults+0x168>)
 8001c94:	f005 fc3c 	bl	8007510 <printf>
 8001c98:	07e3      	lsls	r3, r4, #31
 8001c9a:	d502      	bpl.n	8001ca2 <drv_print_faults+0x112>
 8001c9c:	4817      	ldr	r0, [pc, #92]	; (8001cfc <drv_print_faults+0x16c>)
 8001c9e:	f005 fc37 	bl	8007510 <printf>
 8001ca2:	b007      	add	sp, #28
 8001ca4:	bd30      	pop	{r4, r5, pc}
 8001ca6:	bf00      	nop
 8001ca8:	0800cb81 	.word	0x0800cb81
 8001cac:	0800cb8b 	.word	0x0800cb8b
 8001cb0:	0800cb95 	.word	0x0800cb95
 8001cb4:	0800cb9b 	.word	0x0800cb9b
 8001cb8:	0800cba2 	.word	0x0800cba2
 8001cbc:	0800cba9 	.word	0x0800cba9
 8001cc0:	0800cbb2 	.word	0x0800cbb2
 8001cc4:	0800cbbb 	.word	0x0800cbbb
 8001cc8:	0800cbc4 	.word	0x0800cbc4
 8001ccc:	0800cbcd 	.word	0x0800cbcd
 8001cd0:	0800cbd6 	.word	0x0800cbd6
 8001cd4:	0800cbdf 	.word	0x0800cbdf
 8001cd8:	0800cbe7 	.word	0x0800cbe7
 8001cdc:	0800cbef 	.word	0x0800cbef
 8001ce0:	0800cbf7 	.word	0x0800cbf7
 8001ce4:	0800cbfd 	.word	0x0800cbfd
 8001ce8:	0800cc04 	.word	0x0800cc04
 8001cec:	0800cc0d 	.word	0x0800cc0d
 8001cf0:	0800cc16 	.word	0x0800cc16
 8001cf4:	0800cc1f 	.word	0x0800cc1f
 8001cf8:	0800cc28 	.word	0x0800cc28
 8001cfc:	0800cc31 	.word	0x0800cc31

08001d00 <flash_writer_init>:
 8001d00:	2907      	cmp	r1, #7
 8001d02:	bf28      	it	cs
 8001d04:	2107      	movcs	r1, #7
 8001d06:	4b04      	ldr	r3, [pc, #16]	; (8001d18 <flash_writer_init+0x18>)
 8001d08:	6081      	str	r1, [r0, #8]
 8001d0a:	f853 3021 	ldr.w	r3, [r3, r1, lsl #2]
 8001d0e:	6043      	str	r3, [r0, #4]
 8001d10:	2300      	movs	r3, #0
 8001d12:	7003      	strb	r3, [r0, #0]
 8001d14:	4770      	bx	lr
 8001d16:	bf00      	nop
 8001d18:	0800cc5c 	.word	0x0800cc5c

08001d1c <flash_writer_open>:
 8001d1c:	b510      	push	{r4, lr}
 8001d1e:	4604      	mov	r4, r0
 8001d20:	f001 fc88 	bl	8003634 <FLASH_Unlock>
 8001d24:	20f1      	movs	r0, #241	; 0xf1
 8001d26:	f001 fc9b 	bl	8003660 <FLASH_ClearFlag>
 8001d2a:	4b05      	ldr	r3, [pc, #20]	; (8001d40 <flash_writer_open+0x24>)
 8001d2c:	68a2      	ldr	r2, [r4, #8]
 8001d2e:	2102      	movs	r1, #2
 8001d30:	f853 0022 	ldr.w	r0, [r3, r2, lsl #2]
 8001d34:	f001 fccc 	bl	80036d0 <FLASH_EraseSector>
 8001d38:	2301      	movs	r3, #1
 8001d3a:	7023      	strb	r3, [r4, #0]
 8001d3c:	bd10      	pop	{r4, pc}
 8001d3e:	bf00      	nop
 8001d40:	0800cc3c 	.word	0x0800cc3c

08001d44 <flash_writer_write_int>:
 8001d44:	b084      	sub	sp, #16
 8001d46:	f10d 0c10 	add.w	ip, sp, #16
 8001d4a:	e90c 0007 	stmdb	ip, {r0, r1, r2}
 8001d4e:	9802      	ldr	r0, [sp, #8]
 8001d50:	9904      	ldr	r1, [sp, #16]
 8001d52:	eb00 0083 	add.w	r0, r0, r3, lsl #2
 8001d56:	b004      	add	sp, #16
 8001d58:	f001 bcf0 	b.w	800373c <FLASH_ProgramWord>

08001d5c <flash_writer_write_float>:
 8001d5c:	b084      	sub	sp, #16
 8001d5e:	f10d 0c10 	add.w	ip, sp, #16
 8001d62:	e90c 0007 	stmdb	ip, {r0, r1, r2}
 8001d66:	9802      	ldr	r0, [sp, #8]
 8001d68:	ee10 1a10 	vmov	r1, s0
 8001d6c:	eb00 0083 	add.w	r0, r0, r3, lsl #2
 8001d70:	b004      	add	sp, #16
 8001d72:	f001 bce3 	b.w	800373c <FLASH_ProgramWord>

08001d76 <flash_writer_close>:
 8001d76:	b510      	push	{r4, lr}
 8001d78:	4604      	mov	r4, r0
 8001d7a:	f001 fc69 	bl	8003650 <FLASH_Lock>
 8001d7e:	2300      	movs	r3, #0
 8001d80:	7023      	strb	r3, [r4, #0]
 8001d82:	bd10      	pop	{r4, pc}

08001d84 <flash_read_int>:
 8001d84:	b084      	sub	sp, #16
 8001d86:	f10d 0c10 	add.w	ip, sp, #16
 8001d8a:	e90c 0007 	stmdb	ip, {r0, r1, r2}
 8001d8e:	4a04      	ldr	r2, [pc, #16]	; (8001da0 <flash_read_int+0x1c>)
 8001d90:	9903      	ldr	r1, [sp, #12]
 8001d92:	f852 2021 	ldr.w	r2, [r2, r1, lsl #2]
 8001d96:	f852 0023 	ldr.w	r0, [r2, r3, lsl #2]
 8001d9a:	b004      	add	sp, #16
 8001d9c:	4770      	bx	lr
 8001d9e:	bf00      	nop
 8001da0:	0800cc5c 	.word	0x0800cc5c

08001da4 <flash_read_float>:
 8001da4:	b084      	sub	sp, #16
 8001da6:	f10d 0c10 	add.w	ip, sp, #16
 8001daa:	e90c 0007 	stmdb	ip, {r0, r1, r2}
 8001dae:	4a05      	ldr	r2, [pc, #20]	; (8001dc4 <flash_read_float+0x20>)
 8001db0:	9903      	ldr	r1, [sp, #12]
 8001db2:	f852 2021 	ldr.w	r2, [r2, r1, lsl #2]
 8001db6:	eb02 0383 	add.w	r3, r2, r3, lsl #2
 8001dba:	ed93 0a00 	vldr	s0, [r3]
 8001dbe:	b004      	add	sp, #16
 8001dc0:	4770      	bx	lr
 8001dc2:	bf00      	nop
 8001dc4:	0800cc5c 	.word	0x0800cc5c

08001dc8 <set_dtc>:
 8001dc8:	4b21      	ldr	r3, [pc, #132]	; (8001e50 <set_dtc+0x88>)
 8001dca:	ed90 7a15 	vldr	s14, [r0, #84]	; 0x54
 8001dce:	681b      	ldr	r3, [r3, #0]
 8001dd0:	2b00      	cmp	r3, #0
 8001dd2:	4b20      	ldr	r3, [pc, #128]	; (8001e54 <set_dtc+0x8c>)
 8001dd4:	681b      	ldr	r3, [r3, #0]
 8001dd6:	edd3 7a0b 	vldr	s15, [r3, #44]	; 0x2c
 8001dda:	eef8 7a67 	vcvt.f32.u32	s15, s15
 8001dde:	bf18      	it	ne
 8001de0:	2108      	movne	r1, #8
 8001de2:	ee67 7a87 	vmul.f32	s15, s15, s14
 8001de6:	ed90 7a16 	vldr	s14, [r0, #88]	; 0x58
 8001dea:	eefc 7ae7 	vcvt.u32.f32	s15, s15
 8001dee:	bf08      	it	eq
 8001df0:	2104      	moveq	r1, #4
 8001df2:	edc3 7a0d 	vstr	s15, [r3, #52]	; 0x34
 8001df6:	edd3 7a0b 	vldr	s15, [r3, #44]	; 0x2c
 8001dfa:	eef8 7a67 	vcvt.f32.u32	s15, s15
 8001dfe:	bf18      	it	ne
 8001e00:	2204      	movne	r2, #4
 8001e02:	ee67 7a87 	vmul.f32	s15, s15, s14
 8001e06:	bf08      	it	eq
 8001e08:	2208      	moveq	r2, #8
 8001e0a:	2904      	cmp	r1, #4
 8001e0c:	eefc 7ae7 	vcvt.u32.f32	s15, s15
 8001e10:	d110      	bne.n	8001e34 <set_dtc+0x6c>
 8001e12:	edc3 7a0e 	vstr	s15, [r3, #56]	; 0x38
 8001e16:	edd3 7a0b 	vldr	s15, [r3, #44]	; 0x2c
 8001e1a:	ed90 7a17 	vldr	s14, [r0, #92]	; 0x5c
 8001e1e:	eef8 7a67 	vcvt.f32.u32	s15, s15
 8001e22:	2a04      	cmp	r2, #4
 8001e24:	ee67 7a87 	vmul.f32	s15, s15, s14
 8001e28:	eefc 7ae7 	vcvt.u32.f32	s15, s15
 8001e2c:	d109      	bne.n	8001e42 <set_dtc+0x7a>
 8001e2e:	edc3 7a0e 	vstr	s15, [r3, #56]	; 0x38
 8001e32:	4770      	bx	lr
 8001e34:	2908      	cmp	r1, #8
 8001e36:	bf0c      	ite	eq
 8001e38:	edc3 7a0f 	vstreq	s15, [r3, #60]	; 0x3c
 8001e3c:	edc3 7a10 	vstrne	s15, [r3, #64]	; 0x40
 8001e40:	e7e9      	b.n	8001e16 <set_dtc+0x4e>
 8001e42:	2a08      	cmp	r2, #8
 8001e44:	bf0c      	ite	eq
 8001e46:	edc3 7a0f 	vstreq	s15, [r3, #60]	; 0x3c
 8001e4a:	edc3 7a10 	vstrne	s15, [r3, #64]	; 0x40
 8001e4e:	4770      	bx	lr
 8001e50:	20009664 	.word	0x20009664
 8001e54:	20009bb8 	.word	0x20009bb8

08001e58 <analog_sample>:
 8001e58:	b510      	push	{r4, lr}
 8001e5a:	4b2c      	ldr	r3, [pc, #176]	; (8001f0c <analog_sample+0xb4>)
 8001e5c:	492c      	ldr	r1, [pc, #176]	; (8001f10 <analog_sample+0xb8>)
 8001e5e:	681b      	ldr	r3, [r3, #0]
 8001e60:	b0a4      	sub	sp, #144	; 0x90
 8001e62:	4604      	mov	r4, r0
 8001e64:	2248      	movs	r2, #72	; 0x48
 8001e66:	2b00      	cmp	r3, #0
 8001e68:	d148      	bne.n	8001efc <analog_sample+0xa4>
 8001e6a:	4668      	mov	r0, sp
 8001e6c:	f005 fb3c 	bl	80074e8 <memcpy>
 8001e70:	2248      	movs	r2, #72	; 0x48
 8001e72:	4928      	ldr	r1, [pc, #160]	; (8001f14 <analog_sample+0xbc>)
 8001e74:	eb0d 0002 	add.w	r0, sp, r2
 8001e78:	f005 fb36 	bl	80074e8 <memcpy>
 8001e7c:	4824      	ldr	r0, [pc, #144]	; (8001f10 <analog_sample+0xb8>)
 8001e7e:	f002 f85d 	bl	8003f3c <HAL_ADC_Start>
 8001e82:	f04f 31ff 	mov.w	r1, #4294967295
 8001e86:	4822      	ldr	r0, [pc, #136]	; (8001f10 <analog_sample+0xb8>)
 8001e88:	f002 f8ce 	bl	8004028 <HAL_ADC_PollForConversion>
 8001e8c:	a812      	add	r0, sp, #72	; 0x48
 8001e8e:	f002 f91b 	bl	80040c8 <HAL_ADC_GetValue>
 8001e92:	60a0      	str	r0, [r4, #8]
 8001e94:	4668      	mov	r0, sp
 8001e96:	f002 f917 	bl	80040c8 <HAL_ADC_GetValue>
 8001e9a:	6060      	str	r0, [r4, #4]
 8001e9c:	481e      	ldr	r0, [pc, #120]	; (8001f18 <analog_sample+0xc0>)
 8001e9e:	f002 f913 	bl	80040c8 <HAL_ADC_GetValue>
 8001ea2:	ee07 0a90 	vmov	s15, r0
 8001ea6:	ed9f 7a1d 	vldr	s14, [pc, #116]	; 8001f1c <analog_sample+0xc4>
 8001eaa:	f8d4 2088 	ldr.w	r2, [r4, #136]	; 0x88
 8001eae:	6863      	ldr	r3, [r4, #4]
 8001eb0:	eddf 6a1b 	vldr	s13, [pc, #108]	; 8001f20 <analog_sample+0xc8>
 8001eb4:	6120      	str	r0, [r4, #16]
 8001eb6:	eef8 7ae7 	vcvt.f32.s32	s15, s15
 8001eba:	1a9b      	subs	r3, r3, r2
 8001ebc:	ee67 7a87 	vmul.f32	s15, s15, s14
 8001ec0:	f8d4 208c 	ldr.w	r2, [r4, #140]	; 0x8c
 8001ec4:	edc4 7a08 	vstr	s15, [r4, #32]
 8001ec8:	ee07 3a90 	vmov	s15, r3
 8001ecc:	68a3      	ldr	r3, [r4, #8]
 8001ece:	1a9b      	subs	r3, r3, r2
 8001ed0:	ee07 3a10 	vmov	s14, r3
 8001ed4:	eef8 7ae7 	vcvt.f32.s32	s15, s15
 8001ed8:	eeb8 7ac7 	vcvt.f32.s32	s14, s14
 8001edc:	ee67 7aa6 	vmul.f32	s15, s15, s13
 8001ee0:	ee27 7a26 	vmul.f32	s14, s14, s13
 8001ee4:	edc4 7a05 	vstr	s15, [r4, #20]
 8001ee8:	eef1 7a67 	vneg.f32	s15, s15
 8001eec:	ee77 7ac7 	vsub.f32	s15, s15, s14
 8001ef0:	ed84 7a06 	vstr	s14, [r4, #24]
 8001ef4:	edc4 7a07 	vstr	s15, [r4, #28]
 8001ef8:	b024      	add	sp, #144	; 0x90
 8001efa:	bd10      	pop	{r4, pc}
 8001efc:	eb0d 0002 	add.w	r0, sp, r2
 8001f00:	f005 faf2 	bl	80074e8 <memcpy>
 8001f04:	2248      	movs	r2, #72	; 0x48
 8001f06:	4903      	ldr	r1, [pc, #12]	; (8001f14 <analog_sample+0xbc>)
 8001f08:	4668      	mov	r0, sp
 8001f0a:	e7b5      	b.n	8001e78 <analog_sample+0x20>
 8001f0c:	20009664 	.word	0x20009664
 8001f10:	20000a5c 	.word	0x20000a5c
 8001f14:	20000a14 	.word	0x20000a14
 8001f18:	20000aa4 	.word	0x20000aa4
 8001f1c:	3c533333 	.word	0x3c533333
 8001f20:	3ca50000 	.word	0x3ca50000

08001f24 <abc>:
 8001f24:	b570      	push	{r4, r5, r6, lr}
 8001f26:	ed2d 8b04 	vpush	{d8-d9}
 8001f2a:	4606      	mov	r6, r0
 8001f2c:	eeb0 9a60 	vmov.f32	s18, s1
 8001f30:	eeb0 8a41 	vmov.f32	s16, s2
 8001f34:	eef0 9a40 	vmov.f32	s19, s0
 8001f38:	460d      	mov	r5, r1
 8001f3a:	4614      	mov	r4, r2
 8001f3c:	f004 f88a 	bl	8006054 <cosf>
 8001f40:	eef0 8a40 	vmov.f32	s17, s0
 8001f44:	eeb0 0a69 	vmov.f32	s0, s19
 8001f48:	f004 f916 	bl	8006178 <sinf>
 8001f4c:	ee68 7a40 	vnmul.f32	s15, s16, s0
 8001f50:	eeb6 1a00 	vmov.f32	s2, #96	; 0x3f000000  0.5
 8001f54:	eee8 7a89 	vfma.f32	s15, s17, s18
 8001f58:	ee21 7a68 	vnmul.f32	s14, s2, s17
 8001f5c:	ee21 1a40 	vnmul.f32	s2, s2, s0
 8001f60:	eddf 6a10 	vldr	s13, [pc, #64]	; 8001fa4 <abc+0x80>
 8001f64:	ed9f 6a10 	vldr	s12, [pc, #64]	; 8001fa8 <abc+0x84>
 8001f68:	edc6 7a00 	vstr	s15, [r6]
 8001f6c:	eef0 7a41 	vmov.f32	s15, s2
 8001f70:	eee8 7a86 	vfma.f32	s15, s17, s12
 8001f74:	eea8 1aa6 	vfma.f32	s2, s17, s13
 8001f78:	eef0 5a47 	vmov.f32	s11, s14
 8001f7c:	eee0 5a26 	vfma.f32	s11, s0, s13
 8001f80:	eea0 7a06 	vfma.f32	s14, s0, s12
 8001f84:	ee68 7a67 	vnmul.f32	s15, s16, s15
 8001f88:	ee28 8a41 	vnmul.f32	s16, s16, s2
 8001f8c:	eee5 7a89 	vfma.f32	s15, s11, s18
 8001f90:	eea7 8a09 	vfma.f32	s16, s14, s18
 8001f94:	edc5 7a00 	vstr	s15, [r5]
 8001f98:	ed84 8a00 	vstr	s16, [r4]
 8001f9c:	ecbd 8b04 	vpop	{d8-d9}
 8001fa0:	bd70      	pop	{r4, r5, r6, pc}
 8001fa2:	bf00      	nop
 8001fa4:	3f5db3d7 	.word	0x3f5db3d7
 8001fa8:	bf5db3d7 	.word	0xbf5db3d7

08001fac <dq0>:
 8001fac:	b538      	push	{r3, r4, r5, lr}
 8001fae:	ed2d 8b06 	vpush	{d8-d10}
 8001fb2:	4605      	mov	r5, r0
 8001fb4:	eef0 9a60 	vmov.f32	s19, s1
 8001fb8:	eeb0 8a41 	vmov.f32	s16, s2
 8001fbc:	eeb0 9a61 	vmov.f32	s18, s3
 8001fc0:	eeb0 aa40 	vmov.f32	s20, s0
 8001fc4:	460c      	mov	r4, r1
 8001fc6:	f004 f845 	bl	8006054 <cosf>
 8001fca:	eef0 8a40 	vmov.f32	s17, s0
 8001fce:	eeb0 0a4a 	vmov.f32	s0, s20
 8001fd2:	f004 f8d1 	bl	8006178 <sinf>
 8001fd6:	eeb6 1a00 	vmov.f32	s2, #96	; 0x3f000000  0.5
 8001fda:	ee61 7a68 	vnmul.f32	s15, s2, s17
 8001fde:	ed9f 6a15 	vldr	s12, [pc, #84]	; 8002034 <dq0+0x88>
 8001fe2:	eddf 6a15 	vldr	s13, [pc, #84]	; 8002038 <dq0+0x8c>
 8001fe6:	eeb0 7a67 	vmov.f32	s14, s15
 8001fea:	eee0 7a06 	vfma.f32	s15, s0, s12
 8001fee:	eea0 7a26 	vfma.f32	s14, s0, s13
 8001ff2:	ee67 7a88 	vmul.f32	s15, s15, s16
 8001ff6:	ee21 1a40 	vnmul.f32	s2, s2, s0
 8001ffa:	eee8 7aa9 	vfma.f32	s15, s17, s19
 8001ffe:	eee7 7a09 	vfma.f32	s15, s14, s18
 8002002:	ed9f 7a0e 	vldr	s14, [pc, #56]	; 800203c <dq0+0x90>
 8002006:	ee67 7a87 	vmul.f32	s15, s15, s14
 800200a:	edc5 7a00 	vstr	s15, [r5]
 800200e:	eef0 7a41 	vmov.f32	s15, s2
 8002012:	eea8 1aa6 	vfma.f32	s2, s17, s13
 8002016:	eee8 7a86 	vfma.f32	s15, s17, s12
 800201a:	ee28 8a41 	vnmul.f32	s16, s16, s2
 800201e:	eea0 8a69 	vfms.f32	s16, s0, s19
 8002022:	eea7 8ac9 	vfms.f32	s16, s15, s18
 8002026:	ee28 8a07 	vmul.f32	s16, s16, s14
 800202a:	ed84 8a00 	vstr	s16, [r4]
 800202e:	ecbd 8b06 	vpop	{d8-d10}
 8002032:	bd38      	pop	{r3, r4, r5, pc}
 8002034:	3f5db3d7 	.word	0x3f5db3d7
 8002038:	bf5db3d7 	.word	0xbf5db3d7
 800203c:	3f2aaaab 	.word	0x3f2aaaab

08002040 <svm>:
 8002040:	b570      	push	{r4, r5, r6, lr}
 8002042:	ed2d 8b08 	vpush	{d8-d11}
 8002046:	eef0 9a60 	vmov.f32	s19, s1
 800204a:	eeb0 9a41 	vmov.f32	s18, s2
 800204e:	eef0 0a49 	vmov.f32	s1, s18
 8002052:	eeb0 1a61 	vmov.f32	s2, s3
 8002056:	eef0 aa40 	vmov.f32	s21, s0
 800205a:	eeb0 0a69 	vmov.f32	s0, s19
 800205e:	eeb0 8a61 	vmov.f32	s16, s3
 8002062:	4606      	mov	r6, r0
 8002064:	460d      	mov	r5, r1
 8002066:	4614      	mov	r4, r2
 8002068:	f001 f85a 	bl	8003120 <fminf3>
 800206c:	eeb0 1a48 	vmov.f32	s2, s16
 8002070:	eef0 0a49 	vmov.f32	s1, s18
 8002074:	eef0 8a40 	vmov.f32	s17, s0
 8002078:	eeb0 0a69 	vmov.f32	s0, s19
 800207c:	f001 f839 	bl	80030f2 <fmaxf3>
 8002080:	ee78 8a80 	vadd.f32	s17, s17, s0
 8002084:	eeb6 aa00 	vmov.f32	s20, #96	; 0x3f000000  0.5
 8002088:	eef1 8a68 	vneg.f32	s17, s17
 800208c:	eee8 9a8a 	vfma.f32	s19, s17, s20
 8002090:	ed9f ba1f 	vldr	s22, [pc, #124]	; 8002110 <svm+0xd0>
 8002094:	eddf ba1f 	vldr	s23, [pc, #124]	; 8002114 <svm+0xd4>
 8002098:	ee6a aa8b 	vmul.f32	s21, s21, s22
 800209c:	ee69 9a8a 	vmul.f32	s19, s19, s20
 80020a0:	eea8 9a8a 	vfma.f32	s18, s17, s20
 80020a4:	ee89 0aaa 	vdiv.f32	s0, s19, s21
 80020a8:	eddf 9a1b 	vldr	s19, [pc, #108]	; 8002118 <svm+0xd8>
 80020ac:	eef0 0a6b 	vmov.f32	s1, s23
 80020b0:	ee30 0a29 	vadd.f32	s0, s0, s19
 80020b4:	f004 f80e 	bl	80060d4 <fmaxf>
 80020b8:	eef0 0a4b 	vmov.f32	s1, s22
 80020bc:	f004 f825 	bl	800610a <fminf>
 80020c0:	ee29 9a0a 	vmul.f32	s18, s18, s20
 80020c4:	ed86 0a00 	vstr	s0, [r6]
 80020c8:	ee89 0a2a 	vdiv.f32	s0, s18, s21
 80020cc:	eea8 8a8a 	vfma.f32	s16, s17, s20
 80020d0:	eef0 0a6b 	vmov.f32	s1, s23
 80020d4:	ee30 0a29 	vadd.f32	s0, s0, s19
 80020d8:	f003 fffc 	bl	80060d4 <fmaxf>
 80020dc:	eef0 0a4b 	vmov.f32	s1, s22
 80020e0:	f004 f813 	bl	800610a <fminf>
 80020e4:	ee28 8a0a 	vmul.f32	s16, s16, s20
 80020e8:	ed85 0a00 	vstr	s0, [r5]
 80020ec:	ee88 0a2a 	vdiv.f32	s0, s16, s21
 80020f0:	eef0 0a6b 	vmov.f32	s1, s23
 80020f4:	ee30 0a29 	vadd.f32	s0, s0, s19
 80020f8:	f003 ffec 	bl	80060d4 <fmaxf>
 80020fc:	eef0 0a4b 	vmov.f32	s1, s22
 8002100:	f004 f803 	bl	800610a <fminf>
 8002104:	ecbd 8b08 	vpop	{d8-d11}
 8002108:	ed84 0a00 	vstr	s0, [r4]
 800210c:	bd70      	pop	{r4, r5, r6, pc}
 800210e:	bf00      	nop
 8002110:	3f70a3d7 	.word	0x3f70a3d7
 8002114:	00000000 	.word	0x00000000
 8002118:	3ef0a3d7 	.word	0x3ef0a3d7

0800211c <zero_current>:
 800211c:	b5f8      	push	{r3, r4, r5, r6, r7, lr}
 800211e:	2300      	movs	r3, #0
 8002120:	6543      	str	r3, [r0, #84]	; 0x54
 8002122:	6583      	str	r3, [r0, #88]	; 0x58
 8002124:	65c3      	str	r3, [r0, #92]	; 0x5c
 8002126:	4604      	mov	r4, r0
 8002128:	f7ff fe4e 	bl	8001dc8 <set_dtc>
 800212c:	2500      	movs	r5, #0
 800212e:	f44f 777a 	mov.w	r7, #1000	; 0x3e8
 8002132:	462e      	mov	r6, r5
 8002134:	4620      	mov	r0, r4
 8002136:	f7ff fe8f 	bl	8001e58 <analog_sample>
 800213a:	6863      	ldr	r3, [r4, #4]
 800213c:	441e      	add	r6, r3
 800213e:	68a3      	ldr	r3, [r4, #8]
 8002140:	3f01      	subs	r7, #1
 8002142:	441d      	add	r5, r3
 8002144:	d1f6      	bne.n	8002134 <zero_current+0x18>
 8002146:	f44f 737a 	mov.w	r3, #1000	; 0x3e8
 800214a:	fb96 f6f3 	sdiv	r6, r6, r3
 800214e:	fb95 f5f3 	sdiv	r5, r5, r3
 8002152:	f8c4 6088 	str.w	r6, [r4, #136]	; 0x88
 8002156:	f8c4 508c 	str.w	r5, [r4, #140]	; 0x8c
 800215a:	bdf8      	pop	{r3, r4, r5, r6, r7, pc}

0800215c <init_controller_params>:
 800215c:	e92d 43f8 	stmdb	sp!, {r3, r4, r5, r6, r7, r8, r9, lr}
 8002160:	4b29      	ldr	r3, [pc, #164]	; (8002208 <init_controller_params+0xac>)
 8002162:	eddf 7a2a 	vldr	s15, [pc, #168]	; 800220c <init_controller_params+0xb0>
 8002166:	ed9f 7a2a 	vldr	s14, [pc, #168]	; 8002210 <init_controller_params+0xb4>
 800216a:	f8df 90bc 	ldr.w	r9, [pc, #188]	; 8002228 <init_controller_params+0xcc>
 800216e:	4f29      	ldr	r7, [pc, #164]	; (8002214 <init_controller_params+0xb8>)
 8002170:	ed2d 8b02 	vpush	{d8}
 8002174:	6743      	str	r3, [r0, #116]	; 0x74
 8002176:	6783      	str	r3, [r0, #120]	; 0x78
 8002178:	4b27      	ldr	r3, [pc, #156]	; (8002218 <init_controller_params+0xbc>)
 800217a:	ed9f 8a28 	vldr	s16, [pc, #160]	; 800221c <init_controller_params+0xc0>
 800217e:	edd3 6a02 	vldr	s13, [r3, #8]
 8002182:	ee66 7aa7 	vmul.f32	s15, s13, s15
 8002186:	ee27 7a66 	vnmul.f32	s14, s14, s13
 800218a:	edc0 7a1b 	vstr	s15, [r0, #108]	; 0x6c
 800218e:	edc0 7a1c 	vstr	s15, [r0, #112]	; 0x70
 8002192:	eddf 6a23 	vldr	s13, [pc, #140]	; 8002220 <init_controller_params+0xc4>
 8002196:	eef7 7a00 	vmov.f32	s15, #112	; 0x3f800000  1.0
 800219a:	eeb0 6a67 	vmov.f32	s12, s15
 800219e:	eea7 6a26 	vfma.f32	s12, s14, s13
 80021a2:	f100 04e0 	add.w	r4, r0, #224	; 0xe0
 80021a6:	2500      	movs	r5, #0
 80021a8:	f04f 4880 	mov.w	r8, #1073741824	; 0x40000000
 80021ac:	ee87 7a86 	vdiv.f32	s14, s15, s12
 80021b0:	2600      	movs	r6, #0
 80021b2:	ee77 7ac7 	vsub.f32	s15, s15, s14
 80021b6:	edc0 7a1f 	vstr	s15, [r0, #124]	; 0x7c
 80021ba:	ee07 5a90 	vmov	s15, r5
 80021be:	eef8 7ae7 	vcvt.f32.s32	s15, s15
 80021c2:	ed9f 7a18 	vldr	s14, [pc, #96]	; 8002224 <init_controller_params+0xc8>
 80021c6:	ee67 7a88 	vmul.f32	s15, s15, s16
 80021ca:	3501      	adds	r5, #1
 80021cc:	eec7 7a87 	vdiv.f32	s15, s15, s14
 80021d0:	ee17 0a90 	vmov	r0, s15
 80021d4:	f7fe f9d8 	bl	8000588 <__aeabi_f2d>
 80021d8:	ec41 0b10 	vmov	d0, r0, r1
 80021dc:	f004 f810 	bl	8006200 <exp>
 80021e0:	4642      	mov	r2, r8
 80021e2:	ec51 0b10 	vmov	r0, r1, d0
 80021e6:	464b      	mov	r3, r9
 80021e8:	f7fe fa26 	bl	8000638 <__aeabi_dmul>
 80021ec:	4632      	mov	r2, r6
 80021ee:	463b      	mov	r3, r7
 80021f0:	f7fe f86c 	bl	80002cc <__adddf3>
 80021f4:	f7fe fd18 	bl	8000c28 <__aeabi_d2f>
 80021f8:	2d80      	cmp	r5, #128	; 0x80
 80021fa:	f844 0b04 	str.w	r0, [r4], #4
 80021fe:	d1dc      	bne.n	80021ba <init_controller_params+0x5e>
 8002200:	ecbd 8b02 	vpop	{d8}
 8002204:	e8bd 83f8 	ldmia.w	sp!, {r3, r4, r5, r6, r7, r8, r9, pc}
 8002208:	3d3a5e35 	.word	0x3d3a5e35
 800220c:	38d1b717 	.word	0x38d1b717
 8002210:	37d1b717 	.word	0x37d1b717
 8002214:	3ff00000 	.word	0x3ff00000
 8002218:	20000dc8 	.word	0x20000dc8
 800221c:	bc000000 	.word	0xbc000000
 8002220:	40c90fdb 	.word	0x40c90fdb
 8002224:	3d03126f 	.word	0x3d03126f
 8002228:	3ff33333 	.word	0x3ff33333

0800222c <reset_foc>:
 800222c:	4b19      	ldr	r3, [pc, #100]	; (8002294 <reset_foc+0x68>)
 800222e:	681b      	ldr	r3, [r3, #0]
 8002230:	ed93 7a0b 	vldr	s14, [r3, #44]	; 0x2c
 8002234:	eeb8 7a47 	vcvt.f32.u32	s14, s14
 8002238:	eef6 6a00 	vmov.f32	s13, #96	; 0x3f000000  0.5
 800223c:	ee27 7a26 	vmul.f32	s14, s14, s13
 8002240:	eebc 7ac7 	vcvt.u32.f32	s14, s14
 8002244:	ed83 7a0f 	vstr	s14, [r3, #60]	; 0x3c
 8002248:	ed93 7a0b 	vldr	s14, [r3, #44]	; 0x2c
 800224c:	eeb8 7a47 	vcvt.f32.u32	s14, s14
 8002250:	ee27 7a26 	vmul.f32	s14, s14, s13
 8002254:	eebc 7ac7 	vcvt.u32.f32	s14, s14
 8002258:	ed83 7a0d 	vstr	s14, [r3, #52]	; 0x34
 800225c:	edd3 7a0b 	vldr	s15, [r3, #44]	; 0x2c
 8002260:	eef8 7a67 	vcvt.f32.u32	s15, s15
 8002264:	ee67 7aa6 	vmul.f32	s15, s15, s13
 8002268:	eefc 7ae7 	vcvt.u32.f32	s15, s15
 800226c:	edc3 7a0e 	vstr	s15, [r3, #56]	; 0x38
 8002270:	2300      	movs	r3, #0
 8002272:	f8c0 3098 	str.w	r3, [r0, #152]	; 0x98
 8002276:	f8c0 309c 	str.w	r3, [r0, #156]	; 0x9c
 800227a:	6383      	str	r3, [r0, #56]	; 0x38
 800227c:	63c3      	str	r3, [r0, #60]	; 0x3c
 800227e:	6403      	str	r3, [r0, #64]	; 0x40
 8002280:	f8c0 3084 	str.w	r3, [r0, #132]	; 0x84
 8002284:	f8c0 3080 	str.w	r3, [r0, #128]	; 0x80
 8002288:	6503      	str	r3, [r0, #80]	; 0x50
 800228a:	64c3      	str	r3, [r0, #76]	; 0x4c
 800228c:	2300      	movs	r3, #0
 800228e:	f8c0 30d8 	str.w	r3, [r0, #216]	; 0xd8
 8002292:	4770      	bx	lr
 8002294:	20009bb8 	.word	0x20009bb8

08002298 <commutate>:
 8002298:	b510      	push	{r4, lr}
 800229a:	eddf 7a7b 	vldr	s15, [pc, #492]	; 8002488 <commutate+0x1f0>
 800229e:	6e0b      	ldr	r3, [r1, #96]	; 0x60
 80022a0:	ed91 0a16 	vldr	s0, [r1, #88]	; 0x58
 80022a4:	ed90 1a06 	vldr	s2, [r0, #24]
 80022a8:	edd0 1a07 	vldr	s3, [r0, #28]
 80022ac:	edd0 0a05 	vldr	s1, [r0, #20]
 80022b0:	ed2d 8b06 	vpush	{d8-d10}
 80022b4:	ed90 8a08 	vldr	s16, [r0, #32]
 80022b8:	6303      	str	r3, [r0, #48]	; 0x30
 80022ba:	ee28 8a27 	vmul.f32	s16, s16, s15
 80022be:	eddf 7a73 	vldr	s15, [pc, #460]	; 800248c <commutate+0x1f4>
 80022c2:	6dcb      	ldr	r3, [r1, #92]	; 0x5c
 80022c4:	62c3      	str	r3, [r0, #44]	; 0x2c
 80022c6:	ee28 8a27 	vmul.f32	s16, s16, s15
 80022ca:	688b      	ldr	r3, [r1, #8]
 80022cc:	eddf 7a70 	vldr	s15, [pc, #448]	; 8002490 <commutate+0x1f8>
 80022d0:	6243      	str	r3, [r0, #36]	; 0x24
 80022d2:	eeb0 7ac1 	vabs.f32	s14, s2
 80022d6:	f8d0 30a8 	ldr.w	r3, [r0, #168]	; 0xa8
 80022da:	ed80 0a0a 	vstr	s0, [r0, #40]	; 0x28
 80022de:	eeb4 7ae7 	vcmpe.f32	s14, s15
 80022e2:	eeb0 7ae1 	vabs.f32	s14, s3
 80022e6:	3301      	adds	r3, #1
 80022e8:	eef1 fa10 	vmrs	APSR_nzcv, fpscr
 80022ec:	eeb4 7ae7 	vcmpe.f32	s14, s15
 80022f0:	f8c0 30a8 	str.w	r3, [r0, #168]	; 0xa8
 80022f4:	bfcc      	ite	gt
 80022f6:	2301      	movgt	r3, #1
 80022f8:	2300      	movle	r3, #0
 80022fa:	eef1 fa10 	vmrs	APSR_nzcv, fpscr
 80022fe:	bfc8      	it	gt
 8002300:	f043 0301 	orrgt.w	r3, r3, #1
 8002304:	4604      	mov	r4, r0
 8002306:	b933      	cbnz	r3, 8002316 <commutate+0x7e>
 8002308:	eeb0 7ae0 	vabs.f32	s14, s1
 800230c:	eeb4 7a67 	vcmp.f32	s14, s15
 8002310:	eef1 fa10 	vmrs	APSR_nzcv, fpscr
 8002314:	dd02      	ble.n	800231c <commutate+0x84>
 8002316:	2301      	movs	r3, #1
 8002318:	f8c4 30b8 	str.w	r3, [r4, #184]	; 0xb8
 800231c:	f104 013c 	add.w	r1, r4, #60	; 0x3c
 8002320:	f104 0038 	add.w	r0, r4, #56	; 0x38
 8002324:	f7ff fe42 	bl	8001fac <dq0>
 8002328:	ed9f 6a5a 	vldr	s12, [pc, #360]	; 8002494 <commutate+0x1fc>
 800232c:	ed94 7a0f 	vldr	s14, [r4, #60]	; 0x3c
 8002330:	eddf 6a59 	vldr	s13, [pc, #356]	; 8002498 <commutate+0x200>
 8002334:	edd4 7a10 	vldr	s15, [r4, #64]	; 0x40
 8002338:	4b58      	ldr	r3, [pc, #352]	; (800249c <commutate+0x204>)
 800233a:	ee27 7a06 	vmul.f32	s14, s14, s12
 800233e:	f104 019c 	add.w	r1, r4, #156	; 0x9c
 8002342:	eea7 7aa6 	vfma.f32	s14, s15, s13
 8002346:	f104 0098 	add.w	r0, r4, #152	; 0x98
 800234a:	edd4 7a0e 	vldr	s15, [r4, #56]	; 0x38
 800234e:	ed84 7a10 	vstr	s14, [r4, #64]	; 0x40
 8002352:	ee67 7a86 	vmul.f32	s15, s15, s12
 8002356:	ed94 7a11 	vldr	s14, [r4, #68]	; 0x44
 800235a:	eee7 7a26 	vfma.f32	s15, s14, s13
 800235e:	eef1 9a48 	vneg.f32	s19, s16
 8002362:	edc4 7a11 	vstr	s15, [r4, #68]	; 0x44
 8002366:	ed93 0a03 	vldr	s0, [r3, #12]
 800236a:	ed84 0a37 	vstr	s0, [r4, #220]	; 0xdc
 800236e:	f000 feee 	bl	800314e <limit_norm>
 8002372:	edd4 7a0e 	vldr	s15, [r4, #56]	; 0x38
 8002376:	ed94 9a26 	vldr	s18, [r4, #152]	; 0x98
 800237a:	edd4 8a27 	vldr	s17, [r4, #156]	; 0x9c
 800237e:	ed94 aa1b 	vldr	s20, [r4, #108]	; 0x6c
 8002382:	ed94 0a20 	vldr	s0, [r4, #128]	; 0x80
 8002386:	ee39 9a67 	vsub.f32	s18, s18, s15
 800238a:	edd4 7a0f 	vldr	s15, [r4, #60]	; 0x3c
 800238e:	ee78 8ae7 	vsub.f32	s17, s17, s15
 8002392:	edd4 7a1d 	vldr	s15, [r4, #116]	; 0x74
 8002396:	ee6a 7a27 	vmul.f32	s15, s20, s15
 800239a:	eef0 0a48 	vmov.f32	s1, s16
 800239e:	eea7 0a89 	vfma.f32	s0, s15, s18
 80023a2:	f003 feb2 	bl	800610a <fminf>
 80023a6:	eef0 0a69 	vmov.f32	s1, s19
 80023aa:	f003 fe93 	bl	80060d4 <fmaxf>
 80023ae:	eef0 0a48 	vmov.f32	s1, s16
 80023b2:	ed84 0a20 	vstr	s0, [r4, #128]	; 0x80
 80023b6:	eeaa 0a09 	vfma.f32	s0, s20, s18
 80023ba:	f003 fea6 	bl	800610a <fminf>
 80023be:	eef0 0a69 	vmov.f32	s1, s19
 80023c2:	f003 fe87 	bl	80060d4 <fmaxf>
 80023c6:	ed84 0a13 	vstr	s0, [r4, #76]	; 0x4c
 80023ca:	ee20 0a40 	vnmul.f32	s0, s0, s0
 80023ce:	eea8 0a08 	vfma.f32	s0, s16, s16
 80023d2:	f004 f847 	bl	8006464 <sqrtf>
 80023d6:	ed94 9a1c 	vldr	s18, [r4, #112]	; 0x70
 80023da:	edd4 7a1e 	vldr	s15, [r4, #120]	; 0x78
 80023de:	ed94 0a21 	vldr	s0, [r4, #132]	; 0x84
 80023e2:	ee69 7a27 	vmul.f32	s15, s18, s15
 80023e6:	eef0 0a48 	vmov.f32	s1, s16
 80023ea:	eea7 0aa8 	vfma.f32	s0, s15, s17
 80023ee:	f003 fe8c 	bl	800610a <fminf>
 80023f2:	eef0 0a69 	vmov.f32	s1, s19
 80023f6:	f003 fe6d 	bl	80060d4 <fmaxf>
 80023fa:	ed84 0a21 	vstr	s0, [r4, #132]	; 0x84
 80023fe:	eea9 0a28 	vfma.f32	s0, s18, s17
 8002402:	edd4 7a13 	vldr	s15, [r4, #76]	; 0x4c
 8002406:	ed84 0a14 	vstr	s0, [r4, #80]	; 0x50
 800240a:	ee20 0a00 	vmul.f32	s0, s0, s0
 800240e:	eea7 0aa7 	vfma.f32	s0, s15, s15
 8002412:	ee10 0a10 	vmov	r0, s0
 8002416:	f7fe f8b7 	bl	8000588 <__aeabi_f2d>
 800241a:	ec41 0b10 	vmov	d0, r0, r1
 800241e:	f003 ff6b 	bl	80062f8 <sqrt>
 8002422:	ec51 0b10 	vmov	r0, r1, d0
 8002426:	f7fe fbff 	bl	8000c28 <__aeabi_d2f>
 800242a:	eddf 0a1d 	vldr	s1, [pc, #116]	; 80024a0 <commutate+0x208>
 800242e:	edd4 7a0c 	vldr	s15, [r4, #48]	; 0x30
 8002432:	ed94 0a0a 	vldr	s0, [r4, #40]	; 0x28
 8002436:	f8c4 00d0 	str.w	r0, [r4, #208]	; 0xd0
 800243a:	eeb7 1a00 	vmov.f32	s2, #112	; 0x3f800000  1.0
 800243e:	eea7 0aa0 	vfma.f32	s0, s15, s1
 8002442:	f104 0268 	add.w	r2, r4, #104	; 0x68
 8002446:	f104 0164 	add.w	r1, r4, #100	; 0x64
 800244a:	ed84 1a14 	vstr	s2, [r4, #80]	; 0x50
 800244e:	edc4 0a13 	vstr	s1, [r4, #76]	; 0x4c
 8002452:	f104 0060 	add.w	r0, r4, #96	; 0x60
 8002456:	f7ff fd65 	bl	8001f24 <abc>
 800245a:	f104 0054 	add.w	r0, r4, #84	; 0x54
 800245e:	f104 025c 	add.w	r2, r4, #92	; 0x5c
 8002462:	f104 0158 	add.w	r1, r4, #88	; 0x58
 8002466:	edd4 1a1a 	vldr	s3, [r4, #104]	; 0x68
 800246a:	ed94 1a19 	vldr	s2, [r4, #100]	; 0x64
 800246e:	edd4 0a18 	vldr	s1, [r4, #96]	; 0x60
 8002472:	ed94 0a08 	vldr	s0, [r4, #32]
 8002476:	f7ff fde3 	bl	8002040 <svm>
 800247a:	ecbd 8b06 	vpop	{d8-d10}
 800247e:	4620      	mov	r0, r4
 8002480:	e8bd 4010 	ldmia.w	sp!, {r4, lr}
 8002484:	f7ff bca0 	b.w	8001dc8 <set_dtc>
 8002488:	3f933333 	.word	0x3f933333
 800248c:	3f70a3d7 	.word	0x3f70a3d7
 8002490:	42240000 	.word	0x42240000
 8002494:	3c23d70a 	.word	0x3c23d70a
 8002498:	3f7d70a4 	.word	0x3f7d70a4
 800249c:	20000dc8 	.word	0x20000dc8
 80024a0:	00000000 	.word	0x00000000

080024a4 <zero_commands>:
 80024a4:	2300      	movs	r3, #0
 80024a6:	f8c0 30cc 	str.w	r3, [r0, #204]	; 0xcc
 80024aa:	f8c0 30c4 	str.w	r3, [r0, #196]	; 0xc4
 80024ae:	f8c0 30c8 	str.w	r3, [r0, #200]	; 0xc8
 80024b2:	f8c0 30bc 	str.w	r3, [r0, #188]	; 0xbc
 80024b6:	f8c0 30c0 	str.w	r3, [r0, #192]	; 0xc0
 80024ba:	f8c0 309c 	str.w	r3, [r0, #156]	; 0x9c
 80024be:	4770      	bx	lr

080024c0 <fsm_exit_state>:
 80024c0:	b538      	push	{r3, r4, r5, lr}
 80024c2:	7803      	ldrb	r3, [r0, #0]
 80024c4:	4604      	mov	r4, r0
 80024c6:	2b05      	cmp	r3, #5
 80024c8:	d834      	bhi.n	8002534 <fsm_exit_state+0x74>
 80024ca:	e8df f003 	tbb	[pc, r3]
 80024ce:	2c31      	.short	0x2c31
 80024d0:	31313303 	.word	0x31313303
 80024d4:	4d18      	ldr	r5, [pc, #96]	; (8002538 <fsm_exit_state+0x78>)
 80024d6:	edd5 7a10 	vldr	s15, [r5, #64]	; 0x40
 80024da:	eeb7 7a00 	vmov.f32	s14, #112	; 0x3f800000  1.0
 80024de:	eef0 7ae7 	vabs.f32	s15, s15
 80024e2:	eef4 7ac7 	vcmpe.f32	s15, s14
 80024e6:	eef1 fa10 	vmrs	APSR_nzcv, fpscr
 80024ea:	d517      	bpl.n	800251c <fsm_exit_state+0x5c>
 80024ec:	edd5 7a11 	vldr	s15, [r5, #68]	; 0x44
 80024f0:	eef0 7ae7 	vabs.f32	s15, s15
 80024f4:	eef4 7ac7 	vcmpe.f32	s15, s14
 80024f8:	eef1 fa10 	vmrs	APSR_nzcv, fpscr
 80024fc:	d50e      	bpl.n	800251c <fsm_exit_state+0x5c>
 80024fe:	2301      	movs	r3, #1
 8002500:	70c3      	strb	r3, [r0, #3]
 8002502:	4b0e      	ldr	r3, [pc, #56]	; (800253c <fsm_exit_state+0x7c>)
 8002504:	6818      	ldr	r0, [r3, #0]
 8002506:	8899      	ldrh	r1, [r3, #4]
 8002508:	f7ff fb22 	bl	8001b50 <drv_disable_gd>
 800250c:	4628      	mov	r0, r5
 800250e:	f7ff fe8d 	bl	800222c <reset_foc>
 8002512:	2200      	movs	r2, #0
 8002514:	2120      	movs	r1, #32
 8002516:	480a      	ldr	r0, [pc, #40]	; (8002540 <fsm_exit_state+0x80>)
 8002518:	f002 faf0 	bl	8004afc <HAL_GPIO_WritePin>
 800251c:	4806      	ldr	r0, [pc, #24]	; (8002538 <fsm_exit_state+0x78>)
 800251e:	e8bd 4038 	ldmia.w	sp!, {r3, r4, r5, lr}
 8002522:	f7ff bfbf 	b.w	80024a4 <zero_commands>
 8002526:	4b05      	ldr	r3, [pc, #20]	; (800253c <fsm_exit_state+0x7c>)
 8002528:	6818      	ldr	r0, [r3, #0]
 800252a:	8899      	ldrh	r1, [r3, #4]
 800252c:	f7ff fb10 	bl	8001b50 <drv_disable_gd>
 8002530:	2301      	movs	r3, #1
 8002532:	70e3      	strb	r3, [r4, #3]
 8002534:	bd38      	pop	{r3, r4, r5, pc}
 8002536:	bf00      	nop
 8002538:	20000ec8 	.word	0x20000ec8
 800253c:	20009a84 	.word	0x20009a84
 8002540:	40020800 	.word	0x40020800

08002544 <enter_menu_state>:
 8002544:	b508      	push	{r3, lr}
 8002546:	480d      	ldr	r0, [pc, #52]	; (800257c <enter_menu_state+0x38>)
 8002548:	f004 ffe2 	bl	8007510 <printf>
 800254c:	480c      	ldr	r0, [pc, #48]	; (8002580 <enter_menu_state+0x3c>)
 800254e:	f004 ffdf 	bl	8007510 <printf>
 8002552:	480c      	ldr	r0, [pc, #48]	; (8002584 <enter_menu_state+0x40>)
 8002554:	f004 ffdc 	bl	8007510 <printf>
 8002558:	480b      	ldr	r0, [pc, #44]	; (8002588 <enter_menu_state+0x44>)
 800255a:	f004 ffd9 	bl	8007510 <printf>
 800255e:	480b      	ldr	r0, [pc, #44]	; (800258c <enter_menu_state+0x48>)
 8002560:	f004 ffd6 	bl	8007510 <printf>
 8002564:	480a      	ldr	r0, [pc, #40]	; (8002590 <enter_menu_state+0x4c>)
 8002566:	f004 ffd3 	bl	8007510 <printf>
 800256a:	480a      	ldr	r0, [pc, #40]	; (8002594 <enter_menu_state+0x50>)
 800256c:	f004 ffd0 	bl	8007510 <printf>
 8002570:	4809      	ldr	r0, [pc, #36]	; (8002598 <enter_menu_state+0x54>)
 8002572:	e8bd 4008 	ldmia.w	sp!, {r3, lr}
 8002576:	f004 bfcb 	b.w	8007510 <printf>
 800257a:	bf00      	nop
 800257c:	0800ceed 	.word	0x0800ceed
 8002580:	0800cc7c 	.word	0x0800cc7c
 8002584:	0800cc89 	.word	0x0800cc89
 8002588:	0800cc9b 	.word	0x0800cc9b
 800258c:	0800ccb4 	.word	0x0800ccb4
 8002590:	0800ccc1 	.word	0x0800ccc1
 8002594:	0800ccd8 	.word	0x0800ccd8
 8002598:	0800ccf1 	.word	0x0800ccf1

0800259c <enter_setup_state>:
 800259c:	e92d 43f0 	stmdb	sp!, {r4, r5, r6, r7, r8, r9, lr}
 80025a0:	4840      	ldr	r0, [pc, #256]	; (80026a4 <enter_setup_state+0x108>)
 80025a2:	4e41      	ldr	r6, [pc, #260]	; (80026a8 <enter_setup_state+0x10c>)
 80025a4:	4c41      	ldr	r4, [pc, #260]	; (80026ac <enter_setup_state+0x110>)
 80025a6:	4f42      	ldr	r7, [pc, #264]	; (80026b0 <enter_setup_state+0x114>)
 80025a8:	4d42      	ldr	r5, [pc, #264]	; (80026b4 <enter_setup_state+0x118>)
 80025aa:	f8df 8184 	ldr.w	r8, [pc, #388]	; 8002730 <enter_setup_state+0x194>
 80025ae:	f8df 9184 	ldr.w	r9, [pc, #388]	; 8002734 <enter_setup_state+0x198>
 80025b2:	b085      	sub	sp, #20
 80025b4:	f004 ffac 	bl	8007510 <printf>
 80025b8:	4b3f      	ldr	r3, [pc, #252]	; (80026b8 <enter_setup_state+0x11c>)
 80025ba:	9301      	str	r3, [sp, #4]
 80025bc:	4b3f      	ldr	r3, [pc, #252]	; (80026bc <enter_setup_state+0x120>)
 80025be:	9300      	str	r3, [sp, #0]
 80025c0:	4a3f      	ldr	r2, [pc, #252]	; (80026c0 <enter_setup_state+0x124>)
 80025c2:	4b40      	ldr	r3, [pc, #256]	; (80026c4 <enter_setup_state+0x128>)
 80025c4:	4940      	ldr	r1, [pc, #256]	; (80026c8 <enter_setup_state+0x12c>)
 80025c6:	4841      	ldr	r0, [pc, #260]	; (80026cc <enter_setup_state+0x130>)
 80025c8:	f004 ffa2 	bl	8007510 <printf>
 80025cc:	68b0      	ldr	r0, [r6, #8]
 80025ce:	f7fd ffdb 	bl	8000588 <__aeabi_f2d>
 80025d2:	4b3f      	ldr	r3, [pc, #252]	; (80026d0 <enter_setup_state+0x134>)
 80025d4:	9300      	str	r3, [sp, #0]
 80025d6:	e9cd 0102 	strd	r0, r1, [sp, #8]
 80025da:	4b3e      	ldr	r3, [pc, #248]	; (80026d4 <enter_setup_state+0x138>)
 80025dc:	4a3e      	ldr	r2, [pc, #248]	; (80026d8 <enter_setup_state+0x13c>)
 80025de:	493f      	ldr	r1, [pc, #252]	; (80026dc <enter_setup_state+0x140>)
 80025e0:	4620      	mov	r0, r4
 80025e2:	f004 ff95 	bl	8007510 <printf>
 80025e6:	687b      	ldr	r3, [r7, #4]
 80025e8:	9301      	str	r3, [sp, #4]
 80025ea:	f8cd 9000 	str.w	r9, [sp]
 80025ee:	462b      	mov	r3, r5
 80025f0:	4a3b      	ldr	r2, [pc, #236]	; (80026e0 <enter_setup_state+0x144>)
 80025f2:	493c      	ldr	r1, [pc, #240]	; (80026e4 <enter_setup_state+0x148>)
 80025f4:	4640      	mov	r0, r8
 80025f6:	f004 ff8b 	bl	8007510 <printf>
 80025fa:	68bb      	ldr	r3, [r7, #8]
 80025fc:	4a3a      	ldr	r2, [pc, #232]	; (80026e8 <enter_setup_state+0x14c>)
 80025fe:	493b      	ldr	r1, [pc, #236]	; (80026ec <enter_setup_state+0x150>)
 8002600:	e9cd 9300 	strd	r9, r3, [sp]
 8002604:	4640      	mov	r0, r8
 8002606:	462b      	mov	r3, r5
 8002608:	f004 ff82 	bl	8007510 <printf>
 800260c:	68f0      	ldr	r0, [r6, #12]
 800260e:	f8df 9128 	ldr.w	r9, [pc, #296]	; 8002738 <enter_setup_state+0x19c>
 8002612:	f8df 8128 	ldr.w	r8, [pc, #296]	; 800273c <enter_setup_state+0x1a0>
 8002616:	f7fd ffb7 	bl	8000588 <__aeabi_f2d>
 800261a:	464b      	mov	r3, r9
 800261c:	e9cd 0102 	strd	r0, r1, [sp, #8]
 8002620:	4a33      	ldr	r2, [pc, #204]	; (80026f0 <enter_setup_state+0x154>)
 8002622:	f8cd 8000 	str.w	r8, [sp]
 8002626:	4933      	ldr	r1, [pc, #204]	; (80026f4 <enter_setup_state+0x158>)
 8002628:	4620      	mov	r0, r4
 800262a:	f004 ff71 	bl	8007510 <printf>
 800262e:	69b0      	ldr	r0, [r6, #24]
 8002630:	f7fd ffaa 	bl	8000588 <__aeabi_f2d>
 8002634:	4b30      	ldr	r3, [pc, #192]	; (80026f8 <enter_setup_state+0x15c>)
 8002636:	9300      	str	r3, [sp, #0]
 8002638:	e9cd 0102 	strd	r0, r1, [sp, #8]
 800263c:	464b      	mov	r3, r9
 800263e:	4a2f      	ldr	r2, [pc, #188]	; (80026fc <enter_setup_state+0x160>)
 8002640:	492f      	ldr	r1, [pc, #188]	; (8002700 <enter_setup_state+0x164>)
 8002642:	4620      	mov	r0, r4
 8002644:	f004 ff64 	bl	8007510 <printf>
 8002648:	68fb      	ldr	r3, [r7, #12]
 800264a:	9301      	str	r3, [sp, #4]
 800264c:	4b2d      	ldr	r3, [pc, #180]	; (8002704 <enter_setup_state+0x168>)
 800264e:	9300      	str	r3, [sp, #0]
 8002650:	4a2d      	ldr	r2, [pc, #180]	; (8002708 <enter_setup_state+0x16c>)
 8002652:	492e      	ldr	r1, [pc, #184]	; (800270c <enter_setup_state+0x170>)
 8002654:	482e      	ldr	r0, [pc, #184]	; (8002710 <enter_setup_state+0x174>)
 8002656:	462b      	mov	r3, r5
 8002658:	f004 ff5a 	bl	8007510 <printf>
 800265c:	6a30      	ldr	r0, [r6, #32]
 800265e:	f7fd ff93 	bl	8000588 <__aeabi_f2d>
 8002662:	4b2c      	ldr	r3, [pc, #176]	; (8002714 <enter_setup_state+0x178>)
 8002664:	9300      	str	r3, [sp, #0]
 8002666:	e9cd 0102 	strd	r0, r1, [sp, #8]
 800266a:	462b      	mov	r3, r5
 800266c:	4a2a      	ldr	r2, [pc, #168]	; (8002718 <enter_setup_state+0x17c>)
 800266e:	492b      	ldr	r1, [pc, #172]	; (800271c <enter_setup_state+0x180>)
 8002670:	4620      	mov	r0, r4
 8002672:	f004 ff4d 	bl	8007510 <printf>
 8002676:	6a70      	ldr	r0, [r6, #36]	; 0x24
 8002678:	f7fd ff86 	bl	8000588 <__aeabi_f2d>
 800267c:	462b      	mov	r3, r5
 800267e:	e9cd 0102 	strd	r0, r1, [sp, #8]
 8002682:	4a27      	ldr	r2, [pc, #156]	; (8002720 <enter_setup_state+0x184>)
 8002684:	4927      	ldr	r1, [pc, #156]	; (8002724 <enter_setup_state+0x188>)
 8002686:	f8cd 8000 	str.w	r8, [sp]
 800268a:	4620      	mov	r0, r4
 800268c:	f004 ff40 	bl	8007510 <printf>
 8002690:	4825      	ldr	r0, [pc, #148]	; (8002728 <enter_setup_state+0x18c>)
 8002692:	f004 ff3d 	bl	8007510 <printf>
 8002696:	4825      	ldr	r0, [pc, #148]	; (800272c <enter_setup_state+0x190>)
 8002698:	b005      	add	sp, #20
 800269a:	e8bd 43f0 	ldmia.w	sp!, {r4, r5, r6, r7, r8, r9, lr}
 800269e:	f004 bf37 	b.w	8007510 <printf>
 80026a2:	bf00      	nop
 80026a4:	0800cd07 	.word	0x0800cd07
 80026a8:	20000dc8 	.word	0x20000dc8
 80026ac:	0800cd84 	.word	0x0800cd84
 80026b0:	20009664 	.word	0x20009664
 80026b4:	0800cde5 	.word	0x0800cde5
 80026b8:	0800cd55 	.word	0x0800cd55
 80026bc:	0800cd63 	.word	0x0800cd63
 80026c0:	0800cd27 	.word	0x0800cd27
 80026c4:	0800cd23 	.word	0x0800cd23
 80026c8:	0800cd31 	.word	0x0800cd31
 80026cc:	0800cd38 	.word	0x0800cd38
 80026d0:	0800cda1 	.word	0x0800cda1
 80026d4:	0800cd67 	.word	0x0800cd67
 80026d8:	0800cd6b 	.word	0x0800cd6b
 80026dc:	0800cd82 	.word	0x0800cd82
 80026e0:	0800cda6 	.word	0x0800cda6
 80026e4:	0800cdad 	.word	0x0800cdad
 80026e8:	0800cdd0 	.word	0x0800cdd0
 80026ec:	0800cdde 	.word	0x0800cdde
 80026f0:	0800cdea 	.word	0x0800cdea
 80026f4:	0800cde0 	.word	0x0800cde0
 80026f8:	0800cdfc 	.word	0x0800cdfc
 80026fc:	0800cde7 	.word	0x0800cde7
 8002700:	0800d08b 	.word	0x0800d08b
 8002704:	0800ce3b 	.word	0x0800ce3b
 8002708:	0800ce01 	.word	0x0800ce01
 800270c:	0800d0e5 	.word	0x0800d0e5
 8002710:	0800ce20 	.word	0x0800ce20
 8002714:	0800ce5f 	.word	0x0800ce5f
 8002718:	0800ce42 	.word	0x0800ce42
 800271c:	0800ce5d 	.word	0x0800ce5d
 8002720:	0800ce63 	.word	0x0800ce63
 8002724:	0800ce7a 	.word	0x0800ce7a
 8002728:	0800ce7c 	.word	0x0800ce7c
 800272c:	0800cec8 	.word	0x0800cec8
 8002730:	0800cdaf 	.word	0x0800cdaf
 8002734:	0800cdcc 	.word	0x0800cdcc
 8002738:	0800cde3 	.word	0x0800cde3
 800273c:	0800cde2 	.word	0x0800cde2

08002740 <fsm_enter_state>:
 8002740:	b508      	push	{r3, lr}
 8002742:	7803      	ldrb	r3, [r0, #0]
 8002744:	2b04      	cmp	r3, #4
 8002746:	d82b      	bhi.n	80027a0 <fsm_enter_state+0x60>
 8002748:	e8df f003 	tbb	[pc, r3]
 800274c:	2a0b1a03 	.word	0x2a0b1a03
 8002750:	07          	.byte	0x07
 8002751:	00          	.byte	0x00
 8002752:	e8bd 4008 	ldmia.w	sp!, {r3, lr}
 8002756:	f7ff bef5 	b.w	8002544 <enter_menu_state>
 800275a:	e8bd 4008 	ldmia.w	sp!, {r3, lr}
 800275e:	f7ff bf1d 	b.w	800259c <enter_setup_state>
 8002762:	4810      	ldr	r0, [pc, #64]	; (80027a4 <fsm_enter_state+0x64>)
 8002764:	2201      	movs	r2, #1
 8002766:	2120      	movs	r1, #32
 8002768:	f002 f9c8 	bl	8004afc <HAL_GPIO_WritePin>
 800276c:	480e      	ldr	r0, [pc, #56]	; (80027a8 <fsm_enter_state+0x68>)
 800276e:	f7ff fd5d 	bl	800222c <reset_foc>
 8002772:	4b0e      	ldr	r3, [pc, #56]	; (80027ac <fsm_enter_state+0x6c>)
 8002774:	6818      	ldr	r0, [r3, #0]
 8002776:	8899      	ldrh	r1, [r3, #4]
 8002778:	e8bd 4008 	ldmia.w	sp!, {r3, lr}
 800277c:	f7ff b9c9 	b.w	8001b12 <drv_enable_gd>
 8002780:	480b      	ldr	r0, [pc, #44]	; (80027b0 <fsm_enter_state+0x70>)
 8002782:	4b0c      	ldr	r3, [pc, #48]	; (80027b4 <fsm_enter_state+0x74>)
 8002784:	2100      	movs	r1, #0
 8002786:	f8c0 1084 	str.w	r1, [r0, #132]	; 0x84
 800278a:	f44f 7200 	mov.w	r2, #512	; 0x200
 800278e:	3088      	adds	r0, #136	; 0x88
 8002790:	f883 1022 	strb.w	r1, [r3, #34]	; 0x22
 8002794:	f883 1021 	strb.w	r1, [r3, #33]	; 0x21
 8002798:	7419      	strb	r1, [r3, #16]
 800279a:	f004 feb0 	bl	80074fe <memset>
 800279e:	e7e8      	b.n	8002772 <fsm_enter_state+0x32>
 80027a0:	bd08      	pop	{r3, pc}
 80027a2:	bf00      	nop
 80027a4:	40020800 	.word	0x40020800
 80027a8:	20000ec8 	.word	0x20000ec8
 80027ac:	20009a84 	.word	0x20009a84
 80027b0:	20000b18 	.word	0x20000b18
 80027b4:	200011ac 	.word	0x200011ac

080027b8 <run_fsm>:
 80027b8:	e92d 41f3 	stmdb	sp!, {r0, r1, r4, r5, r6, r7, r8, lr}
 80027bc:	7842      	ldrb	r2, [r0, #1]
 80027be:	7803      	ldrb	r3, [r0, #0]
 80027c0:	429a      	cmp	r2, r3
 80027c2:	4605      	mov	r5, r0
 80027c4:	d008      	beq.n	80027d8 <run_fsm+0x20>
 80027c6:	f7ff fe7b 	bl	80024c0 <fsm_exit_state>
 80027ca:	78eb      	ldrb	r3, [r5, #3]
 80027cc:	b123      	cbz	r3, 80027d8 <run_fsm+0x20>
 80027ce:	786b      	ldrb	r3, [r5, #1]
 80027d0:	702b      	strb	r3, [r5, #0]
 80027d2:	4628      	mov	r0, r5
 80027d4:	f7ff ffb4 	bl	8002740 <fsm_enter_state>
 80027d8:	782b      	ldrb	r3, [r5, #0]
 80027da:	2b02      	cmp	r3, #2
 80027dc:	d070      	beq.n	80028c0 <run_fsm+0x108>
 80027de:	2b05      	cmp	r3, #5
 80027e0:	f000 808a 	beq.w	80028f8 <run_fsm+0x140>
 80027e4:	2b01      	cmp	r3, #1
 80027e6:	d168      	bne.n	80028ba <run_fsm+0x102>
 80027e8:	4c47      	ldr	r4, [pc, #284]	; (8002908 <run_fsm+0x150>)
 80027ea:	f894 3021 	ldrb.w	r3, [r4, #33]	; 0x21
 80027ee:	b94b      	cbnz	r3, 8002804 <run_fsm+0x4c>
 80027f0:	4946      	ldr	r1, [pc, #280]	; (800290c <run_fsm+0x154>)
 80027f2:	4847      	ldr	r0, [pc, #284]	; (8002910 <run_fsm+0x158>)
 80027f4:	f8d1 30a8 	ldr.w	r3, [r1, #168]	; 0xa8
 80027f8:	4622      	mov	r2, r4
 80027fa:	b002      	add	sp, #8
 80027fc:	e8bd 41f0 	ldmia.w	sp!, {r4, r5, r6, r7, r8, lr}
 8002800:	f7fe bcfa 	b.w	80011f8 <order_phases>
 8002804:	f894 3022 	ldrb.w	r3, [r4, #34]	; 0x22
 8002808:	b94b      	cbnz	r3, 800281e <run_fsm+0x66>
 800280a:	4940      	ldr	r1, [pc, #256]	; (800290c <run_fsm+0x154>)
 800280c:	4840      	ldr	r0, [pc, #256]	; (8002910 <run_fsm+0x158>)
 800280e:	f8d1 30a8 	ldr.w	r3, [r1, #168]	; 0xa8
 8002812:	4622      	mov	r2, r4
 8002814:	b002      	add	sp, #8
 8002816:	e8bd 41f0 	ldmia.w	sp!, {r4, r5, r6, r7, r8, lr}
 800281a:	f7fe bded 	b.w	80013f8 <calibrate_encoder>
 800281e:	4e3d      	ldr	r6, [pc, #244]	; (8002914 <run_fsm+0x15c>)
 8002820:	4f3b      	ldr	r7, [pc, #236]	; (8002910 <run_fsm+0x158>)
 8002822:	f8d6 8014 	ldr.w	r8, [r6, #20]
 8002826:	ed97 0a19 	vldr	s0, [r7, #100]	; 0x64
 800282a:	f1c8 0300 	rsb	r3, r8, #0
 800282e:	ee07 3a90 	vmov	s15, r3
 8002832:	eef8 7ae7 	vcvt.f32.s32	s15, s15
 8002836:	eef7 0a00 	vmov.f32	s1, #112	; 0x3f800000  1.0
 800283a:	ee67 7a80 	vmul.f32	s15, s15, s0
 800283e:	ed9f 0a36 	vldr	s0, [pc, #216]	; 8002918 <run_fsm+0x160>
 8002842:	ee27 0a80 	vmul.f32	s0, s15, s0
 8002846:	f003 fdb1 	bl	80063ac <fmodf>
 800284a:	eddf 7a34 	vldr	s15, [pc, #208]	; 800291c <run_fsm+0x164>
 800284e:	ee60 7a27 	vmul.f32	s15, s0, s15
 8002852:	ee17 0a90 	vmov	r0, s15
 8002856:	f7fd fe97 	bl	8000588 <__aeabi_f2d>
 800285a:	4602      	mov	r2, r0
 800285c:	460b      	mov	r3, r1
 800285e:	4830      	ldr	r0, [pc, #192]	; (8002920 <run_fsm+0x168>)
 8002860:	4641      	mov	r1, r8
 8002862:	f004 fe55 	bl	8007510 <printf>
 8002866:	69e3      	ldr	r3, [r4, #28]
 8002868:	492e      	ldr	r1, [pc, #184]	; (8002924 <run_fsm+0x16c>)
 800286a:	4c2f      	ldr	r4, [pc, #188]	; (8002928 <run_fsm+0x170>)
 800286c:	6173      	str	r3, [r6, #20]
 800286e:	f44f 7200 	mov.w	r2, #512	; 0x200
 8002872:	f107 0088 	add.w	r0, r7, #136	; 0x88
 8002876:	f004 fe37 	bl	80074e8 <memcpy>
 800287a:	f44f 7200 	mov.w	r2, #512	; 0x200
 800287e:	4929      	ldr	r1, [pc, #164]	; (8002924 <run_fsm+0x16c>)
 8002880:	f106 0018 	add.w	r0, r6, #24
 8002884:	f004 fe30 	bl	80074e8 <memcpy>
 8002888:	6923      	ldr	r3, [r4, #16]
 800288a:	9300      	str	r3, [sp, #0]
 800288c:	e894 000f 	ldmia.w	r4, {r0, r1, r2, r3}
 8002890:	f000 fdd0 	bl	8003434 <preference_writer_ready>
 8002894:	b910      	cbnz	r0, 800289c <run_fsm+0xe4>
 8002896:	4620      	mov	r0, r4
 8002898:	f000 fdc5 	bl	8003426 <preference_writer_open>
 800289c:	4822      	ldr	r0, [pc, #136]	; (8002928 <run_fsm+0x170>)
 800289e:	f000 fdd1 	bl	8003444 <preference_writer_flush>
 80028a2:	4821      	ldr	r0, [pc, #132]	; (8002928 <run_fsm+0x170>)
 80028a4:	f000 fe18 	bl	80034d8 <preference_writer_close>
 80028a8:	6923      	ldr	r3, [r4, #16]
 80028aa:	9300      	str	r3, [sp, #0]
 80028ac:	e894 000f 	ldmia.w	r4, {r0, r1, r2, r3}
 80028b0:	f000 fdec 	bl	800348c <preference_writer_load>
 80028b4:	2300      	movs	r3, #0
 80028b6:	706b      	strb	r3, [r5, #1]
 80028b8:	70eb      	strb	r3, [r5, #3]
 80028ba:	b002      	add	sp, #8
 80028bc:	e8bd 81f0 	ldmia.w	sp!, {r4, r5, r6, r7, r8, pc}
 80028c0:	4b14      	ldr	r3, [pc, #80]	; (8002914 <run_fsm+0x15c>)
 80028c2:	4c12      	ldr	r4, [pc, #72]	; (800290c <run_fsm+0x154>)
 80028c4:	68db      	ldr	r3, [r3, #12]
 80028c6:	2b00      	cmp	r3, #0
 80028c8:	dd0c      	ble.n	80028e4 <run_fsm+0x12c>
 80028ca:	f8d4 20ac 	ldr.w	r2, [r4, #172]	; 0xac
 80028ce:	4293      	cmp	r3, r2
 80028d0:	da08      	bge.n	80028e4 <run_fsm+0x12c>
 80028d2:	4620      	mov	r0, r4
 80028d4:	f7ff fde6 	bl	80024a4 <zero_commands>
 80028d8:	f8d4 30ac 	ldr.w	r3, [r4, #172]	; 0xac
 80028dc:	3301      	adds	r3, #1
 80028de:	f8c4 30ac 	str.w	r3, [r4, #172]	; 0xac
 80028e2:	e7ea      	b.n	80028ba <run_fsm+0x102>
 80028e4:	2300      	movs	r3, #0
 80028e6:	490a      	ldr	r1, [pc, #40]	; (8002910 <run_fsm+0x158>)
 80028e8:	4808      	ldr	r0, [pc, #32]	; (800290c <run_fsm+0x154>)
 80028ea:	f8c4 309c 	str.w	r3, [r4, #156]	; 0x9c
 80028ee:	f8c4 3098 	str.w	r3, [r4, #152]	; 0x98
 80028f2:	f7ff fcd1 	bl	8002298 <commutate>
 80028f6:	e7ef      	b.n	80028d8 <run_fsm+0x120>
 80028f8:	4805      	ldr	r0, [pc, #20]	; (8002910 <run_fsm+0x158>)
 80028fa:	2164      	movs	r1, #100	; 0x64
 80028fc:	b002      	add	sp, #8
 80028fe:	e8bd 41f0 	ldmia.w	sp!, {r4, r5, r6, r7, r8, lr}
 8002902:	f000 bd5b 	b.w	80033bc <ps_print>
 8002906:	bf00      	nop
 8002908:	200011ac 	.word	0x200011ac
 800290c:	20000ec8 	.word	0x20000ec8
 8002910:	20000b18 	.word	0x20000b18
 8002914:	20009664 	.word	0x20009664
 8002918:	37800000 	.word	0x37800000
 800291c:	40c90fdb 	.word	0x40c90fdb
 8002920:	0800cfbf 	.word	0x0800cfbf
 8002924:	200091d8 	.word	0x200091d8
 8002928:	20000db4 	.word	0x20000db4

0800292c <process_user_input>:
 800292c:	b573      	push	{r0, r1, r4, r5, r6, lr}
 800292e:	7b43      	ldrb	r3, [r0, #13]
 8002930:	3b62      	subs	r3, #98	; 0x62
 8002932:	4606      	mov	r6, r0
 8002934:	1d05      	adds	r5, r0, #4
 8002936:	2b12      	cmp	r3, #18
 8002938:	f200 80d3 	bhi.w	8002ae2 <process_user_input+0x1b6>
 800293c:	e8df f003 	tbb	[pc, r3]
 8002940:	d1d1b50a 	.word	0xd1d1b50a
 8002944:	4799d175 	.word	0x4799d175
 8002948:	5159d1d1 	.word	0x5159d1d1
 800294c:	d1d1d1d1 	.word	0xd1d1d1d1
 8002950:	d1d1      	.short	0xd1d1
 8002952:	91          	.byte	0x91
 8002953:	00          	.byte	0x00
 8002954:	4628      	mov	r0, r5
 8002956:	f004 fd95 	bl	8007484 <atof>
 800295a:	ec51 0b10 	vmov	r0, r1, d0
 800295e:	f7fe f963 	bl	8000c28 <__aeabi_d2f>
 8002962:	eddf 0a61 	vldr	s1, [pc, #388]	; 8002ae8 <process_user_input+0x1bc>
 8002966:	ee00 0a10 	vmov	s0, r0
 800296a:	f003 fbce 	bl	800610a <fminf>
 800296e:	eddf 0a5f 	vldr	s1, [pc, #380]	; 8002aec <process_user_input+0x1c0>
 8002972:	f003 fbaf 	bl	80060d4 <fmaxf>
 8002976:	4b5e      	ldr	r3, [pc, #376]	; (8002af0 <process_user_input+0x1c4>)
 8002978:	ee10 0a10 	vmov	r0, s0
 800297c:	ed83 0a02 	vstr	s0, [r3, #8]
 8002980:	f7fd fe02 	bl	8000588 <__aeabi_f2d>
 8002984:	4602      	mov	r2, r0
 8002986:	485b      	ldr	r0, [pc, #364]	; (8002af4 <process_user_input+0x1c8>)
 8002988:	460b      	mov	r3, r1
 800298a:	f004 fdc1 	bl	8007510 <printf>
 800298e:	4c5a      	ldr	r4, [pc, #360]	; (8002af8 <process_user_input+0x1cc>)
 8002990:	6923      	ldr	r3, [r4, #16]
 8002992:	9300      	str	r3, [sp, #0]
 8002994:	e894 000f 	ldmia.w	r4, {r0, r1, r2, r3}
 8002998:	f000 fd4c 	bl	8003434 <preference_writer_ready>
 800299c:	b910      	cbnz	r0, 80029a4 <process_user_input+0x78>
 800299e:	4620      	mov	r0, r4
 80029a0:	f000 fd41 	bl	8003426 <preference_writer_open>
 80029a4:	4854      	ldr	r0, [pc, #336]	; (8002af8 <process_user_input+0x1cc>)
 80029a6:	f000 fd4d 	bl	8003444 <preference_writer_flush>
 80029aa:	4853      	ldr	r0, [pc, #332]	; (8002af8 <process_user_input+0x1cc>)
 80029ac:	f000 fd94 	bl	80034d8 <preference_writer_close>
 80029b0:	6923      	ldr	r3, [r4, #16]
 80029b2:	9300      	str	r3, [sp, #0]
 80029b4:	e894 000f 	ldmia.w	r4, {r0, r1, r2, r3}
 80029b8:	f000 fd68 	bl	800348c <preference_writer_load>
 80029bc:	f7ff fdee 	bl	800259c <enter_setup_state>
 80029c0:	2300      	movs	r3, #0
 80029c2:	7333      	strb	r3, [r6, #12]
 80029c4:	7373      	strb	r3, [r6, #13]
 80029c6:	6073      	str	r3, [r6, #4]
 80029c8:	606b      	str	r3, [r5, #4]
 80029ca:	b002      	add	sp, #8
 80029cc:	bd70      	pop	{r4, r5, r6, pc}
 80029ce:	4628      	mov	r0, r5
 80029d0:	f004 fd5b 	bl	800748a <atoi>
 80029d4:	4b49      	ldr	r3, [pc, #292]	; (8002afc <process_user_input+0x1d0>)
 80029d6:	4601      	mov	r1, r0
 80029d8:	6058      	str	r0, [r3, #4]
 80029da:	4849      	ldr	r0, [pc, #292]	; (8002b00 <process_user_input+0x1d4>)
 80029dc:	f004 fd98 	bl	8007510 <printf>
 80029e0:	e7d5      	b.n	800298e <process_user_input+0x62>
 80029e2:	4628      	mov	r0, r5
 80029e4:	f004 fd51 	bl	800748a <atoi>
 80029e8:	4b44      	ldr	r3, [pc, #272]	; (8002afc <process_user_input+0x1d0>)
 80029ea:	4601      	mov	r1, r0
 80029ec:	6098      	str	r0, [r3, #8]
 80029ee:	4845      	ldr	r0, [pc, #276]	; (8002b04 <process_user_input+0x1d8>)
 80029f0:	e7f4      	b.n	80029dc <process_user_input+0xb0>
 80029f2:	4628      	mov	r0, r5
 80029f4:	f004 fd46 	bl	8007484 <atof>
 80029f8:	ec51 0b10 	vmov	r0, r1, d0
 80029fc:	f7fe f914 	bl	8000c28 <__aeabi_d2f>
 8002a00:	eddf 0a41 	vldr	s1, [pc, #260]	; 8002b08 <process_user_input+0x1dc>
 8002a04:	ee00 0a10 	vmov	s0, r0
 8002a08:	f003 fb7f 	bl	800610a <fminf>
 8002a0c:	eddf 0a3f 	vldr	s1, [pc, #252]	; 8002b0c <process_user_input+0x1e0>
 8002a10:	f003 fb60 	bl	80060d4 <fmaxf>
 8002a14:	4b36      	ldr	r3, [pc, #216]	; (8002af0 <process_user_input+0x1c4>)
 8002a16:	ee10 0a10 	vmov	r0, s0
 8002a1a:	ed83 0a03 	vstr	s0, [r3, #12]
 8002a1e:	f7fd fdb3 	bl	8000588 <__aeabi_f2d>
 8002a22:	4602      	mov	r2, r0
 8002a24:	460b      	mov	r3, r1
 8002a26:	483a      	ldr	r0, [pc, #232]	; (8002b10 <process_user_input+0x1e4>)
 8002a28:	e7af      	b.n	800298a <process_user_input+0x5e>
 8002a2a:	4628      	mov	r0, r5
 8002a2c:	f004 fd2a 	bl	8007484 <atof>
 8002a30:	ec51 0b10 	vmov	r0, r1, d0
 8002a34:	f7fe f8f8 	bl	8000c28 <__aeabi_d2f>
 8002a38:	eddf 0a36 	vldr	s1, [pc, #216]	; 8002b14 <process_user_input+0x1e8>
 8002a3c:	ee00 0a10 	vmov	s0, r0
 8002a40:	f003 fb63 	bl	800610a <fminf>
 8002a44:	eddf 0a31 	vldr	s1, [pc, #196]	; 8002b0c <process_user_input+0x1e0>
 8002a48:	f003 fb44 	bl	80060d4 <fmaxf>
 8002a4c:	4b28      	ldr	r3, [pc, #160]	; (8002af0 <process_user_input+0x1c4>)
 8002a4e:	ee10 0a10 	vmov	r0, s0
 8002a52:	ed83 0a06 	vstr	s0, [r3, #24]
 8002a56:	f7fd fd97 	bl	8000588 <__aeabi_f2d>
 8002a5a:	4602      	mov	r2, r0
 8002a5c:	460b      	mov	r3, r1
 8002a5e:	482e      	ldr	r0, [pc, #184]	; (8002b18 <process_user_input+0x1ec>)
 8002a60:	e793      	b.n	800298a <process_user_input+0x5e>
 8002a62:	4628      	mov	r0, r5
 8002a64:	f004 fd11 	bl	800748a <atoi>
 8002a68:	4b24      	ldr	r3, [pc, #144]	; (8002afc <process_user_input+0x1d0>)
 8002a6a:	4601      	mov	r1, r0
 8002a6c:	60d8      	str	r0, [r3, #12]
 8002a6e:	482b      	ldr	r0, [pc, #172]	; (8002b1c <process_user_input+0x1f0>)
 8002a70:	e7b4      	b.n	80029dc <process_user_input+0xb0>
 8002a72:	4628      	mov	r0, r5
 8002a74:	f004 fd06 	bl	8007484 <atof>
 8002a78:	ec51 0b10 	vmov	r0, r1, d0
 8002a7c:	f7fe f8d4 	bl	8000c28 <__aeabi_d2f>
 8002a80:	eddf 0a27 	vldr	s1, [pc, #156]	; 8002b20 <process_user_input+0x1f4>
 8002a84:	ee00 0a10 	vmov	s0, r0
 8002a88:	f003 fb3f 	bl	800610a <fminf>
 8002a8c:	eddf 0a1f 	vldr	s1, [pc, #124]	; 8002b0c <process_user_input+0x1e0>
 8002a90:	f003 fb20 	bl	80060d4 <fmaxf>
 8002a94:	4b16      	ldr	r3, [pc, #88]	; (8002af0 <process_user_input+0x1c4>)
 8002a96:	ee10 0a10 	vmov	r0, s0
 8002a9a:	ed83 0a08 	vstr	s0, [r3, #32]
 8002a9e:	f7fd fd73 	bl	8000588 <__aeabi_f2d>
 8002aa2:	4602      	mov	r2, r0
 8002aa4:	460b      	mov	r3, r1
 8002aa6:	481f      	ldr	r0, [pc, #124]	; (8002b24 <process_user_input+0x1f8>)
 8002aa8:	e76f      	b.n	800298a <process_user_input+0x5e>
 8002aaa:	4628      	mov	r0, r5
 8002aac:	f004 fcea 	bl	8007484 <atof>
 8002ab0:	ec51 0b10 	vmov	r0, r1, d0
 8002ab4:	f7fe f8b8 	bl	8000c28 <__aeabi_d2f>
 8002ab8:	eddf 0a13 	vldr	s1, [pc, #76]	; 8002b08 <process_user_input+0x1dc>
 8002abc:	ee00 0a10 	vmov	s0, r0
 8002ac0:	f003 fb23 	bl	800610a <fminf>
 8002ac4:	eddf 0a11 	vldr	s1, [pc, #68]	; 8002b0c <process_user_input+0x1e0>
 8002ac8:	f003 fb04 	bl	80060d4 <fmaxf>
 8002acc:	4b08      	ldr	r3, [pc, #32]	; (8002af0 <process_user_input+0x1c4>)
 8002ace:	ee10 0a10 	vmov	r0, s0
 8002ad2:	ed83 0a09 	vstr	s0, [r3, #36]	; 0x24
 8002ad6:	f7fd fd57 	bl	8000588 <__aeabi_f2d>
 8002ada:	4602      	mov	r2, r0
 8002adc:	460b      	mov	r3, r1
 8002ade:	4812      	ldr	r0, [pc, #72]	; (8002b28 <process_user_input+0x1fc>)
 8002ae0:	e753      	b.n	800298a <process_user_input+0x5e>
 8002ae2:	4629      	mov	r1, r5
 8002ae4:	4811      	ldr	r0, [pc, #68]	; (8002b2c <process_user_input+0x200>)
 8002ae6:	e779      	b.n	80029dc <process_user_input+0xb0>
 8002ae8:	44fa0000 	.word	0x44fa0000
 8002aec:	42c80000 	.word	0x42c80000
 8002af0:	20000dc8 	.word	0x20000dc8
 8002af4:	0800cef2 	.word	0x0800cef2
 8002af8:	20000db4 	.word	0x20000db4
 8002afc:	20009664 	.word	0x20009664
 8002b00:	0800cf03 	.word	0x0800cf03
 8002b04:	0800cf16 	.word	0x0800cf16
 8002b08:	42200000 	.word	0x42200000
 8002b0c:	00000000 	.word	0x00000000
 8002b10:	0800cf2d 	.word	0x0800cf2d
 8002b14:	42040000 	.word	0x42040000
 8002b18:	0800cf3f 	.word	0x0800cf3f
 8002b1c:	0800cf54 	.word	0x0800cf54
 8002b20:	43160000 	.word	0x43160000
 8002b24:	0800cf6c 	.word	0x0800cf6c
 8002b28:	0800cf81 	.word	0x0800cf81
 8002b2c:	0800cf98 	.word	0x0800cf98

08002b30 <update_fsm>:
 8002b30:	291b      	cmp	r1, #27
 8002b32:	b510      	push	{r4, lr}
 8002b34:	4603      	mov	r3, r0
 8002b36:	d103      	bne.n	8002b40 <update_fsm+0x10>
 8002b38:	2200      	movs	r2, #0
 8002b3a:	7042      	strb	r2, [r0, #1]
 8002b3c:	70da      	strb	r2, [r3, #3]
 8002b3e:	e003      	b.n	8002b48 <update_fsm+0x18>
 8002b40:	7802      	ldrb	r2, [r0, #0]
 8002b42:	b112      	cbz	r2, 8002b4a <update_fsm+0x1a>
 8002b44:	2a04      	cmp	r2, #4
 8002b46:	d027      	beq.n	8002b98 <update_fsm+0x68>
 8002b48:	bd10      	pop	{r4, pc}
 8002b4a:	296d      	cmp	r1, #109	; 0x6d
 8002b4c:	d020      	beq.n	8002b90 <update_fsm+0x60>
 8002b4e:	d805      	bhi.n	8002b5c <update_fsm+0x2c>
 8002b50:	2963      	cmp	r1, #99	; 0x63
 8002b52:	d01a      	beq.n	8002b8a <update_fsm+0x5a>
 8002b54:	2965      	cmp	r1, #101	; 0x65
 8002b56:	d1f7      	bne.n	8002b48 <update_fsm+0x18>
 8002b58:	2105      	movs	r1, #5
 8002b5a:	e017      	b.n	8002b8c <update_fsm+0x5c>
 8002b5c:	2973      	cmp	r1, #115	; 0x73
 8002b5e:	d019      	beq.n	8002b94 <update_fsm+0x64>
 8002b60:	297a      	cmp	r1, #122	; 0x7a
 8002b62:	d1f1      	bne.n	8002b48 <update_fsm+0x18>
 8002b64:	4c14      	ldr	r4, [pc, #80]	; (8002bb8 <update_fsm+0x88>)
 8002b66:	ed9f 0a15 	vldr	s0, [pc, #84]	; 8002bbc <update_fsm+0x8c>
 8002b6a:	f8c4 2080 	str.w	r2, [r4, #128]	; 0x80
 8002b6e:	4620      	mov	r0, r4
 8002b70:	f000 fb7c 	bl	800326c <ps_sample>
 8002b74:	2014      	movs	r0, #20
 8002b76:	f001 f927 	bl	8003dc8 <HAL_Delay>
 8002b7a:	4b11      	ldr	r3, [pc, #68]	; (8002bc0 <update_fsm+0x90>)
 8002b7c:	6f61      	ldr	r1, [r4, #116]	; 0x74
 8002b7e:	4811      	ldr	r0, [pc, #68]	; (8002bc4 <update_fsm+0x94>)
 8002b80:	6119      	str	r1, [r3, #16]
 8002b82:	e8bd 4010 	ldmia.w	sp!, {r4, lr}
 8002b86:	f004 bcc3 	b.w	8007510 <printf>
 8002b8a:	2101      	movs	r1, #1
 8002b8c:	7059      	strb	r1, [r3, #1]
 8002b8e:	e7d5      	b.n	8002b3c <update_fsm+0xc>
 8002b90:	2102      	movs	r1, #2
 8002b92:	e7fb      	b.n	8002b8c <update_fsm+0x5c>
 8002b94:	2104      	movs	r1, #4
 8002b96:	e7f9      	b.n	8002b8c <update_fsm+0x5c>
 8002b98:	290d      	cmp	r1, #13
 8002b9a:	d103      	bne.n	8002ba4 <update_fsm+0x74>
 8002b9c:	e8bd 4010 	ldmia.w	sp!, {r4, lr}
 8002ba0:	f7ff bec4 	b.w	800292c <process_user_input>
 8002ba4:	7b02      	ldrb	r2, [r0, #12]
 8002ba6:	b91a      	cbnz	r2, 8002bb0 <update_fsm+0x80>
 8002ba8:	7341      	strb	r1, [r0, #13]
 8002baa:	3201      	adds	r2, #1
 8002bac:	731a      	strb	r2, [r3, #12]
 8002bae:	e7cb      	b.n	8002b48 <update_fsm+0x18>
 8002bb0:	4410      	add	r0, r2
 8002bb2:	70c1      	strb	r1, [r0, #3]
 8002bb4:	e7f9      	b.n	8002baa <update_fsm+0x7a>
 8002bb6:	bf00      	nop
 8002bb8:	20000b18 	.word	0x20000b18
 8002bbc:	37d1b717 	.word	0x37d1b717
 8002bc0:	20009664 	.word	0x20009664
 8002bc4:	0800cfd0 	.word	0x0800cfd0

08002bc8 <MX_GPIO_Init>:
 8002bc8:	e92d 41f0 	stmdb	sp!, {r4, r5, r6, r7, r8, lr}
 8002bcc:	2214      	movs	r2, #20
 8002bce:	b08a      	sub	sp, #40	; 0x28
 8002bd0:	eb0d 0002 	add.w	r0, sp, r2
 8002bd4:	2100      	movs	r1, #0
 8002bd6:	f004 fc92 	bl	80074fe <memset>
 8002bda:	2400      	movs	r4, #0
 8002bdc:	4b2c      	ldr	r3, [pc, #176]	; (8002c90 <MX_GPIO_Init+0xc8>)
 8002bde:	9401      	str	r4, [sp, #4]
 8002be0:	6b1a      	ldr	r2, [r3, #48]	; 0x30
 8002be2:	f8df 80b8 	ldr.w	r8, [pc, #184]	; 8002c9c <MX_GPIO_Init+0xd4>
 8002be6:	4d2b      	ldr	r5, [pc, #172]	; (8002c94 <MX_GPIO_Init+0xcc>)
 8002be8:	f042 0204 	orr.w	r2, r2, #4
 8002bec:	631a      	str	r2, [r3, #48]	; 0x30
 8002bee:	6b1a      	ldr	r2, [r3, #48]	; 0x30
 8002bf0:	f002 0204 	and.w	r2, r2, #4
 8002bf4:	9201      	str	r2, [sp, #4]
 8002bf6:	9a01      	ldr	r2, [sp, #4]
 8002bf8:	9402      	str	r4, [sp, #8]
 8002bfa:	6b1a      	ldr	r2, [r3, #48]	; 0x30
 8002bfc:	f042 0280 	orr.w	r2, r2, #128	; 0x80
 8002c00:	631a      	str	r2, [r3, #48]	; 0x30
 8002c02:	6b1a      	ldr	r2, [r3, #48]	; 0x30
 8002c04:	f002 0280 	and.w	r2, r2, #128	; 0x80
 8002c08:	9202      	str	r2, [sp, #8]
 8002c0a:	9a02      	ldr	r2, [sp, #8]
 8002c0c:	9403      	str	r4, [sp, #12]
 8002c0e:	6b1a      	ldr	r2, [r3, #48]	; 0x30
 8002c10:	f042 0201 	orr.w	r2, r2, #1
 8002c14:	631a      	str	r2, [r3, #48]	; 0x30
 8002c16:	6b1a      	ldr	r2, [r3, #48]	; 0x30
 8002c18:	f002 0201 	and.w	r2, r2, #1
 8002c1c:	9203      	str	r2, [sp, #12]
 8002c1e:	9a03      	ldr	r2, [sp, #12]
 8002c20:	9404      	str	r4, [sp, #16]
 8002c22:	6b1a      	ldr	r2, [r3, #48]	; 0x30
 8002c24:	f042 0202 	orr.w	r2, r2, #2
 8002c28:	631a      	str	r2, [r3, #48]	; 0x30
 8002c2a:	6b1b      	ldr	r3, [r3, #48]	; 0x30
 8002c2c:	f003 0302 	and.w	r3, r3, #2
 8002c30:	9304      	str	r3, [sp, #16]
 8002c32:	4622      	mov	r2, r4
 8002c34:	4640      	mov	r0, r8
 8002c36:	f648 0110 	movw	r1, #34832	; 0x8810
 8002c3a:	9b04      	ldr	r3, [sp, #16]
 8002c3c:	f001 ff5e 	bl	8004afc <HAL_GPIO_WritePin>
 8002c40:	4622      	mov	r2, r4
 8002c42:	4628      	mov	r0, r5
 8002c44:	2120      	movs	r1, #32
 8002c46:	f001 ff59 	bl	8004afc <HAL_GPIO_WritePin>
 8002c4a:	4b13      	ldr	r3, [pc, #76]	; (8002c98 <MX_GPIO_Init+0xd0>)
 8002c4c:	9407      	str	r4, [sp, #28]
 8002c4e:	f44f 5200 	mov.w	r2, #8192	; 0x2000
 8002c52:	a905      	add	r1, sp, #20
 8002c54:	4628      	mov	r0, r5
 8002c56:	e9cd 2305 	strd	r2, r3, [sp, #20]
 8002c5a:	2701      	movs	r7, #1
 8002c5c:	f001 fe74 	bl	8004948 <HAL_GPIO_Init>
 8002c60:	2603      	movs	r6, #3
 8002c62:	f648 0310 	movw	r3, #34832	; 0x8810
 8002c66:	a905      	add	r1, sp, #20
 8002c68:	4640      	mov	r0, r8
 8002c6a:	e9cd 3705 	strd	r3, r7, [sp, #20]
 8002c6e:	9407      	str	r4, [sp, #28]
 8002c70:	9608      	str	r6, [sp, #32]
 8002c72:	f001 fe69 	bl	8004948 <HAL_GPIO_Init>
 8002c76:	2320      	movs	r3, #32
 8002c78:	a905      	add	r1, sp, #20
 8002c7a:	4628      	mov	r0, r5
 8002c7c:	e9cd 3705 	strd	r3, r7, [sp, #20]
 8002c80:	e9cd 4607 	strd	r4, r6, [sp, #28]
 8002c84:	f001 fe60 	bl	8004948 <HAL_GPIO_Init>
 8002c88:	b00a      	add	sp, #40	; 0x28
 8002c8a:	e8bd 81f0 	ldmia.w	sp!, {r4, r5, r6, r7, r8, pc}
 8002c8e:	bf00      	nop
 8002c90:	40023800 	.word	0x40023800
 8002c94:	40020800 	.word	0x40020800
 8002c98:	10210000 	.word	0x10210000
 8002c9c:	40020000 	.word	0x40020000

08002ca0 <SystemClock_Config>:
 8002ca0:	b530      	push	{r4, r5, lr}
 8002ca2:	2414      	movs	r4, #20
 8002ca4:	b095      	sub	sp, #84	; 0x54
 8002ca6:	4622      	mov	r2, r4
 8002ca8:	2100      	movs	r1, #0
 8002caa:	a808      	add	r0, sp, #32
 8002cac:	f004 fc27 	bl	80074fe <memset>
 8002cb0:	4622      	mov	r2, r4
 8002cb2:	2100      	movs	r1, #0
 8002cb4:	a802      	add	r0, sp, #8
 8002cb6:	f004 fc22 	bl	80074fe <memset>
 8002cba:	2500      	movs	r5, #0
 8002cbc:	4b1c      	ldr	r3, [pc, #112]	; (8002d30 <SystemClock_Config+0x90>)
 8002cbe:	9500      	str	r5, [sp, #0]
 8002cc0:	6c1a      	ldr	r2, [r3, #64]	; 0x40
 8002cc2:	f042 5280 	orr.w	r2, r2, #268435456	; 0x10000000
 8002cc6:	641a      	str	r2, [r3, #64]	; 0x40
 8002cc8:	6c1b      	ldr	r3, [r3, #64]	; 0x40
 8002cca:	f003 5380 	and.w	r3, r3, #268435456	; 0x10000000
 8002cce:	9300      	str	r3, [sp, #0]
 8002cd0:	9b00      	ldr	r3, [sp, #0]
 8002cd2:	4b18      	ldr	r3, [pc, #96]	; (8002d34 <SystemClock_Config+0x94>)
 8002cd4:	9501      	str	r5, [sp, #4]
 8002cd6:	681a      	ldr	r2, [r3, #0]
 8002cd8:	f442 4240 	orr.w	r2, r2, #49152	; 0xc000
 8002cdc:	601a      	str	r2, [r3, #0]
 8002cde:	681b      	ldr	r3, [r3, #0]
 8002ce0:	f403 4340 	and.w	r3, r3, #49152	; 0xc000
 8002ce4:	9301      	str	r3, [sp, #4]
 8002ce6:	2201      	movs	r2, #1
 8002ce8:	9b01      	ldr	r3, [sp, #4]
 8002cea:	2310      	movs	r3, #16
 8002cec:	2402      	movs	r4, #2
 8002cee:	e9cd 230a 	strd	r2, r3, [sp, #40]	; 0x28
 8002cf2:	2108      	movs	r1, #8
 8002cf4:	23b4      	movs	r3, #180	; 0xb4
 8002cf6:	a807      	add	r0, sp, #28
 8002cf8:	e9cd 130f 	strd	r1, r3, [sp, #60]	; 0x3c
 8002cfc:	9407      	str	r4, [sp, #28]
 8002cfe:	e9cd 450d 	strd	r4, r5, [sp, #52]	; 0x34
 8002d02:	e9cd 4411 	strd	r4, r4, [sp, #68]	; 0x44
 8002d06:	9413      	str	r4, [sp, #76]	; 0x4c
 8002d08:	f002 f83c 	bl	8004d84 <HAL_RCC_OscConfig>
 8002d0c:	f001 fefc 	bl	8004b08 <HAL_PWREx_EnableOverDrive>
 8002d10:	230f      	movs	r3, #15
 8002d12:	e9cd 3402 	strd	r3, r4, [sp, #8]
 8002d16:	f44f 50a0 	mov.w	r0, #5120	; 0x1400
 8002d1a:	f44f 5380 	mov.w	r3, #4096	; 0x1000
 8002d1e:	e9cd 0305 	strd	r0, r3, [sp, #20]
 8002d22:	2105      	movs	r1, #5
 8002d24:	a802      	add	r0, sp, #8
 8002d26:	9504      	str	r5, [sp, #16]
 8002d28:	f001 ff2a 	bl	8004b80 <HAL_RCC_ClockConfig>
 8002d2c:	b015      	add	sp, #84	; 0x54
 8002d2e:	bd30      	pop	{r4, r5, pc}
 8002d30:	40023800 	.word	0x40023800
 8002d34:	40007000 	.word	0x40007000

08002d38 <main>:
 8002d38:	b580      	push	{r7, lr}
 8002d3a:	4cbd      	ldr	r4, [pc, #756]	; (8003030 <main+0x2f8>)
 8002d3c:	4ebd      	ldr	r6, [pc, #756]	; (8003034 <main+0x2fc>)
 8002d3e:	b088      	sub	sp, #32
 8002d40:	f001 f816 	bl	8003d70 <HAL_Init>
 8002d44:	f7ff ffac 	bl	8002ca0 <SystemClock_Config>
 8002d48:	f7ff ff3e 	bl	8002bc8 <MX_GPIO_Init>
 8002d4c:	f000 ff4e 	bl	8003bec <MX_USART2_UART_Init>
 8002d50:	f000 fece 	bl	8003af0 <MX_TIM1_Init>
 8002d54:	f7fe fd38 	bl	80017c8 <MX_CAN1_Init>
 8002d58:	f000 fbc2 	bl	80034e0 <MX_SPI1_Init>
 8002d5c:	f000 fbe6 	bl	800352c <MX_SPI3_Init>
 8002d60:	f7fe f932 	bl	8000fc8 <MX_ADC1_Init>
 8002d64:	f7fe f976 	bl	8001054 <MX_ADC2_Init>
 8002d68:	f7fe f9a4 	bl	80010b4 <MX_ADC3_Init>
 8002d6c:	4620      	mov	r0, r4
 8002d6e:	2106      	movs	r1, #6
 8002d70:	f000 fb52 	bl	8003418 <preference_writer_init>
 8002d74:	6923      	ldr	r3, [r4, #16]
 8002d76:	9300      	str	r3, [sp, #0]
 8002d78:	e894 000f 	ldmia.w	r4, {r0, r1, r2, r3}
 8002d7c:	f000 fb86 	bl	800348c <preference_writer_load>
 8002d80:	6973      	ldr	r3, [r6, #20]
 8002d82:	4cad      	ldr	r4, [pc, #692]	; (8003038 <main+0x300>)
 8002d84:	3301      	adds	r3, #1
 8002d86:	bf04      	itt	eq
 8002d88:	2300      	moveq	r3, #0
 8002d8a:	6173      	streq	r3, [r6, #20]
 8002d8c:	6933      	ldr	r3, [r6, #16]
 8002d8e:	edd4 7a02 	vldr	s15, [r4, #8]
 8002d92:	3301      	adds	r3, #1
 8002d94:	bf08      	it	eq
 8002d96:	2300      	moveq	r3, #0
 8002d98:	eef4 7a67 	vcmp.f32	s15, s15
 8002d9c:	bf08      	it	eq
 8002d9e:	6133      	streq	r3, [r6, #16]
 8002da0:	eef1 fa10 	vmrs	APSR_nzcv, fpscr
 8002da4:	d606      	bvs.n	8002db4 <main+0x7c>
 8002da6:	eebf 7a00 	vmov.f32	s14, #240	; 0xbf800000 -1.0
 8002daa:	eef4 7a47 	vcmp.f32	s15, s14
 8002dae:	eef1 fa10 	vmrs	APSR_nzcv, fpscr
 8002db2:	d101      	bne.n	8002db8 <main+0x80>
 8002db4:	4ba1      	ldr	r3, [pc, #644]	; (800303c <main+0x304>)
 8002db6:	60a3      	str	r3, [r4, #8]
 8002db8:	edd4 7a03 	vldr	s15, [r4, #12]
 8002dbc:	eef4 7a67 	vcmp.f32	s15, s15
 8002dc0:	eef1 fa10 	vmrs	APSR_nzcv, fpscr
 8002dc4:	d606      	bvs.n	8002dd4 <main+0x9c>
 8002dc6:	eebf 7a00 	vmov.f32	s14, #240	; 0xbf800000 -1.0
 8002dca:	eef4 7a47 	vcmp.f32	s15, s14
 8002dce:	eef1 fa10 	vmrs	APSR_nzcv, fpscr
 8002dd2:	d101      	bne.n	8002dd8 <main+0xa0>
 8002dd4:	4b9a      	ldr	r3, [pc, #616]	; (8003040 <main+0x308>)
 8002dd6:	60e3      	str	r3, [r4, #12]
 8002dd8:	edd4 7a06 	vldr	s15, [r4, #24]
 8002ddc:	eef4 7a67 	vcmp.f32	s15, s15
 8002de0:	eef1 fa10 	vmrs	APSR_nzcv, fpscr
 8002de4:	d606      	bvs.n	8002df4 <main+0xbc>
 8002de6:	eebf 7a00 	vmov.f32	s14, #240	; 0xbf800000 -1.0
 8002dea:	eef4 7a47 	vcmp.f32	s15, s14
 8002dee:	eef1 fa10 	vmrs	APSR_nzcv, fpscr
 8002df2:	d101      	bne.n	8002df8 <main+0xc0>
 8002df4:	4b93      	ldr	r3, [pc, #588]	; (8003044 <main+0x30c>)
 8002df6:	61a3      	str	r3, [r4, #24]
 8002df8:	6873      	ldr	r3, [r6, #4]
 8002dfa:	edd4 7a07 	vldr	s15, [r4, #28]
 8002dfe:	3301      	adds	r3, #1
 8002e00:	bf04      	itt	eq
 8002e02:	2301      	moveq	r3, #1
 8002e04:	6073      	streq	r3, [r6, #4]
 8002e06:	68b3      	ldr	r3, [r6, #8]
 8002e08:	3301      	adds	r3, #1
 8002e0a:	bf04      	itt	eq
 8002e0c:	2300      	moveq	r3, #0
 8002e0e:	60b3      	streq	r3, [r6, #8]
 8002e10:	68f3      	ldr	r3, [r6, #12]
 8002e12:	3301      	adds	r3, #1
 8002e14:	bf08      	it	eq
 8002e16:	f44f 737a 	moveq.w	r3, #1000	; 0x3e8
 8002e1a:	eef4 7a67 	vcmp.f32	s15, s15
 8002e1e:	bf08      	it	eq
 8002e20:	60f3      	streq	r3, [r6, #12]
 8002e22:	eef1 fa10 	vmrs	APSR_nzcv, fpscr
 8002e26:	d606      	bvs.n	8002e36 <main+0xfe>
 8002e28:	eebf 7a00 	vmov.f32	s14, #240	; 0xbf800000 -1.0
 8002e2c:	eef4 7a47 	vcmp.f32	s15, s14
 8002e30:	eef1 fa10 	vmrs	APSR_nzcv, fpscr
 8002e34:	d101      	bne.n	8002e3a <main+0x102>
 8002e36:	2300      	movs	r3, #0
 8002e38:	61e3      	str	r3, [r4, #28]
 8002e3a:	edd4 7a08 	vldr	s15, [r4, #32]
 8002e3e:	eef4 7a67 	vcmp.f32	s15, s15
 8002e42:	eef1 fa10 	vmrs	APSR_nzcv, fpscr
 8002e46:	d606      	bvs.n	8002e56 <main+0x11e>
 8002e48:	eebf 7a00 	vmov.f32	s14, #240	; 0xbf800000 -1.0
 8002e4c:	eef4 7a47 	vcmp.f32	s15, s14
 8002e50:	eef1 fa10 	vmrs	APSR_nzcv, fpscr
 8002e54:	d101      	bne.n	8002e5a <main+0x122>
 8002e56:	4b7c      	ldr	r3, [pc, #496]	; (8003048 <main+0x310>)
 8002e58:	6223      	str	r3, [r4, #32]
 8002e5a:	edd4 7a09 	vldr	s15, [r4, #36]	; 0x24
 8002e5e:	eef4 7a67 	vcmp.f32	s15, s15
 8002e62:	eef1 fa10 	vmrs	APSR_nzcv, fpscr
 8002e66:	d606      	bvs.n	8002e76 <main+0x13e>
 8002e68:	eebf 7a00 	vmov.f32	s14, #240	; 0xbf800000 -1.0
 8002e6c:	eef4 7a47 	vcmp.f32	s15, s14
 8002e70:	eef1 fa10 	vmrs	APSR_nzcv, fpscr
 8002e74:	d101      	bne.n	8002e7a <main+0x142>
 8002e76:	4b75      	ldr	r3, [pc, #468]	; (800304c <main+0x314>)
 8002e78:	6263      	str	r3, [r4, #36]	; 0x24
 8002e7a:	edd4 7a0a 	vldr	s15, [r4, #40]	; 0x28
 8002e7e:	eef4 7a67 	vcmp.f32	s15, s15
 8002e82:	eef1 fa10 	vmrs	APSR_nzcv, fpscr
 8002e86:	d606      	bvs.n	8002e96 <main+0x15e>
 8002e88:	eebf 7a00 	vmov.f32	s14, #240	; 0xbf800000 -1.0
 8002e8c:	eef4 7a47 	vcmp.f32	s15, s14
 8002e90:	eef1 fa10 	vmrs	APSR_nzcv, fpscr
 8002e94:	d101      	bne.n	8002e9a <main+0x162>
 8002e96:	4b6e      	ldr	r3, [pc, #440]	; (8003050 <main+0x318>)
 8002e98:	62a3      	str	r3, [r4, #40]	; 0x28
 8002e9a:	4f6e      	ldr	r7, [pc, #440]	; (8003054 <main+0x31c>)
 8002e9c:	486e      	ldr	r0, [pc, #440]	; (8003058 <main+0x320>)
 8002e9e:	4d6f      	ldr	r5, [pc, #444]	; (800305c <main+0x324>)
 8002ea0:	f8df 91f4 	ldr.w	r9, [pc, #500]	; 8003098 <main+0x360>
 8002ea4:	f04f 4380 	mov.w	r3, #1073741824	; 0x40000000
 8002ea8:	2200      	movs	r2, #0
 8002eaa:	f004 fb31 	bl	8007510 <printf>
 8002eae:	4638      	mov	r0, r7
 8002eb0:	f7ff f954 	bl	800215c <init_controller_params>
 8002eb4:	f44f 7223 	mov.w	r2, #652	; 0x28c
 8002eb8:	2100      	movs	r1, #0
 8002eba:	4869      	ldr	r0, [pc, #420]	; (8003060 <main+0x328>)
 8002ebc:	f004 fb1f 	bl	80074fe <memset>
 8002ec0:	6933      	ldr	r3, [r6, #16]
 8002ec2:	f8c5 3080 	str.w	r3, [r5, #128]	; 0x80
 8002ec6:	6973      	ldr	r3, [r6, #20]
 8002ec8:	f8c5 3084 	str.w	r3, [r5, #132]	; 0x84
 8002ecc:	4628      	mov	r0, r5
 8002ece:	6aa3      	ldr	r3, [r4, #40]	; 0x28
 8002ed0:	666b      	str	r3, [r5, #100]	; 0x64
 8002ed2:	2164      	movs	r1, #100	; 0x64
 8002ed4:	f000 f99a 	bl	800320c <ps_warmup>
 8002ed8:	f44f 7200 	mov.w	r2, #512	; 0x200
 8002edc:	4961      	ldr	r1, [pc, #388]	; (8003064 <main+0x32c>)
 8002ede:	4e62      	ldr	r6, [pc, #392]	; (8003068 <main+0x330>)
 8002ee0:	f105 0088 	add.w	r0, r5, #136	; 0x88
 8002ee4:	f004 fb00 	bl	80074e8 <memcpy>
 8002ee8:	4860      	ldr	r0, [pc, #384]	; (800306c <main+0x334>)
 8002eea:	f001 f827 	bl	8003f3c <HAL_ADC_Start>
 8002eee:	4860      	ldr	r0, [pc, #384]	; (8003070 <main+0x338>)
 8002ef0:	f001 f824 	bl	8003f3c <HAL_ADC_Start>
 8002ef4:	485f      	ldr	r0, [pc, #380]	; (8003074 <main+0x33c>)
 8002ef6:	f001 f821 	bl	8003f3c <HAL_ADC_Start>
 8002efa:	2201      	movs	r2, #1
 8002efc:	2110      	movs	r1, #16
 8002efe:	485e      	ldr	r0, [pc, #376]	; (8003078 <main+0x340>)
 8002f00:	f001 fdfc 	bl	8004afc <HAL_GPIO_WritePin>
 8002f04:	2201      	movs	r2, #1
 8002f06:	f44f 6100 	mov.w	r1, #2048	; 0x800
 8002f0a:	485b      	ldr	r0, [pc, #364]	; (8003078 <main+0x340>)
 8002f0c:	f001 fdf6 	bl	8004afc <HAL_GPIO_WritePin>
 8002f10:	2001      	movs	r0, #1
 8002f12:	2400      	movs	r4, #0
 8002f14:	2501      	movs	r5, #1
 8002f16:	f000 ff57 	bl	8003dc8 <HAL_Delay>
 8002f1a:	2001      	movs	r0, #1
 8002f1c:	f000 ff54 	bl	8003dc8 <HAL_Delay>
 8002f20:	e9cd 4505 	strd	r4, r5, [sp, #20]
 8002f24:	e9cd 4403 	strd	r4, r4, [sp, #12]
 8002f28:	e9cd 5401 	strd	r5, r4, [sp, #4]
 8002f2c:	9400      	str	r4, [sp, #0]
 8002f2e:	4623      	mov	r3, r4
 8002f30:	4622      	mov	r2, r4
 8002f32:	88b1      	ldrh	r1, [r6, #4]
 8002f34:	6830      	ldr	r0, [r6, #0]
 8002f36:	f04f 0803 	mov.w	r8, #3
 8002f3a:	f7fe fd8d 	bl	8001a58 <drv_write_DCR>
 8002f3e:	4628      	mov	r0, r5
 8002f40:	f000 ff42 	bl	8003dc8 <HAL_Delay>
 8002f44:	e9cd 5805 	strd	r5, r8, [sp, #20]
 8002f48:	e9cd 8401 	strd	r8, r4, [sp, #4]
 8002f4c:	e9cd 5503 	strd	r5, r5, [sp, #12]
 8002f50:	9400      	str	r4, [sp, #0]
 8002f52:	462b      	mov	r3, r5
 8002f54:	4622      	mov	r2, r4
 8002f56:	88b1      	ldrh	r1, [r6, #4]
 8002f58:	6830      	ldr	r0, [r6, #0]
 8002f5a:	f7fe fdb7 	bl	8001acc <drv_write_CSACR>
 8002f5e:	4628      	mov	r0, r5
 8002f60:	f000 ff32 	bl	8003dc8 <HAL_Delay>
 8002f64:	4638      	mov	r0, r7
 8002f66:	f7ff f8d9 	bl	800211c <zero_current>
 8002f6a:	4628      	mov	r0, r5
 8002f6c:	f000 ff2c 	bl	8003dc8 <HAL_Delay>
 8002f70:	e9cd 4805 	strd	r4, r8, [sp, #20]
 8002f74:	e9cd 8501 	strd	r8, r5, [sp, #4]
 8002f78:	e9cd 4403 	strd	r4, r4, [sp, #12]
 8002f7c:	9400      	str	r4, [sp, #0]
 8002f7e:	462b      	mov	r3, r5
 8002f80:	4622      	mov	r2, r4
 8002f82:	88b1      	ldrh	r1, [r6, #4]
 8002f84:	6830      	ldr	r0, [r6, #0]
 8002f86:	f7fe fda1 	bl	8001acc <drv_write_CSACR>
 8002f8a:	4628      	mov	r0, r5
 8002f8c:	f000 ff1c 	bl	8003dc8 <HAL_Delay>
 8002f90:	230f      	movs	r3, #15
 8002f92:	e9cd 8301 	strd	r8, r3, [sp, #4]
 8002f96:	f8cd 8000 	str.w	r8, [sp]
 8002f9a:	4623      	mov	r3, r4
 8002f9c:	462a      	mov	r2, r5
 8002f9e:	88b1      	ldrh	r1, [r6, #4]
 8002fa0:	6830      	ldr	r0, [r6, #0]
 8002fa2:	f8df 80f8 	ldr.w	r8, [pc, #248]	; 800309c <main+0x364>
 8002fa6:	f7fe fd7a 	bl	8001a9e <drv_write_OCPCR>
 8002faa:	4628      	mov	r0, r5
 8002fac:	f000 ff0c 	bl	8003dc8 <HAL_Delay>
 8002fb0:	88b1      	ldrh	r1, [r6, #4]
 8002fb2:	6830      	ldr	r0, [r6, #0]
 8002fb4:	f7fe fdcc 	bl	8001b50 <drv_disable_gd>
 8002fb8:	4628      	mov	r0, r5
 8002fba:	f000 ff05 	bl	8003dc8 <HAL_Delay>
 8002fbe:	e9d7 1222 	ldrd	r1, r2, [r7, #136]	; 0x88
 8002fc2:	482e      	ldr	r0, [pc, #184]	; (800307c <main+0x344>)
 8002fc4:	f004 faa4 	bl	8007510 <printf>
 8002fc8:	4621      	mov	r1, r4
 8002fca:	482d      	ldr	r0, [pc, #180]	; (8003080 <main+0x348>)
 8002fcc:	f002 fd4e 	bl	8005a6c <HAL_TIM_PWM_Start>
 8002fd0:	2104      	movs	r1, #4
 8002fd2:	482b      	ldr	r0, [pc, #172]	; (8003080 <main+0x348>)
 8002fd4:	f002 fd4a 	bl	8005a6c <HAL_TIM_PWM_Start>
 8002fd8:	2108      	movs	r1, #8
 8002fda:	4829      	ldr	r0, [pc, #164]	; (8003080 <main+0x348>)
 8002fdc:	f002 fd46 	bl	8005a6c <HAL_TIM_PWM_Start>
 8002fe0:	4828      	ldr	r0, [pc, #160]	; (8003084 <main+0x34c>)
 8002fe2:	f7fe fc51 	bl	8001888 <can_rx_init>
 8002fe6:	4828      	ldr	r0, [pc, #160]	; (8003088 <main+0x350>)
 8002fe8:	f7fe fc66 	bl	80018b8 <can_tx_init>
 8002fec:	4640      	mov	r0, r8
 8002fee:	f001 fa35 	bl	800445c <HAL_CAN_Start>
 8002ff2:	f8d8 2000 	ldr.w	r2, [r8]
 8002ff6:	f8df 80a8 	ldr.w	r8, [pc, #168]	; 80030a0 <main+0x368>
 8002ffa:	6953      	ldr	r3, [r2, #20]
 8002ffc:	4923      	ldr	r1, [pc, #140]	; (800308c <main+0x354>)
 8002ffe:	4824      	ldr	r0, [pc, #144]	; (8003090 <main+0x358>)
 8003000:	f043 0302 	orr.w	r3, r3, #2
 8003004:	6153      	str	r3, [r2, #20]
 8003006:	4b23      	ldr	r3, [pc, #140]	; (8003094 <main+0x35c>)
 8003008:	2210      	movs	r2, #16
 800300a:	f883 2319 	strb.w	r2, [r3, #793]	; 0x319
 800300e:	2220      	movs	r2, #32
 8003010:	f883 2314 	strb.w	r2, [r3, #788]	; 0x314
 8003014:	462a      	mov	r2, r5
 8003016:	f888 4000 	strb.w	r4, [r8]
 800301a:	f888 4001 	strb.w	r4, [r8, #1]
 800301e:	f888 5003 	strb.w	r5, [r8, #3]
 8003022:	f002 febf 	bl	8005da4 <HAL_UART_Receive_IT>
 8003026:	4816      	ldr	r0, [pc, #88]	; (8003080 <main+0x348>)
 8003028:	f002 fa6a 	bl	8005500 <HAL_TIM_Base_Start_IT>
 800302c:	e03a      	b.n	80030a4 <main+0x36c>
 800302e:	bf00      	nop
 8003030:	20000db4 	.word	0x20000db4
 8003034:	20009664 	.word	0x20009664
 8003038:	20000dc8 	.word	0x20000dc8
 800303c:	447a0000 	.word	0x447a0000
 8003040:	42200000 	.word	0x42200000
 8003044:	41400000 	.word	0x41400000
 8003048:	42fa0000 	.word	0x42fa0000
 800304c:	41600000 	.word	0x41600000
 8003050:	41a80000 	.word	0x41a80000
 8003054:	20000ec8 	.word	0x20000ec8
 8003058:	0800cff7 	.word	0x0800cff7
 800305c:	20000b18 	.word	0x20000b18
 8003060:	200093d8 	.word	0x200093d8
 8003064:	2000967c 	.word	0x2000967c
 8003068:	20009a84 	.word	0x20009a84
 800306c:	20000a5c 	.word	0x20000a5c
 8003070:	20000a14 	.word	0x20000a14
 8003074:	20000aa4 	.word	0x20000aa4
 8003078:	40020000 	.word	0x40020000
 800307c:	0800d019 	.word	0x0800d019
 8003080:	20009bb8 	.word	0x20009bb8
 8003084:	20009a8c 	.word	0x20009a8c
 8003088:	20009a64 	.word	0x20009a64
 800308c:	20000da4 	.word	0x20000da4
 8003090:	20009bf8 	.word	0x20009bf8
 8003094:	e000e100 	.word	0xe000e100
 8003098:	0800d041 	.word	0x0800d041
 800309c:	20000aec 	.word	0x20000aec
 80030a0:	20000da5 	.word	0x20000da5
 80030a4:	200a      	movs	r0, #10
 80030a6:	f000 fe8f 	bl	8003dc8 <HAL_Delay>
 80030aa:	6830      	ldr	r0, [r6, #0]
 80030ac:	88b1      	ldrh	r1, [r6, #4]
 80030ae:	f7fe fd6f 	bl	8001b90 <drv_print_faults>
 80030b2:	f898 3000 	ldrb.w	r3, [r8]
 80030b6:	2b02      	cmp	r3, #2
 80030b8:	d1f4      	bne.n	80030a4 <main+0x36c>
 80030ba:	6978      	ldr	r0, [r7, #20]
 80030bc:	f7fd fa64 	bl	8000588 <__aeabi_f2d>
 80030c0:	4604      	mov	r4, r0
 80030c2:	6ab8      	ldr	r0, [r7, #40]	; 0x28
 80030c4:	460d      	mov	r5, r1
 80030c6:	f7fd fa5f 	bl	8000588 <__aeabi_f2d>
 80030ca:	e9cd 0104 	strd	r0, r1, [sp, #16]
 80030ce:	69f8      	ldr	r0, [r7, #28]
 80030d0:	f7fd fa5a 	bl	8000588 <__aeabi_f2d>
 80030d4:	e9cd 0102 	strd	r0, r1, [sp, #8]
 80030d8:	69b8      	ldr	r0, [r7, #24]
 80030da:	f7fd fa55 	bl	8000588 <__aeabi_f2d>
 80030de:	4622      	mov	r2, r4
 80030e0:	e9cd 0100 	strd	r0, r1, [sp]
 80030e4:	462b      	mov	r3, r5
 80030e6:	4648      	mov	r0, r9
 80030e8:	f004 fa12 	bl	8007510 <printf>
 80030ec:	e7da      	b.n	80030a4 <main+0x36c>
 80030ee:	bf00      	nop

080030f0 <Error_Handler>:
 80030f0:	4770      	bx	lr

080030f2 <fmaxf3>:
 80030f2:	eeb4 0ae0 	vcmpe.f32	s0, s1
 80030f6:	eef1 fa10 	vmrs	APSR_nzcv, fpscr
 80030fa:	dd09      	ble.n	8003110 <fmaxf3+0x1e>
 80030fc:	eeb4 0a41 	vcmp.f32	s0, s2
 8003100:	eef1 fa10 	vmrs	APSR_nzcv, fpscr
 8003104:	bfc8      	it	gt
 8003106:	eeb0 1a40 	vmovgt.f32	s2, s0
 800310a:	eeb0 0a41 	vmov.f32	s0, s2
 800310e:	4770      	bx	lr
 8003110:	eef4 0a41 	vcmp.f32	s1, s2
 8003114:	eef1 fa10 	vmrs	APSR_nzcv, fpscr
 8003118:	bfc8      	it	gt
 800311a:	eeb0 1a60 	vmovgt.f32	s2, s1
 800311e:	e7f4      	b.n	800310a <fmaxf3+0x18>

08003120 <fminf3>:
 8003120:	eeb4 0ae0 	vcmpe.f32	s0, s1
 8003124:	eef1 fa10 	vmrs	APSR_nzcv, fpscr
 8003128:	d509      	bpl.n	800313e <fminf3+0x1e>
 800312a:	eeb4 0a41 	vcmp.f32	s0, s2
 800312e:	eef1 fa10 	vmrs	APSR_nzcv, fpscr
 8003132:	bf48      	it	mi
 8003134:	eeb0 1a40 	vmovmi.f32	s2, s0
 8003138:	eeb0 0a41 	vmov.f32	s0, s2
 800313c:	4770      	bx	lr
 800313e:	eef4 0a41 	vcmp.f32	s1, s2
 8003142:	eef1 fa10 	vmrs	APSR_nzcv, fpscr
 8003146:	bf48      	it	mi
 8003148:	eeb0 1a60 	vmovmi.f32	s2, s1
 800314c:	e7f4      	b.n	8003138 <fminf3+0x18>

0800314e <limit_norm>:
 800314e:	edd1 7a00 	vldr	s15, [r1]
 8003152:	ed90 7a00 	vldr	s14, [r0]
 8003156:	ee67 7aa7 	vmul.f32	s15, s15, s15
 800315a:	b538      	push	{r3, r4, r5, lr}
 800315c:	eee7 7a07 	vfma.f32	s15, s14, s14
 8003160:	4605      	mov	r5, r0
 8003162:	460c      	mov	r4, r1
 8003164:	ed2d 8b02 	vpush	{d8}
 8003168:	ee17 0a90 	vmov	r0, s15
 800316c:	eeb0 8a40 	vmov.f32	s16, s0
 8003170:	f7fd fa0a 	bl	8000588 <__aeabi_f2d>
 8003174:	ec41 0b10 	vmov	d0, r0, r1
 8003178:	f003 f8be 	bl	80062f8 <sqrt>
 800317c:	ec51 0b10 	vmov	r0, r1, d0
 8003180:	f7fd fd52 	bl	8000c28 <__aeabi_d2f>
 8003184:	ee07 0a90 	vmov	s15, r0
 8003188:	eef4 7ac8 	vcmpe.f32	s15, s16
 800318c:	eef1 fa10 	vmrs	APSR_nzcv, fpscr
 8003190:	dd0f      	ble.n	80031b2 <limit_norm+0x64>
 8003192:	ed95 7a00 	vldr	s14, [r5]
 8003196:	ee28 7a07 	vmul.f32	s14, s16, s14
 800319a:	eec7 6a27 	vdiv.f32	s13, s14, s15
 800319e:	edc5 6a00 	vstr	s13, [r5]
 80031a2:	ed94 7a00 	vldr	s14, [r4]
 80031a6:	ee28 8a07 	vmul.f32	s16, s16, s14
 80031aa:	ee88 7a27 	vdiv.f32	s14, s16, s15
 80031ae:	ed84 7a00 	vstr	s14, [r4]
 80031b2:	ecbd 8b02 	vpop	{d8}
 80031b6:	bd38      	pop	{r3, r4, r5, pc}

080031b8 <float_to_uint>:
 80031b8:	2301      	movs	r3, #1
 80031ba:	fa03 f000 	lsl.w	r0, r3, r0
 80031be:	3801      	subs	r0, #1
 80031c0:	ee07 0a90 	vmov	s15, r0
 80031c4:	ee30 0a60 	vsub.f32	s0, s0, s1
 80031c8:	eef8 7ae7 	vcvt.f32.s32	s15, s15
 80031cc:	ee31 1a60 	vsub.f32	s2, s2, s1
 80031d0:	ee67 7a80 	vmul.f32	s15, s15, s0
 80031d4:	ee87 7a81 	vdiv.f32	s14, s15, s2
 80031d8:	eefd 7ac7 	vcvt.s32.f32	s15, s14
 80031dc:	ee17 0a90 	vmov	r0, s15
 80031e0:	4770      	bx	lr

080031e2 <uint_to_float>:
 80031e2:	ee07 0a90 	vmov	s15, r0
 80031e6:	2301      	movs	r3, #1
 80031e8:	eef8 7ae7 	vcvt.f32.s32	s15, s15
 80031ec:	ee70 0ac0 	vsub.f32	s1, s1, s0
 80031f0:	fa03 f101 	lsl.w	r1, r3, r1
 80031f4:	3901      	subs	r1, #1
 80031f6:	ee67 0aa0 	vmul.f32	s1, s15, s1
 80031fa:	ee07 1a90 	vmov	s15, r1
 80031fe:	eef8 7ae7 	vcvt.f32.s32	s15, s15
 8003202:	ee80 7aa7 	vdiv.f32	s14, s1, s15
 8003206:	ee37 0a00 	vadd.f32	s0, s14, s0
 800320a:	4770      	bx	lr

0800320c <ps_warmup>:
 800320c:	e92d 47f3 	stmdb	sp!, {r0, r1, r4, r5, r6, r7, r8, r9, sl, lr}
 8003210:	2400      	movs	r4, #0
 8003212:	4f14      	ldr	r7, [pc, #80]	; (8003264 <ps_warmup+0x58>)
 8003214:	f8df 8050 	ldr.w	r8, [pc, #80]	; 8003268 <ps_warmup+0x5c>
 8003218:	4606      	mov	r6, r0
 800321a:	4689      	mov	r9, r1
 800321c:	46a2      	mov	sl, r4
 800321e:	454c      	cmp	r4, r9
 8003220:	db02      	blt.n	8003228 <ps_warmup+0x1c>
 8003222:	b002      	add	sp, #8
 8003224:	e8bd 87f0 	ldmia.w	sp!, {r4, r5, r6, r7, r8, r9, sl, pc}
 8003228:	4635      	mov	r5, r6
 800322a:	2200      	movs	r2, #0
 800322c:	f825 ab02 	strh.w	sl, [r5], #2
 8003230:	f44f 4100 	mov.w	r1, #32768	; 0x8000
 8003234:	4638      	mov	r0, r7
 8003236:	f001 fc61 	bl	8004afc <HAL_GPIO_WritePin>
 800323a:	2364      	movs	r3, #100	; 0x64
 800323c:	9300      	str	r3, [sp, #0]
 800323e:	462a      	mov	r2, r5
 8003240:	2301      	movs	r3, #1
 8003242:	4631      	mov	r1, r6
 8003244:	4640      	mov	r0, r8
 8003246:	f001 ffdc 	bl	8005202 <HAL_SPI_TransmitReceive>
 800324a:	f898 3051 	ldrb.w	r3, [r8, #81]	; 0x51
 800324e:	2b02      	cmp	r3, #2
 8003250:	d0fb      	beq.n	800324a <ps_warmup+0x3e>
 8003252:	2201      	movs	r2, #1
 8003254:	f44f 4100 	mov.w	r1, #32768	; 0x8000
 8003258:	4638      	mov	r0, r7
 800325a:	f001 fc4f 	bl	8004afc <HAL_GPIO_WritePin>
 800325e:	3401      	adds	r4, #1
 8003260:	e7dd      	b.n	800321e <ps_warmup+0x12>
 8003262:	bf00      	nop
 8003264:	40020000 	.word	0x40020000
 8003268:	20009b08 	.word	0x20009b08

0800326c <ps_sample>:
 800326c:	b530      	push	{r4, r5, lr}
 800326e:	ed2d 8b04 	vpush	{d8-d9}
 8003272:	6f43      	ldr	r3, [r0, #116]	; 0x74
 8003274:	6783      	str	r3, [r0, #120]	; 0x78
 8003276:	b083      	sub	sp, #12
 8003278:	4604      	mov	r4, r0
 800327a:	eeb0 9a40 	vmov.f32	s18, s0
 800327e:	f100 0354 	add.w	r3, r0, #84	; 0x54
 8003282:	f100 0208 	add.w	r2, r0, #8
 8003286:	f853 1d04 	ldr.w	r1, [r3, #-4]!
 800328a:	6059      	str	r1, [r3, #4]
 800328c:	429a      	cmp	r2, r3
 800328e:	d1fa      	bne.n	8003286 <ps_sample+0x1a>
 8003290:	4625      	mov	r5, r4
 8003292:	2200      	movs	r2, #0
 8003294:	f825 2b02 	strh.w	r2, [r5], #2
 8003298:	f44f 4100 	mov.w	r1, #32768	; 0x8000
 800329c:	4842      	ldr	r0, [pc, #264]	; (80033a8 <ps_sample+0x13c>)
 800329e:	f001 fc2d 	bl	8004afc <HAL_GPIO_WritePin>
 80032a2:	2364      	movs	r3, #100	; 0x64
 80032a4:	9300      	str	r3, [sp, #0]
 80032a6:	462a      	mov	r2, r5
 80032a8:	2301      	movs	r3, #1
 80032aa:	4621      	mov	r1, r4
 80032ac:	483f      	ldr	r0, [pc, #252]	; (80033ac <ps_sample+0x140>)
 80032ae:	f001 ffa8 	bl	8005202 <HAL_SPI_TransmitReceive>
 80032b2:	4a3e      	ldr	r2, [pc, #248]	; (80033ac <ps_sample+0x140>)
 80032b4:	f892 3051 	ldrb.w	r3, [r2, #81]	; 0x51
 80032b8:	2b02      	cmp	r3, #2
 80032ba:	d0fb      	beq.n	80032b4 <ps_sample+0x48>
 80032bc:	f44f 4100 	mov.w	r1, #32768	; 0x8000
 80032c0:	4839      	ldr	r0, [pc, #228]	; (80033a8 <ps_sample+0x13c>)
 80032c2:	4d3b      	ldr	r5, [pc, #236]	; (80033b0 <ps_sample+0x144>)
 80032c4:	eddf 8a3b 	vldr	s17, [pc, #236]	; 80033b4 <ps_sample+0x148>
 80032c8:	ed9f 8a3b 	vldr	s16, [pc, #236]	; 80033b8 <ps_sample+0x14c>
 80032cc:	2201      	movs	r2, #1
 80032ce:	f001 fc15 	bl	8004afc <HAL_GPIO_WritePin>
 80032d2:	8863      	ldrh	r3, [r4, #2]
 80032d4:	6723      	str	r3, [r4, #112]	; 0x70
 80032d6:	125a      	asrs	r2, r3, #9
 80032d8:	3222      	adds	r2, #34	; 0x22
 80032da:	eef7 0a00 	vmov.f32	s1, #112	; 0x3f800000  1.0
 80032de:	f854 2022 	ldr.w	r2, [r4, r2, lsl #2]
 80032e2:	4413      	add	r3, r2
 80032e4:	6763      	str	r3, [r4, #116]	; 0x74
 80032e6:	692a      	ldr	r2, [r5, #16]
 80032e8:	1a9b      	subs	r3, r3, r2
 80032ea:	ee07 3a90 	vmov	s15, r3
 80032ee:	eeb8 0ae7 	vcvt.f32.s32	s0, s15
 80032f2:	ee20 0a28 	vmul.f32	s0, s0, s17
 80032f6:	f003 f859 	bl	80063ac <fmodf>
 80032fa:	ee20 0a08 	vmul.f32	s0, s0, s16
 80032fe:	696a      	ldr	r2, [r5, #20]
 8003300:	6f63      	ldr	r3, [r4, #116]	; 0x74
 8003302:	eeb5 0ac0 	vcmpe.f32	s0, #0.0
 8003306:	eef1 fa10 	vmrs	APSR_nzcv, fpscr
 800330a:	eba3 0302 	sub.w	r3, r3, r2
 800330e:	bf48      	it	mi
 8003310:	ee30 0a08 	vaddmi.f32	s0, s0, s16
 8003314:	ee07 3a90 	vmov	s15, r3
 8003318:	ed84 0a01 	vstr	s0, [r4, #4]
 800331c:	eef8 7ae7 	vcvt.f32.s32	s15, s15
 8003320:	ed94 0a19 	vldr	s0, [r4, #100]	; 0x64
 8003324:	ee27 0a80 	vmul.f32	s0, s15, s0
 8003328:	eef7 0a00 	vmov.f32	s1, #112	; 0x3f800000  1.0
 800332c:	ee20 0a28 	vmul.f32	s0, s0, s17
 8003330:	f003 f83c 	bl	80063ac <fmodf>
 8003334:	ee20 0a08 	vmul.f32	s0, s0, s16
 8003338:	e9d4 231d 	ldrd	r2, r3, [r4, #116]	; 0x74
 800333c:	eeb5 0ac0 	vcmpe.f32	s0, #0.0
 8003340:	eef1 fa10 	vmrs	APSR_nzcv, fpscr
 8003344:	bf48      	it	mi
 8003346:	ee30 0a08 	vaddmi.f32	s0, s0, s16
 800334a:	1ad2      	subs	r2, r2, r3
 800334c:	f5b2 4f00 	cmp.w	r2, #32768	; 0x8000
 8003350:	ed84 0a16 	vstr	s0, [r4, #88]	; 0x58
 8003354:	6fe3      	ldr	r3, [r4, #124]	; 0x7c
 8003356:	dd21      	ble.n	800339c <ps_sample+0x130>
 8003358:	3b01      	subs	r3, #1
 800335a:	67e3      	str	r3, [r4, #124]	; 0x7c
 800335c:	edd4 7a1f 	vldr	s15, [r4, #124]	; 0x7c
 8003360:	eeb8 7ae7 	vcvt.f32.s32	s14, s15
 8003364:	edd4 7a01 	vldr	s15, [r4, #4]
 8003368:	eee7 7a08 	vfma.f32	s15, s14, s16
 800336c:	ed94 7a15 	vldr	s14, [r4, #84]	; 0x54
 8003370:	edc4 7a02 	vstr	s15, [r4, #8]
 8003374:	ee77 7ac7 	vsub.f32	s15, s15, s14
 8003378:	eeb3 7a03 	vmov.f32	s14, #51	; 0x41980000  19.0
 800337c:	ee29 9a07 	vmul.f32	s18, s18, s14
 8003380:	ee87 7a89 	vdiv.f32	s14, s15, s18
 8003384:	edd4 7a19 	vldr	s15, [r4, #100]	; 0x64
 8003388:	ed84 7a17 	vstr	s14, [r4, #92]	; 0x5c
 800338c:	ee67 7a87 	vmul.f32	s15, s15, s14
 8003390:	edc4 7a18 	vstr	s15, [r4, #96]	; 0x60
 8003394:	b003      	add	sp, #12
 8003396:	ecbd 8b04 	vpop	{d8-d9}
 800339a:	bd30      	pop	{r4, r5, pc}
 800339c:	f512 4f00 	cmn.w	r2, #32768	; 0x8000
 80033a0:	dadc      	bge.n	800335c <ps_sample+0xf0>
 80033a2:	3301      	adds	r3, #1
 80033a4:	e7d9      	b.n	800335a <ps_sample+0xee>
 80033a6:	bf00      	nop
 80033a8:	40020000 	.word	0x40020000
 80033ac:	20009b08 	.word	0x20009b08
 80033b0:	20009664 	.word	0x20009664
 80033b4:	37800000 	.word	0x37800000
 80033b8:	40c90fdb 	.word	0x40c90fdb

080033bc <ps_print>:
 80033bc:	b510      	push	{r4, lr}
 80033be:	4604      	mov	r4, r0
 80033c0:	6f01      	ldr	r1, [r0, #112]	; 0x70
 80033c2:	4810      	ldr	r0, [pc, #64]	; (8003404 <ps_print+0x48>)
 80033c4:	f004 f8a4 	bl	8007510 <printf>
 80033c8:	6f61      	ldr	r1, [r4, #116]	; 0x74
 80033ca:	480f      	ldr	r0, [pc, #60]	; (8003408 <ps_print+0x4c>)
 80033cc:	f004 f8a0 	bl	8007510 <printf>
 80033d0:	6860      	ldr	r0, [r4, #4]
 80033d2:	f7fd f8d9 	bl	8000588 <__aeabi_f2d>
 80033d6:	4602      	mov	r2, r0
 80033d8:	460b      	mov	r3, r1
 80033da:	480c      	ldr	r0, [pc, #48]	; (800340c <ps_print+0x50>)
 80033dc:	f004 f898 	bl	8007510 <printf>
 80033e0:	68a0      	ldr	r0, [r4, #8]
 80033e2:	f7fd f8d1 	bl	8000588 <__aeabi_f2d>
 80033e6:	4602      	mov	r2, r0
 80033e8:	460b      	mov	r3, r1
 80033ea:	4809      	ldr	r0, [pc, #36]	; (8003410 <ps_print+0x54>)
 80033ec:	f004 f890 	bl	8007510 <printf>
 80033f0:	6da0      	ldr	r0, [r4, #88]	; 0x58
 80033f2:	f7fd f8c9 	bl	8000588 <__aeabi_f2d>
 80033f6:	e8bd 4010 	ldmia.w	sp!, {r4, lr}
 80033fa:	4602      	mov	r2, r0
 80033fc:	460b      	mov	r3, r1
 80033fe:	4805      	ldr	r0, [pc, #20]	; (8003414 <ps_print+0x58>)
 8003400:	f004 b886 	b.w	8007510 <printf>
 8003404:	0800d05a 	.word	0x0800d05a
 8003408:	0800d062 	.word	0x0800d062
 800340c:	0800d07a 	.word	0x0800d07a
 8003410:	0800d08d 	.word	0x0800d08d
 8003414:	0800d09e 	.word	0x0800d09e

08003418 <preference_writer_init>:
 8003418:	b538      	push	{r3, r4, r5, lr}
 800341a:	4604      	mov	r4, r0
 800341c:	460d      	mov	r5, r1
 800341e:	f7fe fc6f 	bl	8001d00 <flash_writer_init>
 8003422:	60e5      	str	r5, [r4, #12]
 8003424:	bd38      	pop	{r3, r4, r5, pc}

08003426 <preference_writer_open>:
 8003426:	b510      	push	{r4, lr}
 8003428:	4604      	mov	r4, r0
 800342a:	f7fe fc77 	bl	8001d1c <flash_writer_open>
 800342e:	2301      	movs	r3, #1
 8003430:	7423      	strb	r3, [r4, #16]
 8003432:	bd10      	pop	{r4, pc}

08003434 <preference_writer_ready>:
 8003434:	b084      	sub	sp, #16
 8003436:	e88d 000f 	stmia.w	sp, {r0, r1, r2, r3}
 800343a:	f89d 0010 	ldrb.w	r0, [sp, #16]
 800343e:	b004      	add	sp, #16
 8003440:	4770      	bx	lr
	...

08003444 <preference_writer_flush>:
 8003444:	b573      	push	{r0, r1, r4, r5, r6, lr}
 8003446:	4e0f      	ldr	r6, [pc, #60]	; (8003484 <preference_writer_flush+0x40>)
 8003448:	4605      	mov	r5, r0
 800344a:	2400      	movs	r4, #0
 800344c:	f856 3024 	ldr.w	r3, [r6, r4, lsl #2]
 8003450:	9300      	str	r3, [sp, #0]
 8003452:	e895 0007 	ldmia.w	r5, {r0, r1, r2}
 8003456:	4623      	mov	r3, r4
 8003458:	3401      	adds	r4, #1
 800345a:	f7fe fc73 	bl	8001d44 <flash_writer_write_int>
 800345e:	f5b4 7f80 	cmp.w	r4, #256	; 0x100
 8003462:	d1f3      	bne.n	800344c <preference_writer_flush+0x8>
 8003464:	4e08      	ldr	r6, [pc, #32]	; (8003488 <preference_writer_flush+0x44>)
 8003466:	ecb6 0a01 	vldmia	r6!, {s0}
 800346a:	4623      	mov	r3, r4
 800346c:	e895 0007 	ldmia.w	r5, {r0, r1, r2}
 8003470:	3401      	adds	r4, #1
 8003472:	f7fe fc73 	bl	8001d5c <flash_writer_write_float>
 8003476:	f5b4 7fa0 	cmp.w	r4, #320	; 0x140
 800347a:	d1f4      	bne.n	8003466 <preference_writer_flush+0x22>
 800347c:	2300      	movs	r3, #0
 800347e:	742b      	strb	r3, [r5, #16]
 8003480:	b002      	add	sp, #8
 8003482:	bd70      	pop	{r4, r5, r6, pc}
 8003484:	20009664 	.word	0x20009664
 8003488:	20000dc8 	.word	0x20000dc8

0800348c <preference_writer_load>:
 800348c:	b084      	sub	sp, #16
 800348e:	b538      	push	{r3, r4, r5, lr}
 8003490:	4d0f      	ldr	r5, [pc, #60]	; (80034d0 <preference_writer_load+0x44>)
 8003492:	ac04      	add	r4, sp, #16
 8003494:	e884 000f 	stmia.w	r4, {r0, r1, r2, r3}
 8003498:	2400      	movs	r4, #0
 800349a:	aa04      	add	r2, sp, #16
 800349c:	4623      	mov	r3, r4
 800349e:	ca07      	ldmia	r2, {r0, r1, r2}
 80034a0:	f7fe fc70 	bl	8001d84 <flash_read_int>
 80034a4:	f845 0024 	str.w	r0, [r5, r4, lsl #2]
 80034a8:	3401      	adds	r4, #1
 80034aa:	f5b4 7f80 	cmp.w	r4, #256	; 0x100
 80034ae:	d1f4      	bne.n	800349a <preference_writer_load+0xe>
 80034b0:	4d08      	ldr	r5, [pc, #32]	; (80034d4 <preference_writer_load+0x48>)
 80034b2:	aa04      	add	r2, sp, #16
 80034b4:	4623      	mov	r3, r4
 80034b6:	ca07      	ldmia	r2, {r0, r1, r2}
 80034b8:	f7fe fc74 	bl	8001da4 <flash_read_float>
 80034bc:	3401      	adds	r4, #1
 80034be:	f5b4 7fa0 	cmp.w	r4, #320	; 0x140
 80034c2:	eca5 0a01 	vstmia	r5!, {s0}
 80034c6:	d1f4      	bne.n	80034b2 <preference_writer_load+0x26>
 80034c8:	e8bd 4038 	ldmia.w	sp!, {r3, r4, r5, lr}
 80034cc:	b004      	add	sp, #16
 80034ce:	4770      	bx	lr
 80034d0:	20009664 	.word	0x20009664
 80034d4:	20000dc8 	.word	0x20000dc8

080034d8 <preference_writer_close>:
 80034d8:	2200      	movs	r2, #0
 80034da:	7402      	strb	r2, [r0, #16]
 80034dc:	f7fe bc4b 	b.w	8001d76 <flash_writer_close>

080034e0 <MX_SPI1_Init>:
 80034e0:	4810      	ldr	r0, [pc, #64]	; (8003524 <MX_SPI1_Init+0x44>)
 80034e2:	4a11      	ldr	r2, [pc, #68]	; (8003528 <MX_SPI1_Init+0x48>)
 80034e4:	b508      	push	{r3, lr}
 80034e6:	f44f 7382 	mov.w	r3, #260	; 0x104
 80034ea:	e9c0 2300 	strd	r2, r3, [r0]
 80034ee:	2300      	movs	r3, #0
 80034f0:	f44f 6200 	mov.w	r2, #2048	; 0x800
 80034f4:	e9c0 3202 	strd	r3, r2, [r0, #8]
 80034f8:	2101      	movs	r1, #1
 80034fa:	f44f 7200 	mov.w	r2, #512	; 0x200
 80034fe:	e9c0 1205 	strd	r1, r2, [r0, #20]
 8003502:	2228      	movs	r2, #40	; 0x28
 8003504:	6103      	str	r3, [r0, #16]
 8003506:	e9c0 2307 	strd	r2, r3, [r0, #28]
 800350a:	e9c0 3309 	strd	r3, r3, [r0, #36]	; 0x24
 800350e:	230a      	movs	r3, #10
 8003510:	62c3      	str	r3, [r0, #44]	; 0x2c
 8003512:	f001 fe39 	bl	8005188 <HAL_SPI_Init>
 8003516:	b118      	cbz	r0, 8003520 <MX_SPI1_Init+0x40>
 8003518:	e8bd 4008 	ldmia.w	sp!, {r3, lr}
 800351c:	f7ff bde8 	b.w	80030f0 <Error_Handler>
 8003520:	bd08      	pop	{r3, pc}
 8003522:	bf00      	nop
 8003524:	20009b60 	.word	0x20009b60
 8003528:	40013000 	.word	0x40013000

0800352c <MX_SPI3_Init>:
 800352c:	480f      	ldr	r0, [pc, #60]	; (800356c <MX_SPI3_Init+0x40>)
 800352e:	4a10      	ldr	r2, [pc, #64]	; (8003570 <MX_SPI3_Init+0x44>)
 8003530:	b508      	push	{r3, lr}
 8003532:	f44f 7382 	mov.w	r3, #260	; 0x104
 8003536:	e9c0 2300 	strd	r2, r3, [r0]
 800353a:	2300      	movs	r3, #0
 800353c:	f44f 6200 	mov.w	r2, #2048	; 0x800
 8003540:	e9c0 3202 	strd	r3, r2, [r0, #8]
 8003544:	f44f 7200 	mov.w	r2, #512	; 0x200
 8003548:	e9c0 3304 	strd	r3, r3, [r0, #16]
 800354c:	e9c0 2306 	strd	r2, r3, [r0, #24]
 8003550:	e9c0 3308 	strd	r3, r3, [r0, #32]
 8003554:	6283      	str	r3, [r0, #40]	; 0x28
 8003556:	230a      	movs	r3, #10
 8003558:	62c3      	str	r3, [r0, #44]	; 0x2c
 800355a:	f001 fe15 	bl	8005188 <HAL_SPI_Init>
 800355e:	b118      	cbz	r0, 8003568 <MX_SPI3_Init+0x3c>
 8003560:	e8bd 4008 	ldmia.w	sp!, {r3, lr}
 8003564:	f7ff bdc4 	b.w	80030f0 <Error_Handler>
 8003568:	bd08      	pop	{r3, pc}
 800356a:	bf00      	nop
 800356c:	20009b08 	.word	0x20009b08
 8003570:	40003c00 	.word	0x40003c00

08003574 <HAL_SPI_MspInit>:
 8003574:	b510      	push	{r4, lr}
 8003576:	2214      	movs	r2, #20
 8003578:	b08a      	sub	sp, #40	; 0x28
 800357a:	4604      	mov	r4, r0
 800357c:	2100      	movs	r1, #0
 800357e:	eb0d 0002 	add.w	r0, sp, r2
 8003582:	f003 ffbc 	bl	80074fe <memset>
 8003586:	6823      	ldr	r3, [r4, #0]
 8003588:	4a25      	ldr	r2, [pc, #148]	; (8003620 <HAL_SPI_MspInit+0xac>)
 800358a:	4293      	cmp	r3, r2
 800358c:	d123      	bne.n	80035d6 <HAL_SPI_MspInit+0x62>
 800358e:	4b25      	ldr	r3, [pc, #148]	; (8003624 <HAL_SPI_MspInit+0xb0>)
 8003590:	2100      	movs	r1, #0
 8003592:	9101      	str	r1, [sp, #4]
 8003594:	6c5a      	ldr	r2, [r3, #68]	; 0x44
 8003596:	f442 5280 	orr.w	r2, r2, #4096	; 0x1000
 800359a:	645a      	str	r2, [r3, #68]	; 0x44
 800359c:	6c5a      	ldr	r2, [r3, #68]	; 0x44
 800359e:	f402 5280 	and.w	r2, r2, #4096	; 0x1000
 80035a2:	9201      	str	r2, [sp, #4]
 80035a4:	9a01      	ldr	r2, [sp, #4]
 80035a6:	9102      	str	r1, [sp, #8]
 80035a8:	6b1a      	ldr	r2, [r3, #48]	; 0x30
 80035aa:	f042 0201 	orr.w	r2, r2, #1
 80035ae:	631a      	str	r2, [r3, #48]	; 0x30
 80035b0:	6b1b      	ldr	r3, [r3, #48]	; 0x30
 80035b2:	f003 0301 	and.w	r3, r3, #1
 80035b6:	9302      	str	r3, [sp, #8]
 80035b8:	20e0      	movs	r0, #224	; 0xe0
 80035ba:	9b02      	ldr	r3, [sp, #8]
 80035bc:	2302      	movs	r3, #2
 80035be:	e9cd 0305 	strd	r0, r3, [sp, #20]
 80035c2:	2403      	movs	r4, #3
 80035c4:	2305      	movs	r3, #5
 80035c6:	e9cd 4308 	strd	r4, r3, [sp, #32]
 80035ca:	4817      	ldr	r0, [pc, #92]	; (8003628 <HAL_SPI_MspInit+0xb4>)
 80035cc:	a905      	add	r1, sp, #20
 80035ce:	f001 f9bb 	bl	8004948 <HAL_GPIO_Init>
 80035d2:	b00a      	add	sp, #40	; 0x28
 80035d4:	bd10      	pop	{r4, pc}
 80035d6:	4a15      	ldr	r2, [pc, #84]	; (800362c <HAL_SPI_MspInit+0xb8>)
 80035d8:	4293      	cmp	r3, r2
 80035da:	d1fa      	bne.n	80035d2 <HAL_SPI_MspInit+0x5e>
 80035dc:	4b11      	ldr	r3, [pc, #68]	; (8003624 <HAL_SPI_MspInit+0xb0>)
 80035de:	4814      	ldr	r0, [pc, #80]	; (8003630 <HAL_SPI_MspInit+0xbc>)
 80035e0:	2100      	movs	r1, #0
 80035e2:	9103      	str	r1, [sp, #12]
 80035e4:	6c1a      	ldr	r2, [r3, #64]	; 0x40
 80035e6:	f442 4200 	orr.w	r2, r2, #32768	; 0x8000
 80035ea:	641a      	str	r2, [r3, #64]	; 0x40
 80035ec:	6c1a      	ldr	r2, [r3, #64]	; 0x40
 80035ee:	f402 4200 	and.w	r2, r2, #32768	; 0x8000
 80035f2:	9203      	str	r2, [sp, #12]
 80035f4:	9a03      	ldr	r2, [sp, #12]
 80035f6:	9104      	str	r1, [sp, #16]
 80035f8:	6b1a      	ldr	r2, [r3, #48]	; 0x30
 80035fa:	f042 0204 	orr.w	r2, r2, #4
 80035fe:	631a      	str	r2, [r3, #48]	; 0x30
 8003600:	6b1b      	ldr	r3, [r3, #48]	; 0x30
 8003602:	f003 0304 	and.w	r3, r3, #4
 8003606:	9304      	str	r3, [sp, #16]
 8003608:	9b04      	ldr	r3, [sp, #16]
 800360a:	f44f 52e0 	mov.w	r2, #7168	; 0x1c00
 800360e:	2302      	movs	r3, #2
 8003610:	2103      	movs	r1, #3
 8003612:	e9cd 2305 	strd	r2, r3, [sp, #20]
 8003616:	2306      	movs	r3, #6
 8003618:	e9cd 1308 	strd	r1, r3, [sp, #32]
 800361c:	a905      	add	r1, sp, #20
 800361e:	e7d6      	b.n	80035ce <HAL_SPI_MspInit+0x5a>
 8003620:	40013000 	.word	0x40013000
 8003624:	40023800 	.word	0x40023800
 8003628:	40020000 	.word	0x40020000
 800362c:	40003c00 	.word	0x40003c00
 8003630:	40020800 	.word	0x40020800

08003634 <FLASH_Unlock>:
 8003634:	4b04      	ldr	r3, [pc, #16]	; (8003648 <FLASH_Unlock+0x14>)
 8003636:	691a      	ldr	r2, [r3, #16]
 8003638:	2a00      	cmp	r2, #0
 800363a:	bfbf      	itttt	lt
 800363c:	4a03      	ldrlt	r2, [pc, #12]	; (800364c <FLASH_Unlock+0x18>)
 800363e:	605a      	strlt	r2, [r3, #4]
 8003640:	f102 3288 	addlt.w	r2, r2, #2290649224	; 0x88888888
 8003644:	605a      	strlt	r2, [r3, #4]
 8003646:	4770      	bx	lr
 8003648:	40023c00 	.word	0x40023c00
 800364c:	45670123 	.word	0x45670123

08003650 <FLASH_Lock>:
 8003650:	4a02      	ldr	r2, [pc, #8]	; (800365c <FLASH_Lock+0xc>)
 8003652:	6913      	ldr	r3, [r2, #16]
 8003654:	f043 4300 	orr.w	r3, r3, #2147483648	; 0x80000000
 8003658:	6113      	str	r3, [r2, #16]
 800365a:	4770      	bx	lr
 800365c:	40023c00 	.word	0x40023c00

08003660 <FLASH_ClearFlag>:
 8003660:	4b01      	ldr	r3, [pc, #4]	; (8003668 <FLASH_ClearFlag+0x8>)
 8003662:	60d8      	str	r0, [r3, #12]
 8003664:	4770      	bx	lr
 8003666:	bf00      	nop
 8003668:	40023c00 	.word	0x40023c00

0800366c <FLASH_GetStatus>:
 800366c:	4b0e      	ldr	r3, [pc, #56]	; (80036a8 <FLASH_GetStatus+0x3c>)
 800366e:	68da      	ldr	r2, [r3, #12]
 8003670:	03d2      	lsls	r2, r2, #15
 8003672:	d410      	bmi.n	8003696 <FLASH_GetStatus+0x2a>
 8003674:	68da      	ldr	r2, [r3, #12]
 8003676:	06d1      	lsls	r1, r2, #27
 8003678:	d40f      	bmi.n	800369a <FLASH_GetStatus+0x2e>
 800367a:	68da      	ldr	r2, [r3, #12]
 800367c:	05d2      	lsls	r2, r2, #23
 800367e:	d40e      	bmi.n	800369e <FLASH_GetStatus+0x32>
 8003680:	68da      	ldr	r2, [r3, #12]
 8003682:	f012 0fe0 	tst.w	r2, #224	; 0xe0
 8003686:	d10c      	bne.n	80036a2 <FLASH_GetStatus+0x36>
 8003688:	68db      	ldr	r3, [r3, #12]
 800368a:	f013 0f02 	tst.w	r3, #2
 800368e:	bf14      	ite	ne
 8003690:	2008      	movne	r0, #8
 8003692:	2009      	moveq	r0, #9
 8003694:	4770      	bx	lr
 8003696:	2001      	movs	r0, #1
 8003698:	4770      	bx	lr
 800369a:	2006      	movs	r0, #6
 800369c:	4770      	bx	lr
 800369e:	2002      	movs	r0, #2
 80036a0:	4770      	bx	lr
 80036a2:	2007      	movs	r0, #7
 80036a4:	4770      	bx	lr
 80036a6:	bf00      	nop
 80036a8:	40023c00 	.word	0x40023c00

080036ac <FLASH_WaitForLastOperation2>:
 80036ac:	b507      	push	{r0, r1, r2, lr}
 80036ae:	2309      	movs	r3, #9
 80036b0:	f88d 3007 	strb.w	r3, [sp, #7]
 80036b4:	f7ff ffda 	bl	800366c <FLASH_GetStatus>
 80036b8:	f88d 0007 	strb.w	r0, [sp, #7]
 80036bc:	f89d 3007 	ldrb.w	r3, [sp, #7]
 80036c0:	2b01      	cmp	r3, #1
 80036c2:	d0f7      	beq.n	80036b4 <FLASH_WaitForLastOperation2+0x8>
 80036c4:	f89d 0007 	ldrb.w	r0, [sp, #7]
 80036c8:	b003      	add	sp, #12
 80036ca:	f85d fb04 	ldr.w	pc, [sp], #4
	...

080036d0 <FLASH_EraseSector>:
 80036d0:	b570      	push	{r4, r5, r6, lr}
 80036d2:	4606      	mov	r6, r0
 80036d4:	b359      	cbz	r1, 800372e <FLASH_EraseSector+0x5e>
 80036d6:	2901      	cmp	r1, #1
 80036d8:	d02b      	beq.n	8003732 <FLASH_EraseSector+0x62>
 80036da:	2902      	cmp	r1, #2
 80036dc:	bf0c      	ite	eq
 80036de:	f44f 7500 	moveq.w	r5, #512	; 0x200
 80036e2:	f44f 7540 	movne.w	r5, #768	; 0x300
 80036e6:	f7ff ffe1 	bl	80036ac <FLASH_WaitForLastOperation2>
 80036ea:	2809      	cmp	r0, #9
 80036ec:	d11e      	bne.n	800372c <FLASH_EraseSector+0x5c>
 80036ee:	4c12      	ldr	r4, [pc, #72]	; (8003738 <FLASH_EraseSector+0x68>)
 80036f0:	6923      	ldr	r3, [r4, #16]
 80036f2:	f423 7340 	bic.w	r3, r3, #768	; 0x300
 80036f6:	6123      	str	r3, [r4, #16]
 80036f8:	6921      	ldr	r1, [r4, #16]
 80036fa:	4329      	orrs	r1, r5
 80036fc:	6121      	str	r1, [r4, #16]
 80036fe:	6923      	ldr	r3, [r4, #16]
 8003700:	f023 03f8 	bic.w	r3, r3, #248	; 0xf8
 8003704:	6123      	str	r3, [r4, #16]
 8003706:	6920      	ldr	r0, [r4, #16]
 8003708:	f040 0002 	orr.w	r0, r0, #2
 800370c:	4330      	orrs	r0, r6
 800370e:	6120      	str	r0, [r4, #16]
 8003710:	6923      	ldr	r3, [r4, #16]
 8003712:	f443 3380 	orr.w	r3, r3, #65536	; 0x10000
 8003716:	6123      	str	r3, [r4, #16]
 8003718:	f7ff ffc8 	bl	80036ac <FLASH_WaitForLastOperation2>
 800371c:	6923      	ldr	r3, [r4, #16]
 800371e:	f023 0302 	bic.w	r3, r3, #2
 8003722:	6123      	str	r3, [r4, #16]
 8003724:	6923      	ldr	r3, [r4, #16]
 8003726:	f023 03f8 	bic.w	r3, r3, #248	; 0xf8
 800372a:	6123      	str	r3, [r4, #16]
 800372c:	bd70      	pop	{r4, r5, r6, pc}
 800372e:	460d      	mov	r5, r1
 8003730:	e7d9      	b.n	80036e6 <FLASH_EraseSector+0x16>
 8003732:	f44f 7580 	mov.w	r5, #256	; 0x100
 8003736:	e7d6      	b.n	80036e6 <FLASH_EraseSector+0x16>
 8003738:	40023c00 	.word	0x40023c00

0800373c <FLASH_ProgramWord>:
 800373c:	b570      	push	{r4, r5, r6, lr}
 800373e:	4605      	mov	r5, r0
 8003740:	460e      	mov	r6, r1
 8003742:	f7ff ffb3 	bl	80036ac <FLASH_WaitForLastOperation2>
 8003746:	2809      	cmp	r0, #9
 8003748:	d113      	bne.n	8003772 <FLASH_ProgramWord+0x36>
 800374a:	4c0a      	ldr	r4, [pc, #40]	; (8003774 <FLASH_ProgramWord+0x38>)
 800374c:	6923      	ldr	r3, [r4, #16]
 800374e:	f423 7340 	bic.w	r3, r3, #768	; 0x300
 8003752:	6123      	str	r3, [r4, #16]
 8003754:	6923      	ldr	r3, [r4, #16]
 8003756:	f443 7300 	orr.w	r3, r3, #512	; 0x200
 800375a:	6123      	str	r3, [r4, #16]
 800375c:	6923      	ldr	r3, [r4, #16]
 800375e:	f043 0301 	orr.w	r3, r3, #1
 8003762:	6123      	str	r3, [r4, #16]
 8003764:	602e      	str	r6, [r5, #0]
 8003766:	f7ff ffa1 	bl	80036ac <FLASH_WaitForLastOperation2>
 800376a:	6923      	ldr	r3, [r4, #16]
 800376c:	f023 0301 	bic.w	r3, r3, #1
 8003770:	6123      	str	r3, [r4, #16]
 8003772:	bd70      	pop	{r4, r5, r6, pc}
 8003774:	40023c00 	.word	0x40023c00

08003778 <HAL_MspInit>:
 8003778:	b082      	sub	sp, #8
 800377a:	4b0d      	ldr	r3, [pc, #52]	; (80037b0 <HAL_MspInit+0x38>)
 800377c:	2100      	movs	r1, #0
 800377e:	9100      	str	r1, [sp, #0]
 8003780:	6c5a      	ldr	r2, [r3, #68]	; 0x44
 8003782:	f442 4280 	orr.w	r2, r2, #16384	; 0x4000
 8003786:	645a      	str	r2, [r3, #68]	; 0x44
 8003788:	6c5a      	ldr	r2, [r3, #68]	; 0x44
 800378a:	f402 4280 	and.w	r2, r2, #16384	; 0x4000
 800378e:	9200      	str	r2, [sp, #0]
 8003790:	9a00      	ldr	r2, [sp, #0]
 8003792:	9101      	str	r1, [sp, #4]
 8003794:	6c1a      	ldr	r2, [r3, #64]	; 0x40
 8003796:	f042 5280 	orr.w	r2, r2, #268435456	; 0x10000000
 800379a:	641a      	str	r2, [r3, #64]	; 0x40
 800379c:	6c1b      	ldr	r3, [r3, #64]	; 0x40
 800379e:	f003 5380 	and.w	r3, r3, #268435456	; 0x10000000
 80037a2:	9301      	str	r3, [sp, #4]
 80037a4:	9b01      	ldr	r3, [sp, #4]
 80037a6:	2007      	movs	r0, #7
 80037a8:	b002      	add	sp, #8
 80037aa:	f001 b851 	b.w	8004850 <HAL_NVIC_SetPriorityGrouping>
 80037ae:	bf00      	nop
 80037b0:	40023800 	.word	0x40023800

080037b4 <NMI_Handler>:
 80037b4:	4770      	bx	lr

080037b6 <HardFault_Handler>:
 80037b6:	e7fe      	b.n	80037b6 <HardFault_Handler>

080037b8 <MemManage_Handler>:
 80037b8:	e7fe      	b.n	80037b8 <MemManage_Handler>

080037ba <BusFault_Handler>:
 80037ba:	e7fe      	b.n	80037ba <BusFault_Handler>

080037bc <UsageFault_Handler>:
 80037bc:	e7fe      	b.n	80037bc <UsageFault_Handler>

080037be <SVC_Handler>:
 80037be:	4770      	bx	lr

080037c0 <DebugMon_Handler>:
 80037c0:	4770      	bx	lr

080037c2 <PendSV_Handler>:
 80037c2:	4770      	bx	lr

080037c4 <SysTick_Handler>:
 80037c4:	f000 baee 	b.w	8003da4 <HAL_IncTick>

080037c8 <CAN1_RX0_IRQHandler>:
 80037c8:	b5f0      	push	{r4, r5, r6, r7, lr}
 80037ca:	4c4e      	ldr	r4, [pc, #312]	; (8003904 <CAN1_RX0_IRQHandler+0x13c>)
 80037cc:	484e      	ldr	r0, [pc, #312]	; (8003908 <CAN1_RX0_IRQHandler+0x140>)
 80037ce:	4f4f      	ldr	r7, [pc, #316]	; (800390c <CAN1_RX0_IRQHandler+0x144>)
 80037d0:	b095      	sub	sp, #84	; 0x54
 80037d2:	f000 ff3e 	bl	8004652 <HAL_CAN_IRQHandler>
 80037d6:	f104 020b 	add.w	r2, r4, #11
 80037da:	4623      	mov	r3, r4
 80037dc:	2100      	movs	r1, #0
 80037de:	484a      	ldr	r0, [pc, #296]	; (8003908 <CAN1_RX0_IRQHandler+0x140>)
 80037e0:	f000 feb4 	bl	800454c <HAL_CAN_GetRxMessage>
 80037e4:	4b4a      	ldr	r3, [pc, #296]	; (8003910 <CAN1_RX0_IRQHandler+0x148>)
 80037e6:	eddf 7a4b 	vldr	s15, [pc, #300]	; 8003914 <CAN1_RX0_IRQHandler+0x14c>
 80037ea:	edd3 0a17 	vldr	s1, [r3, #92]	; 0x5c
 80037ee:	ed93 0a02 	vldr	s0, [r3, #8]
 80037f2:	ed97 1a0f 	vldr	s2, [r7, #60]	; 0x3c
 80037f6:	4b48      	ldr	r3, [pc, #288]	; (8003918 <CAN1_RX0_IRQHandler+0x150>)
 80037f8:	4848      	ldr	r0, [pc, #288]	; (800391c <CAN1_RX0_IRQHandler+0x154>)
 80037fa:	7919      	ldrb	r1, [r3, #4]
 80037fc:	ee21 1a27 	vmul.f32	s2, s2, s15
 8003800:	f7fe f866 	bl	80018d0 <pack_reply>
 8003804:	4a46      	ldr	r2, [pc, #280]	; (8003920 <CAN1_RX0_IRQHandler+0x158>)
 8003806:	4840      	ldr	r0, [pc, #256]	; (8003908 <CAN1_RX0_IRQHandler+0x140>)
 8003808:	1dd1      	adds	r1, r2, #7
 800380a:	ab13      	add	r3, sp, #76	; 0x4c
 800380c:	f000 fe51 	bl	80044b2 <HAL_CAN_AddTxMessage>
 8003810:	f854 2c01 	ldr.w	r2, [r4, #-1]
 8003814:	4b43      	ldr	r3, [pc, #268]	; (8003924 <CAN1_RX0_IRQHandler+0x15c>)
 8003816:	78a5      	ldrb	r5, [r4, #2]
 8003818:	7960      	ldrb	r0, [r4, #5]
 800381a:	4393      	bics	r3, r2
 800381c:	78e3      	ldrb	r3, [r4, #3]
 800381e:	bf0c      	ite	eq
 8003820:	2601      	moveq	r6, #1
 8003822:	2600      	movne	r6, #0
 8003824:	3bff      	subs	r3, #255	; 0xff
 8003826:	2dff      	cmp	r5, #255	; 0xff
 8003828:	bf14      	ite	ne
 800382a:	2500      	movne	r5, #0
 800382c:	f006 0501 	andeq.w	r5, r6, #1
 8003830:	f1d3 0e00 	rsbs	lr, r3, #0
 8003834:	eb4e 0e03 	adc.w	lr, lr, r3
 8003838:	7923      	ldrb	r3, [r4, #4]
 800383a:	f1a3 02ff 	sub.w	r2, r3, #255	; 0xff
 800383e:	4253      	negs	r3, r2
 8003840:	f1a0 06ff 	sub.w	r6, r0, #255	; 0xff
 8003844:	4153      	adcs	r3, r2
 8003846:	4270      	negs	r0, r6
 8003848:	4170      	adcs	r0, r6
 800384a:	79a6      	ldrb	r6, [r4, #6]
 800384c:	f1a6 0cff 	sub.w	ip, r6, #255	; 0xff
 8003850:	f1dc 0600 	rsbs	r6, ip, #0
 8003854:	ea0e 0203 	and.w	r2, lr, r3
 8003858:	f104 31ff 	add.w	r1, r4, #4294967295
 800385c:	eb46 060c 	adc.w	r6, r6, ip
 8003860:	79e4      	ldrb	r4, [r4, #7]
 8003862:	4002      	ands	r2, r0
 8003864:	4032      	ands	r2, r6
 8003866:	2cfc      	cmp	r4, #252	; 0xfc
 8003868:	bf14      	ite	ne
 800386a:	2200      	movne	r2, #0
 800386c:	f002 0201 	andeq.w	r2, r2, #1
 8003870:	468c      	mov	ip, r1
 8003872:	f107 01bc 	add.w	r1, r7, #188	; 0xbc
 8003876:	b1da      	cbz	r2, 80038b0 <CAN1_RX0_IRQHandler+0xe8>
 8003878:	b1d5      	cbz	r5, 80038b0 <CAN1_RX0_IRQHandler+0xe8>
 800387a:	216d      	movs	r1, #109	; 0x6d
 800387c:	482a      	ldr	r0, [pc, #168]	; (8003928 <CAN1_RX0_IRQHandler+0x160>)
 800387e:	f7ff f957 	bl	8002b30 <update_fsm>
 8003882:	482a      	ldr	r0, [pc, #168]	; (800392c <CAN1_RX0_IRQHandler+0x164>)
 8003884:	4c2a      	ldr	r4, [pc, #168]	; (8003930 <CAN1_RX0_IRQHandler+0x168>)
 8003886:	4e2b      	ldr	r6, [pc, #172]	; (8003934 <CAN1_RX0_IRQHandler+0x16c>)
 8003888:	f003 fe42 	bl	8007510 <printf>
 800388c:	f104 0514 	add.w	r5, r4, #20
 8003890:	f854 0b04 	ldr.w	r0, [r4], #4
 8003894:	f7fc fe78 	bl	8000588 <__aeabi_f2d>
 8003898:	4602      	mov	r2, r0
 800389a:	460b      	mov	r3, r1
 800389c:	4630      	mov	r0, r6
 800389e:	f003 fe37 	bl	8007510 <printf>
 80038a2:	42ac      	cmp	r4, r5
 80038a4:	d1f4      	bne.n	8003890 <CAN1_RX0_IRQHandler+0xc8>
 80038a6:	4824      	ldr	r0, [pc, #144]	; (8003938 <CAN1_RX0_IRQHandler+0x170>)
 80038a8:	f003 fe8a 	bl	80075c0 <puts>
 80038ac:	b015      	add	sp, #84	; 0x54
 80038ae:	bdf0      	pop	{r4, r5, r6, r7, pc}
 80038b0:	fb03 f30e 	mul.w	r3, r3, lr
 80038b4:	4006      	ands	r6, r0
 80038b6:	401e      	ands	r6, r3
 80038b8:	402e      	ands	r6, r5
 80038ba:	2cfd      	cmp	r4, #253	; 0xfd
 80038bc:	bf14      	ite	ne
 80038be:	2300      	movne	r3, #0
 80038c0:	f006 0301 	andeq.w	r3, r6, #1
 80038c4:	b10b      	cbz	r3, 80038ca <CAN1_RX0_IRQHandler+0x102>
 80038c6:	211b      	movs	r1, #27
 80038c8:	e7d8      	b.n	800387c <CAN1_RX0_IRQHandler+0xb4>
 80038ca:	2cfe      	cmp	r4, #254	; 0xfe
 80038cc:	bf14      	ite	ne
 80038ce:	2600      	movne	r6, #0
 80038d0:	f006 0601 	andeq.w	r6, r6, #1
 80038d4:	b10e      	cbz	r6, 80038da <CAN1_RX0_IRQHandler+0x112>
 80038d6:	217a      	movs	r1, #122	; 0x7a
 80038d8:	e7d0      	b.n	800387c <CAN1_RX0_IRQHandler+0xb4>
 80038da:	4d18      	ldr	r5, [pc, #96]	; (800393c <CAN1_RX0_IRQHandler+0x174>)
 80038dc:	9110      	str	r1, [sp, #64]	; 0x40
 80038de:	cd0f      	ldmia	r5!, {r0, r1, r2, r3}
 80038e0:	466c      	mov	r4, sp
 80038e2:	c40f      	stmia	r4!, {r0, r1, r2, r3}
 80038e4:	cd0f      	ldmia	r5!, {r0, r1, r2, r3}
 80038e6:	c40f      	stmia	r4!, {r0, r1, r2, r3}
 80038e8:	cd0f      	ldmia	r5!, {r0, r1, r2, r3}
 80038ea:	c40f      	stmia	r4!, {r0, r1, r2, r3}
 80038ec:	e895 000f 	ldmia.w	r5, {r0, r1, r2, r3}
 80038f0:	e884 000f 	stmia.w	r4, {r0, r1, r2, r3}
 80038f4:	e89c 000f 	ldmia.w	ip, {r0, r1, r2, r3}
 80038f8:	f7fe f820 	bl	800193c <unpack_cmd>
 80038fc:	f8c7 60ac 	str.w	r6, [r7, #172]	; 0xac
 8003900:	e7bf      	b.n	8003882 <CAN1_RX0_IRQHandler+0xba>
 8003902:	bf00      	nop
 8003904:	20009a8d 	.word	0x20009a8d
 8003908:	20000aec 	.word	0x20000aec
 800390c:	20000ec8 	.word	0x20000ec8
 8003910:	20000b18 	.word	0x20000b18
 8003914:	3d99999a 	.word	0x3d99999a
 8003918:	20009664 	.word	0x20009664
 800391c:	20009a64 	.word	0x20009a64
 8003920:	20009a65 	.word	0x20009a65
 8003924:	00ffff00 	.word	0x00ffff00
 8003928:	20000da5 	.word	0x20000da5
 800392c:	0800d0b2 	.word	0x0800d0b2
 8003930:	20000f84 	.word	0x20000f84
 8003934:	0800d0c2 	.word	0x0800d0c2
 8003938:	0800cef0 	.word	0x0800cef0
 800393c:	20009a9c 	.word	0x20009a9c

08003940 <TIM1_UP_TIM10_IRQHandler>:
 8003940:	b510      	push	{r4, lr}
 8003942:	4c0b      	ldr	r4, [pc, #44]	; (8003970 <TIM1_UP_TIM10_IRQHandler+0x30>)
 8003944:	4620      	mov	r0, r4
 8003946:	f7fe fa87 	bl	8001e58 <analog_sample>
 800394a:	ed9f 0a0a 	vldr	s0, [pc, #40]	; 8003974 <TIM1_UP_TIM10_IRQHandler+0x34>
 800394e:	480a      	ldr	r0, [pc, #40]	; (8003978 <TIM1_UP_TIM10_IRQHandler+0x38>)
 8003950:	f7ff fc8c 	bl	800326c <ps_sample>
 8003954:	4809      	ldr	r0, [pc, #36]	; (800397c <TIM1_UP_TIM10_IRQHandler+0x3c>)
 8003956:	f7fe ff2f 	bl	80027b8 <run_fsm>
 800395a:	f8d4 30a8 	ldr.w	r3, [r4, #168]	; 0xa8
 800395e:	4808      	ldr	r0, [pc, #32]	; (8003980 <TIM1_UP_TIM10_IRQHandler+0x40>)
 8003960:	3301      	adds	r3, #1
 8003962:	f8c4 30a8 	str.w	r3, [r4, #168]	; 0xa8
 8003966:	e8bd 4010 	ldmia.w	sp!, {r4, lr}
 800396a:	f001 bddf 	b.w	800552c <HAL_TIM_IRQHandler>
 800396e:	bf00      	nop
 8003970:	20000ec8 	.word	0x20000ec8
 8003974:	37d1b717 	.word	0x37d1b717
 8003978:	20000b18 	.word	0x20000b18
 800397c:	20000da5 	.word	0x20000da5
 8003980:	20009bb8 	.word	0x20009bb8

08003984 <USART2_IRQHandler>:
 8003984:	b510      	push	{r4, lr}
 8003986:	4c07      	ldr	r4, [pc, #28]	; (80039a4 <USART2_IRQHandler+0x20>)
 8003988:	4620      	mov	r0, r4
 800398a:	f002 fa6f 	bl	8005e6c <HAL_UART_IRQHandler>
 800398e:	4b06      	ldr	r3, [pc, #24]	; (80039a8 <USART2_IRQHandler+0x24>)
 8003990:	4806      	ldr	r0, [pc, #24]	; (80039ac <USART2_IRQHandler+0x28>)
 8003992:	7819      	ldrb	r1, [r3, #0]
 8003994:	f7ff f8cc 	bl	8002b30 <update_fsm>
 8003998:	4620      	mov	r0, r4
 800399a:	e8bd 4010 	ldmia.w	sp!, {r4, lr}
 800399e:	f002 ba65 	b.w	8005e6c <HAL_UART_IRQHandler>
 80039a2:	bf00      	nop
 80039a4:	20009bf8 	.word	0x20009bf8
 80039a8:	20000da4 	.word	0x20000da4
 80039ac:	20000da5 	.word	0x20000da5

080039b0 <_read>:
 80039b0:	b570      	push	{r4, r5, r6, lr}
 80039b2:	460e      	mov	r6, r1
 80039b4:	4615      	mov	r5, r2
 80039b6:	460c      	mov	r4, r1
 80039b8:	1ba3      	subs	r3, r4, r6
 80039ba:	429d      	cmp	r5, r3
 80039bc:	dc01      	bgt.n	80039c2 <_read+0x12>
 80039be:	4628      	mov	r0, r5
 80039c0:	bd70      	pop	{r4, r5, r6, pc}
 80039c2:	f3af 8000 	nop.w
 80039c6:	f804 0b01 	strb.w	r0, [r4], #1
 80039ca:	e7f5      	b.n	80039b8 <_read+0x8>

080039cc <_write>:
 80039cc:	b570      	push	{r4, r5, r6, lr}
 80039ce:	460e      	mov	r6, r1
 80039d0:	4615      	mov	r5, r2
 80039d2:	460c      	mov	r4, r1
 80039d4:	1ba3      	subs	r3, r4, r6
 80039d6:	429d      	cmp	r5, r3
 80039d8:	dc01      	bgt.n	80039de <_write+0x12>
 80039da:	4628      	mov	r0, r5
 80039dc:	bd70      	pop	{r4, r5, r6, pc}
 80039de:	f814 0b01 	ldrb.w	r0, [r4], #1
 80039e2:	f000 f95d 	bl	8003ca0 <__io_putchar>
 80039e6:	e7f5      	b.n	80039d4 <_write+0x8>

080039e8 <_close>:
 80039e8:	f04f 30ff 	mov.w	r0, #4294967295
 80039ec:	4770      	bx	lr

080039ee <_fstat>:
 80039ee:	f44f 5300 	mov.w	r3, #8192	; 0x2000
 80039f2:	604b      	str	r3, [r1, #4]
 80039f4:	2000      	movs	r0, #0
 80039f6:	4770      	bx	lr

080039f8 <_isatty>:
 80039f8:	2001      	movs	r0, #1
 80039fa:	4770      	bx	lr

080039fc <_lseek>:
 80039fc:	2000      	movs	r0, #0
 80039fe:	4770      	bx	lr

08003a00 <_sbrk>:
 8003a00:	b508      	push	{r3, lr}
 8003a02:	4b0a      	ldr	r3, [pc, #40]	; (8003a2c <_sbrk+0x2c>)
 8003a04:	6819      	ldr	r1, [r3, #0]
 8003a06:	4602      	mov	r2, r0
 8003a08:	b909      	cbnz	r1, 8003a0e <_sbrk+0xe>
 8003a0a:	4909      	ldr	r1, [pc, #36]	; (8003a30 <_sbrk+0x30>)
 8003a0c:	6019      	str	r1, [r3, #0]
 8003a0e:	6818      	ldr	r0, [r3, #0]
 8003a10:	4669      	mov	r1, sp
 8003a12:	4402      	add	r2, r0
 8003a14:	428a      	cmp	r2, r1
 8003a16:	d906      	bls.n	8003a26 <_sbrk+0x26>
 8003a18:	f003 fd3c 	bl	8007494 <__errno>
 8003a1c:	230c      	movs	r3, #12
 8003a1e:	6003      	str	r3, [r0, #0]
 8003a20:	f04f 30ff 	mov.w	r0, #4294967295
 8003a24:	bd08      	pop	{r3, pc}
 8003a26:	601a      	str	r2, [r3, #0]
 8003a28:	e7fc      	b.n	8003a24 <_sbrk+0x24>
 8003a2a:	bf00      	nop
 8003a2c:	200009dc 	.word	0x200009dc
 8003a30:	20009c50 	.word	0x20009c50

08003a34 <SystemInit>:
 8003a34:	4b05      	ldr	r3, [pc, #20]	; (8003a4c <SystemInit+0x18>)
 8003a36:	f8d3 2088 	ldr.w	r2, [r3, #136]	; 0x88
 8003a3a:	f442 0270 	orr.w	r2, r2, #15728640	; 0xf00000
 8003a3e:	f8c3 2088 	str.w	r2, [r3, #136]	; 0x88
 8003a42:	f04f 6200 	mov.w	r2, #134217728	; 0x8000000
 8003a46:	609a      	str	r2, [r3, #8]
 8003a48:	4770      	bx	lr
 8003a4a:	bf00      	nop
 8003a4c:	e000ed00 	.word	0xe000ed00

08003a50 <HAL_TIM_Base_MspInit>:
 8003a50:	b507      	push	{r0, r1, r2, lr}
 8003a52:	4b0f      	ldr	r3, [pc, #60]	; (8003a90 <HAL_TIM_Base_MspInit+0x40>)
 8003a54:	6802      	ldr	r2, [r0, #0]
 8003a56:	429a      	cmp	r2, r3
 8003a58:	d116      	bne.n	8003a88 <HAL_TIM_Base_MspInit+0x38>
 8003a5a:	2200      	movs	r2, #0
 8003a5c:	f503 339c 	add.w	r3, r3, #79872	; 0x13800
 8003a60:	9201      	str	r2, [sp, #4]
 8003a62:	6c59      	ldr	r1, [r3, #68]	; 0x44
 8003a64:	f041 0101 	orr.w	r1, r1, #1
 8003a68:	6459      	str	r1, [r3, #68]	; 0x44
 8003a6a:	6c5b      	ldr	r3, [r3, #68]	; 0x44
 8003a6c:	f003 0301 	and.w	r3, r3, #1
 8003a70:	9301      	str	r3, [sp, #4]
 8003a72:	4611      	mov	r1, r2
 8003a74:	2019      	movs	r0, #25
 8003a76:	9b01      	ldr	r3, [sp, #4]
 8003a78:	f000 fefc 	bl	8004874 <HAL_NVIC_SetPriority>
 8003a7c:	2019      	movs	r0, #25
 8003a7e:	b003      	add	sp, #12
 8003a80:	f85d eb04 	ldr.w	lr, [sp], #4
 8003a84:	f000 bf2a 	b.w	80048dc <HAL_NVIC_EnableIRQ>
 8003a88:	b003      	add	sp, #12
 8003a8a:	f85d fb04 	ldr.w	pc, [sp], #4
 8003a8e:	bf00      	nop
 8003a90:	40010000 	.word	0x40010000

08003a94 <HAL_TIM_MspPostInit>:
 8003a94:	b510      	push	{r4, lr}
 8003a96:	4604      	mov	r4, r0
 8003a98:	b086      	sub	sp, #24
 8003a9a:	2214      	movs	r2, #20
 8003a9c:	2100      	movs	r1, #0
 8003a9e:	a801      	add	r0, sp, #4
 8003aa0:	f003 fd2d 	bl	80074fe <memset>
 8003aa4:	6822      	ldr	r2, [r4, #0]
 8003aa6:	4b0f      	ldr	r3, [pc, #60]	; (8003ae4 <HAL_TIM_MspPostInit+0x50>)
 8003aa8:	429a      	cmp	r2, r3
 8003aaa:	d118      	bne.n	8003ade <HAL_TIM_MspPostInit+0x4a>
 8003aac:	2300      	movs	r3, #0
 8003aae:	9300      	str	r3, [sp, #0]
 8003ab0:	4b0d      	ldr	r3, [pc, #52]	; (8003ae8 <HAL_TIM_MspPostInit+0x54>)
 8003ab2:	480e      	ldr	r0, [pc, #56]	; (8003aec <HAL_TIM_MspPostInit+0x58>)
 8003ab4:	6b1a      	ldr	r2, [r3, #48]	; 0x30
 8003ab6:	f042 0201 	orr.w	r2, r2, #1
 8003aba:	631a      	str	r2, [r3, #48]	; 0x30
 8003abc:	6b1b      	ldr	r3, [r3, #48]	; 0x30
 8003abe:	f003 0301 	and.w	r3, r3, #1
 8003ac2:	9300      	str	r3, [sp, #0]
 8003ac4:	9b00      	ldr	r3, [sp, #0]
 8003ac6:	f44f 62e0 	mov.w	r2, #1792	; 0x700
 8003aca:	2302      	movs	r3, #2
 8003acc:	2103      	movs	r1, #3
 8003ace:	e9cd 2301 	strd	r2, r3, [sp, #4]
 8003ad2:	2301      	movs	r3, #1
 8003ad4:	e9cd 1304 	strd	r1, r3, [sp, #16]
 8003ad8:	a901      	add	r1, sp, #4
 8003ada:	f000 ff35 	bl	8004948 <HAL_GPIO_Init>
 8003ade:	b006      	add	sp, #24
 8003ae0:	bd10      	pop	{r4, pc}
 8003ae2:	bf00      	nop
 8003ae4:	40010000 	.word	0x40010000
 8003ae8:	40023800 	.word	0x40023800
 8003aec:	40020000 	.word	0x40020000

08003af0 <MX_TIM1_Init>:
 8003af0:	b530      	push	{r4, r5, lr}
 8003af2:	b097      	sub	sp, #92	; 0x5c
 8003af4:	2210      	movs	r2, #16
 8003af6:	2100      	movs	r1, #0
 8003af8:	a803      	add	r0, sp, #12
 8003afa:	f003 fd00 	bl	80074fe <memset>
 8003afe:	2400      	movs	r4, #0
 8003b00:	221c      	movs	r2, #28
 8003b02:	4621      	mov	r1, r4
 8003b04:	eb0d 0002 	add.w	r0, sp, r2
 8003b08:	2520      	movs	r5, #32
 8003b0a:	e9cd 4401 	strd	r4, r4, [sp, #4]
 8003b0e:	f003 fcf6 	bl	80074fe <memset>
 8003b12:	462a      	mov	r2, r5
 8003b14:	4621      	mov	r1, r4
 8003b16:	a80e      	add	r0, sp, #56	; 0x38
 8003b18:	f003 fcf1 	bl	80074fe <memset>
 8003b1c:	4831      	ldr	r0, [pc, #196]	; (8003be4 <MX_TIM1_Init+0xf4>)
 8003b1e:	4b32      	ldr	r3, [pc, #200]	; (8003be8 <MX_TIM1_Init+0xf8>)
 8003b20:	6085      	str	r5, [r0, #8]
 8003b22:	e9c0 3400 	strd	r3, r4, [r0]
 8003b26:	f640 03ca 	movw	r3, #2250	; 0x8ca
 8003b2a:	e9c0 3403 	strd	r3, r4, [r0, #12]
 8003b2e:	2201      	movs	r2, #1
 8003b30:	2380      	movs	r3, #128	; 0x80
 8003b32:	e9c0 2305 	strd	r2, r3, [r0, #20]
 8003b36:	f001 fe01 	bl	800573c <HAL_TIM_Base_Init>
 8003b3a:	b108      	cbz	r0, 8003b40 <MX_TIM1_Init+0x50>
 8003b3c:	f7ff fad8 	bl	80030f0 <Error_Handler>
 8003b40:	f44f 5380 	mov.w	r3, #4096	; 0x1000
 8003b44:	a903      	add	r1, sp, #12
 8003b46:	4827      	ldr	r0, [pc, #156]	; (8003be4 <MX_TIM1_Init+0xf4>)
 8003b48:	9303      	str	r3, [sp, #12]
 8003b4a:	f001 fecd 	bl	80058e8 <HAL_TIM_ConfigClockSource>
 8003b4e:	b108      	cbz	r0, 8003b54 <MX_TIM1_Init+0x64>
 8003b50:	f7ff face 	bl	80030f0 <Error_Handler>
 8003b54:	4823      	ldr	r0, [pc, #140]	; (8003be4 <MX_TIM1_Init+0xf4>)
 8003b56:	f001 fe0b 	bl	8005770 <HAL_TIM_PWM_Init>
 8003b5a:	b108      	cbz	r0, 8003b60 <MX_TIM1_Init+0x70>
 8003b5c:	f7ff fac8 	bl	80030f0 <Error_Handler>
 8003b60:	2400      	movs	r4, #0
 8003b62:	a901      	add	r1, sp, #4
 8003b64:	481f      	ldr	r0, [pc, #124]	; (8003be4 <MX_TIM1_Init+0xf4>)
 8003b66:	e9cd 4401 	strd	r4, r4, [sp, #4]
 8003b6a:	f001 ff81 	bl	8005a70 <HAL_TIMEx_MasterConfigSynchronization>
 8003b6e:	b108      	cbz	r0, 8003b74 <MX_TIM1_Init+0x84>
 8003b70:	f7ff fabe 	bl	80030f0 <Error_Handler>
 8003b74:	2360      	movs	r3, #96	; 0x60
 8003b76:	e9cd 3407 	strd	r3, r4, [sp, #28]
 8003b7a:	2200      	movs	r2, #0
 8003b7c:	2304      	movs	r3, #4
 8003b7e:	a907      	add	r1, sp, #28
 8003b80:	4818      	ldr	r0, [pc, #96]	; (8003be4 <MX_TIM1_Init+0xf4>)
 8003b82:	940d      	str	r4, [sp, #52]	; 0x34
 8003b84:	e9cd 4409 	strd	r4, r4, [sp, #36]	; 0x24
 8003b88:	e9cd 340b 	strd	r3, r4, [sp, #44]	; 0x2c
 8003b8c:	f001 fe40 	bl	8005810 <HAL_TIM_PWM_ConfigChannel>
 8003b90:	b108      	cbz	r0, 8003b96 <MX_TIM1_Init+0xa6>
 8003b92:	f7ff faad 	bl	80030f0 <Error_Handler>
 8003b96:	2204      	movs	r2, #4
 8003b98:	a907      	add	r1, sp, #28
 8003b9a:	4812      	ldr	r0, [pc, #72]	; (8003be4 <MX_TIM1_Init+0xf4>)
 8003b9c:	f001 fe38 	bl	8005810 <HAL_TIM_PWM_ConfigChannel>
 8003ba0:	b108      	cbz	r0, 8003ba6 <MX_TIM1_Init+0xb6>
 8003ba2:	f7ff faa5 	bl	80030f0 <Error_Handler>
 8003ba6:	2208      	movs	r2, #8
 8003ba8:	a907      	add	r1, sp, #28
 8003baa:	480e      	ldr	r0, [pc, #56]	; (8003be4 <MX_TIM1_Init+0xf4>)
 8003bac:	f001 fe30 	bl	8005810 <HAL_TIM_PWM_ConfigChannel>
 8003bb0:	b108      	cbz	r0, 8003bb6 <MX_TIM1_Init+0xc6>
 8003bb2:	f7ff fa9d 	bl	80030f0 <Error_Handler>
 8003bb6:	2300      	movs	r3, #0
 8003bb8:	f44f 5200 	mov.w	r2, #8192	; 0x2000
 8003bbc:	a90e      	add	r1, sp, #56	; 0x38
 8003bbe:	4809      	ldr	r0, [pc, #36]	; (8003be4 <MX_TIM1_Init+0xf4>)
 8003bc0:	9312      	str	r3, [sp, #72]	; 0x48
 8003bc2:	e9cd 330e 	strd	r3, r3, [sp, #56]	; 0x38
 8003bc6:	e9cd 3310 	strd	r3, r3, [sp, #64]	; 0x40
 8003bca:	9213      	str	r2, [sp, #76]	; 0x4c
 8003bcc:	9315      	str	r3, [sp, #84]	; 0x54
 8003bce:	f001 ff91 	bl	8005af4 <HAL_TIMEx_ConfigBreakDeadTime>
 8003bd2:	b108      	cbz	r0, 8003bd8 <MX_TIM1_Init+0xe8>
 8003bd4:	f7ff fa8c 	bl	80030f0 <Error_Handler>
 8003bd8:	4802      	ldr	r0, [pc, #8]	; (8003be4 <MX_TIM1_Init+0xf4>)
 8003bda:	f7ff ff5b 	bl	8003a94 <HAL_TIM_MspPostInit>
 8003bde:	b017      	add	sp, #92	; 0x5c
 8003be0:	bd30      	pop	{r4, r5, pc}
 8003be2:	bf00      	nop
 8003be4:	20009bb8 	.word	0x20009bb8
 8003be8:	40010000 	.word	0x40010000

08003bec <MX_USART2_UART_Init>:
 8003bec:	480b      	ldr	r0, [pc, #44]	; (8003c1c <MX_USART2_UART_Init+0x30>)
 8003bee:	4a0c      	ldr	r2, [pc, #48]	; (8003c20 <MX_USART2_UART_Init+0x34>)
 8003bf0:	b508      	push	{r3, lr}
 8003bf2:	f44f 33e1 	mov.w	r3, #115200	; 0x1c200
 8003bf6:	e9c0 2300 	strd	r2, r3, [r0]
 8003bfa:	2300      	movs	r3, #0
 8003bfc:	220c      	movs	r2, #12
 8003bfe:	e9c0 3302 	strd	r3, r3, [r0, #8]
 8003c02:	6103      	str	r3, [r0, #16]
 8003c04:	e9c0 2305 	strd	r2, r3, [r0, #20]
 8003c08:	61c3      	str	r3, [r0, #28]
 8003c0a:	f002 f841 	bl	8005c90 <HAL_UART_Init>
 8003c0e:	b118      	cbz	r0, 8003c18 <MX_USART2_UART_Init+0x2c>
 8003c10:	e8bd 4008 	ldmia.w	sp!, {r3, lr}
 8003c14:	f7ff ba6c 	b.w	80030f0 <Error_Handler>
 8003c18:	bd08      	pop	{r3, pc}
 8003c1a:	bf00      	nop
 8003c1c:	20009bf8 	.word	0x20009bf8
 8003c20:	40004400 	.word	0x40004400

08003c24 <HAL_UART_MspInit>:
 8003c24:	b510      	push	{r4, lr}
 8003c26:	4604      	mov	r4, r0
 8003c28:	b088      	sub	sp, #32
 8003c2a:	2214      	movs	r2, #20
 8003c2c:	2100      	movs	r1, #0
 8003c2e:	a803      	add	r0, sp, #12
 8003c30:	f003 fc65 	bl	80074fe <memset>
 8003c34:	6822      	ldr	r2, [r4, #0]
 8003c36:	4b18      	ldr	r3, [pc, #96]	; (8003c98 <HAL_UART_MspInit+0x74>)
 8003c38:	429a      	cmp	r2, r3
 8003c3a:	d12a      	bne.n	8003c92 <HAL_UART_MspInit+0x6e>
 8003c3c:	f503 33fa 	add.w	r3, r3, #128000	; 0x1f400
 8003c40:	2400      	movs	r4, #0
 8003c42:	9401      	str	r4, [sp, #4]
 8003c44:	6c1a      	ldr	r2, [r3, #64]	; 0x40
 8003c46:	4815      	ldr	r0, [pc, #84]	; (8003c9c <HAL_UART_MspInit+0x78>)
 8003c48:	f442 3200 	orr.w	r2, r2, #131072	; 0x20000
 8003c4c:	641a      	str	r2, [r3, #64]	; 0x40
 8003c4e:	6c1a      	ldr	r2, [r3, #64]	; 0x40
 8003c50:	f402 3200 	and.w	r2, r2, #131072	; 0x20000
 8003c54:	9201      	str	r2, [sp, #4]
 8003c56:	9a01      	ldr	r2, [sp, #4]
 8003c58:	9402      	str	r4, [sp, #8]
 8003c5a:	6b1a      	ldr	r2, [r3, #48]	; 0x30
 8003c5c:	f042 0201 	orr.w	r2, r2, #1
 8003c60:	631a      	str	r2, [r3, #48]	; 0x30
 8003c62:	6b1b      	ldr	r3, [r3, #48]	; 0x30
 8003c64:	f003 0301 	and.w	r3, r3, #1
 8003c68:	9302      	str	r3, [sp, #8]
 8003c6a:	220c      	movs	r2, #12
 8003c6c:	9b02      	ldr	r3, [sp, #8]
 8003c6e:	2302      	movs	r3, #2
 8003c70:	e9cd 2303 	strd	r2, r3, [sp, #12]
 8003c74:	2103      	movs	r1, #3
 8003c76:	2307      	movs	r3, #7
 8003c78:	e9cd 1306 	strd	r1, r3, [sp, #24]
 8003c7c:	a903      	add	r1, sp, #12
 8003c7e:	f000 fe63 	bl	8004948 <HAL_GPIO_Init>
 8003c82:	2026      	movs	r0, #38	; 0x26
 8003c84:	4622      	mov	r2, r4
 8003c86:	4621      	mov	r1, r4
 8003c88:	f000 fdf4 	bl	8004874 <HAL_NVIC_SetPriority>
 8003c8c:	2026      	movs	r0, #38	; 0x26
 8003c8e:	f000 fe25 	bl	80048dc <HAL_NVIC_EnableIRQ>
 8003c92:	b008      	add	sp, #32
 8003c94:	bd10      	pop	{r4, pc}
 8003c96:	bf00      	nop
 8003c98:	40004400 	.word	0x40004400
 8003c9c:	40020000 	.word	0x40020000

08003ca0 <__io_putchar>:
 8003ca0:	b507      	push	{r0, r1, r2, lr}
 8003ca2:	a902      	add	r1, sp, #8
 8003ca4:	f64f 73ff 	movw	r3, #65535	; 0xffff
 8003ca8:	f841 0d04 	str.w	r0, [r1, #-4]!
 8003cac:	2201      	movs	r2, #1
 8003cae:	4803      	ldr	r0, [pc, #12]	; (8003cbc <__io_putchar+0x1c>)
 8003cb0:	f002 f81c 	bl	8005cec <HAL_UART_Transmit>
 8003cb4:	2000      	movs	r0, #0
 8003cb6:	b003      	add	sp, #12
 8003cb8:	f85d fb04 	ldr.w	pc, [sp], #4
 8003cbc:	20009bf8 	.word	0x20009bf8

08003cc0 <HAL_UART_RxCpltCallback>:
 8003cc0:	2201      	movs	r2, #1
 8003cc2:	4902      	ldr	r1, [pc, #8]	; (8003ccc <HAL_UART_RxCpltCallback+0xc>)
 8003cc4:	4802      	ldr	r0, [pc, #8]	; (8003cd0 <HAL_UART_RxCpltCallback+0x10>)
 8003cc6:	f002 b86d 	b.w	8005da4 <HAL_UART_Receive_IT>
 8003cca:	bf00      	nop
 8003ccc:	20000da4 	.word	0x20000da4
 8003cd0:	20009bf8 	.word	0x20009bf8

08003cd4 <Reset_Handler>:
 8003cd4:	f8df d034 	ldr.w	sp, [pc, #52]	; 8003d0c <LoopFillZerobss+0x14>
 8003cd8:	2100      	movs	r1, #0
 8003cda:	e003      	b.n	8003ce4 <LoopCopyDataInit>

08003cdc <CopyDataInit>:
 8003cdc:	4b0c      	ldr	r3, [pc, #48]	; (8003d10 <LoopFillZerobss+0x18>)
 8003cde:	585b      	ldr	r3, [r3, r1]
 8003ce0:	5043      	str	r3, [r0, r1]
 8003ce2:	3104      	adds	r1, #4

08003ce4 <LoopCopyDataInit>:
 8003ce4:	480b      	ldr	r0, [pc, #44]	; (8003d14 <LoopFillZerobss+0x1c>)
 8003ce6:	4b0c      	ldr	r3, [pc, #48]	; (8003d18 <LoopFillZerobss+0x20>)
 8003ce8:	1842      	adds	r2, r0, r1
 8003cea:	429a      	cmp	r2, r3
 8003cec:	d3f6      	bcc.n	8003cdc <CopyDataInit>
 8003cee:	4a0b      	ldr	r2, [pc, #44]	; (8003d1c <LoopFillZerobss+0x24>)
 8003cf0:	e002      	b.n	8003cf8 <LoopFillZerobss>

08003cf2 <FillZerobss>:
 8003cf2:	2300      	movs	r3, #0
 8003cf4:	f842 3b04 	str.w	r3, [r2], #4

08003cf8 <LoopFillZerobss>:
 8003cf8:	4b09      	ldr	r3, [pc, #36]	; (8003d20 <LoopFillZerobss+0x28>)
 8003cfa:	429a      	cmp	r2, r3
 8003cfc:	d3f9      	bcc.n	8003cf2 <FillZerobss>
 8003cfe:	f7ff fe99 	bl	8003a34 <SystemInit>
 8003d02:	f003 fbcd 	bl	80074a0 <__libc_init_array>
 8003d06:	f7ff f817 	bl	8002d38 <main>
 8003d0a:	4770      	bx	lr
 8003d0c:	20020000 	.word	0x20020000
 8003d10:	0800d7dc 	.word	0x0800d7dc
 8003d14:	20000000 	.word	0x20000000
 8003d18:	200009c0 	.word	0x200009c0
 8003d1c:	200009c0 	.word	0x200009c0
 8003d20:	20009c4c 	.word	0x20009c4c

08003d24 <ADC_IRQHandler>:
 8003d24:	e7fe      	b.n	8003d24 <ADC_IRQHandler>
	...

08003d28 <HAL_InitTick>:
 8003d28:	b538      	push	{r3, r4, r5, lr}
 8003d2a:	4a0e      	ldr	r2, [pc, #56]	; (8003d64 <HAL_InitTick+0x3c>)
 8003d2c:	4b0e      	ldr	r3, [pc, #56]	; (8003d68 <HAL_InitTick+0x40>)
 8003d2e:	4605      	mov	r5, r0
 8003d30:	7818      	ldrb	r0, [r3, #0]
 8003d32:	f44f 737a 	mov.w	r3, #1000	; 0x3e8
 8003d36:	fbb3 f3f0 	udiv	r3, r3, r0
 8003d3a:	6810      	ldr	r0, [r2, #0]
 8003d3c:	fbb0 f0f3 	udiv	r0, r0, r3
 8003d40:	f000 fdda 	bl	80048f8 <HAL_SYSTICK_Config>
 8003d44:	4604      	mov	r4, r0
 8003d46:	b958      	cbnz	r0, 8003d60 <HAL_InitTick+0x38>
 8003d48:	2d0f      	cmp	r5, #15
 8003d4a:	d809      	bhi.n	8003d60 <HAL_InitTick+0x38>
 8003d4c:	4602      	mov	r2, r0
 8003d4e:	4629      	mov	r1, r5
 8003d50:	f04f 30ff 	mov.w	r0, #4294967295
 8003d54:	f000 fd8e 	bl	8004874 <HAL_NVIC_SetPriority>
 8003d58:	4b04      	ldr	r3, [pc, #16]	; (8003d6c <HAL_InitTick+0x44>)
 8003d5a:	4620      	mov	r0, r4
 8003d5c:	601d      	str	r5, [r3, #0]
 8003d5e:	bd38      	pop	{r3, r4, r5, pc}
 8003d60:	2001      	movs	r0, #1
 8003d62:	e7fc      	b.n	8003d5e <HAL_InitTick+0x36>
 8003d64:	20000000 	.word	0x20000000
 8003d68:	20000004 	.word	0x20000004
 8003d6c:	20000008 	.word	0x20000008

08003d70 <HAL_Init>:
 8003d70:	b508      	push	{r3, lr}
 8003d72:	4b0b      	ldr	r3, [pc, #44]	; (8003da0 <HAL_Init+0x30>)
 8003d74:	681a      	ldr	r2, [r3, #0]
 8003d76:	f442 7200 	orr.w	r2, r2, #512	; 0x200
 8003d7a:	601a      	str	r2, [r3, #0]
 8003d7c:	681a      	ldr	r2, [r3, #0]
 8003d7e:	f442 6280 	orr.w	r2, r2, #1024	; 0x400
 8003d82:	601a      	str	r2, [r3, #0]
 8003d84:	681a      	ldr	r2, [r3, #0]
 8003d86:	f442 7280 	orr.w	r2, r2, #256	; 0x100
 8003d8a:	601a      	str	r2, [r3, #0]
 8003d8c:	2003      	movs	r0, #3
 8003d8e:	f000 fd5f 	bl	8004850 <HAL_NVIC_SetPriorityGrouping>
 8003d92:	2000      	movs	r0, #0
 8003d94:	f7ff ffc8 	bl	8003d28 <HAL_InitTick>
 8003d98:	f7ff fcee 	bl	8003778 <HAL_MspInit>
 8003d9c:	2000      	movs	r0, #0
 8003d9e:	bd08      	pop	{r3, pc}
 8003da0:	40023c00 	.word	0x40023c00

08003da4 <HAL_IncTick>:
 8003da4:	4a03      	ldr	r2, [pc, #12]	; (8003db4 <HAL_IncTick+0x10>)
 8003da6:	4b04      	ldr	r3, [pc, #16]	; (8003db8 <HAL_IncTick+0x14>)
 8003da8:	6811      	ldr	r1, [r2, #0]
 8003daa:	781b      	ldrb	r3, [r3, #0]
 8003dac:	440b      	add	r3, r1
 8003dae:	6013      	str	r3, [r2, #0]
 8003db0:	4770      	bx	lr
 8003db2:	bf00      	nop
 8003db4:	20009c38 	.word	0x20009c38
 8003db8:	20000004 	.word	0x20000004

08003dbc <HAL_GetTick>:
 8003dbc:	4b01      	ldr	r3, [pc, #4]	; (8003dc4 <HAL_GetTick+0x8>)
 8003dbe:	6818      	ldr	r0, [r3, #0]
 8003dc0:	4770      	bx	lr
 8003dc2:	bf00      	nop
 8003dc4:	20009c38 	.word	0x20009c38

08003dc8 <HAL_Delay>:
 8003dc8:	b538      	push	{r3, r4, r5, lr}
 8003dca:	4604      	mov	r4, r0
 8003dcc:	f7ff fff6 	bl	8003dbc <HAL_GetTick>
 8003dd0:	1c63      	adds	r3, r4, #1
 8003dd2:	bf1c      	itt	ne
 8003dd4:	4b05      	ldrne	r3, [pc, #20]	; (8003dec <HAL_Delay+0x24>)
 8003dd6:	781b      	ldrbne	r3, [r3, #0]
 8003dd8:	4605      	mov	r5, r0
 8003dda:	bf18      	it	ne
 8003ddc:	18e4      	addne	r4, r4, r3
 8003dde:	f7ff ffed 	bl	8003dbc <HAL_GetTick>
 8003de2:	1b40      	subs	r0, r0, r5
 8003de4:	42a0      	cmp	r0, r4
 8003de6:	d3fa      	bcc.n	8003dde <HAL_Delay+0x16>
 8003de8:	bd38      	pop	{r3, r4, r5, pc}
 8003dea:	bf00      	nop
 8003dec:	20000004 	.word	0x20000004

08003df0 <HAL_ADC_Init>:
 8003df0:	b538      	push	{r3, r4, r5, lr}
 8003df2:	4604      	mov	r4, r0
 8003df4:	2800      	cmp	r0, #0
 8003df6:	f000 809b 	beq.w	8003f30 <HAL_ADC_Init+0x140>
 8003dfa:	6c05      	ldr	r5, [r0, #64]	; 0x40
 8003dfc:	b925      	cbnz	r5, 8003e08 <HAL_ADC_Init+0x18>
 8003dfe:	f7fd f987 	bl	8001110 <HAL_ADC_MspInit>
 8003e02:	6465      	str	r5, [r4, #68]	; 0x44
 8003e04:	f884 503c 	strb.w	r5, [r4, #60]	; 0x3c
 8003e08:	6c23      	ldr	r3, [r4, #64]	; 0x40
 8003e0a:	06db      	lsls	r3, r3, #27
 8003e0c:	f100 808e 	bmi.w	8003f2c <HAL_ADC_Init+0x13c>
 8003e10:	6c23      	ldr	r3, [r4, #64]	; 0x40
 8003e12:	f423 5388 	bic.w	r3, r3, #4352	; 0x1100
 8003e16:	f023 0302 	bic.w	r3, r3, #2
 8003e1a:	f043 0302 	orr.w	r3, r3, #2
 8003e1e:	6423      	str	r3, [r4, #64]	; 0x40
 8003e20:	4b44      	ldr	r3, [pc, #272]	; (8003f34 <HAL_ADC_Init+0x144>)
 8003e22:	685a      	ldr	r2, [r3, #4]
 8003e24:	f422 3240 	bic.w	r2, r2, #196608	; 0x30000
 8003e28:	605a      	str	r2, [r3, #4]
 8003e2a:	685a      	ldr	r2, [r3, #4]
 8003e2c:	6861      	ldr	r1, [r4, #4]
 8003e2e:	430a      	orrs	r2, r1
 8003e30:	605a      	str	r2, [r3, #4]
 8003e32:	6823      	ldr	r3, [r4, #0]
 8003e34:	6921      	ldr	r1, [r4, #16]
 8003e36:	685a      	ldr	r2, [r3, #4]
 8003e38:	f422 7280 	bic.w	r2, r2, #256	; 0x100
 8003e3c:	605a      	str	r2, [r3, #4]
 8003e3e:	685a      	ldr	r2, [r3, #4]
 8003e40:	ea42 2201 	orr.w	r2, r2, r1, lsl #8
 8003e44:	605a      	str	r2, [r3, #4]
 8003e46:	685a      	ldr	r2, [r3, #4]
 8003e48:	68a1      	ldr	r1, [r4, #8]
 8003e4a:	f022 7240 	bic.w	r2, r2, #50331648	; 0x3000000
 8003e4e:	605a      	str	r2, [r3, #4]
 8003e50:	685a      	ldr	r2, [r3, #4]
 8003e52:	430a      	orrs	r2, r1
 8003e54:	605a      	str	r2, [r3, #4]
 8003e56:	689a      	ldr	r2, [r3, #8]
 8003e58:	68e1      	ldr	r1, [r4, #12]
 8003e5a:	f422 6200 	bic.w	r2, r2, #2048	; 0x800
 8003e5e:	609a      	str	r2, [r3, #8]
 8003e60:	689a      	ldr	r2, [r3, #8]
 8003e62:	430a      	orrs	r2, r1
 8003e64:	609a      	str	r2, [r3, #8]
 8003e66:	4934      	ldr	r1, [pc, #208]	; (8003f38 <HAL_ADC_Init+0x148>)
 8003e68:	6aa2      	ldr	r2, [r4, #40]	; 0x28
 8003e6a:	428a      	cmp	r2, r1
 8003e6c:	d052      	beq.n	8003f14 <HAL_ADC_Init+0x124>
 8003e6e:	6899      	ldr	r1, [r3, #8]
 8003e70:	f021 6170 	bic.w	r1, r1, #251658240	; 0xf000000
 8003e74:	6099      	str	r1, [r3, #8]
 8003e76:	6899      	ldr	r1, [r3, #8]
 8003e78:	430a      	orrs	r2, r1
 8003e7a:	609a      	str	r2, [r3, #8]
 8003e7c:	689a      	ldr	r2, [r3, #8]
 8003e7e:	6ae1      	ldr	r1, [r4, #44]	; 0x2c
 8003e80:	f022 5240 	bic.w	r2, r2, #805306368	; 0x30000000
 8003e84:	609a      	str	r2, [r3, #8]
 8003e86:	689a      	ldr	r2, [r3, #8]
 8003e88:	430a      	orrs	r2, r1
 8003e8a:	609a      	str	r2, [r3, #8]
 8003e8c:	689a      	ldr	r2, [r3, #8]
 8003e8e:	7e21      	ldrb	r1, [r4, #24]
 8003e90:	f022 0202 	bic.w	r2, r2, #2
 8003e94:	609a      	str	r2, [r3, #8]
 8003e96:	689a      	ldr	r2, [r3, #8]
 8003e98:	ea42 0241 	orr.w	r2, r2, r1, lsl #1
 8003e9c:	609a      	str	r2, [r3, #8]
 8003e9e:	f894 2020 	ldrb.w	r2, [r4, #32]
 8003ea2:	2a00      	cmp	r2, #0
 8003ea4:	d03e      	beq.n	8003f24 <HAL_ADC_Init+0x134>
 8003ea6:	685a      	ldr	r2, [r3, #4]
 8003ea8:	6a61      	ldr	r1, [r4, #36]	; 0x24
 8003eaa:	f442 6200 	orr.w	r2, r2, #2048	; 0x800
 8003eae:	605a      	str	r2, [r3, #4]
 8003eb0:	685a      	ldr	r2, [r3, #4]
 8003eb2:	f422 4260 	bic.w	r2, r2, #57344	; 0xe000
 8003eb6:	605a      	str	r2, [r3, #4]
 8003eb8:	685a      	ldr	r2, [r3, #4]
 8003eba:	3901      	subs	r1, #1
 8003ebc:	ea42 3241 	orr.w	r2, r2, r1, lsl #13
 8003ec0:	605a      	str	r2, [r3, #4]
 8003ec2:	6ada      	ldr	r2, [r3, #44]	; 0x2c
 8003ec4:	69e1      	ldr	r1, [r4, #28]
 8003ec6:	f422 0270 	bic.w	r2, r2, #15728640	; 0xf00000
 8003eca:	62da      	str	r2, [r3, #44]	; 0x2c
 8003ecc:	6ada      	ldr	r2, [r3, #44]	; 0x2c
 8003ece:	3901      	subs	r1, #1
 8003ed0:	ea42 5201 	orr.w	r2, r2, r1, lsl #20
 8003ed4:	62da      	str	r2, [r3, #44]	; 0x2c
 8003ed6:	689a      	ldr	r2, [r3, #8]
 8003ed8:	f894 1030 	ldrb.w	r1, [r4, #48]	; 0x30
 8003edc:	f422 7200 	bic.w	r2, r2, #512	; 0x200
 8003ee0:	609a      	str	r2, [r3, #8]
 8003ee2:	689a      	ldr	r2, [r3, #8]
 8003ee4:	ea42 2241 	orr.w	r2, r2, r1, lsl #9
 8003ee8:	609a      	str	r2, [r3, #8]
 8003eea:	689a      	ldr	r2, [r3, #8]
 8003eec:	6961      	ldr	r1, [r4, #20]
 8003eee:	f422 6280 	bic.w	r2, r2, #1024	; 0x400
 8003ef2:	609a      	str	r2, [r3, #8]
 8003ef4:	689a      	ldr	r2, [r3, #8]
 8003ef6:	2000      	movs	r0, #0
 8003ef8:	ea42 2281 	orr.w	r2, r2, r1, lsl #10
 8003efc:	609a      	str	r2, [r3, #8]
 8003efe:	6460      	str	r0, [r4, #68]	; 0x44
 8003f00:	6c23      	ldr	r3, [r4, #64]	; 0x40
 8003f02:	f023 0303 	bic.w	r3, r3, #3
 8003f06:	f043 0301 	orr.w	r3, r3, #1
 8003f0a:	6423      	str	r3, [r4, #64]	; 0x40
 8003f0c:	2300      	movs	r3, #0
 8003f0e:	f884 303c 	strb.w	r3, [r4, #60]	; 0x3c
 8003f12:	bd38      	pop	{r3, r4, r5, pc}
 8003f14:	689a      	ldr	r2, [r3, #8]
 8003f16:	f022 6270 	bic.w	r2, r2, #251658240	; 0xf000000
 8003f1a:	609a      	str	r2, [r3, #8]
 8003f1c:	689a      	ldr	r2, [r3, #8]
 8003f1e:	f022 5240 	bic.w	r2, r2, #805306368	; 0x30000000
 8003f22:	e7b2      	b.n	8003e8a <HAL_ADC_Init+0x9a>
 8003f24:	685a      	ldr	r2, [r3, #4]
 8003f26:	f422 6200 	bic.w	r2, r2, #2048	; 0x800
 8003f2a:	e7c9      	b.n	8003ec0 <HAL_ADC_Init+0xd0>
 8003f2c:	2001      	movs	r0, #1
 8003f2e:	e7ed      	b.n	8003f0c <HAL_ADC_Init+0x11c>
 8003f30:	2001      	movs	r0, #1
 8003f32:	e7ee      	b.n	8003f12 <HAL_ADC_Init+0x122>
 8003f34:	40012300 	.word	0x40012300
 8003f38:	0f000001 	.word	0x0f000001

08003f3c <HAL_ADC_Start>:
 8003f3c:	b082      	sub	sp, #8
 8003f3e:	2300      	movs	r3, #0
 8003f40:	9301      	str	r3, [sp, #4]
 8003f42:	f890 303c 	ldrb.w	r3, [r0, #60]	; 0x3c
 8003f46:	2b01      	cmp	r3, #1
 8003f48:	d061      	beq.n	800400e <HAL_ADC_Start+0xd2>
 8003f4a:	2301      	movs	r3, #1
 8003f4c:	f880 303c 	strb.w	r3, [r0, #60]	; 0x3c
 8003f50:	6803      	ldr	r3, [r0, #0]
 8003f52:	689a      	ldr	r2, [r3, #8]
 8003f54:	07d1      	lsls	r1, r2, #31
 8003f56:	d505      	bpl.n	8003f64 <HAL_ADC_Start+0x28>
 8003f58:	689a      	ldr	r2, [r3, #8]
 8003f5a:	07d2      	lsls	r2, r2, #31
 8003f5c:	d414      	bmi.n	8003f88 <HAL_ADC_Start+0x4c>
 8003f5e:	2000      	movs	r0, #0
 8003f60:	b002      	add	sp, #8
 8003f62:	4770      	bx	lr
 8003f64:	689a      	ldr	r2, [r3, #8]
 8003f66:	492b      	ldr	r1, [pc, #172]	; (8004014 <HAL_ADC_Start+0xd8>)
 8003f68:	f042 0201 	orr.w	r2, r2, #1
 8003f6c:	609a      	str	r2, [r3, #8]
 8003f6e:	4a2a      	ldr	r2, [pc, #168]	; (8004018 <HAL_ADC_Start+0xdc>)
 8003f70:	6812      	ldr	r2, [r2, #0]
 8003f72:	fbb2 f2f1 	udiv	r2, r2, r1
 8003f76:	eb02 0242 	add.w	r2, r2, r2, lsl #1
 8003f7a:	9201      	str	r2, [sp, #4]
 8003f7c:	9a01      	ldr	r2, [sp, #4]
 8003f7e:	2a00      	cmp	r2, #0
 8003f80:	d0ea      	beq.n	8003f58 <HAL_ADC_Start+0x1c>
 8003f82:	9a01      	ldr	r2, [sp, #4]
 8003f84:	3a01      	subs	r2, #1
 8003f86:	e7f8      	b.n	8003f7a <HAL_ADC_Start+0x3e>
 8003f88:	6c02      	ldr	r2, [r0, #64]	; 0x40
 8003f8a:	f422 62e0 	bic.w	r2, r2, #1792	; 0x700
 8003f8e:	f022 0201 	bic.w	r2, r2, #1
 8003f92:	f442 7280 	orr.w	r2, r2, #256	; 0x100
 8003f96:	6402      	str	r2, [r0, #64]	; 0x40
 8003f98:	685a      	ldr	r2, [r3, #4]
 8003f9a:	0551      	lsls	r1, r2, #21
 8003f9c:	bf41      	itttt	mi
 8003f9e:	6c02      	ldrmi	r2, [r0, #64]	; 0x40
 8003fa0:	f422 5240 	bicmi.w	r2, r2, #12288	; 0x3000
 8003fa4:	f442 5280 	orrmi.w	r2, r2, #4096	; 0x1000
 8003fa8:	6402      	strmi	r2, [r0, #64]	; 0x40
 8003faa:	6c02      	ldr	r2, [r0, #64]	; 0x40
 8003fac:	f412 5280 	ands.w	r2, r2, #4096	; 0x1000
 8003fb0:	bf1c      	itt	ne
 8003fb2:	6c42      	ldrne	r2, [r0, #68]	; 0x44
 8003fb4:	f022 0206 	bicne.w	r2, r2, #6
 8003fb8:	6442      	str	r2, [r0, #68]	; 0x44
 8003fba:	2200      	movs	r2, #0
 8003fbc:	f880 203c 	strb.w	r2, [r0, #60]	; 0x3c
 8003fc0:	f06f 0222 	mvn.w	r2, #34	; 0x22
 8003fc4:	601a      	str	r2, [r3, #0]
 8003fc6:	4a15      	ldr	r2, [pc, #84]	; (800401c <HAL_ADC_Start+0xe0>)
 8003fc8:	6851      	ldr	r1, [r2, #4]
 8003fca:	f011 0f1f 	tst.w	r1, #31
 8003fce:	4914      	ldr	r1, [pc, #80]	; (8004020 <HAL_ADC_Start+0xe4>)
 8003fd0:	d11a      	bne.n	8004008 <HAL_ADC_Start+0xcc>
 8003fd2:	428b      	cmp	r3, r1
 8003fd4:	d006      	beq.n	8003fe4 <HAL_ADC_Start+0xa8>
 8003fd6:	f501 7180 	add.w	r1, r1, #256	; 0x100
 8003fda:	428b      	cmp	r3, r1
 8003fdc:	d10b      	bne.n	8003ff6 <HAL_ADC_Start+0xba>
 8003fde:	6852      	ldr	r2, [r2, #4]
 8003fe0:	06d2      	lsls	r2, r2, #27
 8003fe2:	d1bc      	bne.n	8003f5e <HAL_ADC_Start+0x22>
 8003fe4:	6898      	ldr	r0, [r3, #8]
 8003fe6:	f010 5040 	ands.w	r0, r0, #805306368	; 0x30000000
 8003fea:	d1b8      	bne.n	8003f5e <HAL_ADC_Start+0x22>
 8003fec:	689a      	ldr	r2, [r3, #8]
 8003fee:	f042 4280 	orr.w	r2, r2, #1073741824	; 0x40000000
 8003ff2:	609a      	str	r2, [r3, #8]
 8003ff4:	e7b4      	b.n	8003f60 <HAL_ADC_Start+0x24>
 8003ff6:	490b      	ldr	r1, [pc, #44]	; (8004024 <HAL_ADC_Start+0xe8>)
 8003ff8:	428b      	cmp	r3, r1
 8003ffa:	d1b0      	bne.n	8003f5e <HAL_ADC_Start+0x22>
 8003ffc:	6852      	ldr	r2, [r2, #4]
 8003ffe:	f002 021f 	and.w	r2, r2, #31
 8004002:	2a0f      	cmp	r2, #15
 8004004:	d9ee      	bls.n	8003fe4 <HAL_ADC_Start+0xa8>
 8004006:	e7aa      	b.n	8003f5e <HAL_ADC_Start+0x22>
 8004008:	428b      	cmp	r3, r1
 800400a:	d1a8      	bne.n	8003f5e <HAL_ADC_Start+0x22>
 800400c:	e7ea      	b.n	8003fe4 <HAL_ADC_Start+0xa8>
 800400e:	2002      	movs	r0, #2
 8004010:	e7a6      	b.n	8003f60 <HAL_ADC_Start+0x24>
 8004012:	bf00      	nop
 8004014:	000f4240 	.word	0x000f4240
 8004018:	20000000 	.word	0x20000000
 800401c:	40012300 	.word	0x40012300
 8004020:	40012000 	.word	0x40012000
 8004024:	40012200 	.word	0x40012200

08004028 <HAL_ADC_PollForConversion>:
 8004028:	6803      	ldr	r3, [r0, #0]
 800402a:	689a      	ldr	r2, [r3, #8]
 800402c:	b570      	push	{r4, r5, r6, lr}
 800402e:	0556      	lsls	r6, r2, #21
 8004030:	4604      	mov	r4, r0
 8004032:	460d      	mov	r5, r1
 8004034:	d50b      	bpl.n	800404e <HAL_ADC_PollForConversion+0x26>
 8004036:	689b      	ldr	r3, [r3, #8]
 8004038:	05d8      	lsls	r0, r3, #23
 800403a:	d508      	bpl.n	800404e <HAL_ADC_PollForConversion+0x26>
 800403c:	6c23      	ldr	r3, [r4, #64]	; 0x40
 800403e:	f043 0320 	orr.w	r3, r3, #32
 8004042:	6423      	str	r3, [r4, #64]	; 0x40
 8004044:	2300      	movs	r3, #0
 8004046:	f884 303c 	strb.w	r3, [r4, #60]	; 0x3c
 800404a:	2001      	movs	r0, #1
 800404c:	bd70      	pop	{r4, r5, r6, pc}
 800404e:	f7ff feb5 	bl	8003dbc <HAL_GetTick>
 8004052:	4606      	mov	r6, r0
 8004054:	6823      	ldr	r3, [r4, #0]
 8004056:	681a      	ldr	r2, [r3, #0]
 8004058:	0792      	lsls	r2, r2, #30
 800405a:	d50c      	bpl.n	8004076 <HAL_ADC_PollForConversion+0x4e>
 800405c:	f06f 0212 	mvn.w	r2, #18
 8004060:	601a      	str	r2, [r3, #0]
 8004062:	6c22      	ldr	r2, [r4, #64]	; 0x40
 8004064:	f442 7200 	orr.w	r2, r2, #512	; 0x200
 8004068:	6422      	str	r2, [r4, #64]	; 0x40
 800406a:	689a      	ldr	r2, [r3, #8]
 800406c:	f012 5f40 	tst.w	r2, #805306368	; 0x30000000
 8004070:	d013      	beq.n	800409a <HAL_ADC_PollForConversion+0x72>
 8004072:	2000      	movs	r0, #0
 8004074:	e7ea      	b.n	800404c <HAL_ADC_PollForConversion+0x24>
 8004076:	1c69      	adds	r1, r5, #1
 8004078:	d0ed      	beq.n	8004056 <HAL_ADC_PollForConversion+0x2e>
 800407a:	b945      	cbnz	r5, 800408e <HAL_ADC_PollForConversion+0x66>
 800407c:	6c23      	ldr	r3, [r4, #64]	; 0x40
 800407e:	f043 0304 	orr.w	r3, r3, #4
 8004082:	6423      	str	r3, [r4, #64]	; 0x40
 8004084:	2300      	movs	r3, #0
 8004086:	f884 303c 	strb.w	r3, [r4, #60]	; 0x3c
 800408a:	2003      	movs	r0, #3
 800408c:	e7de      	b.n	800404c <HAL_ADC_PollForConversion+0x24>
 800408e:	f7ff fe95 	bl	8003dbc <HAL_GetTick>
 8004092:	1b80      	subs	r0, r0, r6
 8004094:	42a8      	cmp	r0, r5
 8004096:	d9dd      	bls.n	8004054 <HAL_ADC_PollForConversion+0x2c>
 8004098:	e7f0      	b.n	800407c <HAL_ADC_PollForConversion+0x54>
 800409a:	7e22      	ldrb	r2, [r4, #24]
 800409c:	2a00      	cmp	r2, #0
 800409e:	d1e8      	bne.n	8004072 <HAL_ADC_PollForConversion+0x4a>
 80040a0:	6ada      	ldr	r2, [r3, #44]	; 0x2c
 80040a2:	f412 0f70 	tst.w	r2, #15728640	; 0xf00000
 80040a6:	d002      	beq.n	80040ae <HAL_ADC_PollForConversion+0x86>
 80040a8:	689b      	ldr	r3, [r3, #8]
 80040aa:	055b      	lsls	r3, r3, #21
 80040ac:	d4e1      	bmi.n	8004072 <HAL_ADC_PollForConversion+0x4a>
 80040ae:	6c23      	ldr	r3, [r4, #64]	; 0x40
 80040b0:	f423 7380 	bic.w	r3, r3, #256	; 0x100
 80040b4:	6423      	str	r3, [r4, #64]	; 0x40
 80040b6:	6c20      	ldr	r0, [r4, #64]	; 0x40
 80040b8:	f410 5080 	ands.w	r0, r0, #4096	; 0x1000
 80040bc:	d1d9      	bne.n	8004072 <HAL_ADC_PollForConversion+0x4a>
 80040be:	6c23      	ldr	r3, [r4, #64]	; 0x40
 80040c0:	f043 0301 	orr.w	r3, r3, #1
 80040c4:	6423      	str	r3, [r4, #64]	; 0x40
 80040c6:	e7c1      	b.n	800404c <HAL_ADC_PollForConversion+0x24>

080040c8 <HAL_ADC_GetValue>:
 80040c8:	6803      	ldr	r3, [r0, #0]
 80040ca:	6cd8      	ldr	r0, [r3, #76]	; 0x4c
 80040cc:	4770      	bx	lr
	...

080040d0 <HAL_ADC_ConfigChannel>:
 80040d0:	b5f7      	push	{r0, r1, r2, r4, r5, r6, r7, lr}
 80040d2:	2300      	movs	r3, #0
 80040d4:	9301      	str	r3, [sp, #4]
 80040d6:	f890 303c 	ldrb.w	r3, [r0, #60]	; 0x3c
 80040da:	2b01      	cmp	r3, #1
 80040dc:	d06a      	beq.n	80041b4 <HAL_ADC_ConfigChannel+0xe4>
 80040de:	680d      	ldr	r5, [r1, #0]
 80040e0:	688e      	ldr	r6, [r1, #8]
 80040e2:	2301      	movs	r3, #1
 80040e4:	2d09      	cmp	r5, #9
 80040e6:	f880 303c 	strb.w	r3, [r0, #60]	; 0x3c
 80040ea:	b2ac      	uxth	r4, r5
 80040ec:	6803      	ldr	r3, [r0, #0]
 80040ee:	d929      	bls.n	8004144 <HAL_ADC_ConfigChannel+0x74>
 80040f0:	eb04 0244 	add.w	r2, r4, r4, lsl #1
 80040f4:	68df      	ldr	r7, [r3, #12]
 80040f6:	3a1e      	subs	r2, #30
 80040f8:	f04f 0c07 	mov.w	ip, #7
 80040fc:	fa0c fc02 	lsl.w	ip, ip, r2
 8004100:	ea27 070c 	bic.w	r7, r7, ip
 8004104:	60df      	str	r7, [r3, #12]
 8004106:	68df      	ldr	r7, [r3, #12]
 8004108:	fa06 f202 	lsl.w	r2, r6, r2
 800410c:	433a      	orrs	r2, r7
 800410e:	60da      	str	r2, [r3, #12]
 8004110:	6849      	ldr	r1, [r1, #4]
 8004112:	2906      	cmp	r1, #6
 8004114:	eb01 0281 	add.w	r2, r1, r1, lsl #2
 8004118:	d824      	bhi.n	8004164 <HAL_ADC_ConfigChannel+0x94>
 800411a:	6b59      	ldr	r1, [r3, #52]	; 0x34
 800411c:	3a05      	subs	r2, #5
 800411e:	261f      	movs	r6, #31
 8004120:	4096      	lsls	r6, r2
 8004122:	ea21 0106 	bic.w	r1, r1, r6
 8004126:	6359      	str	r1, [r3, #52]	; 0x34
 8004128:	6b59      	ldr	r1, [r3, #52]	; 0x34
 800412a:	fa04 f202 	lsl.w	r2, r4, r2
 800412e:	430a      	orrs	r2, r1
 8004130:	635a      	str	r2, [r3, #52]	; 0x34
 8004132:	4a31      	ldr	r2, [pc, #196]	; (80041f8 <HAL_ADC_ConfigChannel+0x128>)
 8004134:	4293      	cmp	r3, r2
 8004136:	d031      	beq.n	800419c <HAL_ADC_ConfigChannel+0xcc>
 8004138:	2300      	movs	r3, #0
 800413a:	f880 303c 	strb.w	r3, [r0, #60]	; 0x3c
 800413e:	4618      	mov	r0, r3
 8004140:	b003      	add	sp, #12
 8004142:	bdf0      	pop	{r4, r5, r6, r7, pc}
 8004144:	691f      	ldr	r7, [r3, #16]
 8004146:	eb05 0245 	add.w	r2, r5, r5, lsl #1
 800414a:	f04f 0c07 	mov.w	ip, #7
 800414e:	fa0c fc02 	lsl.w	ip, ip, r2
 8004152:	ea27 070c 	bic.w	r7, r7, ip
 8004156:	611f      	str	r7, [r3, #16]
 8004158:	691f      	ldr	r7, [r3, #16]
 800415a:	fa06 f202 	lsl.w	r2, r6, r2
 800415e:	433a      	orrs	r2, r7
 8004160:	611a      	str	r2, [r3, #16]
 8004162:	e7d5      	b.n	8004110 <HAL_ADC_ConfigChannel+0x40>
 8004164:	290c      	cmp	r1, #12
 8004166:	f04f 011f 	mov.w	r1, #31
 800416a:	d80b      	bhi.n	8004184 <HAL_ADC_ConfigChannel+0xb4>
 800416c:	6b1e      	ldr	r6, [r3, #48]	; 0x30
 800416e:	3a23      	subs	r2, #35	; 0x23
 8004170:	4091      	lsls	r1, r2
 8004172:	ea26 0101 	bic.w	r1, r6, r1
 8004176:	6319      	str	r1, [r3, #48]	; 0x30
 8004178:	6b19      	ldr	r1, [r3, #48]	; 0x30
 800417a:	fa04 f202 	lsl.w	r2, r4, r2
 800417e:	430a      	orrs	r2, r1
 8004180:	631a      	str	r2, [r3, #48]	; 0x30
 8004182:	e7d6      	b.n	8004132 <HAL_ADC_ConfigChannel+0x62>
 8004184:	6ade      	ldr	r6, [r3, #44]	; 0x2c
 8004186:	3a41      	subs	r2, #65	; 0x41
 8004188:	4091      	lsls	r1, r2
 800418a:	ea26 0101 	bic.w	r1, r6, r1
 800418e:	62d9      	str	r1, [r3, #44]	; 0x2c
 8004190:	6ad9      	ldr	r1, [r3, #44]	; 0x2c
 8004192:	fa04 f202 	lsl.w	r2, r4, r2
 8004196:	430a      	orrs	r2, r1
 8004198:	62da      	str	r2, [r3, #44]	; 0x2c
 800419a:	e7ca      	b.n	8004132 <HAL_ADC_ConfigChannel+0x62>
 800419c:	2d12      	cmp	r5, #18
 800419e:	d10b      	bne.n	80041b8 <HAL_ADC_ConfigChannel+0xe8>
 80041a0:	4b16      	ldr	r3, [pc, #88]	; (80041fc <HAL_ADC_ConfigChannel+0x12c>)
 80041a2:	685a      	ldr	r2, [r3, #4]
 80041a4:	f422 0200 	bic.w	r2, r2, #8388608	; 0x800000
 80041a8:	605a      	str	r2, [r3, #4]
 80041aa:	685a      	ldr	r2, [r3, #4]
 80041ac:	f442 0280 	orr.w	r2, r2, #4194304	; 0x400000
 80041b0:	605a      	str	r2, [r3, #4]
 80041b2:	e7c1      	b.n	8004138 <HAL_ADC_ConfigChannel+0x68>
 80041b4:	2002      	movs	r0, #2
 80041b6:	e7c3      	b.n	8004140 <HAL_ADC_ConfigChannel+0x70>
 80041b8:	4b11      	ldr	r3, [pc, #68]	; (8004200 <HAL_ADC_ConfigChannel+0x130>)
 80041ba:	429d      	cmp	r5, r3
 80041bc:	d001      	beq.n	80041c2 <HAL_ADC_ConfigChannel+0xf2>
 80041be:	2d11      	cmp	r5, #17
 80041c0:	d1ba      	bne.n	8004138 <HAL_ADC_ConfigChannel+0x68>
 80041c2:	4b0e      	ldr	r3, [pc, #56]	; (80041fc <HAL_ADC_ConfigChannel+0x12c>)
 80041c4:	685a      	ldr	r2, [r3, #4]
 80041c6:	f422 0280 	bic.w	r2, r2, #4194304	; 0x400000
 80041ca:	605a      	str	r2, [r3, #4]
 80041cc:	685a      	ldr	r2, [r3, #4]
 80041ce:	f442 0200 	orr.w	r2, r2, #8388608	; 0x800000
 80041d2:	605a      	str	r2, [r3, #4]
 80041d4:	4b0a      	ldr	r3, [pc, #40]	; (8004200 <HAL_ADC_ConfigChannel+0x130>)
 80041d6:	429d      	cmp	r5, r3
 80041d8:	d1ae      	bne.n	8004138 <HAL_ADC_ConfigChannel+0x68>
 80041da:	4b0a      	ldr	r3, [pc, #40]	; (8004204 <HAL_ADC_ConfigChannel+0x134>)
 80041dc:	4a0a      	ldr	r2, [pc, #40]	; (8004208 <HAL_ADC_ConfigChannel+0x138>)
 80041de:	681b      	ldr	r3, [r3, #0]
 80041e0:	fbb3 f2f2 	udiv	r2, r3, r2
 80041e4:	230a      	movs	r3, #10
 80041e6:	4353      	muls	r3, r2
 80041e8:	9301      	str	r3, [sp, #4]
 80041ea:	9b01      	ldr	r3, [sp, #4]
 80041ec:	2b00      	cmp	r3, #0
 80041ee:	d0a3      	beq.n	8004138 <HAL_ADC_ConfigChannel+0x68>
 80041f0:	9b01      	ldr	r3, [sp, #4]
 80041f2:	3b01      	subs	r3, #1
 80041f4:	e7f8      	b.n	80041e8 <HAL_ADC_ConfigChannel+0x118>
 80041f6:	bf00      	nop
 80041f8:	40012000 	.word	0x40012000
 80041fc:	40012300 	.word	0x40012300
 8004200:	10000012 	.word	0x10000012
 8004204:	20000000 	.word	0x20000000
 8004208:	000f4240 	.word	0x000f4240

0800420c <HAL_ADCEx_MultiModeConfigChannel>:
 800420c:	f890 303c 	ldrb.w	r3, [r0, #60]	; 0x3c
 8004210:	2b01      	cmp	r3, #1
 8004212:	b510      	push	{r4, lr}
 8004214:	d01d      	beq.n	8004252 <HAL_ADCEx_MultiModeConfigChannel+0x46>
 8004216:	4b10      	ldr	r3, [pc, #64]	; (8004258 <HAL_ADCEx_MultiModeConfigChannel+0x4c>)
 8004218:	685a      	ldr	r2, [r3, #4]
 800421a:	f022 021f 	bic.w	r2, r2, #31
 800421e:	605a      	str	r2, [r3, #4]
 8004220:	685a      	ldr	r2, [r3, #4]
 8004222:	680c      	ldr	r4, [r1, #0]
 8004224:	4322      	orrs	r2, r4
 8004226:	605a      	str	r2, [r3, #4]
 8004228:	685a      	ldr	r2, [r3, #4]
 800422a:	f422 4240 	bic.w	r2, r2, #49152	; 0xc000
 800422e:	605a      	str	r2, [r3, #4]
 8004230:	685a      	ldr	r2, [r3, #4]
 8004232:	684c      	ldr	r4, [r1, #4]
 8004234:	4322      	orrs	r2, r4
 8004236:	605a      	str	r2, [r3, #4]
 8004238:	685a      	ldr	r2, [r3, #4]
 800423a:	f422 6270 	bic.w	r2, r2, #3840	; 0xf00
 800423e:	605a      	str	r2, [r3, #4]
 8004240:	685a      	ldr	r2, [r3, #4]
 8004242:	6889      	ldr	r1, [r1, #8]
 8004244:	430a      	orrs	r2, r1
 8004246:	605a      	str	r2, [r3, #4]
 8004248:	2300      	movs	r3, #0
 800424a:	f880 303c 	strb.w	r3, [r0, #60]	; 0x3c
 800424e:	4618      	mov	r0, r3
 8004250:	bd10      	pop	{r4, pc}
 8004252:	2002      	movs	r0, #2
 8004254:	e7fc      	b.n	8004250 <HAL_ADCEx_MultiModeConfigChannel+0x44>
 8004256:	bf00      	nop
 8004258:	40012300 	.word	0x40012300

0800425c <HAL_CAN_Init>:
 800425c:	b538      	push	{r3, r4, r5, lr}
 800425e:	4604      	mov	r4, r0
 8004260:	2800      	cmp	r0, #0
 8004262:	d06e      	beq.n	8004342 <HAL_CAN_Init+0xe6>
 8004264:	f890 3020 	ldrb.w	r3, [r0, #32]
 8004268:	b90b      	cbnz	r3, 800426e <HAL_CAN_Init+0x12>
 800426a:	f7fd facf 	bl	800180c <HAL_CAN_MspInit>
 800426e:	6822      	ldr	r2, [r4, #0]
 8004270:	6813      	ldr	r3, [r2, #0]
 8004272:	f023 0302 	bic.w	r3, r3, #2
 8004276:	6013      	str	r3, [r2, #0]
 8004278:	f7ff fda0 	bl	8003dbc <HAL_GetTick>
 800427c:	4605      	mov	r5, r0
 800427e:	6823      	ldr	r3, [r4, #0]
 8004280:	685a      	ldr	r2, [r3, #4]
 8004282:	0791      	lsls	r1, r2, #30
 8004284:	d451      	bmi.n	800432a <HAL_CAN_Init+0xce>
 8004286:	681a      	ldr	r2, [r3, #0]
 8004288:	f042 0201 	orr.w	r2, r2, #1
 800428c:	601a      	str	r2, [r3, #0]
 800428e:	f7ff fd95 	bl	8003dbc <HAL_GetTick>
 8004292:	4605      	mov	r5, r0
 8004294:	6823      	ldr	r3, [r4, #0]
 8004296:	685a      	ldr	r2, [r3, #4]
 8004298:	07d2      	lsls	r2, r2, #31
 800429a:	d554      	bpl.n	8004346 <HAL_CAN_Init+0xea>
 800429c:	7e22      	ldrb	r2, [r4, #24]
 800429e:	2a01      	cmp	r2, #1
 80042a0:	681a      	ldr	r2, [r3, #0]
 80042a2:	bf0c      	ite	eq
 80042a4:	f042 0280 	orreq.w	r2, r2, #128	; 0x80
 80042a8:	f022 0280 	bicne.w	r2, r2, #128	; 0x80
 80042ac:	601a      	str	r2, [r3, #0]
 80042ae:	7e62      	ldrb	r2, [r4, #25]
 80042b0:	2a01      	cmp	r2, #1
 80042b2:	681a      	ldr	r2, [r3, #0]
 80042b4:	bf0c      	ite	eq
 80042b6:	f042 0240 	orreq.w	r2, r2, #64	; 0x40
 80042ba:	f022 0240 	bicne.w	r2, r2, #64	; 0x40
 80042be:	601a      	str	r2, [r3, #0]
 80042c0:	7ea2      	ldrb	r2, [r4, #26]
 80042c2:	2a01      	cmp	r2, #1
 80042c4:	681a      	ldr	r2, [r3, #0]
 80042c6:	bf0c      	ite	eq
 80042c8:	f042 0220 	orreq.w	r2, r2, #32
 80042cc:	f022 0220 	bicne.w	r2, r2, #32
 80042d0:	601a      	str	r2, [r3, #0]
 80042d2:	7ee2      	ldrb	r2, [r4, #27]
 80042d4:	2a01      	cmp	r2, #1
 80042d6:	681a      	ldr	r2, [r3, #0]
 80042d8:	bf0c      	ite	eq
 80042da:	f022 0210 	biceq.w	r2, r2, #16
 80042de:	f042 0210 	orrne.w	r2, r2, #16
 80042e2:	601a      	str	r2, [r3, #0]
 80042e4:	7f22      	ldrb	r2, [r4, #28]
 80042e6:	2a01      	cmp	r2, #1
 80042e8:	681a      	ldr	r2, [r3, #0]
 80042ea:	bf0c      	ite	eq
 80042ec:	f042 0208 	orreq.w	r2, r2, #8
 80042f0:	f022 0208 	bicne.w	r2, r2, #8
 80042f4:	601a      	str	r2, [r3, #0]
 80042f6:	7f62      	ldrb	r2, [r4, #29]
 80042f8:	2a01      	cmp	r2, #1
 80042fa:	681a      	ldr	r2, [r3, #0]
 80042fc:	bf0c      	ite	eq
 80042fe:	f042 0204 	orreq.w	r2, r2, #4
 8004302:	f022 0204 	bicne.w	r2, r2, #4
 8004306:	601a      	str	r2, [r3, #0]
 8004308:	e9d4 2102 	ldrd	r2, r1, [r4, #8]
 800430c:	430a      	orrs	r2, r1
 800430e:	6921      	ldr	r1, [r4, #16]
 8004310:	430a      	orrs	r2, r1
 8004312:	6961      	ldr	r1, [r4, #20]
 8004314:	430a      	orrs	r2, r1
 8004316:	6861      	ldr	r1, [r4, #4]
 8004318:	3901      	subs	r1, #1
 800431a:	430a      	orrs	r2, r1
 800431c:	61da      	str	r2, [r3, #28]
 800431e:	2000      	movs	r0, #0
 8004320:	2301      	movs	r3, #1
 8004322:	6260      	str	r0, [r4, #36]	; 0x24
 8004324:	f884 3020 	strb.w	r3, [r4, #32]
 8004328:	bd38      	pop	{r3, r4, r5, pc}
 800432a:	f7ff fd47 	bl	8003dbc <HAL_GetTick>
 800432e:	1b40      	subs	r0, r0, r5
 8004330:	280a      	cmp	r0, #10
 8004332:	d9a4      	bls.n	800427e <HAL_CAN_Init+0x22>
 8004334:	6a63      	ldr	r3, [r4, #36]	; 0x24
 8004336:	f443 3300 	orr.w	r3, r3, #131072	; 0x20000
 800433a:	6263      	str	r3, [r4, #36]	; 0x24
 800433c:	2305      	movs	r3, #5
 800433e:	f884 3020 	strb.w	r3, [r4, #32]
 8004342:	2001      	movs	r0, #1
 8004344:	e7f0      	b.n	8004328 <HAL_CAN_Init+0xcc>
 8004346:	f7ff fd39 	bl	8003dbc <HAL_GetTick>
 800434a:	1b40      	subs	r0, r0, r5
 800434c:	280a      	cmp	r0, #10
 800434e:	d9a1      	bls.n	8004294 <HAL_CAN_Init+0x38>
 8004350:	e7f0      	b.n	8004334 <HAL_CAN_Init+0xd8>
	...

08004354 <HAL_CAN_ConfigFilter>:
 8004354:	f890 3020 	ldrb.w	r3, [r0, #32]
 8004358:	3b01      	subs	r3, #1
 800435a:	2b01      	cmp	r3, #1
 800435c:	b530      	push	{r4, r5, lr}
 800435e:	d874      	bhi.n	800444a <HAL_CAN_ConfigFilter+0xf6>
 8004360:	4b3d      	ldr	r3, [pc, #244]	; (8004458 <HAL_CAN_ConfigFilter+0x104>)
 8004362:	f8d3 2200 	ldr.w	r2, [r3, #512]	; 0x200
 8004366:	f042 0201 	orr.w	r2, r2, #1
 800436a:	f8c3 2200 	str.w	r2, [r3, #512]	; 0x200
 800436e:	f8d3 2200 	ldr.w	r2, [r3, #512]	; 0x200
 8004372:	f422 527c 	bic.w	r2, r2, #16128	; 0x3f00
 8004376:	f8c3 2200 	str.w	r2, [r3, #512]	; 0x200
 800437a:	f8d3 2200 	ldr.w	r2, [r3, #512]	; 0x200
 800437e:	6a48      	ldr	r0, [r1, #36]	; 0x24
 8004380:	ea42 2200 	orr.w	r2, r2, r0, lsl #8
 8004384:	f8c3 2200 	str.w	r2, [r3, #512]	; 0x200
 8004388:	6948      	ldr	r0, [r1, #20]
 800438a:	f8d3 521c 	ldr.w	r5, [r3, #540]	; 0x21c
 800438e:	f000 021f 	and.w	r2, r0, #31
 8004392:	2401      	movs	r4, #1
 8004394:	4094      	lsls	r4, r2
 8004396:	43e2      	mvns	r2, r4
 8004398:	4015      	ands	r5, r2
 800439a:	f8c3 521c 	str.w	r5, [r3, #540]	; 0x21c
 800439e:	69cd      	ldr	r5, [r1, #28]
 80043a0:	2d00      	cmp	r5, #0
 80043a2:	d135      	bne.n	8004410 <HAL_CAN_ConfigFilter+0xbc>
 80043a4:	f8d3 520c 	ldr.w	r5, [r3, #524]	; 0x20c
 80043a8:	4015      	ands	r5, r2
 80043aa:	f8c3 520c 	str.w	r5, [r3, #524]	; 0x20c
 80043ae:	68cb      	ldr	r3, [r1, #12]
 80043b0:	888d      	ldrh	r5, [r1, #4]
 80043b2:	ea45 4503 	orr.w	r5, r5, r3, lsl #16
 80043b6:	00c3      	lsls	r3, r0, #3
 80043b8:	f103 4380 	add.w	r3, r3, #1073741824	; 0x40000000
 80043bc:	f503 43c8 	add.w	r3, r3, #25600	; 0x6400
 80043c0:	8808      	ldrh	r0, [r1, #0]
 80043c2:	f8c3 5240 	str.w	r5, [r3, #576]	; 0x240
 80043c6:	688d      	ldr	r5, [r1, #8]
 80043c8:	ea40 4005 	orr.w	r0, r0, r5, lsl #16
 80043cc:	f8c3 0244 	str.w	r0, [r3, #580]	; 0x244
 80043d0:	6988      	ldr	r0, [r1, #24]
 80043d2:	4b21      	ldr	r3, [pc, #132]	; (8004458 <HAL_CAN_ConfigFilter+0x104>)
 80043d4:	bb88      	cbnz	r0, 800443a <HAL_CAN_ConfigFilter+0xe6>
 80043d6:	f8d3 0204 	ldr.w	r0, [r3, #516]	; 0x204
 80043da:	4010      	ands	r0, r2
 80043dc:	f8c3 0204 	str.w	r0, [r3, #516]	; 0x204
 80043e0:	6908      	ldr	r0, [r1, #16]
 80043e2:	bb70      	cbnz	r0, 8004442 <HAL_CAN_ConfigFilter+0xee>
 80043e4:	f8d3 0214 	ldr.w	r0, [r3, #532]	; 0x214
 80043e8:	4002      	ands	r2, r0
 80043ea:	f8c3 2214 	str.w	r2, [r3, #532]	; 0x214
 80043ee:	6a0b      	ldr	r3, [r1, #32]
 80043f0:	2b01      	cmp	r3, #1
 80043f2:	4b19      	ldr	r3, [pc, #100]	; (8004458 <HAL_CAN_ConfigFilter+0x104>)
 80043f4:	bf02      	ittt	eq
 80043f6:	f8d3 221c 	ldreq.w	r2, [r3, #540]	; 0x21c
 80043fa:	4314      	orreq	r4, r2
 80043fc:	f8c3 421c 	streq.w	r4, [r3, #540]	; 0x21c
 8004400:	f8d3 2200 	ldr.w	r2, [r3, #512]	; 0x200
 8004404:	f022 0201 	bic.w	r2, r2, #1
 8004408:	f8c3 2200 	str.w	r2, [r3, #512]	; 0x200
 800440c:	2000      	movs	r0, #0
 800440e:	bd30      	pop	{r4, r5, pc}
 8004410:	2d01      	cmp	r5, #1
 8004412:	d1dd      	bne.n	80043d0 <HAL_CAN_ConfigFilter+0x7c>
 8004414:	f8d3 520c 	ldr.w	r5, [r3, #524]	; 0x20c
 8004418:	4325      	orrs	r5, r4
 800441a:	f8c3 520c 	str.w	r5, [r3, #524]	; 0x20c
 800441e:	680b      	ldr	r3, [r1, #0]
 8004420:	888d      	ldrh	r5, [r1, #4]
 8004422:	ea45 4503 	orr.w	r5, r5, r3, lsl #16
 8004426:	00c3      	lsls	r3, r0, #3
 8004428:	f103 4380 	add.w	r3, r3, #1073741824	; 0x40000000
 800442c:	f503 43c8 	add.w	r3, r3, #25600	; 0x6400
 8004430:	8988      	ldrh	r0, [r1, #12]
 8004432:	f8c3 5240 	str.w	r5, [r3, #576]	; 0x240
 8004436:	688d      	ldr	r5, [r1, #8]
 8004438:	e7c6      	b.n	80043c8 <HAL_CAN_ConfigFilter+0x74>
 800443a:	f8d3 0204 	ldr.w	r0, [r3, #516]	; 0x204
 800443e:	4320      	orrs	r0, r4
 8004440:	e7cc      	b.n	80043dc <HAL_CAN_ConfigFilter+0x88>
 8004442:	f8d3 2214 	ldr.w	r2, [r3, #532]	; 0x214
 8004446:	4322      	orrs	r2, r4
 8004448:	e7cf      	b.n	80043ea <HAL_CAN_ConfigFilter+0x96>
 800444a:	6a43      	ldr	r3, [r0, #36]	; 0x24
 800444c:	f443 2380 	orr.w	r3, r3, #262144	; 0x40000
 8004450:	6243      	str	r3, [r0, #36]	; 0x24
 8004452:	2001      	movs	r0, #1
 8004454:	e7db      	b.n	800440e <HAL_CAN_ConfigFilter+0xba>
 8004456:	bf00      	nop
 8004458:	40006400 	.word	0x40006400

0800445c <HAL_CAN_Start>:
 800445c:	b538      	push	{r3, r4, r5, lr}
 800445e:	f890 3020 	ldrb.w	r3, [r0, #32]
 8004462:	2b01      	cmp	r3, #1
 8004464:	4604      	mov	r4, r0
 8004466:	d11f      	bne.n	80044a8 <HAL_CAN_Start+0x4c>
 8004468:	6802      	ldr	r2, [r0, #0]
 800446a:	2302      	movs	r3, #2
 800446c:	f880 3020 	strb.w	r3, [r0, #32]
 8004470:	6813      	ldr	r3, [r2, #0]
 8004472:	f023 0301 	bic.w	r3, r3, #1
 8004476:	6013      	str	r3, [r2, #0]
 8004478:	f7ff fca0 	bl	8003dbc <HAL_GetTick>
 800447c:	4605      	mov	r5, r0
 800447e:	6823      	ldr	r3, [r4, #0]
 8004480:	6858      	ldr	r0, [r3, #4]
 8004482:	f010 0001 	ands.w	r0, r0, #1
 8004486:	d101      	bne.n	800448c <HAL_CAN_Start+0x30>
 8004488:	6260      	str	r0, [r4, #36]	; 0x24
 800448a:	bd38      	pop	{r3, r4, r5, pc}
 800448c:	f7ff fc96 	bl	8003dbc <HAL_GetTick>
 8004490:	1b40      	subs	r0, r0, r5
 8004492:	280a      	cmp	r0, #10
 8004494:	d9f3      	bls.n	800447e <HAL_CAN_Start+0x22>
 8004496:	6a63      	ldr	r3, [r4, #36]	; 0x24
 8004498:	f443 3300 	orr.w	r3, r3, #131072	; 0x20000
 800449c:	6263      	str	r3, [r4, #36]	; 0x24
 800449e:	2305      	movs	r3, #5
 80044a0:	f884 3020 	strb.w	r3, [r4, #32]
 80044a4:	2001      	movs	r0, #1
 80044a6:	e7f0      	b.n	800448a <HAL_CAN_Start+0x2e>
 80044a8:	6a43      	ldr	r3, [r0, #36]	; 0x24
 80044aa:	f443 2300 	orr.w	r3, r3, #524288	; 0x80000
 80044ae:	6243      	str	r3, [r0, #36]	; 0x24
 80044b0:	e7f8      	b.n	80044a4 <HAL_CAN_Start+0x48>

080044b2 <HAL_CAN_AddTxMessage>:
 80044b2:	b5f0      	push	{r4, r5, r6, r7, lr}
 80044b4:	f890 5020 	ldrb.w	r5, [r0, #32]
 80044b8:	6806      	ldr	r6, [r0, #0]
 80044ba:	3d01      	subs	r5, #1
 80044bc:	2d01      	cmp	r5, #1
 80044be:	68b4      	ldr	r4, [r6, #8]
 80044c0:	d840      	bhi.n	8004544 <HAL_CAN_AddTxMessage+0x92>
 80044c2:	f014 5fe0 	tst.w	r4, #469762048	; 0x1c000000
 80044c6:	d039      	beq.n	800453c <HAL_CAN_AddTxMessage+0x8a>
 80044c8:	f3c4 6401 	ubfx	r4, r4, #24, #2
 80044cc:	2c03      	cmp	r4, #3
 80044ce:	f04f 0501 	mov.w	r5, #1
 80044d2:	d105      	bne.n	80044e0 <HAL_CAN_AddTxMessage+0x2e>
 80044d4:	6a43      	ldr	r3, [r0, #36]	; 0x24
 80044d6:	f443 0300 	orr.w	r3, r3, #8388608	; 0x800000
 80044da:	6243      	str	r3, [r0, #36]	; 0x24
 80044dc:	2001      	movs	r0, #1
 80044de:	e027      	b.n	8004530 <HAL_CAN_AddTxMessage+0x7e>
 80044e0:	40a5      	lsls	r5, r4
 80044e2:	601d      	str	r5, [r3, #0]
 80044e4:	e9d1 0702 	ldrd	r0, r7, [r1, #8]
 80044e8:	f104 0318 	add.w	r3, r4, #24
 80044ec:	bb08      	cbnz	r0, 8004532 <HAL_CAN_AddTxMessage+0x80>
 80044ee:	6808      	ldr	r0, [r1, #0]
 80044f0:	ea47 5040 	orr.w	r0, r7, r0, lsl #21
 80044f4:	011b      	lsls	r3, r3, #4
 80044f6:	0124      	lsls	r4, r4, #4
 80044f8:	50f0      	str	r0, [r6, r3]
 80044fa:	1933      	adds	r3, r6, r4
 80044fc:	6908      	ldr	r0, [r1, #16]
 80044fe:	7d09      	ldrb	r1, [r1, #20]
 8004500:	f8c3 0184 	str.w	r0, [r3, #388]	; 0x184
 8004504:	2901      	cmp	r1, #1
 8004506:	bf02      	ittt	eq
 8004508:	f8d3 1184 	ldreq.w	r1, [r3, #388]	; 0x184
 800450c:	f441 7180 	orreq.w	r1, r1, #256	; 0x100
 8004510:	f8c3 1184 	streq.w	r1, [r3, #388]	; 0x184
 8004514:	4434      	add	r4, r6
 8004516:	6851      	ldr	r1, [r2, #4]
 8004518:	f8c4 118c 	str.w	r1, [r4, #396]	; 0x18c
 800451c:	6812      	ldr	r2, [r2, #0]
 800451e:	f8c4 2188 	str.w	r2, [r4, #392]	; 0x188
 8004522:	f8d3 2180 	ldr.w	r2, [r3, #384]	; 0x180
 8004526:	f042 0201 	orr.w	r2, r2, #1
 800452a:	f8c3 2180 	str.w	r2, [r3, #384]	; 0x180
 800452e:	2000      	movs	r0, #0
 8004530:	bdf0      	pop	{r4, r5, r6, r7, pc}
 8004532:	684d      	ldr	r5, [r1, #4]
 8004534:	4338      	orrs	r0, r7
 8004536:	ea40 00c5 	orr.w	r0, r0, r5, lsl #3
 800453a:	e7db      	b.n	80044f4 <HAL_CAN_AddTxMessage+0x42>
 800453c:	6a43      	ldr	r3, [r0, #36]	; 0x24
 800453e:	f443 1300 	orr.w	r3, r3, #2097152	; 0x200000
 8004542:	e7ca      	b.n	80044da <HAL_CAN_AddTxMessage+0x28>
 8004544:	6a43      	ldr	r3, [r0, #36]	; 0x24
 8004546:	f443 2380 	orr.w	r3, r3, #262144	; 0x40000
 800454a:	e7c6      	b.n	80044da <HAL_CAN_AddTxMessage+0x28>

0800454c <HAL_CAN_GetRxMessage>:
 800454c:	b5f0      	push	{r4, r5, r6, r7, lr}
 800454e:	f890 4020 	ldrb.w	r4, [r0, #32]
 8004552:	3c01      	subs	r4, #1
 8004554:	2c01      	cmp	r4, #1
 8004556:	d86b      	bhi.n	8004630 <HAL_CAN_GetRxMessage+0xe4>
 8004558:	6806      	ldr	r6, [r0, #0]
 800455a:	b941      	cbnz	r1, 800456e <HAL_CAN_GetRxMessage+0x22>
 800455c:	68f4      	ldr	r4, [r6, #12]
 800455e:	07a4      	lsls	r4, r4, #30
 8004560:	d107      	bne.n	8004572 <HAL_CAN_GetRxMessage+0x26>
 8004562:	6a43      	ldr	r3, [r0, #36]	; 0x24
 8004564:	f443 1300 	orr.w	r3, r3, #2097152	; 0x200000
 8004568:	6243      	str	r3, [r0, #36]	; 0x24
 800456a:	2001      	movs	r0, #1
 800456c:	e055      	b.n	800461a <HAL_CAN_GetRxMessage+0xce>
 800456e:	6934      	ldr	r4, [r6, #16]
 8004570:	e7f5      	b.n	800455e <HAL_CAN_GetRxMessage+0x12>
 8004572:	010c      	lsls	r4, r1, #4
 8004574:	1935      	adds	r5, r6, r4
 8004576:	f8d5 71b0 	ldr.w	r7, [r5, #432]	; 0x1b0
 800457a:	f007 0704 	and.w	r7, r7, #4
 800457e:	6097      	str	r7, [r2, #8]
 8004580:	2f00      	cmp	r7, #0
 8004582:	d14b      	bne.n	800461c <HAL_CAN_GetRxMessage+0xd0>
 8004584:	f8d5 71b0 	ldr.w	r7, [r5, #432]	; 0x1b0
 8004588:	0d7f      	lsrs	r7, r7, #21
 800458a:	6017      	str	r7, [r2, #0]
 800458c:	f8d5 71b0 	ldr.w	r7, [r5, #432]	; 0x1b0
 8004590:	f007 0702 	and.w	r7, r7, #2
 8004594:	60d7      	str	r7, [r2, #12]
 8004596:	f8d5 71b4 	ldr.w	r7, [r5, #436]	; 0x1b4
 800459a:	f007 070f 	and.w	r7, r7, #15
 800459e:	6117      	str	r7, [r2, #16]
 80045a0:	f8d5 71b4 	ldr.w	r7, [r5, #436]	; 0x1b4
 80045a4:	f8d5 51b4 	ldr.w	r5, [r5, #436]	; 0x1b4
 80045a8:	4426      	add	r6, r4
 80045aa:	f3c7 2707 	ubfx	r7, r7, #8, #8
 80045ae:	0c2d      	lsrs	r5, r5, #16
 80045b0:	6197      	str	r7, [r2, #24]
 80045b2:	6155      	str	r5, [r2, #20]
 80045b4:	f8d6 21b8 	ldr.w	r2, [r6, #440]	; 0x1b8
 80045b8:	701a      	strb	r2, [r3, #0]
 80045ba:	6802      	ldr	r2, [r0, #0]
 80045bc:	4422      	add	r2, r4
 80045be:	f8d2 21b8 	ldr.w	r2, [r2, #440]	; 0x1b8
 80045c2:	0a12      	lsrs	r2, r2, #8
 80045c4:	705a      	strb	r2, [r3, #1]
 80045c6:	6802      	ldr	r2, [r0, #0]
 80045c8:	4422      	add	r2, r4
 80045ca:	f8d2 21b8 	ldr.w	r2, [r2, #440]	; 0x1b8
 80045ce:	0c12      	lsrs	r2, r2, #16
 80045d0:	709a      	strb	r2, [r3, #2]
 80045d2:	6802      	ldr	r2, [r0, #0]
 80045d4:	4422      	add	r2, r4
 80045d6:	f8d2 21b8 	ldr.w	r2, [r2, #440]	; 0x1b8
 80045da:	0e12      	lsrs	r2, r2, #24
 80045dc:	70da      	strb	r2, [r3, #3]
 80045de:	6802      	ldr	r2, [r0, #0]
 80045e0:	4422      	add	r2, r4
 80045e2:	f8d2 21bc 	ldr.w	r2, [r2, #444]	; 0x1bc
 80045e6:	711a      	strb	r2, [r3, #4]
 80045e8:	6802      	ldr	r2, [r0, #0]
 80045ea:	4422      	add	r2, r4
 80045ec:	f8d2 21bc 	ldr.w	r2, [r2, #444]	; 0x1bc
 80045f0:	0a12      	lsrs	r2, r2, #8
 80045f2:	715a      	strb	r2, [r3, #5]
 80045f4:	6802      	ldr	r2, [r0, #0]
 80045f6:	4422      	add	r2, r4
 80045f8:	f8d2 21bc 	ldr.w	r2, [r2, #444]	; 0x1bc
 80045fc:	0c12      	lsrs	r2, r2, #16
 80045fe:	719a      	strb	r2, [r3, #6]
 8004600:	6802      	ldr	r2, [r0, #0]
 8004602:	4414      	add	r4, r2
 8004604:	f8d4 21bc 	ldr.w	r2, [r4, #444]	; 0x1bc
 8004608:	0e12      	lsrs	r2, r2, #24
 800460a:	71da      	strb	r2, [r3, #7]
 800460c:	6803      	ldr	r3, [r0, #0]
 800460e:	b951      	cbnz	r1, 8004626 <HAL_CAN_GetRxMessage+0xda>
 8004610:	68da      	ldr	r2, [r3, #12]
 8004612:	f042 0220 	orr.w	r2, r2, #32
 8004616:	60da      	str	r2, [r3, #12]
 8004618:	2000      	movs	r0, #0
 800461a:	bdf0      	pop	{r4, r5, r6, r7, pc}
 800461c:	f8d5 71b0 	ldr.w	r7, [r5, #432]	; 0x1b0
 8004620:	08ff      	lsrs	r7, r7, #3
 8004622:	6057      	str	r7, [r2, #4]
 8004624:	e7b2      	b.n	800458c <HAL_CAN_GetRxMessage+0x40>
 8004626:	691a      	ldr	r2, [r3, #16]
 8004628:	f042 0220 	orr.w	r2, r2, #32
 800462c:	611a      	str	r2, [r3, #16]
 800462e:	e7f3      	b.n	8004618 <HAL_CAN_GetRxMessage+0xcc>
 8004630:	6a43      	ldr	r3, [r0, #36]	; 0x24
 8004632:	f443 2380 	orr.w	r3, r3, #262144	; 0x40000
 8004636:	e797      	b.n	8004568 <HAL_CAN_GetRxMessage+0x1c>

08004638 <HAL_CAN_TxMailbox0CompleteCallback>:
 8004638:	4770      	bx	lr

0800463a <HAL_CAN_TxMailbox1CompleteCallback>:
 800463a:	4770      	bx	lr

0800463c <HAL_CAN_TxMailbox2CompleteCallback>:
 800463c:	4770      	bx	lr

0800463e <HAL_CAN_TxMailbox0AbortCallback>:
 800463e:	4770      	bx	lr

08004640 <HAL_CAN_TxMailbox1AbortCallback>:
 8004640:	4770      	bx	lr

08004642 <HAL_CAN_TxMailbox2AbortCallback>:
 8004642:	4770      	bx	lr

08004644 <HAL_CAN_RxFifo0MsgPendingCallback>:
 8004644:	4770      	bx	lr

08004646 <HAL_CAN_RxFifo0FullCallback>:
 8004646:	4770      	bx	lr

08004648 <HAL_CAN_RxFifo1MsgPendingCallback>:
 8004648:	4770      	bx	lr

0800464a <HAL_CAN_RxFifo1FullCallback>:
 800464a:	4770      	bx	lr

0800464c <HAL_CAN_SleepCallback>:
 800464c:	4770      	bx	lr

0800464e <HAL_CAN_WakeUpFromRxMsgCallback>:
 800464e:	4770      	bx	lr

08004650 <HAL_CAN_ErrorCallback>:
 8004650:	4770      	bx	lr

08004652 <HAL_CAN_IRQHandler>:
 8004652:	e92d 4ff8 	stmdb	sp!, {r3, r4, r5, r6, r7, r8, r9, sl, fp, lr}
 8004656:	6803      	ldr	r3, [r0, #0]
 8004658:	695e      	ldr	r6, [r3, #20]
 800465a:	f8d3 9004 	ldr.w	r9, [r3, #4]
 800465e:	689f      	ldr	r7, [r3, #8]
 8004660:	f8d3 b00c 	ldr.w	fp, [r3, #12]
 8004664:	f8d3 a010 	ldr.w	sl, [r3, #16]
 8004668:	f8d3 8018 	ldr.w	r8, [r3, #24]
 800466c:	f016 0401 	ands.w	r4, r6, #1
 8004670:	4605      	mov	r5, r0
 8004672:	d022      	beq.n	80046ba <HAL_CAN_IRQHandler+0x68>
 8004674:	f017 0401 	ands.w	r4, r7, #1
 8004678:	d007      	beq.n	800468a <HAL_CAN_IRQHandler+0x38>
 800467a:	2201      	movs	r2, #1
 800467c:	07b9      	lsls	r1, r7, #30
 800467e:	609a      	str	r2, [r3, #8]
 8004680:	f140 80a3 	bpl.w	80047ca <HAL_CAN_IRQHandler+0x178>
 8004684:	f7ff ffd8 	bl	8004638 <HAL_CAN_TxMailbox0CompleteCallback>
 8004688:	2400      	movs	r4, #0
 800468a:	05fb      	lsls	r3, r7, #23
 800468c:	d509      	bpl.n	80046a2 <HAL_CAN_IRQHandler+0x50>
 800468e:	682b      	ldr	r3, [r5, #0]
 8004690:	f44f 7280 	mov.w	r2, #256	; 0x100
 8004694:	05b8      	lsls	r0, r7, #22
 8004696:	609a      	str	r2, [r3, #8]
 8004698:	f140 80a5 	bpl.w	80047e6 <HAL_CAN_IRQHandler+0x194>
 800469c:	4628      	mov	r0, r5
 800469e:	f7ff ffcc 	bl	800463a <HAL_CAN_TxMailbox1CompleteCallback>
 80046a2:	03fb      	lsls	r3, r7, #15
 80046a4:	d509      	bpl.n	80046ba <HAL_CAN_IRQHandler+0x68>
 80046a6:	682b      	ldr	r3, [r5, #0]
 80046a8:	f44f 3280 	mov.w	r2, #65536	; 0x10000
 80046ac:	03b8      	lsls	r0, r7, #14
 80046ae:	609a      	str	r2, [r3, #8]
 80046b0:	f140 80a7 	bpl.w	8004802 <HAL_CAN_IRQHandler+0x1b0>
 80046b4:	4628      	mov	r0, r5
 80046b6:	f7ff ffc1 	bl	800463c <HAL_CAN_TxMailbox2CompleteCallback>
 80046ba:	0733      	lsls	r3, r6, #28
 80046bc:	d507      	bpl.n	80046ce <HAL_CAN_IRQHandler+0x7c>
 80046be:	f01b 0f10 	tst.w	fp, #16
 80046c2:	bf1f      	itttt	ne
 80046c4:	682b      	ldrne	r3, [r5, #0]
 80046c6:	2210      	movne	r2, #16
 80046c8:	f444 7400 	orrne.w	r4, r4, #512	; 0x200
 80046cc:	60da      	strne	r2, [r3, #12]
 80046ce:	0777      	lsls	r7, r6, #29
 80046d0:	d508      	bpl.n	80046e4 <HAL_CAN_IRQHandler+0x92>
 80046d2:	f01b 0f08 	tst.w	fp, #8
 80046d6:	d005      	beq.n	80046e4 <HAL_CAN_IRQHandler+0x92>
 80046d8:	682b      	ldr	r3, [r5, #0]
 80046da:	2208      	movs	r2, #8
 80046dc:	60da      	str	r2, [r3, #12]
 80046de:	4628      	mov	r0, r5
 80046e0:	f7ff ffb1 	bl	8004646 <HAL_CAN_RxFifo0FullCallback>
 80046e4:	07b0      	lsls	r0, r6, #30
 80046e6:	d506      	bpl.n	80046f6 <HAL_CAN_IRQHandler+0xa4>
 80046e8:	682b      	ldr	r3, [r5, #0]
 80046ea:	68db      	ldr	r3, [r3, #12]
 80046ec:	0799      	lsls	r1, r3, #30
 80046ee:	d002      	beq.n	80046f6 <HAL_CAN_IRQHandler+0xa4>
 80046f0:	4628      	mov	r0, r5
 80046f2:	f7ff ffa7 	bl	8004644 <HAL_CAN_RxFifo0MsgPendingCallback>
 80046f6:	0672      	lsls	r2, r6, #25
 80046f8:	d507      	bpl.n	800470a <HAL_CAN_IRQHandler+0xb8>
 80046fa:	f01a 0f10 	tst.w	sl, #16
 80046fe:	bf1f      	itttt	ne
 8004700:	682b      	ldrne	r3, [r5, #0]
 8004702:	2210      	movne	r2, #16
 8004704:	f444 6480 	orrne.w	r4, r4, #1024	; 0x400
 8004708:	611a      	strne	r2, [r3, #16]
 800470a:	06b3      	lsls	r3, r6, #26
 800470c:	d508      	bpl.n	8004720 <HAL_CAN_IRQHandler+0xce>
 800470e:	f01a 0f08 	tst.w	sl, #8
 8004712:	d005      	beq.n	8004720 <HAL_CAN_IRQHandler+0xce>
 8004714:	682b      	ldr	r3, [r5, #0]
 8004716:	2208      	movs	r2, #8
 8004718:	611a      	str	r2, [r3, #16]
 800471a:	4628      	mov	r0, r5
 800471c:	f7ff ff95 	bl	800464a <HAL_CAN_RxFifo1FullCallback>
 8004720:	06f7      	lsls	r7, r6, #27
 8004722:	d506      	bpl.n	8004732 <HAL_CAN_IRQHandler+0xe0>
 8004724:	682b      	ldr	r3, [r5, #0]
 8004726:	691b      	ldr	r3, [r3, #16]
 8004728:	0798      	lsls	r0, r3, #30
 800472a:	d002      	beq.n	8004732 <HAL_CAN_IRQHandler+0xe0>
 800472c:	4628      	mov	r0, r5
 800472e:	f7ff ff8b 	bl	8004648 <HAL_CAN_RxFifo1MsgPendingCallback>
 8004732:	03b1      	lsls	r1, r6, #14
 8004734:	d508      	bpl.n	8004748 <HAL_CAN_IRQHandler+0xf6>
 8004736:	f019 0f10 	tst.w	r9, #16
 800473a:	d005      	beq.n	8004748 <HAL_CAN_IRQHandler+0xf6>
 800473c:	682b      	ldr	r3, [r5, #0]
 800473e:	2210      	movs	r2, #16
 8004740:	605a      	str	r2, [r3, #4]
 8004742:	4628      	mov	r0, r5
 8004744:	f7ff ff82 	bl	800464c <HAL_CAN_SleepCallback>
 8004748:	03f2      	lsls	r2, r6, #15
 800474a:	d508      	bpl.n	800475e <HAL_CAN_IRQHandler+0x10c>
 800474c:	f019 0f08 	tst.w	r9, #8
 8004750:	d005      	beq.n	800475e <HAL_CAN_IRQHandler+0x10c>
 8004752:	682b      	ldr	r3, [r5, #0]
 8004754:	2208      	movs	r2, #8
 8004756:	605a      	str	r2, [r3, #4]
 8004758:	4628      	mov	r0, r5
 800475a:	f7ff ff78 	bl	800464e <HAL_CAN_WakeUpFromRxMsgCallback>
 800475e:	0433      	lsls	r3, r6, #16
 8004760:	d52a      	bpl.n	80047b8 <HAL_CAN_IRQHandler+0x166>
 8004762:	f019 0f04 	tst.w	r9, #4
 8004766:	682a      	ldr	r2, [r5, #0]
 8004768:	d024      	beq.n	80047b4 <HAL_CAN_IRQHandler+0x162>
 800476a:	05f7      	lsls	r7, r6, #23
 800476c:	d504      	bpl.n	8004778 <HAL_CAN_IRQHandler+0x126>
 800476e:	f018 0f01 	tst.w	r8, #1
 8004772:	bf18      	it	ne
 8004774:	f044 0401 	orrne.w	r4, r4, #1
 8004778:	05b0      	lsls	r0, r6, #22
 800477a:	d504      	bpl.n	8004786 <HAL_CAN_IRQHandler+0x134>
 800477c:	f018 0f02 	tst.w	r8, #2
 8004780:	bf18      	it	ne
 8004782:	f044 0402 	orrne.w	r4, r4, #2
 8004786:	0571      	lsls	r1, r6, #21
 8004788:	d504      	bpl.n	8004794 <HAL_CAN_IRQHandler+0x142>
 800478a:	f018 0f04 	tst.w	r8, #4
 800478e:	bf18      	it	ne
 8004790:	f044 0404 	orrne.w	r4, r4, #4
 8004794:	0533      	lsls	r3, r6, #20
 8004796:	d50d      	bpl.n	80047b4 <HAL_CAN_IRQHandler+0x162>
 8004798:	f018 0370 	ands.w	r3, r8, #112	; 0x70
 800479c:	d00a      	beq.n	80047b4 <HAL_CAN_IRQHandler+0x162>
 800479e:	2b30      	cmp	r3, #48	; 0x30
 80047a0:	d04c      	beq.n	800483c <HAL_CAN_IRQHandler+0x1ea>
 80047a2:	d83c      	bhi.n	800481e <HAL_CAN_IRQHandler+0x1cc>
 80047a4:	2b10      	cmp	r3, #16
 80047a6:	d043      	beq.n	8004830 <HAL_CAN_IRQHandler+0x1de>
 80047a8:	2b20      	cmp	r3, #32
 80047aa:	d044      	beq.n	8004836 <HAL_CAN_IRQHandler+0x1e4>
 80047ac:	6993      	ldr	r3, [r2, #24]
 80047ae:	f023 0370 	bic.w	r3, r3, #112	; 0x70
 80047b2:	6193      	str	r3, [r2, #24]
 80047b4:	2304      	movs	r3, #4
 80047b6:	6053      	str	r3, [r2, #4]
 80047b8:	b12c      	cbz	r4, 80047c6 <HAL_CAN_IRQHandler+0x174>
 80047ba:	6a6b      	ldr	r3, [r5, #36]	; 0x24
 80047bc:	431c      	orrs	r4, r3
 80047be:	626c      	str	r4, [r5, #36]	; 0x24
 80047c0:	4628      	mov	r0, r5
 80047c2:	f7ff ff45 	bl	8004650 <HAL_CAN_ErrorCallback>
 80047c6:	e8bd 8ff8 	ldmia.w	sp!, {r3, r4, r5, r6, r7, r8, r9, sl, fp, pc}
 80047ca:	077a      	lsls	r2, r7, #29
 80047cc:	d405      	bmi.n	80047da <HAL_CAN_IRQHandler+0x188>
 80047ce:	f017 0408 	ands.w	r4, r7, #8
 80047d2:	d105      	bne.n	80047e0 <HAL_CAN_IRQHandler+0x18e>
 80047d4:	f7ff ff33 	bl	800463e <HAL_CAN_TxMailbox0AbortCallback>
 80047d8:	e757      	b.n	800468a <HAL_CAN_IRQHandler+0x38>
 80047da:	f44f 6400 	mov.w	r4, #2048	; 0x800
 80047de:	e754      	b.n	800468a <HAL_CAN_IRQHandler+0x38>
 80047e0:	f44f 5480 	mov.w	r4, #4096	; 0x1000
 80047e4:	e751      	b.n	800468a <HAL_CAN_IRQHandler+0x38>
 80047e6:	0579      	lsls	r1, r7, #21
 80047e8:	d502      	bpl.n	80047f0 <HAL_CAN_IRQHandler+0x19e>
 80047ea:	f444 5400 	orr.w	r4, r4, #8192	; 0x2000
 80047ee:	e758      	b.n	80046a2 <HAL_CAN_IRQHandler+0x50>
 80047f0:	053a      	lsls	r2, r7, #20
 80047f2:	d502      	bpl.n	80047fa <HAL_CAN_IRQHandler+0x1a8>
 80047f4:	f444 4480 	orr.w	r4, r4, #16384	; 0x4000
 80047f8:	e753      	b.n	80046a2 <HAL_CAN_IRQHandler+0x50>
 80047fa:	4628      	mov	r0, r5
 80047fc:	f7ff ff20 	bl	8004640 <HAL_CAN_TxMailbox1AbortCallback>
 8004800:	e74f      	b.n	80046a2 <HAL_CAN_IRQHandler+0x50>
 8004802:	0379      	lsls	r1, r7, #13
 8004804:	d502      	bpl.n	800480c <HAL_CAN_IRQHandler+0x1ba>
 8004806:	f444 4400 	orr.w	r4, r4, #32768	; 0x8000
 800480a:	e756      	b.n	80046ba <HAL_CAN_IRQHandler+0x68>
 800480c:	033a      	lsls	r2, r7, #12
 800480e:	d502      	bpl.n	8004816 <HAL_CAN_IRQHandler+0x1c4>
 8004810:	f444 3480 	orr.w	r4, r4, #65536	; 0x10000
 8004814:	e751      	b.n	80046ba <HAL_CAN_IRQHandler+0x68>
 8004816:	4628      	mov	r0, r5
 8004818:	f7ff ff13 	bl	8004642 <HAL_CAN_TxMailbox2AbortCallback>
 800481c:	e74d      	b.n	80046ba <HAL_CAN_IRQHandler+0x68>
 800481e:	2b50      	cmp	r3, #80	; 0x50
 8004820:	d00f      	beq.n	8004842 <HAL_CAN_IRQHandler+0x1f0>
 8004822:	2b60      	cmp	r3, #96	; 0x60
 8004824:	d010      	beq.n	8004848 <HAL_CAN_IRQHandler+0x1f6>
 8004826:	2b40      	cmp	r3, #64	; 0x40
 8004828:	d1c0      	bne.n	80047ac <HAL_CAN_IRQHandler+0x15a>
 800482a:	f044 0440 	orr.w	r4, r4, #64	; 0x40
 800482e:	e7bd      	b.n	80047ac <HAL_CAN_IRQHandler+0x15a>
 8004830:	f044 0408 	orr.w	r4, r4, #8
 8004834:	e7ba      	b.n	80047ac <HAL_CAN_IRQHandler+0x15a>
 8004836:	f044 0410 	orr.w	r4, r4, #16
 800483a:	e7b7      	b.n	80047ac <HAL_CAN_IRQHandler+0x15a>
 800483c:	f044 0420 	orr.w	r4, r4, #32
 8004840:	e7b4      	b.n	80047ac <HAL_CAN_IRQHandler+0x15a>
 8004842:	f044 0480 	orr.w	r4, r4, #128	; 0x80
 8004846:	e7b1      	b.n	80047ac <HAL_CAN_IRQHandler+0x15a>
 8004848:	f444 7480 	orr.w	r4, r4, #256	; 0x100
 800484c:	e7ae      	b.n	80047ac <HAL_CAN_IRQHandler+0x15a>
	...

08004850 <HAL_NVIC_SetPriorityGrouping>:
 8004850:	4a07      	ldr	r2, [pc, #28]	; (8004870 <HAL_NVIC_SetPriorityGrouping+0x20>)
 8004852:	68d3      	ldr	r3, [r2, #12]
 8004854:	f423 63e0 	bic.w	r3, r3, #1792	; 0x700
 8004858:	041b      	lsls	r3, r3, #16
 800485a:	0c1b      	lsrs	r3, r3, #16
 800485c:	f043 63bf 	orr.w	r3, r3, #100139008	; 0x5f80000
 8004860:	0200      	lsls	r0, r0, #8
 8004862:	f443 3300 	orr.w	r3, r3, #131072	; 0x20000
 8004866:	f400 60e0 	and.w	r0, r0, #1792	; 0x700
 800486a:	4303      	orrs	r3, r0
 800486c:	60d3      	str	r3, [r2, #12]
 800486e:	4770      	bx	lr
 8004870:	e000ed00 	.word	0xe000ed00

08004874 <HAL_NVIC_SetPriority>:
 8004874:	4b17      	ldr	r3, [pc, #92]	; (80048d4 <HAL_NVIC_SetPriority+0x60>)
 8004876:	b570      	push	{r4, r5, r6, lr}
 8004878:	68dc      	ldr	r4, [r3, #12]
 800487a:	f3c4 2402 	ubfx	r4, r4, #8, #3
 800487e:	f1c4 0507 	rsb	r5, r4, #7
 8004882:	2d04      	cmp	r5, #4
 8004884:	f104 0304 	add.w	r3, r4, #4
 8004888:	bf28      	it	cs
 800488a:	2504      	movcs	r5, #4
 800488c:	f04f 36ff 	mov.w	r6, #4294967295
 8004890:	2b06      	cmp	r3, #6
 8004892:	fa06 f305 	lsl.w	r3, r6, r5
 8004896:	bf8c      	ite	hi
 8004898:	3c03      	subhi	r4, #3
 800489a:	2400      	movls	r4, #0
 800489c:	ea21 0303 	bic.w	r3, r1, r3
 80048a0:	40a3      	lsls	r3, r4
 80048a2:	fa06 f404 	lsl.w	r4, r6, r4
 80048a6:	ea22 0404 	bic.w	r4, r2, r4
 80048aa:	2800      	cmp	r0, #0
 80048ac:	ea43 0304 	orr.w	r3, r3, r4
 80048b0:	bfa8      	it	ge
 80048b2:	f100 4060 	addge.w	r0, r0, #3758096384	; 0xe0000000
 80048b6:	ea4f 1303 	mov.w	r3, r3, lsl #4
 80048ba:	bfbc      	itt	lt
 80048bc:	f000 000f 	andlt.w	r0, r0, #15
 80048c0:	4a05      	ldrlt	r2, [pc, #20]	; (80048d8 <HAL_NVIC_SetPriority+0x64>)
 80048c2:	b2db      	uxtb	r3, r3
 80048c4:	bfaa      	itet	ge
 80048c6:	f500 4061 	addge.w	r0, r0, #57600	; 0xe100
 80048ca:	5413      	strblt	r3, [r2, r0]
 80048cc:	f880 3300 	strbge.w	r3, [r0, #768]	; 0x300
 80048d0:	bd70      	pop	{r4, r5, r6, pc}
 80048d2:	bf00      	nop
 80048d4:	e000ed00 	.word	0xe000ed00
 80048d8:	e000ed14 	.word	0xe000ed14

080048dc <HAL_NVIC_EnableIRQ>:
 80048dc:	2800      	cmp	r0, #0
 80048de:	db08      	blt.n	80048f2 <HAL_NVIC_EnableIRQ+0x16>
 80048e0:	0942      	lsrs	r2, r0, #5
 80048e2:	2301      	movs	r3, #1
 80048e4:	f000 001f 	and.w	r0, r0, #31
 80048e8:	fa03 f000 	lsl.w	r0, r3, r0
 80048ec:	4b01      	ldr	r3, [pc, #4]	; (80048f4 <HAL_NVIC_EnableIRQ+0x18>)
 80048ee:	f843 0022 	str.w	r0, [r3, r2, lsl #2]
 80048f2:	4770      	bx	lr
 80048f4:	e000e100 	.word	0xe000e100

080048f8 <HAL_SYSTICK_Config>:
 80048f8:	3801      	subs	r0, #1
 80048fa:	f1b0 7f80 	cmp.w	r0, #16777216	; 0x1000000
 80048fe:	d20a      	bcs.n	8004916 <HAL_SYSTICK_Config+0x1e>
 8004900:	4b06      	ldr	r3, [pc, #24]	; (800491c <HAL_SYSTICK_Config+0x24>)
 8004902:	4a07      	ldr	r2, [pc, #28]	; (8004920 <HAL_SYSTICK_Config+0x28>)
 8004904:	6058      	str	r0, [r3, #4]
 8004906:	21f0      	movs	r1, #240	; 0xf0
 8004908:	f882 1023 	strb.w	r1, [r2, #35]	; 0x23
 800490c:	2000      	movs	r0, #0
 800490e:	2207      	movs	r2, #7
 8004910:	6098      	str	r0, [r3, #8]
 8004912:	601a      	str	r2, [r3, #0]
 8004914:	4770      	bx	lr
 8004916:	2001      	movs	r0, #1
 8004918:	4770      	bx	lr
 800491a:	bf00      	nop
 800491c:	e000e010 	.word	0xe000e010
 8004920:	e000ed00 	.word	0xe000ed00

08004924 <HAL_DMA_Abort_IT>:
 8004924:	f890 3035 	ldrb.w	r3, [r0, #53]	; 0x35
 8004928:	2b02      	cmp	r3, #2
 800492a:	d003      	beq.n	8004934 <HAL_DMA_Abort_IT+0x10>
 800492c:	2380      	movs	r3, #128	; 0x80
 800492e:	6543      	str	r3, [r0, #84]	; 0x54
 8004930:	2001      	movs	r0, #1
 8004932:	4770      	bx	lr
 8004934:	6802      	ldr	r2, [r0, #0]
 8004936:	2305      	movs	r3, #5
 8004938:	f880 3035 	strb.w	r3, [r0, #53]	; 0x35
 800493c:	6813      	ldr	r3, [r2, #0]
 800493e:	f023 0301 	bic.w	r3, r3, #1
 8004942:	6013      	str	r3, [r2, #0]
 8004944:	2000      	movs	r0, #0
 8004946:	4770      	bx	lr

08004948 <HAL_GPIO_Init>:
 8004948:	e92d 4ff0 	stmdb	sp!, {r4, r5, r6, r7, r8, r9, sl, fp, lr}
 800494c:	b085      	sub	sp, #20
 800494e:	680b      	ldr	r3, [r1, #0]
 8004950:	f8df 81a0 	ldr.w	r8, [pc, #416]	; 8004af4 <HAL_GPIO_Init+0x1ac>
 8004954:	4a65      	ldr	r2, [pc, #404]	; (8004aec <HAL_GPIO_Init+0x1a4>)
 8004956:	f8df 91a0 	ldr.w	r9, [pc, #416]	; 8004af8 <HAL_GPIO_Init+0x1b0>
 800495a:	9301      	str	r3, [sp, #4]
 800495c:	2300      	movs	r3, #0
 800495e:	2401      	movs	r4, #1
 8004960:	9d01      	ldr	r5, [sp, #4]
 8004962:	409c      	lsls	r4, r3
 8004964:	4025      	ands	r5, r4
 8004966:	42ac      	cmp	r4, r5
 8004968:	f040 80ac 	bne.w	8004ac4 <HAL_GPIO_Init+0x17c>
 800496c:	684c      	ldr	r4, [r1, #4]
 800496e:	f024 0c10 	bic.w	ip, r4, #16
 8004972:	ea4f 0e43 	mov.w	lr, r3, lsl #1
 8004976:	2603      	movs	r6, #3
 8004978:	f10c 37ff 	add.w	r7, ip, #4294967295
 800497c:	fa06 f60e 	lsl.w	r6, r6, lr
 8004980:	2f01      	cmp	r7, #1
 8004982:	ea6f 0606 	mvn.w	r6, r6
 8004986:	d811      	bhi.n	80049ac <HAL_GPIO_Init+0x64>
 8004988:	6887      	ldr	r7, [r0, #8]
 800498a:	ea07 0a06 	and.w	sl, r7, r6
 800498e:	68cf      	ldr	r7, [r1, #12]
 8004990:	fa07 f70e 	lsl.w	r7, r7, lr
 8004994:	ea47 070a 	orr.w	r7, r7, sl
 8004998:	6087      	str	r7, [r0, #8]
 800499a:	6847      	ldr	r7, [r0, #4]
 800499c:	ea27 0a05 	bic.w	sl, r7, r5
 80049a0:	f3c4 1700 	ubfx	r7, r4, #4, #1
 80049a4:	409f      	lsls	r7, r3
 80049a6:	ea47 070a 	orr.w	r7, r7, sl
 80049aa:	6047      	str	r7, [r0, #4]
 80049ac:	68c7      	ldr	r7, [r0, #12]
 80049ae:	ea07 0a06 	and.w	sl, r7, r6
 80049b2:	688f      	ldr	r7, [r1, #8]
 80049b4:	fa07 f70e 	lsl.w	r7, r7, lr
 80049b8:	ea47 070a 	orr.w	r7, r7, sl
 80049bc:	f1bc 0f02 	cmp.w	ip, #2
 80049c0:	60c7      	str	r7, [r0, #12]
 80049c2:	d116      	bne.n	80049f2 <HAL_GPIO_Init+0xaa>
 80049c4:	ea4f 0ad3 	mov.w	sl, r3, lsr #3
 80049c8:	eb00 0a8a 	add.w	sl, r0, sl, lsl #2
 80049cc:	f003 0b07 	and.w	fp, r3, #7
 80049d0:	f8da 7020 	ldr.w	r7, [sl, #32]
 80049d4:	ea4f 0b8b 	mov.w	fp, fp, lsl #2
 80049d8:	f04f 0c0f 	mov.w	ip, #15
 80049dc:	fa0c fc0b 	lsl.w	ip, ip, fp
 80049e0:	ea27 0c0c 	bic.w	ip, r7, ip
 80049e4:	690f      	ldr	r7, [r1, #16]
 80049e6:	fa07 f70b 	lsl.w	r7, r7, fp
 80049ea:	ea47 070c 	orr.w	r7, r7, ip
 80049ee:	f8ca 7020 	str.w	r7, [sl, #32]
 80049f2:	6807      	ldr	r7, [r0, #0]
 80049f4:	403e      	ands	r6, r7
 80049f6:	f004 0703 	and.w	r7, r4, #3
 80049fa:	fa07 fe0e 	lsl.w	lr, r7, lr
 80049fe:	ea4e 0606 	orr.w	r6, lr, r6
 8004a02:	6006      	str	r6, [r0, #0]
 8004a04:	00e6      	lsls	r6, r4, #3
 8004a06:	d55d      	bpl.n	8004ac4 <HAL_GPIO_Init+0x17c>
 8004a08:	f04f 0b00 	mov.w	fp, #0
 8004a0c:	f8cd b00c 	str.w	fp, [sp, #12]
 8004a10:	f8d8 7044 	ldr.w	r7, [r8, #68]	; 0x44
 8004a14:	4e36      	ldr	r6, [pc, #216]	; (8004af0 <HAL_GPIO_Init+0x1a8>)
 8004a16:	f447 4780 	orr.w	r7, r7, #16384	; 0x4000
 8004a1a:	f8c8 7044 	str.w	r7, [r8, #68]	; 0x44
 8004a1e:	f8d8 7044 	ldr.w	r7, [r8, #68]	; 0x44
 8004a22:	f407 4780 	and.w	r7, r7, #16384	; 0x4000
 8004a26:	9703      	str	r7, [sp, #12]
 8004a28:	9f03      	ldr	r7, [sp, #12]
 8004a2a:	f023 0703 	bic.w	r7, r3, #3
 8004a2e:	f107 4780 	add.w	r7, r7, #1073741824	; 0x40000000
 8004a32:	f507 379c 	add.w	r7, r7, #79872	; 0x13800
 8004a36:	f003 0e03 	and.w	lr, r3, #3
 8004a3a:	f8d7 a008 	ldr.w	sl, [r7, #8]
 8004a3e:	ea4f 0e8e 	mov.w	lr, lr, lsl #2
 8004a42:	f04f 0c0f 	mov.w	ip, #15
 8004a46:	fa0c fc0e 	lsl.w	ip, ip, lr
 8004a4a:	42b0      	cmp	r0, r6
 8004a4c:	ea2a 0c0c 	bic.w	ip, sl, ip
 8004a50:	d03f      	beq.n	8004ad2 <HAL_GPIO_Init+0x18a>
 8004a52:	f506 6680 	add.w	r6, r6, #1024	; 0x400
 8004a56:	42b0      	cmp	r0, r6
 8004a58:	d03d      	beq.n	8004ad6 <HAL_GPIO_Init+0x18e>
 8004a5a:	f506 6680 	add.w	r6, r6, #1024	; 0x400
 8004a5e:	42b0      	cmp	r0, r6
 8004a60:	d03b      	beq.n	8004ada <HAL_GPIO_Init+0x192>
 8004a62:	f506 6680 	add.w	r6, r6, #1024	; 0x400
 8004a66:	42b0      	cmp	r0, r6
 8004a68:	d039      	beq.n	8004ade <HAL_GPIO_Init+0x196>
 8004a6a:	f506 6680 	add.w	r6, r6, #1024	; 0x400
 8004a6e:	42b0      	cmp	r0, r6
 8004a70:	d037      	beq.n	8004ae2 <HAL_GPIO_Init+0x19a>
 8004a72:	4548      	cmp	r0, r9
 8004a74:	d037      	beq.n	8004ae6 <HAL_GPIO_Init+0x19e>
 8004a76:	f506 6600 	add.w	r6, r6, #2048	; 0x800
 8004a7a:	42b0      	cmp	r0, r6
 8004a7c:	bf14      	ite	ne
 8004a7e:	2607      	movne	r6, #7
 8004a80:	2606      	moveq	r6, #6
 8004a82:	fa06 f60e 	lsl.w	r6, r6, lr
 8004a86:	ea46 060c 	orr.w	r6, r6, ip
 8004a8a:	60be      	str	r6, [r7, #8]
 8004a8c:	6816      	ldr	r6, [r2, #0]
 8004a8e:	43ef      	mvns	r7, r5
 8004a90:	f414 3f80 	tst.w	r4, #65536	; 0x10000
 8004a94:	bf0c      	ite	eq
 8004a96:	403e      	andeq	r6, r7
 8004a98:	432e      	orrne	r6, r5
 8004a9a:	6016      	str	r6, [r2, #0]
 8004a9c:	6856      	ldr	r6, [r2, #4]
 8004a9e:	f414 3f00 	tst.w	r4, #131072	; 0x20000
 8004aa2:	bf0c      	ite	eq
 8004aa4:	403e      	andeq	r6, r7
 8004aa6:	432e      	orrne	r6, r5
 8004aa8:	6056      	str	r6, [r2, #4]
 8004aaa:	6896      	ldr	r6, [r2, #8]
 8004aac:	f414 1f80 	tst.w	r4, #1048576	; 0x100000
 8004ab0:	bf0c      	ite	eq
 8004ab2:	403e      	andeq	r6, r7
 8004ab4:	432e      	orrne	r6, r5
 8004ab6:	6096      	str	r6, [r2, #8]
 8004ab8:	68d6      	ldr	r6, [r2, #12]
 8004aba:	02a4      	lsls	r4, r4, #10
 8004abc:	bf54      	ite	pl
 8004abe:	403e      	andpl	r6, r7
 8004ac0:	432e      	orrmi	r6, r5
 8004ac2:	60d6      	str	r6, [r2, #12]
 8004ac4:	3301      	adds	r3, #1
 8004ac6:	2b10      	cmp	r3, #16
 8004ac8:	f47f af49 	bne.w	800495e <HAL_GPIO_Init+0x16>
 8004acc:	b005      	add	sp, #20
 8004ace:	e8bd 8ff0 	ldmia.w	sp!, {r4, r5, r6, r7, r8, r9, sl, fp, pc}
 8004ad2:	465e      	mov	r6, fp
 8004ad4:	e7d5      	b.n	8004a82 <HAL_GPIO_Init+0x13a>
 8004ad6:	2601      	movs	r6, #1
 8004ad8:	e7d3      	b.n	8004a82 <HAL_GPIO_Init+0x13a>
 8004ada:	2602      	movs	r6, #2
 8004adc:	e7d1      	b.n	8004a82 <HAL_GPIO_Init+0x13a>
 8004ade:	2603      	movs	r6, #3
 8004ae0:	e7cf      	b.n	8004a82 <HAL_GPIO_Init+0x13a>
 8004ae2:	2604      	movs	r6, #4
 8004ae4:	e7cd      	b.n	8004a82 <HAL_GPIO_Init+0x13a>
 8004ae6:	2605      	movs	r6, #5
 8004ae8:	e7cb      	b.n	8004a82 <HAL_GPIO_Init+0x13a>
 8004aea:	bf00      	nop
 8004aec:	40013c00 	.word	0x40013c00
 8004af0:	40020000 	.word	0x40020000
 8004af4:	40023800 	.word	0x40023800
 8004af8:	40021400 	.word	0x40021400

08004afc <HAL_GPIO_WritePin>:
 8004afc:	b10a      	cbz	r2, 8004b02 <HAL_GPIO_WritePin+0x6>
 8004afe:	6181      	str	r1, [r0, #24]
 8004b00:	4770      	bx	lr
 8004b02:	0409      	lsls	r1, r1, #16
 8004b04:	e7fb      	b.n	8004afe <HAL_GPIO_WritePin+0x2>
	...

08004b08 <HAL_PWREx_EnableOverDrive>:
 8004b08:	b537      	push	{r0, r1, r2, r4, r5, lr}
 8004b0a:	2300      	movs	r3, #0
 8004b0c:	9301      	str	r3, [sp, #4]
 8004b0e:	4b18      	ldr	r3, [pc, #96]	; (8004b70 <HAL_PWREx_EnableOverDrive+0x68>)
 8004b10:	4c18      	ldr	r4, [pc, #96]	; (8004b74 <HAL_PWREx_EnableOverDrive+0x6c>)
 8004b12:	6c1a      	ldr	r2, [r3, #64]	; 0x40
 8004b14:	f042 5280 	orr.w	r2, r2, #268435456	; 0x10000000
 8004b18:	641a      	str	r2, [r3, #64]	; 0x40
 8004b1a:	6c1b      	ldr	r3, [r3, #64]	; 0x40
 8004b1c:	f003 5380 	and.w	r3, r3, #268435456	; 0x10000000
 8004b20:	9301      	str	r3, [sp, #4]
 8004b22:	9b01      	ldr	r3, [sp, #4]
 8004b24:	4b14      	ldr	r3, [pc, #80]	; (8004b78 <HAL_PWREx_EnableOverDrive+0x70>)
 8004b26:	2201      	movs	r2, #1
 8004b28:	601a      	str	r2, [r3, #0]
 8004b2a:	f7ff f947 	bl	8003dbc <HAL_GetTick>
 8004b2e:	4605      	mov	r5, r0
 8004b30:	6863      	ldr	r3, [r4, #4]
 8004b32:	03da      	lsls	r2, r3, #15
 8004b34:	d50b      	bpl.n	8004b4e <HAL_PWREx_EnableOverDrive+0x46>
 8004b36:	4b11      	ldr	r3, [pc, #68]	; (8004b7c <HAL_PWREx_EnableOverDrive+0x74>)
 8004b38:	4c0e      	ldr	r4, [pc, #56]	; (8004b74 <HAL_PWREx_EnableOverDrive+0x6c>)
 8004b3a:	2201      	movs	r2, #1
 8004b3c:	601a      	str	r2, [r3, #0]
 8004b3e:	f7ff f93d 	bl	8003dbc <HAL_GetTick>
 8004b42:	4605      	mov	r5, r0
 8004b44:	6863      	ldr	r3, [r4, #4]
 8004b46:	039b      	lsls	r3, r3, #14
 8004b48:	d50a      	bpl.n	8004b60 <HAL_PWREx_EnableOverDrive+0x58>
 8004b4a:	2000      	movs	r0, #0
 8004b4c:	e006      	b.n	8004b5c <HAL_PWREx_EnableOverDrive+0x54>
 8004b4e:	f7ff f935 	bl	8003dbc <HAL_GetTick>
 8004b52:	1b40      	subs	r0, r0, r5
 8004b54:	f5b0 7f7a 	cmp.w	r0, #1000	; 0x3e8
 8004b58:	d9ea      	bls.n	8004b30 <HAL_PWREx_EnableOverDrive+0x28>
 8004b5a:	2003      	movs	r0, #3
 8004b5c:	b003      	add	sp, #12
 8004b5e:	bd30      	pop	{r4, r5, pc}
 8004b60:	f7ff f92c 	bl	8003dbc <HAL_GetTick>
 8004b64:	1b40      	subs	r0, r0, r5
 8004b66:	f5b0 7f7a 	cmp.w	r0, #1000	; 0x3e8
 8004b6a:	d9eb      	bls.n	8004b44 <HAL_PWREx_EnableOverDrive+0x3c>
 8004b6c:	e7f5      	b.n	8004b5a <HAL_PWREx_EnableOverDrive+0x52>
 8004b6e:	bf00      	nop
 8004b70:	40023800 	.word	0x40023800
 8004b74:	40007000 	.word	0x40007000
 8004b78:	420e0040 	.word	0x420e0040
 8004b7c:	420e0044 	.word	0x420e0044

08004b80 <HAL_RCC_ClockConfig>:
 8004b80:	e92d 41f0 	stmdb	sp!, {r4, r5, r6, r7, r8, lr}
 8004b84:	460d      	mov	r5, r1
 8004b86:	4604      	mov	r4, r0
 8004b88:	b910      	cbnz	r0, 8004b90 <HAL_RCC_ClockConfig+0x10>
 8004b8a:	2001      	movs	r0, #1
 8004b8c:	e8bd 81f0 	ldmia.w	sp!, {r4, r5, r6, r7, r8, pc}
 8004b90:	4b43      	ldr	r3, [pc, #268]	; (8004ca0 <HAL_RCC_ClockConfig+0x120>)
 8004b92:	681a      	ldr	r2, [r3, #0]
 8004b94:	f002 020f 	and.w	r2, r2, #15
 8004b98:	428a      	cmp	r2, r1
 8004b9a:	d328      	bcc.n	8004bee <HAL_RCC_ClockConfig+0x6e>
 8004b9c:	6821      	ldr	r1, [r4, #0]
 8004b9e:	078f      	lsls	r7, r1, #30
 8004ba0:	d42d      	bmi.n	8004bfe <HAL_RCC_ClockConfig+0x7e>
 8004ba2:	07c8      	lsls	r0, r1, #31
 8004ba4:	d440      	bmi.n	8004c28 <HAL_RCC_ClockConfig+0xa8>
 8004ba6:	4b3e      	ldr	r3, [pc, #248]	; (8004ca0 <HAL_RCC_ClockConfig+0x120>)
 8004ba8:	681a      	ldr	r2, [r3, #0]
 8004baa:	f002 020f 	and.w	r2, r2, #15
 8004bae:	42aa      	cmp	r2, r5
 8004bb0:	d865      	bhi.n	8004c7e <HAL_RCC_ClockConfig+0xfe>
 8004bb2:	6822      	ldr	r2, [r4, #0]
 8004bb4:	0751      	lsls	r1, r2, #29
 8004bb6:	d46b      	bmi.n	8004c90 <HAL_RCC_ClockConfig+0x110>
 8004bb8:	0713      	lsls	r3, r2, #28
 8004bba:	d507      	bpl.n	8004bcc <HAL_RCC_ClockConfig+0x4c>
 8004bbc:	4a39      	ldr	r2, [pc, #228]	; (8004ca4 <HAL_RCC_ClockConfig+0x124>)
 8004bbe:	6921      	ldr	r1, [r4, #16]
 8004bc0:	6893      	ldr	r3, [r2, #8]
 8004bc2:	f423 4360 	bic.w	r3, r3, #57344	; 0xe000
 8004bc6:	ea43 03c1 	orr.w	r3, r3, r1, lsl #3
 8004bca:	6093      	str	r3, [r2, #8]
 8004bcc:	f000 f892 	bl	8004cf4 <HAL_RCC_GetSysClockFreq>
 8004bd0:	4b34      	ldr	r3, [pc, #208]	; (8004ca4 <HAL_RCC_ClockConfig+0x124>)
 8004bd2:	4a35      	ldr	r2, [pc, #212]	; (8004ca8 <HAL_RCC_ClockConfig+0x128>)
 8004bd4:	689b      	ldr	r3, [r3, #8]
 8004bd6:	f3c3 1303 	ubfx	r3, r3, #4, #4
 8004bda:	5cd3      	ldrb	r3, [r2, r3]
 8004bdc:	40d8      	lsrs	r0, r3
 8004bde:	4b33      	ldr	r3, [pc, #204]	; (8004cac <HAL_RCC_ClockConfig+0x12c>)
 8004be0:	6018      	str	r0, [r3, #0]
 8004be2:	4b33      	ldr	r3, [pc, #204]	; (8004cb0 <HAL_RCC_ClockConfig+0x130>)
 8004be4:	6818      	ldr	r0, [r3, #0]
 8004be6:	f7ff f89f 	bl	8003d28 <HAL_InitTick>
 8004bea:	2000      	movs	r0, #0
 8004bec:	e7ce      	b.n	8004b8c <HAL_RCC_ClockConfig+0xc>
 8004bee:	b2ca      	uxtb	r2, r1
 8004bf0:	701a      	strb	r2, [r3, #0]
 8004bf2:	681b      	ldr	r3, [r3, #0]
 8004bf4:	f003 030f 	and.w	r3, r3, #15
 8004bf8:	428b      	cmp	r3, r1
 8004bfa:	d1c6      	bne.n	8004b8a <HAL_RCC_ClockConfig+0xa>
 8004bfc:	e7ce      	b.n	8004b9c <HAL_RCC_ClockConfig+0x1c>
 8004bfe:	4b29      	ldr	r3, [pc, #164]	; (8004ca4 <HAL_RCC_ClockConfig+0x124>)
 8004c00:	f011 0f04 	tst.w	r1, #4
 8004c04:	bf1e      	ittt	ne
 8004c06:	689a      	ldrne	r2, [r3, #8]
 8004c08:	f442 52e0 	orrne.w	r2, r2, #7168	; 0x1c00
 8004c0c:	609a      	strne	r2, [r3, #8]
 8004c0e:	070e      	lsls	r6, r1, #28
 8004c10:	bf42      	ittt	mi
 8004c12:	689a      	ldrmi	r2, [r3, #8]
 8004c14:	f442 4260 	orrmi.w	r2, r2, #57344	; 0xe000
 8004c18:	609a      	strmi	r2, [r3, #8]
 8004c1a:	689a      	ldr	r2, [r3, #8]
 8004c1c:	68a0      	ldr	r0, [r4, #8]
 8004c1e:	f022 02f0 	bic.w	r2, r2, #240	; 0xf0
 8004c22:	4302      	orrs	r2, r0
 8004c24:	609a      	str	r2, [r3, #8]
 8004c26:	e7bc      	b.n	8004ba2 <HAL_RCC_ClockConfig+0x22>
 8004c28:	6862      	ldr	r2, [r4, #4]
 8004c2a:	4b1e      	ldr	r3, [pc, #120]	; (8004ca4 <HAL_RCC_ClockConfig+0x124>)
 8004c2c:	2a01      	cmp	r2, #1
 8004c2e:	d11c      	bne.n	8004c6a <HAL_RCC_ClockConfig+0xea>
 8004c30:	681b      	ldr	r3, [r3, #0]
 8004c32:	f413 3f00 	tst.w	r3, #131072	; 0x20000
 8004c36:	d0a8      	beq.n	8004b8a <HAL_RCC_ClockConfig+0xa>
 8004c38:	4e1a      	ldr	r6, [pc, #104]	; (8004ca4 <HAL_RCC_ClockConfig+0x124>)
 8004c3a:	68b3      	ldr	r3, [r6, #8]
 8004c3c:	f023 0303 	bic.w	r3, r3, #3
 8004c40:	4313      	orrs	r3, r2
 8004c42:	60b3      	str	r3, [r6, #8]
 8004c44:	f7ff f8ba 	bl	8003dbc <HAL_GetTick>
 8004c48:	f241 3888 	movw	r8, #5000	; 0x1388
 8004c4c:	4607      	mov	r7, r0
 8004c4e:	68b3      	ldr	r3, [r6, #8]
 8004c50:	6862      	ldr	r2, [r4, #4]
 8004c52:	f003 030c 	and.w	r3, r3, #12
 8004c56:	ebb3 0f82 	cmp.w	r3, r2, lsl #2
 8004c5a:	d0a4      	beq.n	8004ba6 <HAL_RCC_ClockConfig+0x26>
 8004c5c:	f7ff f8ae 	bl	8003dbc <HAL_GetTick>
 8004c60:	1bc0      	subs	r0, r0, r7
 8004c62:	4540      	cmp	r0, r8
 8004c64:	d9f3      	bls.n	8004c4e <HAL_RCC_ClockConfig+0xce>
 8004c66:	2003      	movs	r0, #3
 8004c68:	e790      	b.n	8004b8c <HAL_RCC_ClockConfig+0xc>
 8004c6a:	1e91      	subs	r1, r2, #2
 8004c6c:	2901      	cmp	r1, #1
 8004c6e:	681b      	ldr	r3, [r3, #0]
 8004c70:	d802      	bhi.n	8004c78 <HAL_RCC_ClockConfig+0xf8>
 8004c72:	f013 7f00 	tst.w	r3, #33554432	; 0x2000000
 8004c76:	e7de      	b.n	8004c36 <HAL_RCC_ClockConfig+0xb6>
 8004c78:	f013 0f02 	tst.w	r3, #2
 8004c7c:	e7db      	b.n	8004c36 <HAL_RCC_ClockConfig+0xb6>
 8004c7e:	b2ea      	uxtb	r2, r5
 8004c80:	701a      	strb	r2, [r3, #0]
 8004c82:	681b      	ldr	r3, [r3, #0]
 8004c84:	f003 030f 	and.w	r3, r3, #15
 8004c88:	42ab      	cmp	r3, r5
 8004c8a:	f47f af7e 	bne.w	8004b8a <HAL_RCC_ClockConfig+0xa>
 8004c8e:	e790      	b.n	8004bb2 <HAL_RCC_ClockConfig+0x32>
 8004c90:	4904      	ldr	r1, [pc, #16]	; (8004ca4 <HAL_RCC_ClockConfig+0x124>)
 8004c92:	68e0      	ldr	r0, [r4, #12]
 8004c94:	688b      	ldr	r3, [r1, #8]
 8004c96:	f423 53e0 	bic.w	r3, r3, #7168	; 0x1c00
 8004c9a:	4303      	orrs	r3, r0
 8004c9c:	608b      	str	r3, [r1, #8]
 8004c9e:	e78b      	b.n	8004bb8 <HAL_RCC_ClockConfig+0x38>
 8004ca0:	40023c00 	.word	0x40023c00
 8004ca4:	40023800 	.word	0x40023800
 8004ca8:	0800d0c6 	.word	0x0800d0c6
 8004cac:	20000000 	.word	0x20000000
 8004cb0:	20000008 	.word	0x20000008

08004cb4 <HAL_RCC_GetPCLK1Freq>:
 8004cb4:	4b04      	ldr	r3, [pc, #16]	; (8004cc8 <HAL_RCC_GetPCLK1Freq+0x14>)
 8004cb6:	4a05      	ldr	r2, [pc, #20]	; (8004ccc <HAL_RCC_GetPCLK1Freq+0x18>)
 8004cb8:	689b      	ldr	r3, [r3, #8]
 8004cba:	f3c3 2382 	ubfx	r3, r3, #10, #3
 8004cbe:	5cd3      	ldrb	r3, [r2, r3]
 8004cc0:	4a03      	ldr	r2, [pc, #12]	; (8004cd0 <HAL_RCC_GetPCLK1Freq+0x1c>)
 8004cc2:	6810      	ldr	r0, [r2, #0]
 8004cc4:	40d8      	lsrs	r0, r3
 8004cc6:	4770      	bx	lr
 8004cc8:	40023800 	.word	0x40023800
 8004ccc:	0800d0d6 	.word	0x0800d0d6
 8004cd0:	20000000 	.word	0x20000000

08004cd4 <HAL_RCC_GetPCLK2Freq>:
 8004cd4:	4b04      	ldr	r3, [pc, #16]	; (8004ce8 <HAL_RCC_GetPCLK2Freq+0x14>)
 8004cd6:	4a05      	ldr	r2, [pc, #20]	; (8004cec <HAL_RCC_GetPCLK2Freq+0x18>)
 8004cd8:	689b      	ldr	r3, [r3, #8]
 8004cda:	f3c3 3342 	ubfx	r3, r3, #13, #3
 8004cde:	5cd3      	ldrb	r3, [r2, r3]
 8004ce0:	4a03      	ldr	r2, [pc, #12]	; (8004cf0 <HAL_RCC_GetPCLK2Freq+0x1c>)
 8004ce2:	6810      	ldr	r0, [r2, #0]
 8004ce4:	40d8      	lsrs	r0, r3
 8004ce6:	4770      	bx	lr
 8004ce8:	40023800 	.word	0x40023800
 8004cec:	0800d0d6 	.word	0x0800d0d6
 8004cf0:	20000000 	.word	0x20000000

08004cf4 <HAL_RCC_GetSysClockFreq>:
 8004cf4:	4920      	ldr	r1, [pc, #128]	; (8004d78 <HAL_RCC_GetSysClockFreq+0x84>)
 8004cf6:	b508      	push	{r3, lr}
 8004cf8:	688b      	ldr	r3, [r1, #8]
 8004cfa:	f003 030c 	and.w	r3, r3, #12
 8004cfe:	2b08      	cmp	r3, #8
 8004d00:	d007      	beq.n	8004d12 <HAL_RCC_GetSysClockFreq+0x1e>
 8004d02:	2b0c      	cmp	r3, #12
 8004d04:	d020      	beq.n	8004d48 <HAL_RCC_GetSysClockFreq+0x54>
 8004d06:	481d      	ldr	r0, [pc, #116]	; (8004d7c <HAL_RCC_GetSysClockFreq+0x88>)
 8004d08:	4a1d      	ldr	r2, [pc, #116]	; (8004d80 <HAL_RCC_GetSysClockFreq+0x8c>)
 8004d0a:	2b04      	cmp	r3, #4
 8004d0c:	bf18      	it	ne
 8004d0e:	4610      	movne	r0, r2
 8004d10:	bd08      	pop	{r3, pc}
 8004d12:	684a      	ldr	r2, [r1, #4]
 8004d14:	684b      	ldr	r3, [r1, #4]
 8004d16:	6849      	ldr	r1, [r1, #4]
 8004d18:	f413 0380 	ands.w	r3, r3, #4194304	; 0x400000
 8004d1c:	bf14      	ite	ne
 8004d1e:	4817      	ldrne	r0, [pc, #92]	; (8004d7c <HAL_RCC_GetSysClockFreq+0x88>)
 8004d20:	4817      	ldreq	r0, [pc, #92]	; (8004d80 <HAL_RCC_GetSysClockFreq+0x8c>)
 8004d22:	f3c1 1188 	ubfx	r1, r1, #6, #9
 8004d26:	bf18      	it	ne
 8004d28:	2300      	movne	r3, #0
 8004d2a:	f002 023f 	and.w	r2, r2, #63	; 0x3f
 8004d2e:	fba1 0100 	umull	r0, r1, r1, r0
 8004d32:	f7fb ffc9 	bl	8000cc8 <__aeabi_uldivmod>
 8004d36:	4b10      	ldr	r3, [pc, #64]	; (8004d78 <HAL_RCC_GetSysClockFreq+0x84>)
 8004d38:	685b      	ldr	r3, [r3, #4]
 8004d3a:	f3c3 4301 	ubfx	r3, r3, #16, #2
 8004d3e:	3301      	adds	r3, #1
 8004d40:	005b      	lsls	r3, r3, #1
 8004d42:	fbb0 f0f3 	udiv	r0, r0, r3
 8004d46:	e7e3      	b.n	8004d10 <HAL_RCC_GetSysClockFreq+0x1c>
 8004d48:	684a      	ldr	r2, [r1, #4]
 8004d4a:	684b      	ldr	r3, [r1, #4]
 8004d4c:	6849      	ldr	r1, [r1, #4]
 8004d4e:	f413 0380 	ands.w	r3, r3, #4194304	; 0x400000
 8004d52:	bf14      	ite	ne
 8004d54:	4809      	ldrne	r0, [pc, #36]	; (8004d7c <HAL_RCC_GetSysClockFreq+0x88>)
 8004d56:	480a      	ldreq	r0, [pc, #40]	; (8004d80 <HAL_RCC_GetSysClockFreq+0x8c>)
 8004d58:	f3c1 1188 	ubfx	r1, r1, #6, #9
 8004d5c:	bf18      	it	ne
 8004d5e:	2300      	movne	r3, #0
 8004d60:	f002 023f 	and.w	r2, r2, #63	; 0x3f
 8004d64:	fba1 0100 	umull	r0, r1, r1, r0
 8004d68:	f7fb ffae 	bl	8000cc8 <__aeabi_uldivmod>
 8004d6c:	4b02      	ldr	r3, [pc, #8]	; (8004d78 <HAL_RCC_GetSysClockFreq+0x84>)
 8004d6e:	685b      	ldr	r3, [r3, #4]
 8004d70:	f3c3 7302 	ubfx	r3, r3, #28, #3
 8004d74:	e7e5      	b.n	8004d42 <HAL_RCC_GetSysClockFreq+0x4e>
 8004d76:	bf00      	nop
 8004d78:	40023800 	.word	0x40023800
 8004d7c:	007a1200 	.word	0x007a1200
 8004d80:	00f42400 	.word	0x00f42400

08004d84 <HAL_RCC_OscConfig>:
 8004d84:	6803      	ldr	r3, [r0, #0]
 8004d86:	e92d 41f3 	stmdb	sp!, {r0, r1, r4, r5, r6, r7, r8, lr}
 8004d8a:	07df      	lsls	r7, r3, #31
 8004d8c:	4604      	mov	r4, r0
 8004d8e:	d410      	bmi.n	8004db2 <HAL_RCC_OscConfig+0x2e>
 8004d90:	6823      	ldr	r3, [r4, #0]
 8004d92:	079e      	lsls	r6, r3, #30
 8004d94:	d467      	bmi.n	8004e66 <HAL_RCC_OscConfig+0xe2>
 8004d96:	6823      	ldr	r3, [r4, #0]
 8004d98:	071a      	lsls	r2, r3, #28
 8004d9a:	f100 80b2 	bmi.w	8004f02 <HAL_RCC_OscConfig+0x17e>
 8004d9e:	6823      	ldr	r3, [r4, #0]
 8004da0:	075b      	lsls	r3, r3, #29
 8004da2:	f100 80d0 	bmi.w	8004f46 <HAL_RCC_OscConfig+0x1c2>
 8004da6:	69a2      	ldr	r2, [r4, #24]
 8004da8:	2a00      	cmp	r2, #0
 8004daa:	f040 8139 	bne.w	8005020 <HAL_RCC_OscConfig+0x29c>
 8004dae:	2000      	movs	r0, #0
 8004db0:	e01e      	b.n	8004df0 <HAL_RCC_OscConfig+0x6c>
 8004db2:	4b97      	ldr	r3, [pc, #604]	; (8005010 <HAL_RCC_OscConfig+0x28c>)
 8004db4:	689a      	ldr	r2, [r3, #8]
 8004db6:	f002 020c 	and.w	r2, r2, #12
 8004dba:	2a04      	cmp	r2, #4
 8004dbc:	d010      	beq.n	8004de0 <HAL_RCC_OscConfig+0x5c>
 8004dbe:	689a      	ldr	r2, [r3, #8]
 8004dc0:	f002 020c 	and.w	r2, r2, #12
 8004dc4:	2a08      	cmp	r2, #8
 8004dc6:	d102      	bne.n	8004dce <HAL_RCC_OscConfig+0x4a>
 8004dc8:	685b      	ldr	r3, [r3, #4]
 8004dca:	025d      	lsls	r5, r3, #9
 8004dcc:	d408      	bmi.n	8004de0 <HAL_RCC_OscConfig+0x5c>
 8004dce:	4b90      	ldr	r3, [pc, #576]	; (8005010 <HAL_RCC_OscConfig+0x28c>)
 8004dd0:	689a      	ldr	r2, [r3, #8]
 8004dd2:	f002 020c 	and.w	r2, r2, #12
 8004dd6:	2a0c      	cmp	r2, #12
 8004dd8:	d10d      	bne.n	8004df6 <HAL_RCC_OscConfig+0x72>
 8004dda:	685a      	ldr	r2, [r3, #4]
 8004ddc:	0250      	lsls	r0, r2, #9
 8004dde:	d50a      	bpl.n	8004df6 <HAL_RCC_OscConfig+0x72>
 8004de0:	4b8b      	ldr	r3, [pc, #556]	; (8005010 <HAL_RCC_OscConfig+0x28c>)
 8004de2:	681b      	ldr	r3, [r3, #0]
 8004de4:	0399      	lsls	r1, r3, #14
 8004de6:	d5d3      	bpl.n	8004d90 <HAL_RCC_OscConfig+0xc>
 8004de8:	6863      	ldr	r3, [r4, #4]
 8004dea:	2b00      	cmp	r3, #0
 8004dec:	d1d0      	bne.n	8004d90 <HAL_RCC_OscConfig+0xc>
 8004dee:	2001      	movs	r0, #1
 8004df0:	b002      	add	sp, #8
 8004df2:	e8bd 81f0 	ldmia.w	sp!, {r4, r5, r6, r7, r8, pc}
 8004df6:	6862      	ldr	r2, [r4, #4]
 8004df8:	f5b2 3f80 	cmp.w	r2, #65536	; 0x10000
 8004dfc:	d111      	bne.n	8004e22 <HAL_RCC_OscConfig+0x9e>
 8004dfe:	681a      	ldr	r2, [r3, #0]
 8004e00:	f442 3280 	orr.w	r2, r2, #65536	; 0x10000
 8004e04:	601a      	str	r2, [r3, #0]
 8004e06:	f7fe ffd9 	bl	8003dbc <HAL_GetTick>
 8004e0a:	4d81      	ldr	r5, [pc, #516]	; (8005010 <HAL_RCC_OscConfig+0x28c>)
 8004e0c:	4606      	mov	r6, r0
 8004e0e:	682b      	ldr	r3, [r5, #0]
 8004e10:	039a      	lsls	r2, r3, #14
 8004e12:	d4bd      	bmi.n	8004d90 <HAL_RCC_OscConfig+0xc>
 8004e14:	f7fe ffd2 	bl	8003dbc <HAL_GetTick>
 8004e18:	1b80      	subs	r0, r0, r6
 8004e1a:	2864      	cmp	r0, #100	; 0x64
 8004e1c:	d9f7      	bls.n	8004e0e <HAL_RCC_OscConfig+0x8a>
 8004e1e:	2003      	movs	r0, #3
 8004e20:	e7e6      	b.n	8004df0 <HAL_RCC_OscConfig+0x6c>
 8004e22:	4d7b      	ldr	r5, [pc, #492]	; (8005010 <HAL_RCC_OscConfig+0x28c>)
 8004e24:	f5b2 2fa0 	cmp.w	r2, #327680	; 0x50000
 8004e28:	682b      	ldr	r3, [r5, #0]
 8004e2a:	d107      	bne.n	8004e3c <HAL_RCC_OscConfig+0xb8>
 8004e2c:	f443 2380 	orr.w	r3, r3, #262144	; 0x40000
 8004e30:	602b      	str	r3, [r5, #0]
 8004e32:	682b      	ldr	r3, [r5, #0]
 8004e34:	f443 3380 	orr.w	r3, r3, #65536	; 0x10000
 8004e38:	602b      	str	r3, [r5, #0]
 8004e3a:	e7e4      	b.n	8004e06 <HAL_RCC_OscConfig+0x82>
 8004e3c:	f423 3380 	bic.w	r3, r3, #65536	; 0x10000
 8004e40:	602b      	str	r3, [r5, #0]
 8004e42:	682b      	ldr	r3, [r5, #0]
 8004e44:	f423 2380 	bic.w	r3, r3, #262144	; 0x40000
 8004e48:	602b      	str	r3, [r5, #0]
 8004e4a:	2a00      	cmp	r2, #0
 8004e4c:	d1db      	bne.n	8004e06 <HAL_RCC_OscConfig+0x82>
 8004e4e:	f7fe ffb5 	bl	8003dbc <HAL_GetTick>
 8004e52:	4606      	mov	r6, r0
 8004e54:	682b      	ldr	r3, [r5, #0]
 8004e56:	039b      	lsls	r3, r3, #14
 8004e58:	d59a      	bpl.n	8004d90 <HAL_RCC_OscConfig+0xc>
 8004e5a:	f7fe ffaf 	bl	8003dbc <HAL_GetTick>
 8004e5e:	1b80      	subs	r0, r0, r6
 8004e60:	2864      	cmp	r0, #100	; 0x64
 8004e62:	d9f7      	bls.n	8004e54 <HAL_RCC_OscConfig+0xd0>
 8004e64:	e7db      	b.n	8004e1e <HAL_RCC_OscConfig+0x9a>
 8004e66:	4b6a      	ldr	r3, [pc, #424]	; (8005010 <HAL_RCC_OscConfig+0x28c>)
 8004e68:	689a      	ldr	r2, [r3, #8]
 8004e6a:	f012 0f0c 	tst.w	r2, #12
 8004e6e:	d010      	beq.n	8004e92 <HAL_RCC_OscConfig+0x10e>
 8004e70:	689a      	ldr	r2, [r3, #8]
 8004e72:	f002 020c 	and.w	r2, r2, #12
 8004e76:	2a08      	cmp	r2, #8
 8004e78:	d102      	bne.n	8004e80 <HAL_RCC_OscConfig+0xfc>
 8004e7a:	685b      	ldr	r3, [r3, #4]
 8004e7c:	025f      	lsls	r7, r3, #9
 8004e7e:	d508      	bpl.n	8004e92 <HAL_RCC_OscConfig+0x10e>
 8004e80:	4a63      	ldr	r2, [pc, #396]	; (8005010 <HAL_RCC_OscConfig+0x28c>)
 8004e82:	6893      	ldr	r3, [r2, #8]
 8004e84:	f003 030c 	and.w	r3, r3, #12
 8004e88:	2b0c      	cmp	r3, #12
 8004e8a:	d111      	bne.n	8004eb0 <HAL_RCC_OscConfig+0x12c>
 8004e8c:	6853      	ldr	r3, [r2, #4]
 8004e8e:	025e      	lsls	r6, r3, #9
 8004e90:	d40e      	bmi.n	8004eb0 <HAL_RCC_OscConfig+0x12c>
 8004e92:	4b5f      	ldr	r3, [pc, #380]	; (8005010 <HAL_RCC_OscConfig+0x28c>)
 8004e94:	681a      	ldr	r2, [r3, #0]
 8004e96:	0795      	lsls	r5, r2, #30
 8004e98:	d502      	bpl.n	8004ea0 <HAL_RCC_OscConfig+0x11c>
 8004e9a:	68e2      	ldr	r2, [r4, #12]
 8004e9c:	2a01      	cmp	r2, #1
 8004e9e:	d1a6      	bne.n	8004dee <HAL_RCC_OscConfig+0x6a>
 8004ea0:	681a      	ldr	r2, [r3, #0]
 8004ea2:	6921      	ldr	r1, [r4, #16]
 8004ea4:	f022 02f8 	bic.w	r2, r2, #248	; 0xf8
 8004ea8:	ea42 02c1 	orr.w	r2, r2, r1, lsl #3
 8004eac:	601a      	str	r2, [r3, #0]
 8004eae:	e772      	b.n	8004d96 <HAL_RCC_OscConfig+0x12>
 8004eb0:	68e2      	ldr	r2, [r4, #12]
 8004eb2:	4b58      	ldr	r3, [pc, #352]	; (8005014 <HAL_RCC_OscConfig+0x290>)
 8004eb4:	b1b2      	cbz	r2, 8004ee4 <HAL_RCC_OscConfig+0x160>
 8004eb6:	2201      	movs	r2, #1
 8004eb8:	601a      	str	r2, [r3, #0]
 8004eba:	f7fe ff7f 	bl	8003dbc <HAL_GetTick>
 8004ebe:	4d54      	ldr	r5, [pc, #336]	; (8005010 <HAL_RCC_OscConfig+0x28c>)
 8004ec0:	4606      	mov	r6, r0
 8004ec2:	682b      	ldr	r3, [r5, #0]
 8004ec4:	0798      	lsls	r0, r3, #30
 8004ec6:	d507      	bpl.n	8004ed8 <HAL_RCC_OscConfig+0x154>
 8004ec8:	682b      	ldr	r3, [r5, #0]
 8004eca:	6922      	ldr	r2, [r4, #16]
 8004ecc:	f023 03f8 	bic.w	r3, r3, #248	; 0xf8
 8004ed0:	ea43 03c2 	orr.w	r3, r3, r2, lsl #3
 8004ed4:	602b      	str	r3, [r5, #0]
 8004ed6:	e75e      	b.n	8004d96 <HAL_RCC_OscConfig+0x12>
 8004ed8:	f7fe ff70 	bl	8003dbc <HAL_GetTick>
 8004edc:	1b80      	subs	r0, r0, r6
 8004ede:	2802      	cmp	r0, #2
 8004ee0:	d9ef      	bls.n	8004ec2 <HAL_RCC_OscConfig+0x13e>
 8004ee2:	e79c      	b.n	8004e1e <HAL_RCC_OscConfig+0x9a>
 8004ee4:	601a      	str	r2, [r3, #0]
 8004ee6:	f7fe ff69 	bl	8003dbc <HAL_GetTick>
 8004eea:	4d49      	ldr	r5, [pc, #292]	; (8005010 <HAL_RCC_OscConfig+0x28c>)
 8004eec:	4606      	mov	r6, r0
 8004eee:	682b      	ldr	r3, [r5, #0]
 8004ef0:	0799      	lsls	r1, r3, #30
 8004ef2:	f57f af50 	bpl.w	8004d96 <HAL_RCC_OscConfig+0x12>
 8004ef6:	f7fe ff61 	bl	8003dbc <HAL_GetTick>
 8004efa:	1b80      	subs	r0, r0, r6
 8004efc:	2802      	cmp	r0, #2
 8004efe:	d9f6      	bls.n	8004eee <HAL_RCC_OscConfig+0x16a>
 8004f00:	e78d      	b.n	8004e1e <HAL_RCC_OscConfig+0x9a>
 8004f02:	6962      	ldr	r2, [r4, #20]
 8004f04:	4b44      	ldr	r3, [pc, #272]	; (8005018 <HAL_RCC_OscConfig+0x294>)
 8004f06:	b17a      	cbz	r2, 8004f28 <HAL_RCC_OscConfig+0x1a4>
 8004f08:	2201      	movs	r2, #1
 8004f0a:	601a      	str	r2, [r3, #0]
 8004f0c:	f7fe ff56 	bl	8003dbc <HAL_GetTick>
 8004f10:	4d3f      	ldr	r5, [pc, #252]	; (8005010 <HAL_RCC_OscConfig+0x28c>)
 8004f12:	4606      	mov	r6, r0
 8004f14:	6f6b      	ldr	r3, [r5, #116]	; 0x74
 8004f16:	079f      	lsls	r7, r3, #30
 8004f18:	f53f af41 	bmi.w	8004d9e <HAL_RCC_OscConfig+0x1a>
 8004f1c:	f7fe ff4e 	bl	8003dbc <HAL_GetTick>
 8004f20:	1b80      	subs	r0, r0, r6
 8004f22:	2802      	cmp	r0, #2
 8004f24:	d9f6      	bls.n	8004f14 <HAL_RCC_OscConfig+0x190>
 8004f26:	e77a      	b.n	8004e1e <HAL_RCC_OscConfig+0x9a>
 8004f28:	601a      	str	r2, [r3, #0]
 8004f2a:	f7fe ff47 	bl	8003dbc <HAL_GetTick>
 8004f2e:	4d38      	ldr	r5, [pc, #224]	; (8005010 <HAL_RCC_OscConfig+0x28c>)
 8004f30:	4606      	mov	r6, r0
 8004f32:	6f6b      	ldr	r3, [r5, #116]	; 0x74
 8004f34:	0798      	lsls	r0, r3, #30
 8004f36:	f57f af32 	bpl.w	8004d9e <HAL_RCC_OscConfig+0x1a>
 8004f3a:	f7fe ff3f 	bl	8003dbc <HAL_GetTick>
 8004f3e:	1b80      	subs	r0, r0, r6
 8004f40:	2802      	cmp	r0, #2
 8004f42:	d9f6      	bls.n	8004f32 <HAL_RCC_OscConfig+0x1ae>
 8004f44:	e76b      	b.n	8004e1e <HAL_RCC_OscConfig+0x9a>
 8004f46:	4b32      	ldr	r3, [pc, #200]	; (8005010 <HAL_RCC_OscConfig+0x28c>)
 8004f48:	6c1a      	ldr	r2, [r3, #64]	; 0x40
 8004f4a:	f012 5280 	ands.w	r2, r2, #268435456	; 0x10000000
 8004f4e:	d128      	bne.n	8004fa2 <HAL_RCC_OscConfig+0x21e>
 8004f50:	9201      	str	r2, [sp, #4]
 8004f52:	6c1a      	ldr	r2, [r3, #64]	; 0x40
 8004f54:	f042 5280 	orr.w	r2, r2, #268435456	; 0x10000000
 8004f58:	641a      	str	r2, [r3, #64]	; 0x40
 8004f5a:	6c1b      	ldr	r3, [r3, #64]	; 0x40
 8004f5c:	f003 5380 	and.w	r3, r3, #268435456	; 0x10000000
 8004f60:	9301      	str	r3, [sp, #4]
 8004f62:	9b01      	ldr	r3, [sp, #4]
 8004f64:	2601      	movs	r6, #1
 8004f66:	4d2d      	ldr	r5, [pc, #180]	; (800501c <HAL_RCC_OscConfig+0x298>)
 8004f68:	682b      	ldr	r3, [r5, #0]
 8004f6a:	05d9      	lsls	r1, r3, #23
 8004f6c:	d51b      	bpl.n	8004fa6 <HAL_RCC_OscConfig+0x222>
 8004f6e:	68a3      	ldr	r3, [r4, #8]
 8004f70:	4d27      	ldr	r5, [pc, #156]	; (8005010 <HAL_RCC_OscConfig+0x28c>)
 8004f72:	2b01      	cmp	r3, #1
 8004f74:	d127      	bne.n	8004fc6 <HAL_RCC_OscConfig+0x242>
 8004f76:	6f2b      	ldr	r3, [r5, #112]	; 0x70
 8004f78:	f043 0301 	orr.w	r3, r3, #1
 8004f7c:	672b      	str	r3, [r5, #112]	; 0x70
 8004f7e:	f7fe ff1d 	bl	8003dbc <HAL_GetTick>
 8004f82:	4d23      	ldr	r5, [pc, #140]	; (8005010 <HAL_RCC_OscConfig+0x28c>)
 8004f84:	4607      	mov	r7, r0
 8004f86:	f241 3888 	movw	r8, #5000	; 0x1388
 8004f8a:	6f2b      	ldr	r3, [r5, #112]	; 0x70
 8004f8c:	079b      	lsls	r3, r3, #30
 8004f8e:	d539      	bpl.n	8005004 <HAL_RCC_OscConfig+0x280>
 8004f90:	2e00      	cmp	r6, #0
 8004f92:	f43f af08 	beq.w	8004da6 <HAL_RCC_OscConfig+0x22>
 8004f96:	4a1e      	ldr	r2, [pc, #120]	; (8005010 <HAL_RCC_OscConfig+0x28c>)
 8004f98:	6c13      	ldr	r3, [r2, #64]	; 0x40
 8004f9a:	f023 5380 	bic.w	r3, r3, #268435456	; 0x10000000
 8004f9e:	6413      	str	r3, [r2, #64]	; 0x40
 8004fa0:	e701      	b.n	8004da6 <HAL_RCC_OscConfig+0x22>
 8004fa2:	2600      	movs	r6, #0
 8004fa4:	e7df      	b.n	8004f66 <HAL_RCC_OscConfig+0x1e2>
 8004fa6:	682b      	ldr	r3, [r5, #0]
 8004fa8:	f443 7380 	orr.w	r3, r3, #256	; 0x100
 8004fac:	602b      	str	r3, [r5, #0]
 8004fae:	f7fe ff05 	bl	8003dbc <HAL_GetTick>
 8004fb2:	4607      	mov	r7, r0
 8004fb4:	682b      	ldr	r3, [r5, #0]
 8004fb6:	05da      	lsls	r2, r3, #23
 8004fb8:	d4d9      	bmi.n	8004f6e <HAL_RCC_OscConfig+0x1ea>
 8004fba:	f7fe feff 	bl	8003dbc <HAL_GetTick>
 8004fbe:	1bc0      	subs	r0, r0, r7
 8004fc0:	2802      	cmp	r0, #2
 8004fc2:	d9f7      	bls.n	8004fb4 <HAL_RCC_OscConfig+0x230>
 8004fc4:	e72b      	b.n	8004e1e <HAL_RCC_OscConfig+0x9a>
 8004fc6:	2b05      	cmp	r3, #5
 8004fc8:	d104      	bne.n	8004fd4 <HAL_RCC_OscConfig+0x250>
 8004fca:	6f2b      	ldr	r3, [r5, #112]	; 0x70
 8004fcc:	f043 0304 	orr.w	r3, r3, #4
 8004fd0:	672b      	str	r3, [r5, #112]	; 0x70
 8004fd2:	e7d0      	b.n	8004f76 <HAL_RCC_OscConfig+0x1f2>
 8004fd4:	6f2a      	ldr	r2, [r5, #112]	; 0x70
 8004fd6:	f022 0201 	bic.w	r2, r2, #1
 8004fda:	672a      	str	r2, [r5, #112]	; 0x70
 8004fdc:	6f2a      	ldr	r2, [r5, #112]	; 0x70
 8004fde:	f022 0204 	bic.w	r2, r2, #4
 8004fe2:	672a      	str	r2, [r5, #112]	; 0x70
 8004fe4:	2b00      	cmp	r3, #0
 8004fe6:	d1ca      	bne.n	8004f7e <HAL_RCC_OscConfig+0x1fa>
 8004fe8:	f7fe fee8 	bl	8003dbc <HAL_GetTick>
 8004fec:	f241 3888 	movw	r8, #5000	; 0x1388
 8004ff0:	4607      	mov	r7, r0
 8004ff2:	6f2b      	ldr	r3, [r5, #112]	; 0x70
 8004ff4:	0798      	lsls	r0, r3, #30
 8004ff6:	d5cb      	bpl.n	8004f90 <HAL_RCC_OscConfig+0x20c>
 8004ff8:	f7fe fee0 	bl	8003dbc <HAL_GetTick>
 8004ffc:	1bc0      	subs	r0, r0, r7
 8004ffe:	4540      	cmp	r0, r8
 8005000:	d9f7      	bls.n	8004ff2 <HAL_RCC_OscConfig+0x26e>
 8005002:	e70c      	b.n	8004e1e <HAL_RCC_OscConfig+0x9a>
 8005004:	f7fe feda 	bl	8003dbc <HAL_GetTick>
 8005008:	1bc0      	subs	r0, r0, r7
 800500a:	4540      	cmp	r0, r8
 800500c:	d9bd      	bls.n	8004f8a <HAL_RCC_OscConfig+0x206>
 800500e:	e706      	b.n	8004e1e <HAL_RCC_OscConfig+0x9a>
 8005010:	40023800 	.word	0x40023800
 8005014:	42470000 	.word	0x42470000
 8005018:	42470e80 	.word	0x42470e80
 800501c:	40007000 	.word	0x40007000
 8005020:	4d23      	ldr	r5, [pc, #140]	; (80050b0 <HAL_RCC_OscConfig+0x32c>)
 8005022:	68ab      	ldr	r3, [r5, #8]
 8005024:	f003 030c 	and.w	r3, r3, #12
 8005028:	2b08      	cmp	r3, #8
 800502a:	f43f aee0 	beq.w	8004dee <HAL_RCC_OscConfig+0x6a>
 800502e:	4e21      	ldr	r6, [pc, #132]	; (80050b4 <HAL_RCC_OscConfig+0x330>)
 8005030:	2300      	movs	r3, #0
 8005032:	2a02      	cmp	r2, #2
 8005034:	6033      	str	r3, [r6, #0]
 8005036:	d12d      	bne.n	8005094 <HAL_RCC_OscConfig+0x310>
 8005038:	f7fe fec0 	bl	8003dbc <HAL_GetTick>
 800503c:	4607      	mov	r7, r0
 800503e:	682b      	ldr	r3, [r5, #0]
 8005040:	0199      	lsls	r1, r3, #6
 8005042:	d421      	bmi.n	8005088 <HAL_RCC_OscConfig+0x304>
 8005044:	e9d4 3207 	ldrd	r3, r2, [r4, #28]
 8005048:	4313      	orrs	r3, r2
 800504a:	6a62      	ldr	r2, [r4, #36]	; 0x24
 800504c:	ea43 1382 	orr.w	r3, r3, r2, lsl #6
 8005050:	6ae2      	ldr	r2, [r4, #44]	; 0x2c
 8005052:	ea43 6302 	orr.w	r3, r3, r2, lsl #24
 8005056:	6b22      	ldr	r2, [r4, #48]	; 0x30
 8005058:	ea43 7302 	orr.w	r3, r3, r2, lsl #28
 800505c:	6aa2      	ldr	r2, [r4, #40]	; 0x28
 800505e:	4c14      	ldr	r4, [pc, #80]	; (80050b0 <HAL_RCC_OscConfig+0x32c>)
 8005060:	0852      	lsrs	r2, r2, #1
 8005062:	3a01      	subs	r2, #1
 8005064:	ea43 4302 	orr.w	r3, r3, r2, lsl #16
 8005068:	606b      	str	r3, [r5, #4]
 800506a:	2301      	movs	r3, #1
 800506c:	6033      	str	r3, [r6, #0]
 800506e:	f7fe fea5 	bl	8003dbc <HAL_GetTick>
 8005072:	4605      	mov	r5, r0
 8005074:	6823      	ldr	r3, [r4, #0]
 8005076:	019a      	lsls	r2, r3, #6
 8005078:	f53f ae99 	bmi.w	8004dae <HAL_RCC_OscConfig+0x2a>
 800507c:	f7fe fe9e 	bl	8003dbc <HAL_GetTick>
 8005080:	1b40      	subs	r0, r0, r5
 8005082:	2802      	cmp	r0, #2
 8005084:	d9f6      	bls.n	8005074 <HAL_RCC_OscConfig+0x2f0>
 8005086:	e6ca      	b.n	8004e1e <HAL_RCC_OscConfig+0x9a>
 8005088:	f7fe fe98 	bl	8003dbc <HAL_GetTick>
 800508c:	1bc0      	subs	r0, r0, r7
 800508e:	2802      	cmp	r0, #2
 8005090:	d9d5      	bls.n	800503e <HAL_RCC_OscConfig+0x2ba>
 8005092:	e6c4      	b.n	8004e1e <HAL_RCC_OscConfig+0x9a>
 8005094:	f7fe fe92 	bl	8003dbc <HAL_GetTick>
 8005098:	4604      	mov	r4, r0
 800509a:	682b      	ldr	r3, [r5, #0]
 800509c:	019b      	lsls	r3, r3, #6
 800509e:	f57f ae86 	bpl.w	8004dae <HAL_RCC_OscConfig+0x2a>
 80050a2:	f7fe fe8b 	bl	8003dbc <HAL_GetTick>
 80050a6:	1b00      	subs	r0, r0, r4
 80050a8:	2802      	cmp	r0, #2
 80050aa:	d9f6      	bls.n	800509a <HAL_RCC_OscConfig+0x316>
 80050ac:	e6b7      	b.n	8004e1e <HAL_RCC_OscConfig+0x9a>
 80050ae:	bf00      	nop
 80050b0:	40023800 	.word	0x40023800
 80050b4:	42470060 	.word	0x42470060

080050b8 <SPI_WaitFlagStateUntilTimeout.constprop.7>:
 80050b8:	b5f8      	push	{r3, r4, r5, r6, r7, lr}
 80050ba:	4604      	mov	r4, r0
 80050bc:	460e      	mov	r6, r1
 80050be:	4615      	mov	r5, r2
 80050c0:	461f      	mov	r7, r3
 80050c2:	6821      	ldr	r1, [r4, #0]
 80050c4:	688a      	ldr	r2, [r1, #8]
 80050c6:	ea36 0302 	bics.w	r3, r6, r2
 80050ca:	d001      	beq.n	80050d0 <SPI_WaitFlagStateUntilTimeout.constprop.7+0x18>
 80050cc:	2000      	movs	r0, #0
 80050ce:	e02d      	b.n	800512c <SPI_WaitFlagStateUntilTimeout.constprop.7+0x74>
 80050d0:	1c6b      	adds	r3, r5, #1
 80050d2:	d0f7      	beq.n	80050c4 <SPI_WaitFlagStateUntilTimeout.constprop.7+0xc>
 80050d4:	f7fe fe72 	bl	8003dbc <HAL_GetTick>
 80050d8:	1bc0      	subs	r0, r0, r7
 80050da:	4285      	cmp	r5, r0
 80050dc:	d8f1      	bhi.n	80050c2 <SPI_WaitFlagStateUntilTimeout.constprop.7+0xa>
 80050de:	6823      	ldr	r3, [r4, #0]
 80050e0:	685a      	ldr	r2, [r3, #4]
 80050e2:	f022 02e0 	bic.w	r2, r2, #224	; 0xe0
 80050e6:	605a      	str	r2, [r3, #4]
 80050e8:	6862      	ldr	r2, [r4, #4]
 80050ea:	f5b2 7f82 	cmp.w	r2, #260	; 0x104
 80050ee:	d10a      	bne.n	8005106 <SPI_WaitFlagStateUntilTimeout.constprop.7+0x4e>
 80050f0:	68a2      	ldr	r2, [r4, #8]
 80050f2:	f5b2 4f00 	cmp.w	r2, #32768	; 0x8000
 80050f6:	d002      	beq.n	80050fe <SPI_WaitFlagStateUntilTimeout.constprop.7+0x46>
 80050f8:	f5b2 6f80 	cmp.w	r2, #1024	; 0x400
 80050fc:	d103      	bne.n	8005106 <SPI_WaitFlagStateUntilTimeout.constprop.7+0x4e>
 80050fe:	681a      	ldr	r2, [r3, #0]
 8005100:	f022 0240 	bic.w	r2, r2, #64	; 0x40
 8005104:	601a      	str	r2, [r3, #0]
 8005106:	6aa2      	ldr	r2, [r4, #40]	; 0x28
 8005108:	f5b2 5f00 	cmp.w	r2, #8192	; 0x2000
 800510c:	d107      	bne.n	800511e <SPI_WaitFlagStateUntilTimeout.constprop.7+0x66>
 800510e:	681a      	ldr	r2, [r3, #0]
 8005110:	f422 5200 	bic.w	r2, r2, #8192	; 0x2000
 8005114:	601a      	str	r2, [r3, #0]
 8005116:	681a      	ldr	r2, [r3, #0]
 8005118:	f442 5200 	orr.w	r2, r2, #8192	; 0x2000
 800511c:	601a      	str	r2, [r3, #0]
 800511e:	2301      	movs	r3, #1
 8005120:	f884 3051 	strb.w	r3, [r4, #81]	; 0x51
 8005124:	2300      	movs	r3, #0
 8005126:	f884 3050 	strb.w	r3, [r4, #80]	; 0x50
 800512a:	2003      	movs	r0, #3
 800512c:	bdf8      	pop	{r3, r4, r5, r6, r7, pc}
	...

08005130 <SPI_EndRxTxTransaction>:
 8005130:	b573      	push	{r0, r1, r4, r5, r6, lr}
 8005132:	4613      	mov	r3, r2
 8005134:	4a12      	ldr	r2, [pc, #72]	; (8005180 <SPI_EndRxTxTransaction+0x50>)
 8005136:	4e13      	ldr	r6, [pc, #76]	; (8005184 <SPI_EndRxTxTransaction+0x54>)
 8005138:	6815      	ldr	r5, [r2, #0]
 800513a:	6842      	ldr	r2, [r0, #4]
 800513c:	fbb5 f6f6 	udiv	r6, r5, r6
 8005140:	f44f 757a 	mov.w	r5, #1000	; 0x3e8
 8005144:	4375      	muls	r5, r6
 8005146:	f5b2 7f82 	cmp.w	r2, #260	; 0x104
 800514a:	4604      	mov	r4, r0
 800514c:	9501      	str	r5, [sp, #4]
 800514e:	d10b      	bne.n	8005168 <SPI_EndRxTxTransaction+0x38>
 8005150:	460a      	mov	r2, r1
 8005152:	2180      	movs	r1, #128	; 0x80
 8005154:	f7ff ffb0 	bl	80050b8 <SPI_WaitFlagStateUntilTimeout.constprop.7>
 8005158:	b178      	cbz	r0, 800517a <SPI_EndRxTxTransaction+0x4a>
 800515a:	6d63      	ldr	r3, [r4, #84]	; 0x54
 800515c:	f043 0320 	orr.w	r3, r3, #32
 8005160:	6563      	str	r3, [r4, #84]	; 0x54
 8005162:	2003      	movs	r0, #3
 8005164:	b002      	add	sp, #8
 8005166:	bd70      	pop	{r4, r5, r6, pc}
 8005168:	9b01      	ldr	r3, [sp, #4]
 800516a:	b133      	cbz	r3, 800517a <SPI_EndRxTxTransaction+0x4a>
 800516c:	9b01      	ldr	r3, [sp, #4]
 800516e:	3b01      	subs	r3, #1
 8005170:	9301      	str	r3, [sp, #4]
 8005172:	6823      	ldr	r3, [r4, #0]
 8005174:	689b      	ldr	r3, [r3, #8]
 8005176:	061b      	lsls	r3, r3, #24
 8005178:	d4f6      	bmi.n	8005168 <SPI_EndRxTxTransaction+0x38>
 800517a:	2000      	movs	r0, #0
 800517c:	e7f2      	b.n	8005164 <SPI_EndRxTxTransaction+0x34>
 800517e:	bf00      	nop
 8005180:	20000000 	.word	0x20000000
 8005184:	016e3600 	.word	0x016e3600

08005188 <HAL_SPI_Init>:
 8005188:	b510      	push	{r4, lr}
 800518a:	4604      	mov	r4, r0
 800518c:	2800      	cmp	r0, #0
 800518e:	d036      	beq.n	80051fe <HAL_SPI_Init+0x76>
 8005190:	2300      	movs	r3, #0
 8005192:	6283      	str	r3, [r0, #40]	; 0x28
 8005194:	f890 3051 	ldrb.w	r3, [r0, #81]	; 0x51
 8005198:	f003 02ff 	and.w	r2, r3, #255	; 0xff
 800519c:	b91b      	cbnz	r3, 80051a6 <HAL_SPI_Init+0x1e>
 800519e:	f880 2050 	strb.w	r2, [r0, #80]	; 0x50
 80051a2:	f7fe f9e7 	bl	8003574 <HAL_SPI_MspInit>
 80051a6:	6821      	ldr	r1, [r4, #0]
 80051a8:	69a2      	ldr	r2, [r4, #24]
 80051aa:	2302      	movs	r3, #2
 80051ac:	f884 3051 	strb.w	r3, [r4, #81]	; 0x51
 80051b0:	680b      	ldr	r3, [r1, #0]
 80051b2:	f023 0340 	bic.w	r3, r3, #64	; 0x40
 80051b6:	600b      	str	r3, [r1, #0]
 80051b8:	e9d4 3001 	ldrd	r3, r0, [r4, #4]
 80051bc:	4303      	orrs	r3, r0
 80051be:	68e0      	ldr	r0, [r4, #12]
 80051c0:	4303      	orrs	r3, r0
 80051c2:	6920      	ldr	r0, [r4, #16]
 80051c4:	4303      	orrs	r3, r0
 80051c6:	6960      	ldr	r0, [r4, #20]
 80051c8:	4303      	orrs	r3, r0
 80051ca:	69e0      	ldr	r0, [r4, #28]
 80051cc:	4303      	orrs	r3, r0
 80051ce:	6a20      	ldr	r0, [r4, #32]
 80051d0:	4303      	orrs	r3, r0
 80051d2:	6aa0      	ldr	r0, [r4, #40]	; 0x28
 80051d4:	4303      	orrs	r3, r0
 80051d6:	f402 7000 	and.w	r0, r2, #512	; 0x200
 80051da:	4303      	orrs	r3, r0
 80051dc:	600b      	str	r3, [r1, #0]
 80051de:	0c12      	lsrs	r2, r2, #16
 80051e0:	6a63      	ldr	r3, [r4, #36]	; 0x24
 80051e2:	f002 0204 	and.w	r2, r2, #4
 80051e6:	431a      	orrs	r2, r3
 80051e8:	604a      	str	r2, [r1, #4]
 80051ea:	69cb      	ldr	r3, [r1, #28]
 80051ec:	f423 6300 	bic.w	r3, r3, #2048	; 0x800
 80051f0:	61cb      	str	r3, [r1, #28]
 80051f2:	2000      	movs	r0, #0
 80051f4:	2301      	movs	r3, #1
 80051f6:	6560      	str	r0, [r4, #84]	; 0x54
 80051f8:	f884 3051 	strb.w	r3, [r4, #81]	; 0x51
 80051fc:	bd10      	pop	{r4, pc}
 80051fe:	2001      	movs	r0, #1
 8005200:	e7fc      	b.n	80051fc <HAL_SPI_Init+0x74>

08005202 <HAL_SPI_TransmitReceive>:
 8005202:	e92d 43f7 	stmdb	sp!, {r0, r1, r2, r4, r5, r6, r7, r8, r9, lr}
 8005206:	461e      	mov	r6, r3
 8005208:	f890 3050 	ldrb.w	r3, [r0, #80]	; 0x50
 800520c:	9f0a      	ldr	r7, [sp, #40]	; 0x28
 800520e:	2b01      	cmp	r3, #1
 8005210:	4604      	mov	r4, r0
 8005212:	460d      	mov	r5, r1
 8005214:	4691      	mov	r9, r2
 8005216:	f000 80e2 	beq.w	80053de <HAL_SPI_TransmitReceive+0x1dc>
 800521a:	2301      	movs	r3, #1
 800521c:	f880 3050 	strb.w	r3, [r0, #80]	; 0x50
 8005220:	f7fe fdcc 	bl	8003dbc <HAL_GetTick>
 8005224:	f894 3051 	ldrb.w	r3, [r4, #81]	; 0x51
 8005228:	6861      	ldr	r1, [r4, #4]
 800522a:	b2db      	uxtb	r3, r3
 800522c:	2b01      	cmp	r3, #1
 800522e:	4680      	mov	r8, r0
 8005230:	d00a      	beq.n	8005248 <HAL_SPI_TransmitReceive+0x46>
 8005232:	f5b1 7f82 	cmp.w	r1, #260	; 0x104
 8005236:	f040 80d0 	bne.w	80053da <HAL_SPI_TransmitReceive+0x1d8>
 800523a:	68a0      	ldr	r0, [r4, #8]
 800523c:	2800      	cmp	r0, #0
 800523e:	f040 80cc 	bne.w	80053da <HAL_SPI_TransmitReceive+0x1d8>
 8005242:	2b04      	cmp	r3, #4
 8005244:	f040 80c9 	bne.w	80053da <HAL_SPI_TransmitReceive+0x1d8>
 8005248:	2d00      	cmp	r5, #0
 800524a:	f000 80c4 	beq.w	80053d6 <HAL_SPI_TransmitReceive+0x1d4>
 800524e:	f1b9 0f00 	cmp.w	r9, #0
 8005252:	f000 80c0 	beq.w	80053d6 <HAL_SPI_TransmitReceive+0x1d4>
 8005256:	2e00      	cmp	r6, #0
 8005258:	f000 80bd 	beq.w	80053d6 <HAL_SPI_TransmitReceive+0x1d4>
 800525c:	f894 3051 	ldrb.w	r3, [r4, #81]	; 0x51
 8005260:	f8c4 9038 	str.w	r9, [r4, #56]	; 0x38
 8005264:	2b04      	cmp	r3, #4
 8005266:	bf1c      	itt	ne
 8005268:	2305      	movne	r3, #5
 800526a:	f884 3051 	strbne.w	r3, [r4, #81]	; 0x51
 800526e:	2300      	movs	r3, #0
 8005270:	6563      	str	r3, [r4, #84]	; 0x54
 8005272:	e9c4 3310 	strd	r3, r3, [r4, #64]	; 0x40
 8005276:	6823      	ldr	r3, [r4, #0]
 8005278:	87e6      	strh	r6, [r4, #62]	; 0x3e
 800527a:	86e6      	strh	r6, [r4, #54]	; 0x36
 800527c:	681a      	ldr	r2, [r3, #0]
 800527e:	87a6      	strh	r6, [r4, #60]	; 0x3c
 8005280:	0650      	lsls	r0, r2, #25
 8005282:	bf58      	it	pl
 8005284:	681a      	ldrpl	r2, [r3, #0]
 8005286:	6325      	str	r5, [r4, #48]	; 0x30
 8005288:	bf58      	it	pl
 800528a:	f042 0240 	orrpl.w	r2, r2, #64	; 0x40
 800528e:	86a6      	strh	r6, [r4, #52]	; 0x34
 8005290:	bf58      	it	pl
 8005292:	601a      	strpl	r2, [r3, #0]
 8005294:	68e2      	ldr	r2, [r4, #12]
 8005296:	f5b2 6f00 	cmp.w	r2, #2048	; 0x800
 800529a:	d158      	bne.n	800534e <HAL_SPI_TransmitReceive+0x14c>
 800529c:	b109      	cbz	r1, 80052a2 <HAL_SPI_TransmitReceive+0xa0>
 800529e:	2e01      	cmp	r6, #1
 80052a0:	d107      	bne.n	80052b2 <HAL_SPI_TransmitReceive+0xb0>
 80052a2:	f835 2b02 	ldrh.w	r2, [r5], #2
 80052a6:	60da      	str	r2, [r3, #12]
 80052a8:	8ee3      	ldrh	r3, [r4, #54]	; 0x36
 80052aa:	6325      	str	r5, [r4, #48]	; 0x30
 80052ac:	3b01      	subs	r3, #1
 80052ae:	b29b      	uxth	r3, r3
 80052b0:	86e3      	strh	r3, [r4, #54]	; 0x36
 80052b2:	2501      	movs	r5, #1
 80052b4:	8ee3      	ldrh	r3, [r4, #54]	; 0x36
 80052b6:	b29b      	uxth	r3, r3
 80052b8:	b9ab      	cbnz	r3, 80052e6 <HAL_SPI_TransmitReceive+0xe4>
 80052ba:	8fe3      	ldrh	r3, [r4, #62]	; 0x3e
 80052bc:	b29b      	uxth	r3, r3
 80052be:	b993      	cbnz	r3, 80052e6 <HAL_SPI_TransmitReceive+0xe4>
 80052c0:	4642      	mov	r2, r8
 80052c2:	4639      	mov	r1, r7
 80052c4:	4620      	mov	r0, r4
 80052c6:	f7ff ff33 	bl	8005130 <SPI_EndRxTxTransaction>
 80052ca:	2800      	cmp	r0, #0
 80052cc:	f040 8081 	bne.w	80053d2 <HAL_SPI_TransmitReceive+0x1d0>
 80052d0:	68a3      	ldr	r3, [r4, #8]
 80052d2:	2b00      	cmp	r3, #0
 80052d4:	d132      	bne.n	800533c <HAL_SPI_TransmitReceive+0x13a>
 80052d6:	6823      	ldr	r3, [r4, #0]
 80052d8:	9001      	str	r0, [sp, #4]
 80052da:	68da      	ldr	r2, [r3, #12]
 80052dc:	9201      	str	r2, [sp, #4]
 80052de:	689b      	ldr	r3, [r3, #8]
 80052e0:	9301      	str	r3, [sp, #4]
 80052e2:	9b01      	ldr	r3, [sp, #4]
 80052e4:	e02a      	b.n	800533c <HAL_SPI_TransmitReceive+0x13a>
 80052e6:	6822      	ldr	r2, [r4, #0]
 80052e8:	6893      	ldr	r3, [r2, #8]
 80052ea:	0799      	lsls	r1, r3, #30
 80052ec:	d50d      	bpl.n	800530a <HAL_SPI_TransmitReceive+0x108>
 80052ee:	8ee3      	ldrh	r3, [r4, #54]	; 0x36
 80052f0:	b29b      	uxth	r3, r3
 80052f2:	b153      	cbz	r3, 800530a <HAL_SPI_TransmitReceive+0x108>
 80052f4:	b14d      	cbz	r5, 800530a <HAL_SPI_TransmitReceive+0x108>
 80052f6:	6b23      	ldr	r3, [r4, #48]	; 0x30
 80052f8:	f833 1b02 	ldrh.w	r1, [r3], #2
 80052fc:	60d1      	str	r1, [r2, #12]
 80052fe:	6323      	str	r3, [r4, #48]	; 0x30
 8005300:	8ee3      	ldrh	r3, [r4, #54]	; 0x36
 8005302:	3b01      	subs	r3, #1
 8005304:	b29b      	uxth	r3, r3
 8005306:	86e3      	strh	r3, [r4, #54]	; 0x36
 8005308:	2500      	movs	r5, #0
 800530a:	6893      	ldr	r3, [r2, #8]
 800530c:	07db      	lsls	r3, r3, #31
 800530e:	d50c      	bpl.n	800532a <HAL_SPI_TransmitReceive+0x128>
 8005310:	8fe3      	ldrh	r3, [r4, #62]	; 0x3e
 8005312:	b29b      	uxth	r3, r3
 8005314:	b14b      	cbz	r3, 800532a <HAL_SPI_TransmitReceive+0x128>
 8005316:	6ba3      	ldr	r3, [r4, #56]	; 0x38
 8005318:	68d2      	ldr	r2, [r2, #12]
 800531a:	f823 2b02 	strh.w	r2, [r3], #2
 800531e:	63a3      	str	r3, [r4, #56]	; 0x38
 8005320:	8fe3      	ldrh	r3, [r4, #62]	; 0x3e
 8005322:	3b01      	subs	r3, #1
 8005324:	b29b      	uxth	r3, r3
 8005326:	87e3      	strh	r3, [r4, #62]	; 0x3e
 8005328:	2501      	movs	r5, #1
 800532a:	f7fe fd47 	bl	8003dbc <HAL_GetTick>
 800532e:	eba0 0008 	sub.w	r0, r0, r8
 8005332:	4287      	cmp	r7, r0
 8005334:	d8be      	bhi.n	80052b4 <HAL_SPI_TransmitReceive+0xb2>
 8005336:	1c7e      	adds	r6, r7, #1
 8005338:	d0bc      	beq.n	80052b4 <HAL_SPI_TransmitReceive+0xb2>
 800533a:	2003      	movs	r0, #3
 800533c:	2301      	movs	r3, #1
 800533e:	f884 3051 	strb.w	r3, [r4, #81]	; 0x51
 8005342:	2300      	movs	r3, #0
 8005344:	f884 3050 	strb.w	r3, [r4, #80]	; 0x50
 8005348:	b003      	add	sp, #12
 800534a:	e8bd 83f0 	ldmia.w	sp!, {r4, r5, r6, r7, r8, r9, pc}
 800534e:	b109      	cbz	r1, 8005354 <HAL_SPI_TransmitReceive+0x152>
 8005350:	2e01      	cmp	r6, #1
 8005352:	d108      	bne.n	8005366 <HAL_SPI_TransmitReceive+0x164>
 8005354:	782a      	ldrb	r2, [r5, #0]
 8005356:	731a      	strb	r2, [r3, #12]
 8005358:	6b23      	ldr	r3, [r4, #48]	; 0x30
 800535a:	3301      	adds	r3, #1
 800535c:	6323      	str	r3, [r4, #48]	; 0x30
 800535e:	8ee3      	ldrh	r3, [r4, #54]	; 0x36
 8005360:	3b01      	subs	r3, #1
 8005362:	b29b      	uxth	r3, r3
 8005364:	86e3      	strh	r3, [r4, #54]	; 0x36
 8005366:	2501      	movs	r5, #1
 8005368:	8ee3      	ldrh	r3, [r4, #54]	; 0x36
 800536a:	b29b      	uxth	r3, r3
 800536c:	b91b      	cbnz	r3, 8005376 <HAL_SPI_TransmitReceive+0x174>
 800536e:	8fe3      	ldrh	r3, [r4, #62]	; 0x3e
 8005370:	b29b      	uxth	r3, r3
 8005372:	2b00      	cmp	r3, #0
 8005374:	d0a4      	beq.n	80052c0 <HAL_SPI_TransmitReceive+0xbe>
 8005376:	6822      	ldr	r2, [r4, #0]
 8005378:	6893      	ldr	r3, [r2, #8]
 800537a:	0798      	lsls	r0, r3, #30
 800537c:	d50e      	bpl.n	800539c <HAL_SPI_TransmitReceive+0x19a>
 800537e:	8ee3      	ldrh	r3, [r4, #54]	; 0x36
 8005380:	b29b      	uxth	r3, r3
 8005382:	b15b      	cbz	r3, 800539c <HAL_SPI_TransmitReceive+0x19a>
 8005384:	b155      	cbz	r5, 800539c <HAL_SPI_TransmitReceive+0x19a>
 8005386:	6b23      	ldr	r3, [r4, #48]	; 0x30
 8005388:	781b      	ldrb	r3, [r3, #0]
 800538a:	7313      	strb	r3, [r2, #12]
 800538c:	6b23      	ldr	r3, [r4, #48]	; 0x30
 800538e:	3301      	adds	r3, #1
 8005390:	6323      	str	r3, [r4, #48]	; 0x30
 8005392:	8ee3      	ldrh	r3, [r4, #54]	; 0x36
 8005394:	3b01      	subs	r3, #1
 8005396:	b29b      	uxth	r3, r3
 8005398:	86e3      	strh	r3, [r4, #54]	; 0x36
 800539a:	2500      	movs	r5, #0
 800539c:	6822      	ldr	r2, [r4, #0]
 800539e:	6893      	ldr	r3, [r2, #8]
 80053a0:	07d9      	lsls	r1, r3, #31
 80053a2:	d50d      	bpl.n	80053c0 <HAL_SPI_TransmitReceive+0x1be>
 80053a4:	8fe3      	ldrh	r3, [r4, #62]	; 0x3e
 80053a6:	b29b      	uxth	r3, r3
 80053a8:	b153      	cbz	r3, 80053c0 <HAL_SPI_TransmitReceive+0x1be>
 80053aa:	6ba3      	ldr	r3, [r4, #56]	; 0x38
 80053ac:	68d2      	ldr	r2, [r2, #12]
 80053ae:	701a      	strb	r2, [r3, #0]
 80053b0:	6ba3      	ldr	r3, [r4, #56]	; 0x38
 80053b2:	3301      	adds	r3, #1
 80053b4:	63a3      	str	r3, [r4, #56]	; 0x38
 80053b6:	8fe3      	ldrh	r3, [r4, #62]	; 0x3e
 80053b8:	3b01      	subs	r3, #1
 80053ba:	b29b      	uxth	r3, r3
 80053bc:	87e3      	strh	r3, [r4, #62]	; 0x3e
 80053be:	2501      	movs	r5, #1
 80053c0:	f7fe fcfc 	bl	8003dbc <HAL_GetTick>
 80053c4:	eba0 0008 	sub.w	r0, r0, r8
 80053c8:	4287      	cmp	r7, r0
 80053ca:	d8cd      	bhi.n	8005368 <HAL_SPI_TransmitReceive+0x166>
 80053cc:	1c7b      	adds	r3, r7, #1
 80053ce:	d0cb      	beq.n	8005368 <HAL_SPI_TransmitReceive+0x166>
 80053d0:	e7b3      	b.n	800533a <HAL_SPI_TransmitReceive+0x138>
 80053d2:	2320      	movs	r3, #32
 80053d4:	6563      	str	r3, [r4, #84]	; 0x54
 80053d6:	2001      	movs	r0, #1
 80053d8:	e7b0      	b.n	800533c <HAL_SPI_TransmitReceive+0x13a>
 80053da:	2002      	movs	r0, #2
 80053dc:	e7ae      	b.n	800533c <HAL_SPI_TransmitReceive+0x13a>
 80053de:	2002      	movs	r0, #2
 80053e0:	e7b2      	b.n	8005348 <HAL_SPI_TransmitReceive+0x146>
	...

080053e4 <TIM_OC1_SetConfig>:
 80053e4:	6a03      	ldr	r3, [r0, #32]
 80053e6:	f023 0301 	bic.w	r3, r3, #1
 80053ea:	6203      	str	r3, [r0, #32]
 80053ec:	6a03      	ldr	r3, [r0, #32]
 80053ee:	b570      	push	{r4, r5, r6, lr}
 80053f0:	6844      	ldr	r4, [r0, #4]
 80053f2:	6982      	ldr	r2, [r0, #24]
 80053f4:	680d      	ldr	r5, [r1, #0]
 80053f6:	f022 0273 	bic.w	r2, r2, #115	; 0x73
 80053fa:	432a      	orrs	r2, r5
 80053fc:	688d      	ldr	r5, [r1, #8]
 80053fe:	f023 0302 	bic.w	r3, r3, #2
 8005402:	432b      	orrs	r3, r5
 8005404:	4d0e      	ldr	r5, [pc, #56]	; (8005440 <TIM_OC1_SetConfig+0x5c>)
 8005406:	42a8      	cmp	r0, r5
 8005408:	d002      	beq.n	8005410 <TIM_OC1_SetConfig+0x2c>
 800540a:	4e0e      	ldr	r6, [pc, #56]	; (8005444 <TIM_OC1_SetConfig+0x60>)
 800540c:	42b0      	cmp	r0, r6
 800540e:	d110      	bne.n	8005432 <TIM_OC1_SetConfig+0x4e>
 8005410:	68ce      	ldr	r6, [r1, #12]
 8005412:	f023 0308 	bic.w	r3, r3, #8
 8005416:	4333      	orrs	r3, r6
 8005418:	42a8      	cmp	r0, r5
 800541a:	f023 0304 	bic.w	r3, r3, #4
 800541e:	d002      	beq.n	8005426 <TIM_OC1_SetConfig+0x42>
 8005420:	4d08      	ldr	r5, [pc, #32]	; (8005444 <TIM_OC1_SetConfig+0x60>)
 8005422:	42a8      	cmp	r0, r5
 8005424:	d105      	bne.n	8005432 <TIM_OC1_SetConfig+0x4e>
 8005426:	e9d1 5605 	ldrd	r5, r6, [r1, #20]
 800542a:	f424 7440 	bic.w	r4, r4, #768	; 0x300
 800542e:	4335      	orrs	r5, r6
 8005430:	432c      	orrs	r4, r5
 8005432:	6044      	str	r4, [r0, #4]
 8005434:	6182      	str	r2, [r0, #24]
 8005436:	684a      	ldr	r2, [r1, #4]
 8005438:	6342      	str	r2, [r0, #52]	; 0x34
 800543a:	6203      	str	r3, [r0, #32]
 800543c:	bd70      	pop	{r4, r5, r6, pc}
 800543e:	bf00      	nop
 8005440:	40010000 	.word	0x40010000
 8005444:	40010400 	.word	0x40010400

08005448 <TIM_OC3_SetConfig>:
 8005448:	6a03      	ldr	r3, [r0, #32]
 800544a:	f423 7380 	bic.w	r3, r3, #256	; 0x100
 800544e:	6203      	str	r3, [r0, #32]
 8005450:	6a03      	ldr	r3, [r0, #32]
 8005452:	b570      	push	{r4, r5, r6, lr}
 8005454:	6844      	ldr	r4, [r0, #4]
 8005456:	69c2      	ldr	r2, [r0, #28]
 8005458:	680d      	ldr	r5, [r1, #0]
 800545a:	f022 0273 	bic.w	r2, r2, #115	; 0x73
 800545e:	432a      	orrs	r2, r5
 8005460:	688d      	ldr	r5, [r1, #8]
 8005462:	f423 7300 	bic.w	r3, r3, #512	; 0x200
 8005466:	ea43 2305 	orr.w	r3, r3, r5, lsl #8
 800546a:	4d11      	ldr	r5, [pc, #68]	; (80054b0 <TIM_OC3_SetConfig+0x68>)
 800546c:	42a8      	cmp	r0, r5
 800546e:	d003      	beq.n	8005478 <TIM_OC3_SetConfig+0x30>
 8005470:	f505 6580 	add.w	r5, r5, #1024	; 0x400
 8005474:	42a8      	cmp	r0, r5
 8005476:	d114      	bne.n	80054a2 <TIM_OC3_SetConfig+0x5a>
 8005478:	68cd      	ldr	r5, [r1, #12]
 800547a:	f423 6300 	bic.w	r3, r3, #2048	; 0x800
 800547e:	ea43 2305 	orr.w	r3, r3, r5, lsl #8
 8005482:	4d0b      	ldr	r5, [pc, #44]	; (80054b0 <TIM_OC3_SetConfig+0x68>)
 8005484:	42a8      	cmp	r0, r5
 8005486:	f423 6380 	bic.w	r3, r3, #1024	; 0x400
 800548a:	d003      	beq.n	8005494 <TIM_OC3_SetConfig+0x4c>
 800548c:	f505 6580 	add.w	r5, r5, #1024	; 0x400
 8005490:	42a8      	cmp	r0, r5
 8005492:	d106      	bne.n	80054a2 <TIM_OC3_SetConfig+0x5a>
 8005494:	e9d1 5605 	ldrd	r5, r6, [r1, #20]
 8005498:	f424 5440 	bic.w	r4, r4, #12288	; 0x3000
 800549c:	4335      	orrs	r5, r6
 800549e:	ea44 1405 	orr.w	r4, r4, r5, lsl #4
 80054a2:	6044      	str	r4, [r0, #4]
 80054a4:	61c2      	str	r2, [r0, #28]
 80054a6:	684a      	ldr	r2, [r1, #4]
 80054a8:	63c2      	str	r2, [r0, #60]	; 0x3c
 80054aa:	6203      	str	r3, [r0, #32]
 80054ac:	bd70      	pop	{r4, r5, r6, pc}
 80054ae:	bf00      	nop
 80054b0:	40010000 	.word	0x40010000

080054b4 <TIM_OC4_SetConfig>:
 80054b4:	6a03      	ldr	r3, [r0, #32]
 80054b6:	f423 5380 	bic.w	r3, r3, #4096	; 0x1000
 80054ba:	6203      	str	r3, [r0, #32]
 80054bc:	6a03      	ldr	r3, [r0, #32]
 80054be:	b530      	push	{r4, r5, lr}
 80054c0:	6844      	ldr	r4, [r0, #4]
 80054c2:	69c2      	ldr	r2, [r0, #28]
 80054c4:	680d      	ldr	r5, [r1, #0]
 80054c6:	f422 42e6 	bic.w	r2, r2, #29440	; 0x7300
 80054ca:	ea42 2205 	orr.w	r2, r2, r5, lsl #8
 80054ce:	688d      	ldr	r5, [r1, #8]
 80054d0:	f423 5300 	bic.w	r3, r3, #8192	; 0x2000
 80054d4:	ea43 3305 	orr.w	r3, r3, r5, lsl #12
 80054d8:	4d08      	ldr	r5, [pc, #32]	; (80054fc <TIM_OC4_SetConfig+0x48>)
 80054da:	42a8      	cmp	r0, r5
 80054dc:	d003      	beq.n	80054e6 <TIM_OC4_SetConfig+0x32>
 80054de:	f505 6580 	add.w	r5, r5, #1024	; 0x400
 80054e2:	42a8      	cmp	r0, r5
 80054e4:	d104      	bne.n	80054f0 <TIM_OC4_SetConfig+0x3c>
 80054e6:	694d      	ldr	r5, [r1, #20]
 80054e8:	f424 4480 	bic.w	r4, r4, #16384	; 0x4000
 80054ec:	ea44 1485 	orr.w	r4, r4, r5, lsl #6
 80054f0:	6044      	str	r4, [r0, #4]
 80054f2:	61c2      	str	r2, [r0, #28]
 80054f4:	684a      	ldr	r2, [r1, #4]
 80054f6:	6402      	str	r2, [r0, #64]	; 0x40
 80054f8:	6203      	str	r3, [r0, #32]
 80054fa:	bd30      	pop	{r4, r5, pc}
 80054fc:	40010000 	.word	0x40010000

08005500 <HAL_TIM_Base_Start_IT>:
 8005500:	6803      	ldr	r3, [r0, #0]
 8005502:	68da      	ldr	r2, [r3, #12]
 8005504:	f042 0201 	orr.w	r2, r2, #1
 8005508:	60da      	str	r2, [r3, #12]
 800550a:	689a      	ldr	r2, [r3, #8]
 800550c:	f002 0207 	and.w	r2, r2, #7
 8005510:	2a06      	cmp	r2, #6
 8005512:	bf1e      	ittt	ne
 8005514:	681a      	ldrne	r2, [r3, #0]
 8005516:	f042 0201 	orrne.w	r2, r2, #1
 800551a:	601a      	strne	r2, [r3, #0]
 800551c:	2000      	movs	r0, #0
 800551e:	4770      	bx	lr

08005520 <HAL_TIM_PWM_MspInit>:
 8005520:	4770      	bx	lr

08005522 <HAL_TIM_PeriodElapsedCallback>:
 8005522:	4770      	bx	lr

08005524 <HAL_TIM_OC_DelayElapsedCallback>:
 8005524:	4770      	bx	lr

08005526 <HAL_TIM_IC_CaptureCallback>:
 8005526:	4770      	bx	lr

08005528 <HAL_TIM_PWM_PulseFinishedCallback>:
 8005528:	4770      	bx	lr

0800552a <HAL_TIM_TriggerCallback>:
 800552a:	4770      	bx	lr

0800552c <HAL_TIM_IRQHandler>:
 800552c:	6803      	ldr	r3, [r0, #0]
 800552e:	691a      	ldr	r2, [r3, #16]
 8005530:	0791      	lsls	r1, r2, #30
 8005532:	b510      	push	{r4, lr}
 8005534:	4604      	mov	r4, r0
 8005536:	d50e      	bpl.n	8005556 <HAL_TIM_IRQHandler+0x2a>
 8005538:	68da      	ldr	r2, [r3, #12]
 800553a:	0792      	lsls	r2, r2, #30
 800553c:	d50b      	bpl.n	8005556 <HAL_TIM_IRQHandler+0x2a>
 800553e:	f06f 0202 	mvn.w	r2, #2
 8005542:	611a      	str	r2, [r3, #16]
 8005544:	699b      	ldr	r3, [r3, #24]
 8005546:	2201      	movs	r2, #1
 8005548:	079b      	lsls	r3, r3, #30
 800554a:	7702      	strb	r2, [r0, #28]
 800554c:	d077      	beq.n	800563e <HAL_TIM_IRQHandler+0x112>
 800554e:	f7ff ffea 	bl	8005526 <HAL_TIM_IC_CaptureCallback>
 8005552:	2300      	movs	r3, #0
 8005554:	7723      	strb	r3, [r4, #28]
 8005556:	6823      	ldr	r3, [r4, #0]
 8005558:	691a      	ldr	r2, [r3, #16]
 800555a:	0750      	lsls	r0, r2, #29
 800555c:	d510      	bpl.n	8005580 <HAL_TIM_IRQHandler+0x54>
 800555e:	68da      	ldr	r2, [r3, #12]
 8005560:	0751      	lsls	r1, r2, #29
 8005562:	d50d      	bpl.n	8005580 <HAL_TIM_IRQHandler+0x54>
 8005564:	f06f 0204 	mvn.w	r2, #4
 8005568:	611a      	str	r2, [r3, #16]
 800556a:	699b      	ldr	r3, [r3, #24]
 800556c:	2202      	movs	r2, #2
 800556e:	f413 7f40 	tst.w	r3, #768	; 0x300
 8005572:	7722      	strb	r2, [r4, #28]
 8005574:	4620      	mov	r0, r4
 8005576:	d068      	beq.n	800564a <HAL_TIM_IRQHandler+0x11e>
 8005578:	f7ff ffd5 	bl	8005526 <HAL_TIM_IC_CaptureCallback>
 800557c:	2300      	movs	r3, #0
 800557e:	7723      	strb	r3, [r4, #28]
 8005580:	6823      	ldr	r3, [r4, #0]
 8005582:	691a      	ldr	r2, [r3, #16]
 8005584:	0712      	lsls	r2, r2, #28
 8005586:	d50f      	bpl.n	80055a8 <HAL_TIM_IRQHandler+0x7c>
 8005588:	68da      	ldr	r2, [r3, #12]
 800558a:	0710      	lsls	r0, r2, #28
 800558c:	d50c      	bpl.n	80055a8 <HAL_TIM_IRQHandler+0x7c>
 800558e:	f06f 0208 	mvn.w	r2, #8
 8005592:	611a      	str	r2, [r3, #16]
 8005594:	69db      	ldr	r3, [r3, #28]
 8005596:	2204      	movs	r2, #4
 8005598:	0799      	lsls	r1, r3, #30
 800559a:	7722      	strb	r2, [r4, #28]
 800559c:	4620      	mov	r0, r4
 800559e:	d05a      	beq.n	8005656 <HAL_TIM_IRQHandler+0x12a>
 80055a0:	f7ff ffc1 	bl	8005526 <HAL_TIM_IC_CaptureCallback>
 80055a4:	2300      	movs	r3, #0
 80055a6:	7723      	strb	r3, [r4, #28]
 80055a8:	6823      	ldr	r3, [r4, #0]
 80055aa:	691a      	ldr	r2, [r3, #16]
 80055ac:	06d2      	lsls	r2, r2, #27
 80055ae:	d510      	bpl.n	80055d2 <HAL_TIM_IRQHandler+0xa6>
 80055b0:	68da      	ldr	r2, [r3, #12]
 80055b2:	06d0      	lsls	r0, r2, #27
 80055b4:	d50d      	bpl.n	80055d2 <HAL_TIM_IRQHandler+0xa6>
 80055b6:	f06f 0210 	mvn.w	r2, #16
 80055ba:	611a      	str	r2, [r3, #16]
 80055bc:	69db      	ldr	r3, [r3, #28]
 80055be:	2208      	movs	r2, #8
 80055c0:	f413 7f40 	tst.w	r3, #768	; 0x300
 80055c4:	7722      	strb	r2, [r4, #28]
 80055c6:	4620      	mov	r0, r4
 80055c8:	d04b      	beq.n	8005662 <HAL_TIM_IRQHandler+0x136>
 80055ca:	f7ff ffac 	bl	8005526 <HAL_TIM_IC_CaptureCallback>
 80055ce:	2300      	movs	r3, #0
 80055d0:	7723      	strb	r3, [r4, #28]
 80055d2:	6823      	ldr	r3, [r4, #0]
 80055d4:	691a      	ldr	r2, [r3, #16]
 80055d6:	07d1      	lsls	r1, r2, #31
 80055d8:	d508      	bpl.n	80055ec <HAL_TIM_IRQHandler+0xc0>
 80055da:	68da      	ldr	r2, [r3, #12]
 80055dc:	07d2      	lsls	r2, r2, #31
 80055de:	d505      	bpl.n	80055ec <HAL_TIM_IRQHandler+0xc0>
 80055e0:	f06f 0201 	mvn.w	r2, #1
 80055e4:	611a      	str	r2, [r3, #16]
 80055e6:	4620      	mov	r0, r4
 80055e8:	f7ff ff9b 	bl	8005522 <HAL_TIM_PeriodElapsedCallback>
 80055ec:	6823      	ldr	r3, [r4, #0]
 80055ee:	691a      	ldr	r2, [r3, #16]
 80055f0:	0610      	lsls	r0, r2, #24
 80055f2:	d508      	bpl.n	8005606 <HAL_TIM_IRQHandler+0xda>
 80055f4:	68da      	ldr	r2, [r3, #12]
 80055f6:	0611      	lsls	r1, r2, #24
 80055f8:	d505      	bpl.n	8005606 <HAL_TIM_IRQHandler+0xda>
 80055fa:	f06f 0280 	mvn.w	r2, #128	; 0x80
 80055fe:	611a      	str	r2, [r3, #16]
 8005600:	4620      	mov	r0, r4
 8005602:	f000 fa9e 	bl	8005b42 <HAL_TIMEx_BreakCallback>
 8005606:	6823      	ldr	r3, [r4, #0]
 8005608:	691a      	ldr	r2, [r3, #16]
 800560a:	0652      	lsls	r2, r2, #25
 800560c:	d508      	bpl.n	8005620 <HAL_TIM_IRQHandler+0xf4>
 800560e:	68da      	ldr	r2, [r3, #12]
 8005610:	0650      	lsls	r0, r2, #25
 8005612:	d505      	bpl.n	8005620 <HAL_TIM_IRQHandler+0xf4>
 8005614:	f06f 0240 	mvn.w	r2, #64	; 0x40
 8005618:	611a      	str	r2, [r3, #16]
 800561a:	4620      	mov	r0, r4
 800561c:	f7ff ff85 	bl	800552a <HAL_TIM_TriggerCallback>
 8005620:	6823      	ldr	r3, [r4, #0]
 8005622:	691a      	ldr	r2, [r3, #16]
 8005624:	0691      	lsls	r1, r2, #26
 8005626:	d522      	bpl.n	800566e <HAL_TIM_IRQHandler+0x142>
 8005628:	68da      	ldr	r2, [r3, #12]
 800562a:	0692      	lsls	r2, r2, #26
 800562c:	d51f      	bpl.n	800566e <HAL_TIM_IRQHandler+0x142>
 800562e:	f06f 0220 	mvn.w	r2, #32
 8005632:	4620      	mov	r0, r4
 8005634:	611a      	str	r2, [r3, #16]
 8005636:	e8bd 4010 	ldmia.w	sp!, {r4, lr}
 800563a:	f000 ba81 	b.w	8005b40 <HAL_TIMEx_CommutCallback>
 800563e:	f7ff ff71 	bl	8005524 <HAL_TIM_OC_DelayElapsedCallback>
 8005642:	4620      	mov	r0, r4
 8005644:	f7ff ff70 	bl	8005528 <HAL_TIM_PWM_PulseFinishedCallback>
 8005648:	e783      	b.n	8005552 <HAL_TIM_IRQHandler+0x26>
 800564a:	f7ff ff6b 	bl	8005524 <HAL_TIM_OC_DelayElapsedCallback>
 800564e:	4620      	mov	r0, r4
 8005650:	f7ff ff6a 	bl	8005528 <HAL_TIM_PWM_PulseFinishedCallback>
 8005654:	e792      	b.n	800557c <HAL_TIM_IRQHandler+0x50>
 8005656:	f7ff ff65 	bl	8005524 <HAL_TIM_OC_DelayElapsedCallback>
 800565a:	4620      	mov	r0, r4
 800565c:	f7ff ff64 	bl	8005528 <HAL_TIM_PWM_PulseFinishedCallback>
 8005660:	e7a0      	b.n	80055a4 <HAL_TIM_IRQHandler+0x78>
 8005662:	f7ff ff5f 	bl	8005524 <HAL_TIM_OC_DelayElapsedCallback>
 8005666:	4620      	mov	r0, r4
 8005668:	f7ff ff5e 	bl	8005528 <HAL_TIM_PWM_PulseFinishedCallback>
 800566c:	e7af      	b.n	80055ce <HAL_TIM_IRQHandler+0xa2>
 800566e:	bd10      	pop	{r4, pc}

08005670 <TIM_Base_SetConfig>:
 8005670:	4a30      	ldr	r2, [pc, #192]	; (8005734 <TIM_Base_SetConfig+0xc4>)
 8005672:	6803      	ldr	r3, [r0, #0]
 8005674:	4290      	cmp	r0, r2
 8005676:	d012      	beq.n	800569e <TIM_Base_SetConfig+0x2e>
 8005678:	f1b0 4f80 	cmp.w	r0, #1073741824	; 0x40000000
 800567c:	d00f      	beq.n	800569e <TIM_Base_SetConfig+0x2e>
 800567e:	f5a2 427c 	sub.w	r2, r2, #64512	; 0xfc00
 8005682:	4290      	cmp	r0, r2
 8005684:	d00b      	beq.n	800569e <TIM_Base_SetConfig+0x2e>
 8005686:	f502 6280 	add.w	r2, r2, #1024	; 0x400
 800568a:	4290      	cmp	r0, r2
 800568c:	d007      	beq.n	800569e <TIM_Base_SetConfig+0x2e>
 800568e:	f502 6280 	add.w	r2, r2, #1024	; 0x400
 8005692:	4290      	cmp	r0, r2
 8005694:	d003      	beq.n	800569e <TIM_Base_SetConfig+0x2e>
 8005696:	f502 4278 	add.w	r2, r2, #63488	; 0xf800
 800569a:	4290      	cmp	r0, r2
 800569c:	d119      	bne.n	80056d2 <TIM_Base_SetConfig+0x62>
 800569e:	684a      	ldr	r2, [r1, #4]
 80056a0:	f023 0370 	bic.w	r3, r3, #112	; 0x70
 80056a4:	4313      	orrs	r3, r2
 80056a6:	4a23      	ldr	r2, [pc, #140]	; (8005734 <TIM_Base_SetConfig+0xc4>)
 80056a8:	4290      	cmp	r0, r2
 80056aa:	d029      	beq.n	8005700 <TIM_Base_SetConfig+0x90>
 80056ac:	f1b0 4f80 	cmp.w	r0, #1073741824	; 0x40000000
 80056b0:	d026      	beq.n	8005700 <TIM_Base_SetConfig+0x90>
 80056b2:	f5a2 427c 	sub.w	r2, r2, #64512	; 0xfc00
 80056b6:	4290      	cmp	r0, r2
 80056b8:	d022      	beq.n	8005700 <TIM_Base_SetConfig+0x90>
 80056ba:	f502 6280 	add.w	r2, r2, #1024	; 0x400
 80056be:	4290      	cmp	r0, r2
 80056c0:	d01e      	beq.n	8005700 <TIM_Base_SetConfig+0x90>
 80056c2:	f502 6280 	add.w	r2, r2, #1024	; 0x400
 80056c6:	4290      	cmp	r0, r2
 80056c8:	d01a      	beq.n	8005700 <TIM_Base_SetConfig+0x90>
 80056ca:	f502 4278 	add.w	r2, r2, #63488	; 0xf800
 80056ce:	4290      	cmp	r0, r2
 80056d0:	d016      	beq.n	8005700 <TIM_Base_SetConfig+0x90>
 80056d2:	4a19      	ldr	r2, [pc, #100]	; (8005738 <TIM_Base_SetConfig+0xc8>)
 80056d4:	4290      	cmp	r0, r2
 80056d6:	d013      	beq.n	8005700 <TIM_Base_SetConfig+0x90>
 80056d8:	f502 6280 	add.w	r2, r2, #1024	; 0x400
 80056dc:	4290      	cmp	r0, r2
 80056de:	d00f      	beq.n	8005700 <TIM_Base_SetConfig+0x90>
 80056e0:	f502 6280 	add.w	r2, r2, #1024	; 0x400
 80056e4:	4290      	cmp	r0, r2
 80056e6:	d00b      	beq.n	8005700 <TIM_Base_SetConfig+0x90>
 80056e8:	f5a2 3298 	sub.w	r2, r2, #77824	; 0x13000
 80056ec:	4290      	cmp	r0, r2
 80056ee:	d007      	beq.n	8005700 <TIM_Base_SetConfig+0x90>
 80056f0:	f502 6280 	add.w	r2, r2, #1024	; 0x400
 80056f4:	4290      	cmp	r0, r2
 80056f6:	d003      	beq.n	8005700 <TIM_Base_SetConfig+0x90>
 80056f8:	f502 6280 	add.w	r2, r2, #1024	; 0x400
 80056fc:	4290      	cmp	r0, r2
 80056fe:	d103      	bne.n	8005708 <TIM_Base_SetConfig+0x98>
 8005700:	68ca      	ldr	r2, [r1, #12]
 8005702:	f423 7340 	bic.w	r3, r3, #768	; 0x300
 8005706:	4313      	orrs	r3, r2
 8005708:	694a      	ldr	r2, [r1, #20]
 800570a:	f023 0380 	bic.w	r3, r3, #128	; 0x80
 800570e:	4313      	orrs	r3, r2
 8005710:	6003      	str	r3, [r0, #0]
 8005712:	688b      	ldr	r3, [r1, #8]
 8005714:	62c3      	str	r3, [r0, #44]	; 0x2c
 8005716:	680b      	ldr	r3, [r1, #0]
 8005718:	6283      	str	r3, [r0, #40]	; 0x28
 800571a:	4b06      	ldr	r3, [pc, #24]	; (8005734 <TIM_Base_SetConfig+0xc4>)
 800571c:	4298      	cmp	r0, r3
 800571e:	d003      	beq.n	8005728 <TIM_Base_SetConfig+0xb8>
 8005720:	f503 6380 	add.w	r3, r3, #1024	; 0x400
 8005724:	4298      	cmp	r0, r3
 8005726:	d101      	bne.n	800572c <TIM_Base_SetConfig+0xbc>
 8005728:	690b      	ldr	r3, [r1, #16]
 800572a:	6303      	str	r3, [r0, #48]	; 0x30
 800572c:	2301      	movs	r3, #1
 800572e:	6143      	str	r3, [r0, #20]
 8005730:	4770      	bx	lr
 8005732:	bf00      	nop
 8005734:	40010000 	.word	0x40010000
 8005738:	40014000 	.word	0x40014000

0800573c <HAL_TIM_Base_Init>:
 800573c:	b510      	push	{r4, lr}
 800573e:	4604      	mov	r4, r0
 8005740:	b1a0      	cbz	r0, 800576c <HAL_TIM_Base_Init+0x30>
 8005742:	f890 303d 	ldrb.w	r3, [r0, #61]	; 0x3d
 8005746:	f003 02ff 	and.w	r2, r3, #255	; 0xff
 800574a:	b91b      	cbnz	r3, 8005754 <HAL_TIM_Base_Init+0x18>
 800574c:	f880 203c 	strb.w	r2, [r0, #60]	; 0x3c
 8005750:	f7fe f97e 	bl	8003a50 <HAL_TIM_Base_MspInit>
 8005754:	2302      	movs	r3, #2
 8005756:	f884 303d 	strb.w	r3, [r4, #61]	; 0x3d
 800575a:	6820      	ldr	r0, [r4, #0]
 800575c:	1d21      	adds	r1, r4, #4
 800575e:	f7ff ff87 	bl	8005670 <TIM_Base_SetConfig>
 8005762:	2301      	movs	r3, #1
 8005764:	f884 303d 	strb.w	r3, [r4, #61]	; 0x3d
 8005768:	2000      	movs	r0, #0
 800576a:	bd10      	pop	{r4, pc}
 800576c:	2001      	movs	r0, #1
 800576e:	e7fc      	b.n	800576a <HAL_TIM_Base_Init+0x2e>

08005770 <HAL_TIM_PWM_Init>:
 8005770:	b510      	push	{r4, lr}
 8005772:	4604      	mov	r4, r0
 8005774:	b1a0      	cbz	r0, 80057a0 <HAL_TIM_PWM_Init+0x30>
 8005776:	f890 303d 	ldrb.w	r3, [r0, #61]	; 0x3d
 800577a:	f003 02ff 	and.w	r2, r3, #255	; 0xff
 800577e:	b91b      	cbnz	r3, 8005788 <HAL_TIM_PWM_Init+0x18>
 8005780:	f880 203c 	strb.w	r2, [r0, #60]	; 0x3c
 8005784:	f7ff fecc 	bl	8005520 <HAL_TIM_PWM_MspInit>
 8005788:	2302      	movs	r3, #2
 800578a:	f884 303d 	strb.w	r3, [r4, #61]	; 0x3d
 800578e:	6820      	ldr	r0, [r4, #0]
 8005790:	1d21      	adds	r1, r4, #4
 8005792:	f7ff ff6d 	bl	8005670 <TIM_Base_SetConfig>
 8005796:	2301      	movs	r3, #1
 8005798:	f884 303d 	strb.w	r3, [r4, #61]	; 0x3d
 800579c:	2000      	movs	r0, #0
 800579e:	bd10      	pop	{r4, pc}
 80057a0:	2001      	movs	r0, #1
 80057a2:	e7fc      	b.n	800579e <HAL_TIM_PWM_Init+0x2e>

080057a4 <TIM_OC2_SetConfig>:
 80057a4:	6a03      	ldr	r3, [r0, #32]
 80057a6:	f023 0310 	bic.w	r3, r3, #16
 80057aa:	6203      	str	r3, [r0, #32]
 80057ac:	6a03      	ldr	r3, [r0, #32]
 80057ae:	b570      	push	{r4, r5, r6, lr}
 80057b0:	6844      	ldr	r4, [r0, #4]
 80057b2:	6982      	ldr	r2, [r0, #24]
 80057b4:	680d      	ldr	r5, [r1, #0]
 80057b6:	f422 42e6 	bic.w	r2, r2, #29440	; 0x7300
 80057ba:	ea42 2205 	orr.w	r2, r2, r5, lsl #8
 80057be:	688d      	ldr	r5, [r1, #8]
 80057c0:	f023 0320 	bic.w	r3, r3, #32
 80057c4:	ea43 1305 	orr.w	r3, r3, r5, lsl #4
 80057c8:	4d10      	ldr	r5, [pc, #64]	; (800580c <TIM_OC2_SetConfig+0x68>)
 80057ca:	42a8      	cmp	r0, r5
 80057cc:	d003      	beq.n	80057d6 <TIM_OC2_SetConfig+0x32>
 80057ce:	f505 6580 	add.w	r5, r5, #1024	; 0x400
 80057d2:	42a8      	cmp	r0, r5
 80057d4:	d114      	bne.n	8005800 <TIM_OC2_SetConfig+0x5c>
 80057d6:	68cd      	ldr	r5, [r1, #12]
 80057d8:	f023 0380 	bic.w	r3, r3, #128	; 0x80
 80057dc:	ea43 1305 	orr.w	r3, r3, r5, lsl #4
 80057e0:	4d0a      	ldr	r5, [pc, #40]	; (800580c <TIM_OC2_SetConfig+0x68>)
 80057e2:	42a8      	cmp	r0, r5
 80057e4:	f023 0340 	bic.w	r3, r3, #64	; 0x40
 80057e8:	d003      	beq.n	80057f2 <TIM_OC2_SetConfig+0x4e>
 80057ea:	f505 6580 	add.w	r5, r5, #1024	; 0x400
 80057ee:	42a8      	cmp	r0, r5
 80057f0:	d106      	bne.n	8005800 <TIM_OC2_SetConfig+0x5c>
 80057f2:	e9d1 5605 	ldrd	r5, r6, [r1, #20]
 80057f6:	f424 6440 	bic.w	r4, r4, #3072	; 0xc00
 80057fa:	4335      	orrs	r5, r6
 80057fc:	ea44 0485 	orr.w	r4, r4, r5, lsl #2
 8005800:	6044      	str	r4, [r0, #4]
 8005802:	6182      	str	r2, [r0, #24]
 8005804:	684a      	ldr	r2, [r1, #4]
 8005806:	6382      	str	r2, [r0, #56]	; 0x38
 8005808:	6203      	str	r3, [r0, #32]
 800580a:	bd70      	pop	{r4, r5, r6, pc}
 800580c:	40010000 	.word	0x40010000

08005810 <HAL_TIM_PWM_ConfigChannel>:
 8005810:	b538      	push	{r3, r4, r5, lr}
 8005812:	f890 303c 	ldrb.w	r3, [r0, #60]	; 0x3c
 8005816:	2b01      	cmp	r3, #1
 8005818:	4604      	mov	r4, r0
 800581a:	f04f 0002 	mov.w	r0, #2
 800581e:	d025      	beq.n	800586c <HAL_TIM_PWM_ConfigChannel+0x5c>
 8005820:	2301      	movs	r3, #1
 8005822:	f884 303c 	strb.w	r3, [r4, #60]	; 0x3c
 8005826:	f884 003d 	strb.w	r0, [r4, #61]	; 0x3d
 800582a:	2a0c      	cmp	r2, #12
 800582c:	d818      	bhi.n	8005860 <HAL_TIM_PWM_ConfigChannel+0x50>
 800582e:	e8df f002 	tbb	[pc, r2]
 8005832:	1707      	.short	0x1707
 8005834:	171e1717 	.word	0x171e1717
 8005838:	172f1717 	.word	0x172f1717
 800583c:	1717      	.short	0x1717
 800583e:	40          	.byte	0x40
 800583f:	00          	.byte	0x00
 8005840:	6820      	ldr	r0, [r4, #0]
 8005842:	f7ff fdcf 	bl	80053e4 <TIM_OC1_SetConfig>
 8005846:	6823      	ldr	r3, [r4, #0]
 8005848:	6909      	ldr	r1, [r1, #16]
 800584a:	699a      	ldr	r2, [r3, #24]
 800584c:	f042 0208 	orr.w	r2, r2, #8
 8005850:	619a      	str	r2, [r3, #24]
 8005852:	699a      	ldr	r2, [r3, #24]
 8005854:	f022 0204 	bic.w	r2, r2, #4
 8005858:	619a      	str	r2, [r3, #24]
 800585a:	699a      	ldr	r2, [r3, #24]
 800585c:	430a      	orrs	r2, r1
 800585e:	619a      	str	r2, [r3, #24]
 8005860:	2301      	movs	r3, #1
 8005862:	2000      	movs	r0, #0
 8005864:	f884 303d 	strb.w	r3, [r4, #61]	; 0x3d
 8005868:	f884 003c 	strb.w	r0, [r4, #60]	; 0x3c
 800586c:	bd38      	pop	{r3, r4, r5, pc}
 800586e:	6820      	ldr	r0, [r4, #0]
 8005870:	f7ff ff98 	bl	80057a4 <TIM_OC2_SetConfig>
 8005874:	6823      	ldr	r3, [r4, #0]
 8005876:	6909      	ldr	r1, [r1, #16]
 8005878:	699a      	ldr	r2, [r3, #24]
 800587a:	f442 6200 	orr.w	r2, r2, #2048	; 0x800
 800587e:	619a      	str	r2, [r3, #24]
 8005880:	699a      	ldr	r2, [r3, #24]
 8005882:	f422 6280 	bic.w	r2, r2, #1024	; 0x400
 8005886:	619a      	str	r2, [r3, #24]
 8005888:	699a      	ldr	r2, [r3, #24]
 800588a:	ea42 2201 	orr.w	r2, r2, r1, lsl #8
 800588e:	e7e6      	b.n	800585e <HAL_TIM_PWM_ConfigChannel+0x4e>
 8005890:	6820      	ldr	r0, [r4, #0]
 8005892:	f7ff fdd9 	bl	8005448 <TIM_OC3_SetConfig>
 8005896:	6823      	ldr	r3, [r4, #0]
 8005898:	6909      	ldr	r1, [r1, #16]
 800589a:	69da      	ldr	r2, [r3, #28]
 800589c:	f042 0208 	orr.w	r2, r2, #8
 80058a0:	61da      	str	r2, [r3, #28]
 80058a2:	69da      	ldr	r2, [r3, #28]
 80058a4:	f022 0204 	bic.w	r2, r2, #4
 80058a8:	61da      	str	r2, [r3, #28]
 80058aa:	69da      	ldr	r2, [r3, #28]
 80058ac:	430a      	orrs	r2, r1
 80058ae:	61da      	str	r2, [r3, #28]
 80058b0:	e7d6      	b.n	8005860 <HAL_TIM_PWM_ConfigChannel+0x50>
 80058b2:	6820      	ldr	r0, [r4, #0]
 80058b4:	f7ff fdfe 	bl	80054b4 <TIM_OC4_SetConfig>
 80058b8:	6823      	ldr	r3, [r4, #0]
 80058ba:	6909      	ldr	r1, [r1, #16]
 80058bc:	69da      	ldr	r2, [r3, #28]
 80058be:	f442 6200 	orr.w	r2, r2, #2048	; 0x800
 80058c2:	61da      	str	r2, [r3, #28]
 80058c4:	69da      	ldr	r2, [r3, #28]
 80058c6:	f422 6280 	bic.w	r2, r2, #1024	; 0x400
 80058ca:	61da      	str	r2, [r3, #28]
 80058cc:	69da      	ldr	r2, [r3, #28]
 80058ce:	ea42 2201 	orr.w	r2, r2, r1, lsl #8
 80058d2:	e7ec      	b.n	80058ae <HAL_TIM_PWM_ConfigChannel+0x9e>

080058d4 <TIM_ETR_SetConfig>:
 80058d4:	b510      	push	{r4, lr}
 80058d6:	6884      	ldr	r4, [r0, #8]
 80058d8:	430a      	orrs	r2, r1
 80058da:	f424 447f 	bic.w	r4, r4, #65280	; 0xff00
 80058de:	ea42 2303 	orr.w	r3, r2, r3, lsl #8
 80058e2:	4323      	orrs	r3, r4
 80058e4:	6083      	str	r3, [r0, #8]
 80058e6:	bd10      	pop	{r4, pc}

080058e8 <HAL_TIM_ConfigClockSource>:
 80058e8:	f890 303c 	ldrb.w	r3, [r0, #60]	; 0x3c
 80058ec:	2b01      	cmp	r3, #1
 80058ee:	b570      	push	{r4, r5, r6, lr}
 80058f0:	4604      	mov	r4, r0
 80058f2:	f04f 0002 	mov.w	r0, #2
 80058f6:	d019      	beq.n	800592c <HAL_TIM_ConfigClockSource+0x44>
 80058f8:	f884 003d 	strb.w	r0, [r4, #61]	; 0x3d
 80058fc:	6820      	ldr	r0, [r4, #0]
 80058fe:	2301      	movs	r3, #1
 8005900:	f884 303c 	strb.w	r3, [r4, #60]	; 0x3c
 8005904:	6883      	ldr	r3, [r0, #8]
 8005906:	f423 437f 	bic.w	r3, r3, #65280	; 0xff00
 800590a:	f023 0377 	bic.w	r3, r3, #119	; 0x77
 800590e:	6083      	str	r3, [r0, #8]
 8005910:	680b      	ldr	r3, [r1, #0]
 8005912:	2b40      	cmp	r3, #64	; 0x40
 8005914:	d065      	beq.n	80059e2 <HAL_TIM_ConfigClockSource+0xfa>
 8005916:	d815      	bhi.n	8005944 <HAL_TIM_ConfigClockSource+0x5c>
 8005918:	2b10      	cmp	r3, #16
 800591a:	d00c      	beq.n	8005936 <HAL_TIM_ConfigClockSource+0x4e>
 800591c:	d807      	bhi.n	800592e <HAL_TIM_ConfigClockSource+0x46>
 800591e:	b153      	cbz	r3, 8005936 <HAL_TIM_ConfigClockSource+0x4e>
 8005920:	2301      	movs	r3, #1
 8005922:	2000      	movs	r0, #0
 8005924:	f884 303d 	strb.w	r3, [r4, #61]	; 0x3d
 8005928:	f884 003c 	strb.w	r0, [r4, #60]	; 0x3c
 800592c:	bd70      	pop	{r4, r5, r6, pc}
 800592e:	2b20      	cmp	r3, #32
 8005930:	d001      	beq.n	8005936 <HAL_TIM_ConfigClockSource+0x4e>
 8005932:	2b30      	cmp	r3, #48	; 0x30
 8005934:	d1f4      	bne.n	8005920 <HAL_TIM_ConfigClockSource+0x38>
 8005936:	6882      	ldr	r2, [r0, #8]
 8005938:	f043 0307 	orr.w	r3, r3, #7
 800593c:	f022 0270 	bic.w	r2, r2, #112	; 0x70
 8005940:	4313      	orrs	r3, r2
 8005942:	e01a      	b.n	800597a <HAL_TIM_ConfigClockSource+0x92>
 8005944:	2b60      	cmp	r3, #96	; 0x60
 8005946:	d034      	beq.n	80059b2 <HAL_TIM_ConfigClockSource+0xca>
 8005948:	d819      	bhi.n	800597e <HAL_TIM_ConfigClockSource+0x96>
 800594a:	2b50      	cmp	r3, #80	; 0x50
 800594c:	d1e8      	bne.n	8005920 <HAL_TIM_ConfigClockSource+0x38>
 800594e:	684a      	ldr	r2, [r1, #4]
 8005950:	68ce      	ldr	r6, [r1, #12]
 8005952:	6a01      	ldr	r1, [r0, #32]
 8005954:	6a05      	ldr	r5, [r0, #32]
 8005956:	f025 0501 	bic.w	r5, r5, #1
 800595a:	6205      	str	r5, [r0, #32]
 800595c:	6983      	ldr	r3, [r0, #24]
 800595e:	f021 010a 	bic.w	r1, r1, #10
 8005962:	f023 03f0 	bic.w	r3, r3, #240	; 0xf0
 8005966:	ea43 1306 	orr.w	r3, r3, r6, lsl #4
 800596a:	430a      	orrs	r2, r1
 800596c:	6183      	str	r3, [r0, #24]
 800596e:	6202      	str	r2, [r0, #32]
 8005970:	6883      	ldr	r3, [r0, #8]
 8005972:	f023 0370 	bic.w	r3, r3, #112	; 0x70
 8005976:	f043 0357 	orr.w	r3, r3, #87	; 0x57
 800597a:	6083      	str	r3, [r0, #8]
 800597c:	e7d0      	b.n	8005920 <HAL_TIM_ConfigClockSource+0x38>
 800597e:	2b70      	cmp	r3, #112	; 0x70
 8005980:	d00c      	beq.n	800599c <HAL_TIM_ConfigClockSource+0xb4>
 8005982:	f5b3 5f00 	cmp.w	r3, #8192	; 0x2000
 8005986:	d1cb      	bne.n	8005920 <HAL_TIM_ConfigClockSource+0x38>
 8005988:	68cb      	ldr	r3, [r1, #12]
 800598a:	e9d1 2101 	ldrd	r2, r1, [r1, #4]
 800598e:	f7ff ffa1 	bl	80058d4 <TIM_ETR_SetConfig>
 8005992:	6822      	ldr	r2, [r4, #0]
 8005994:	6893      	ldr	r3, [r2, #8]
 8005996:	f443 4380 	orr.w	r3, r3, #16384	; 0x4000
 800599a:	e008      	b.n	80059ae <HAL_TIM_ConfigClockSource+0xc6>
 800599c:	68cb      	ldr	r3, [r1, #12]
 800599e:	e9d1 2101 	ldrd	r2, r1, [r1, #4]
 80059a2:	f7ff ff97 	bl	80058d4 <TIM_ETR_SetConfig>
 80059a6:	6822      	ldr	r2, [r4, #0]
 80059a8:	6893      	ldr	r3, [r2, #8]
 80059aa:	f043 0377 	orr.w	r3, r3, #119	; 0x77
 80059ae:	6093      	str	r3, [r2, #8]
 80059b0:	e7b6      	b.n	8005920 <HAL_TIM_ConfigClockSource+0x38>
 80059b2:	684d      	ldr	r5, [r1, #4]
 80059b4:	68ce      	ldr	r6, [r1, #12]
 80059b6:	6a01      	ldr	r1, [r0, #32]
 80059b8:	f021 0110 	bic.w	r1, r1, #16
 80059bc:	6201      	str	r1, [r0, #32]
 80059be:	6982      	ldr	r2, [r0, #24]
 80059c0:	6a03      	ldr	r3, [r0, #32]
 80059c2:	f422 4270 	bic.w	r2, r2, #61440	; 0xf000
 80059c6:	f023 03a0 	bic.w	r3, r3, #160	; 0xa0
 80059ca:	ea43 1305 	orr.w	r3, r3, r5, lsl #4
 80059ce:	ea42 3206 	orr.w	r2, r2, r6, lsl #12
 80059d2:	6182      	str	r2, [r0, #24]
 80059d4:	6203      	str	r3, [r0, #32]
 80059d6:	6883      	ldr	r3, [r0, #8]
 80059d8:	f023 0370 	bic.w	r3, r3, #112	; 0x70
 80059dc:	f043 0367 	orr.w	r3, r3, #103	; 0x67
 80059e0:	e7cb      	b.n	800597a <HAL_TIM_ConfigClockSource+0x92>
 80059e2:	684a      	ldr	r2, [r1, #4]
 80059e4:	68ce      	ldr	r6, [r1, #12]
 80059e6:	6a01      	ldr	r1, [r0, #32]
 80059e8:	6a05      	ldr	r5, [r0, #32]
 80059ea:	f025 0501 	bic.w	r5, r5, #1
 80059ee:	6205      	str	r5, [r0, #32]
 80059f0:	6983      	ldr	r3, [r0, #24]
 80059f2:	f021 010a 	bic.w	r1, r1, #10
 80059f6:	f023 03f0 	bic.w	r3, r3, #240	; 0xf0
 80059fa:	ea43 1306 	orr.w	r3, r3, r6, lsl #4
 80059fe:	430a      	orrs	r2, r1
 8005a00:	6183      	str	r3, [r0, #24]
 8005a02:	6202      	str	r2, [r0, #32]
 8005a04:	6883      	ldr	r3, [r0, #8]
 8005a06:	f023 0370 	bic.w	r3, r3, #112	; 0x70
 8005a0a:	f043 0347 	orr.w	r3, r3, #71	; 0x47
 8005a0e:	e7b4      	b.n	800597a <HAL_TIM_ConfigClockSource+0x92>

08005a10 <TIM_CCxChannelCmd>:
 8005a10:	6a03      	ldr	r3, [r0, #32]
 8005a12:	f001 011f 	and.w	r1, r1, #31
 8005a16:	b510      	push	{r4, lr}
 8005a18:	2401      	movs	r4, #1
 8005a1a:	408c      	lsls	r4, r1
 8005a1c:	ea23 0304 	bic.w	r3, r3, r4
 8005a20:	6203      	str	r3, [r0, #32]
 8005a22:	6a03      	ldr	r3, [r0, #32]
 8005a24:	408a      	lsls	r2, r1
 8005a26:	431a      	orrs	r2, r3
 8005a28:	6202      	str	r2, [r0, #32]
 8005a2a:	bd10      	pop	{r4, pc}

08005a2c <HAL_TIM_OC_Start>:
 8005a2c:	b510      	push	{r4, lr}
 8005a2e:	4604      	mov	r4, r0
 8005a30:	2201      	movs	r2, #1
 8005a32:	6800      	ldr	r0, [r0, #0]
 8005a34:	f7ff ffec 	bl	8005a10 <TIM_CCxChannelCmd>
 8005a38:	6823      	ldr	r3, [r4, #0]
 8005a3a:	4a0b      	ldr	r2, [pc, #44]	; (8005a68 <HAL_TIM_OC_Start+0x3c>)
 8005a3c:	4293      	cmp	r3, r2
 8005a3e:	d003      	beq.n	8005a48 <HAL_TIM_OC_Start+0x1c>
 8005a40:	f502 6280 	add.w	r2, r2, #1024	; 0x400
 8005a44:	4293      	cmp	r3, r2
 8005a46:	d103      	bne.n	8005a50 <HAL_TIM_OC_Start+0x24>
 8005a48:	6c5a      	ldr	r2, [r3, #68]	; 0x44
 8005a4a:	f442 4200 	orr.w	r2, r2, #32768	; 0x8000
 8005a4e:	645a      	str	r2, [r3, #68]	; 0x44
 8005a50:	689a      	ldr	r2, [r3, #8]
 8005a52:	f002 0207 	and.w	r2, r2, #7
 8005a56:	2a06      	cmp	r2, #6
 8005a58:	bf1e      	ittt	ne
 8005a5a:	681a      	ldrne	r2, [r3, #0]
 8005a5c:	f042 0201 	orrne.w	r2, r2, #1
 8005a60:	601a      	strne	r2, [r3, #0]
 8005a62:	2000      	movs	r0, #0
 8005a64:	bd10      	pop	{r4, pc}
 8005a66:	bf00      	nop
 8005a68:	40010000 	.word	0x40010000

08005a6c <HAL_TIM_PWM_Start>:
 8005a6c:	f7ff bfde 	b.w	8005a2c <HAL_TIM_OC_Start>

08005a70 <HAL_TIMEx_MasterConfigSynchronization>:
 8005a70:	f890 303c 	ldrb.w	r3, [r0, #60]	; 0x3c
 8005a74:	2b01      	cmp	r3, #1
 8005a76:	b530      	push	{r4, r5, lr}
 8005a78:	f04f 0302 	mov.w	r3, #2
 8005a7c:	d035      	beq.n	8005aea <HAL_TIMEx_MasterConfigSynchronization+0x7a>
 8005a7e:	f880 303d 	strb.w	r3, [r0, #61]	; 0x3d
 8005a82:	6803      	ldr	r3, [r0, #0]
 8005a84:	680d      	ldr	r5, [r1, #0]
 8005a86:	685c      	ldr	r4, [r3, #4]
 8005a88:	f024 0470 	bic.w	r4, r4, #112	; 0x70
 8005a8c:	2201      	movs	r2, #1
 8005a8e:	432c      	orrs	r4, r5
 8005a90:	f880 203c 	strb.w	r2, [r0, #60]	; 0x3c
 8005a94:	689a      	ldr	r2, [r3, #8]
 8005a96:	605c      	str	r4, [r3, #4]
 8005a98:	4c15      	ldr	r4, [pc, #84]	; (8005af0 <HAL_TIMEx_MasterConfigSynchronization+0x80>)
 8005a9a:	42a3      	cmp	r3, r4
 8005a9c:	d01a      	beq.n	8005ad4 <HAL_TIMEx_MasterConfigSynchronization+0x64>
 8005a9e:	f1b3 4f80 	cmp.w	r3, #1073741824	; 0x40000000
 8005aa2:	d017      	beq.n	8005ad4 <HAL_TIMEx_MasterConfigSynchronization+0x64>
 8005aa4:	f5a4 447c 	sub.w	r4, r4, #64512	; 0xfc00
 8005aa8:	42a3      	cmp	r3, r4
 8005aaa:	d013      	beq.n	8005ad4 <HAL_TIMEx_MasterConfigSynchronization+0x64>
 8005aac:	f504 6480 	add.w	r4, r4, #1024	; 0x400
 8005ab0:	42a3      	cmp	r3, r4
 8005ab2:	d00f      	beq.n	8005ad4 <HAL_TIMEx_MasterConfigSynchronization+0x64>
 8005ab4:	f504 6480 	add.w	r4, r4, #1024	; 0x400
 8005ab8:	42a3      	cmp	r3, r4
 8005aba:	d00b      	beq.n	8005ad4 <HAL_TIMEx_MasterConfigSynchronization+0x64>
 8005abc:	f504 4478 	add.w	r4, r4, #63488	; 0xf800
 8005ac0:	42a3      	cmp	r3, r4
 8005ac2:	d007      	beq.n	8005ad4 <HAL_TIMEx_MasterConfigSynchronization+0x64>
 8005ac4:	f504 5470 	add.w	r4, r4, #15360	; 0x3c00
 8005ac8:	42a3      	cmp	r3, r4
 8005aca:	d003      	beq.n	8005ad4 <HAL_TIMEx_MasterConfigSynchronization+0x64>
 8005acc:	f5a4 3494 	sub.w	r4, r4, #75776	; 0x12800
 8005ad0:	42a3      	cmp	r3, r4
 8005ad2:	d104      	bne.n	8005ade <HAL_TIMEx_MasterConfigSynchronization+0x6e>
 8005ad4:	6849      	ldr	r1, [r1, #4]
 8005ad6:	f022 0280 	bic.w	r2, r2, #128	; 0x80
 8005ada:	430a      	orrs	r2, r1
 8005adc:	609a      	str	r2, [r3, #8]
 8005ade:	2301      	movs	r3, #1
 8005ae0:	f880 303d 	strb.w	r3, [r0, #61]	; 0x3d
 8005ae4:	2300      	movs	r3, #0
 8005ae6:	f880 303c 	strb.w	r3, [r0, #60]	; 0x3c
 8005aea:	4618      	mov	r0, r3
 8005aec:	bd30      	pop	{r4, r5, pc}
 8005aee:	bf00      	nop
 8005af0:	40010000 	.word	0x40010000

08005af4 <HAL_TIMEx_ConfigBreakDeadTime>:
 8005af4:	f890 303c 	ldrb.w	r3, [r0, #60]	; 0x3c
 8005af8:	2b01      	cmp	r3, #1
 8005afa:	d01f      	beq.n	8005b3c <HAL_TIMEx_ConfigBreakDeadTime+0x48>
 8005afc:	68cb      	ldr	r3, [r1, #12]
 8005afe:	688a      	ldr	r2, [r1, #8]
 8005b00:	f423 7340 	bic.w	r3, r3, #768	; 0x300
 8005b04:	4313      	orrs	r3, r2
 8005b06:	684a      	ldr	r2, [r1, #4]
 8005b08:	f423 6380 	bic.w	r3, r3, #1024	; 0x400
 8005b0c:	4313      	orrs	r3, r2
 8005b0e:	680a      	ldr	r2, [r1, #0]
 8005b10:	f423 6300 	bic.w	r3, r3, #2048	; 0x800
 8005b14:	4313      	orrs	r3, r2
 8005b16:	690a      	ldr	r2, [r1, #16]
 8005b18:	f423 5380 	bic.w	r3, r3, #4096	; 0x1000
 8005b1c:	4313      	orrs	r3, r2
 8005b1e:	694a      	ldr	r2, [r1, #20]
 8005b20:	f423 5300 	bic.w	r3, r3, #8192	; 0x2000
 8005b24:	4313      	orrs	r3, r2
 8005b26:	69ca      	ldr	r2, [r1, #28]
 8005b28:	f423 4380 	bic.w	r3, r3, #16384	; 0x4000
 8005b2c:	4313      	orrs	r3, r2
 8005b2e:	6802      	ldr	r2, [r0, #0]
 8005b30:	6453      	str	r3, [r2, #68]	; 0x44
 8005b32:	2300      	movs	r3, #0
 8005b34:	f880 303c 	strb.w	r3, [r0, #60]	; 0x3c
 8005b38:	4618      	mov	r0, r3
 8005b3a:	4770      	bx	lr
 8005b3c:	2002      	movs	r0, #2
 8005b3e:	4770      	bx	lr

08005b40 <HAL_TIMEx_CommutCallback>:
 8005b40:	4770      	bx	lr

08005b42 <HAL_TIMEx_BreakCallback>:
 8005b42:	4770      	bx	lr

08005b44 <UART_EndRxTransfer>:
 8005b44:	6803      	ldr	r3, [r0, #0]
 8005b46:	68da      	ldr	r2, [r3, #12]
 8005b48:	f422 7290 	bic.w	r2, r2, #288	; 0x120
 8005b4c:	60da      	str	r2, [r3, #12]
 8005b4e:	695a      	ldr	r2, [r3, #20]
 8005b50:	f022 0201 	bic.w	r2, r2, #1
 8005b54:	615a      	str	r2, [r3, #20]
 8005b56:	2320      	movs	r3, #32
 8005b58:	f880 303a 	strb.w	r3, [r0, #58]	; 0x3a
 8005b5c:	4770      	bx	lr
	...

08005b60 <UART_SetConfig>:
 8005b60:	6803      	ldr	r3, [r0, #0]
 8005b62:	68c1      	ldr	r1, [r0, #12]
 8005b64:	691a      	ldr	r2, [r3, #16]
 8005b66:	b570      	push	{r4, r5, r6, lr}
 8005b68:	f422 5240 	bic.w	r2, r2, #12288	; 0x3000
 8005b6c:	4604      	mov	r4, r0
 8005b6e:	430a      	orrs	r2, r1
 8005b70:	611a      	str	r2, [r3, #16]
 8005b72:	6925      	ldr	r5, [r4, #16]
 8005b74:	68a2      	ldr	r2, [r4, #8]
 8005b76:	68d9      	ldr	r1, [r3, #12]
 8005b78:	69c0      	ldr	r0, [r0, #28]
 8005b7a:	432a      	orrs	r2, r5
 8005b7c:	6965      	ldr	r5, [r4, #20]
 8005b7e:	f421 4116 	bic.w	r1, r1, #38400	; 0x9600
 8005b82:	432a      	orrs	r2, r5
 8005b84:	f021 010c 	bic.w	r1, r1, #12
 8005b88:	4302      	orrs	r2, r0
 8005b8a:	430a      	orrs	r2, r1
 8005b8c:	60da      	str	r2, [r3, #12]
 8005b8e:	695a      	ldr	r2, [r3, #20]
 8005b90:	69a1      	ldr	r1, [r4, #24]
 8005b92:	f422 7240 	bic.w	r2, r2, #768	; 0x300
 8005b96:	430a      	orrs	r2, r1
 8005b98:	f5b0 4f00 	cmp.w	r0, #32768	; 0x8000
 8005b9c:	615a      	str	r2, [r3, #20]
 8005b9e:	4a26      	ldr	r2, [pc, #152]	; (8005c38 <UART_SetConfig+0xd8>)
 8005ba0:	d129      	bne.n	8005bf6 <UART_SetConfig+0x96>
 8005ba2:	4293      	cmp	r3, r2
 8005ba4:	d003      	beq.n	8005bae <UART_SetConfig+0x4e>
 8005ba6:	f502 6280 	add.w	r2, r2, #1024	; 0x400
 8005baa:	4293      	cmp	r3, r2
 8005bac:	d120      	bne.n	8005bf0 <UART_SetConfig+0x90>
 8005bae:	f7ff f891 	bl	8004cd4 <HAL_RCC_GetPCLK2Freq>
 8005bb2:	6862      	ldr	r2, [r4, #4]
 8005bb4:	2600      	movs	r6, #0
 8005bb6:	1892      	adds	r2, r2, r2
 8005bb8:	f04f 0119 	mov.w	r1, #25
 8005bbc:	eb46 0306 	adc.w	r3, r6, r6
 8005bc0:	fba0 0101 	umull	r0, r1, r0, r1
 8005bc4:	f7fb f880 	bl	8000cc8 <__aeabi_uldivmod>
 8005bc8:	2164      	movs	r1, #100	; 0x64
 8005bca:	fbb0 f5f1 	udiv	r5, r0, r1
 8005bce:	fb01 0315 	mls	r3, r1, r5, r0
 8005bd2:	00db      	lsls	r3, r3, #3
 8005bd4:	3332      	adds	r3, #50	; 0x32
 8005bd6:	fbb3 f3f1 	udiv	r3, r3, r1
 8005bda:	f003 0207 	and.w	r2, r3, #7
 8005bde:	005b      	lsls	r3, r3, #1
 8005be0:	6821      	ldr	r1, [r4, #0]
 8005be2:	eb02 1205 	add.w	r2, r2, r5, lsl #4
 8005be6:	f403 73f8 	and.w	r3, r3, #496	; 0x1f0
 8005bea:	4413      	add	r3, r2
 8005bec:	608b      	str	r3, [r1, #8]
 8005bee:	bd70      	pop	{r4, r5, r6, pc}
 8005bf0:	f7ff f860 	bl	8004cb4 <HAL_RCC_GetPCLK1Freq>
 8005bf4:	e7dd      	b.n	8005bb2 <UART_SetConfig+0x52>
 8005bf6:	4293      	cmp	r3, r2
 8005bf8:	d002      	beq.n	8005c00 <UART_SetConfig+0xa0>
 8005bfa:	4a10      	ldr	r2, [pc, #64]	; (8005c3c <UART_SetConfig+0xdc>)
 8005bfc:	4293      	cmp	r3, r2
 8005bfe:	d117      	bne.n	8005c30 <UART_SetConfig+0xd0>
 8005c00:	f7ff f868 	bl	8004cd4 <HAL_RCC_GetPCLK2Freq>
 8005c04:	6863      	ldr	r3, [r4, #4]
 8005c06:	2119      	movs	r1, #25
 8005c08:	009a      	lsls	r2, r3, #2
 8005c0a:	fba0 0101 	umull	r0, r1, r0, r1
 8005c0e:	0f9b      	lsrs	r3, r3, #30
 8005c10:	f7fb f85a 	bl	8000cc8 <__aeabi_uldivmod>
 8005c14:	2264      	movs	r2, #100	; 0x64
 8005c16:	fbb0 f1f2 	udiv	r1, r0, r2
 8005c1a:	fb02 0311 	mls	r3, r2, r1, r0
 8005c1e:	6824      	ldr	r4, [r4, #0]
 8005c20:	011b      	lsls	r3, r3, #4
 8005c22:	3332      	adds	r3, #50	; 0x32
 8005c24:	fbb3 f3f2 	udiv	r3, r3, r2
 8005c28:	eb03 1301 	add.w	r3, r3, r1, lsl #4
 8005c2c:	60a3      	str	r3, [r4, #8]
 8005c2e:	e7de      	b.n	8005bee <UART_SetConfig+0x8e>
 8005c30:	f7ff f840 	bl	8004cb4 <HAL_RCC_GetPCLK1Freq>
 8005c34:	e7e6      	b.n	8005c04 <UART_SetConfig+0xa4>
 8005c36:	bf00      	nop
 8005c38:	40011000 	.word	0x40011000
 8005c3c:	40011400 	.word	0x40011400

08005c40 <UART_WaitOnFlagUntilTimeout.constprop.3>:
 8005c40:	b5f8      	push	{r3, r4, r5, r6, r7, lr}
 8005c42:	4604      	mov	r4, r0
 8005c44:	460e      	mov	r6, r1
 8005c46:	4617      	mov	r7, r2
 8005c48:	461d      	mov	r5, r3
 8005c4a:	6821      	ldr	r1, [r4, #0]
 8005c4c:	680b      	ldr	r3, [r1, #0]
 8005c4e:	ea36 0303 	bics.w	r3, r6, r3
 8005c52:	d101      	bne.n	8005c58 <UART_WaitOnFlagUntilTimeout.constprop.3+0x18>
 8005c54:	2000      	movs	r0, #0
 8005c56:	e014      	b.n	8005c82 <UART_WaitOnFlagUntilTimeout.constprop.3+0x42>
 8005c58:	1c6b      	adds	r3, r5, #1
 8005c5a:	d0f7      	beq.n	8005c4c <UART_WaitOnFlagUntilTimeout.constprop.3+0xc>
 8005c5c:	b995      	cbnz	r5, 8005c84 <UART_WaitOnFlagUntilTimeout.constprop.3+0x44>
 8005c5e:	6823      	ldr	r3, [r4, #0]
 8005c60:	68da      	ldr	r2, [r3, #12]
 8005c62:	f422 72d0 	bic.w	r2, r2, #416	; 0x1a0
 8005c66:	60da      	str	r2, [r3, #12]
 8005c68:	695a      	ldr	r2, [r3, #20]
 8005c6a:	f022 0201 	bic.w	r2, r2, #1
 8005c6e:	615a      	str	r2, [r3, #20]
 8005c70:	2320      	movs	r3, #32
 8005c72:	f884 3039 	strb.w	r3, [r4, #57]	; 0x39
 8005c76:	f884 303a 	strb.w	r3, [r4, #58]	; 0x3a
 8005c7a:	2300      	movs	r3, #0
 8005c7c:	f884 3038 	strb.w	r3, [r4, #56]	; 0x38
 8005c80:	2003      	movs	r0, #3
 8005c82:	bdf8      	pop	{r3, r4, r5, r6, r7, pc}
 8005c84:	f7fe f89a 	bl	8003dbc <HAL_GetTick>
 8005c88:	1bc0      	subs	r0, r0, r7
 8005c8a:	4285      	cmp	r5, r0
 8005c8c:	d2dd      	bcs.n	8005c4a <UART_WaitOnFlagUntilTimeout.constprop.3+0xa>
 8005c8e:	e7e6      	b.n	8005c5e <UART_WaitOnFlagUntilTimeout.constprop.3+0x1e>

08005c90 <HAL_UART_Init>:
 8005c90:	b510      	push	{r4, lr}
 8005c92:	4604      	mov	r4, r0
 8005c94:	b340      	cbz	r0, 8005ce8 <HAL_UART_Init+0x58>
 8005c96:	f890 3039 	ldrb.w	r3, [r0, #57]	; 0x39
 8005c9a:	f003 02ff 	and.w	r2, r3, #255	; 0xff
 8005c9e:	b91b      	cbnz	r3, 8005ca8 <HAL_UART_Init+0x18>
 8005ca0:	f880 2038 	strb.w	r2, [r0, #56]	; 0x38
 8005ca4:	f7fd ffbe 	bl	8003c24 <HAL_UART_MspInit>
 8005ca8:	6822      	ldr	r2, [r4, #0]
 8005caa:	2324      	movs	r3, #36	; 0x24
 8005cac:	f884 3039 	strb.w	r3, [r4, #57]	; 0x39
 8005cb0:	68d3      	ldr	r3, [r2, #12]
 8005cb2:	f423 5300 	bic.w	r3, r3, #8192	; 0x2000
 8005cb6:	60d3      	str	r3, [r2, #12]
 8005cb8:	4620      	mov	r0, r4
 8005cba:	f7ff ff51 	bl	8005b60 <UART_SetConfig>
 8005cbe:	6823      	ldr	r3, [r4, #0]
 8005cc0:	691a      	ldr	r2, [r3, #16]
 8005cc2:	f422 4290 	bic.w	r2, r2, #18432	; 0x4800
 8005cc6:	611a      	str	r2, [r3, #16]
 8005cc8:	695a      	ldr	r2, [r3, #20]
 8005cca:	f022 022a 	bic.w	r2, r2, #42	; 0x2a
 8005cce:	615a      	str	r2, [r3, #20]
 8005cd0:	68da      	ldr	r2, [r3, #12]
 8005cd2:	f442 5200 	orr.w	r2, r2, #8192	; 0x2000
 8005cd6:	60da      	str	r2, [r3, #12]
 8005cd8:	2000      	movs	r0, #0
 8005cda:	2320      	movs	r3, #32
 8005cdc:	63e0      	str	r0, [r4, #60]	; 0x3c
 8005cde:	f884 3039 	strb.w	r3, [r4, #57]	; 0x39
 8005ce2:	f884 303a 	strb.w	r3, [r4, #58]	; 0x3a
 8005ce6:	bd10      	pop	{r4, pc}
 8005ce8:	2001      	movs	r0, #1
 8005cea:	e7fc      	b.n	8005ce6 <HAL_UART_Init+0x56>

08005cec <HAL_UART_Transmit>:
 8005cec:	e92d 43f8 	stmdb	sp!, {r3, r4, r5, r6, r7, r8, r9, lr}
 8005cf0:	461f      	mov	r7, r3
 8005cf2:	f890 3039 	ldrb.w	r3, [r0, #57]	; 0x39
 8005cf6:	2b20      	cmp	r3, #32
 8005cf8:	4604      	mov	r4, r0
 8005cfa:	460d      	mov	r5, r1
 8005cfc:	4690      	mov	r8, r2
 8005cfe:	d14f      	bne.n	8005da0 <HAL_UART_Transmit+0xb4>
 8005d00:	2900      	cmp	r1, #0
 8005d02:	d04b      	beq.n	8005d9c <HAL_UART_Transmit+0xb0>
 8005d04:	2a00      	cmp	r2, #0
 8005d06:	d049      	beq.n	8005d9c <HAL_UART_Transmit+0xb0>
 8005d08:	f890 3038 	ldrb.w	r3, [r0, #56]	; 0x38
 8005d0c:	2b01      	cmp	r3, #1
 8005d0e:	d047      	beq.n	8005da0 <HAL_UART_Transmit+0xb4>
 8005d10:	2301      	movs	r3, #1
 8005d12:	f880 3038 	strb.w	r3, [r0, #56]	; 0x38
 8005d16:	f04f 0900 	mov.w	r9, #0
 8005d1a:	2321      	movs	r3, #33	; 0x21
 8005d1c:	f8c0 903c 	str.w	r9, [r0, #60]	; 0x3c
 8005d20:	f880 3039 	strb.w	r3, [r0, #57]	; 0x39
 8005d24:	f7fe f84a 	bl	8003dbc <HAL_GetTick>
 8005d28:	f8a4 8024 	strh.w	r8, [r4, #36]	; 0x24
 8005d2c:	4606      	mov	r6, r0
 8005d2e:	f8a4 8026 	strh.w	r8, [r4, #38]	; 0x26
 8005d32:	f884 9038 	strb.w	r9, [r4, #56]	; 0x38
 8005d36:	8ce3      	ldrh	r3, [r4, #38]	; 0x26
 8005d38:	b29b      	uxth	r3, r3
 8005d3a:	b953      	cbnz	r3, 8005d52 <HAL_UART_Transmit+0x66>
 8005d3c:	463b      	mov	r3, r7
 8005d3e:	4632      	mov	r2, r6
 8005d40:	2140      	movs	r1, #64	; 0x40
 8005d42:	4620      	mov	r0, r4
 8005d44:	f7ff ff7c 	bl	8005c40 <UART_WaitOnFlagUntilTimeout.constprop.3>
 8005d48:	b998      	cbnz	r0, 8005d72 <HAL_UART_Transmit+0x86>
 8005d4a:	2320      	movs	r3, #32
 8005d4c:	f884 3039 	strb.w	r3, [r4, #57]	; 0x39
 8005d50:	e010      	b.n	8005d74 <HAL_UART_Transmit+0x88>
 8005d52:	8ce3      	ldrh	r3, [r4, #38]	; 0x26
 8005d54:	3b01      	subs	r3, #1
 8005d56:	b29b      	uxth	r3, r3
 8005d58:	84e3      	strh	r3, [r4, #38]	; 0x26
 8005d5a:	68a3      	ldr	r3, [r4, #8]
 8005d5c:	f5b3 5f80 	cmp.w	r3, #4096	; 0x1000
 8005d60:	4632      	mov	r2, r6
 8005d62:	463b      	mov	r3, r7
 8005d64:	f04f 0180 	mov.w	r1, #128	; 0x80
 8005d68:	4620      	mov	r0, r4
 8005d6a:	d10e      	bne.n	8005d8a <HAL_UART_Transmit+0x9e>
 8005d6c:	f7ff ff68 	bl	8005c40 <UART_WaitOnFlagUntilTimeout.constprop.3>
 8005d70:	b110      	cbz	r0, 8005d78 <HAL_UART_Transmit+0x8c>
 8005d72:	2003      	movs	r0, #3
 8005d74:	e8bd 83f8 	ldmia.w	sp!, {r3, r4, r5, r6, r7, r8, r9, pc}
 8005d78:	882b      	ldrh	r3, [r5, #0]
 8005d7a:	6822      	ldr	r2, [r4, #0]
 8005d7c:	f3c3 0308 	ubfx	r3, r3, #0, #9
 8005d80:	6053      	str	r3, [r2, #4]
 8005d82:	6923      	ldr	r3, [r4, #16]
 8005d84:	b943      	cbnz	r3, 8005d98 <HAL_UART_Transmit+0xac>
 8005d86:	3502      	adds	r5, #2
 8005d88:	e7d5      	b.n	8005d36 <HAL_UART_Transmit+0x4a>
 8005d8a:	f7ff ff59 	bl	8005c40 <UART_WaitOnFlagUntilTimeout.constprop.3>
 8005d8e:	2800      	cmp	r0, #0
 8005d90:	d1ef      	bne.n	8005d72 <HAL_UART_Transmit+0x86>
 8005d92:	6823      	ldr	r3, [r4, #0]
 8005d94:	782a      	ldrb	r2, [r5, #0]
 8005d96:	605a      	str	r2, [r3, #4]
 8005d98:	3501      	adds	r5, #1
 8005d9a:	e7cc      	b.n	8005d36 <HAL_UART_Transmit+0x4a>
 8005d9c:	2001      	movs	r0, #1
 8005d9e:	e7e9      	b.n	8005d74 <HAL_UART_Transmit+0x88>
 8005da0:	2002      	movs	r0, #2
 8005da2:	e7e7      	b.n	8005d74 <HAL_UART_Transmit+0x88>

08005da4 <HAL_UART_Receive_IT>:
 8005da4:	f890 303a 	ldrb.w	r3, [r0, #58]	; 0x3a
 8005da8:	2b20      	cmp	r3, #32
 8005daa:	d120      	bne.n	8005dee <HAL_UART_Receive_IT+0x4a>
 8005dac:	b1e9      	cbz	r1, 8005dea <HAL_UART_Receive_IT+0x46>
 8005dae:	b1e2      	cbz	r2, 8005dea <HAL_UART_Receive_IT+0x46>
 8005db0:	f890 3038 	ldrb.w	r3, [r0, #56]	; 0x38
 8005db4:	2b01      	cmp	r3, #1
 8005db6:	d01a      	beq.n	8005dee <HAL_UART_Receive_IT+0x4a>
 8005db8:	85c2      	strh	r2, [r0, #46]	; 0x2e
 8005dba:	8582      	strh	r2, [r0, #44]	; 0x2c
 8005dbc:	2300      	movs	r3, #0
 8005dbe:	2222      	movs	r2, #34	; 0x22
 8005dc0:	63c3      	str	r3, [r0, #60]	; 0x3c
 8005dc2:	f880 203a 	strb.w	r2, [r0, #58]	; 0x3a
 8005dc6:	6802      	ldr	r2, [r0, #0]
 8005dc8:	6281      	str	r1, [r0, #40]	; 0x28
 8005dca:	68d1      	ldr	r1, [r2, #12]
 8005dcc:	f880 3038 	strb.w	r3, [r0, #56]	; 0x38
 8005dd0:	f441 7180 	orr.w	r1, r1, #256	; 0x100
 8005dd4:	60d1      	str	r1, [r2, #12]
 8005dd6:	6951      	ldr	r1, [r2, #20]
 8005dd8:	f041 0101 	orr.w	r1, r1, #1
 8005ddc:	6151      	str	r1, [r2, #20]
 8005dde:	68d1      	ldr	r1, [r2, #12]
 8005de0:	f041 0120 	orr.w	r1, r1, #32
 8005de4:	60d1      	str	r1, [r2, #12]
 8005de6:	4618      	mov	r0, r3
 8005de8:	4770      	bx	lr
 8005dea:	2001      	movs	r0, #1
 8005dec:	4770      	bx	lr
 8005dee:	2002      	movs	r0, #2
 8005df0:	4770      	bx	lr

08005df2 <HAL_UART_TxCpltCallback>:
 8005df2:	4770      	bx	lr

08005df4 <UART_Receive_IT>:
 8005df4:	f890 303a 	ldrb.w	r3, [r0, #58]	; 0x3a
 8005df8:	2b22      	cmp	r3, #34	; 0x22
 8005dfa:	b510      	push	{r4, lr}
 8005dfc:	d133      	bne.n	8005e66 <UART_Receive_IT+0x72>
 8005dfe:	6881      	ldr	r1, [r0, #8]
 8005e00:	6904      	ldr	r4, [r0, #16]
 8005e02:	6a83      	ldr	r3, [r0, #40]	; 0x28
 8005e04:	6802      	ldr	r2, [r0, #0]
 8005e06:	f5b1 5f80 	cmp.w	r1, #4096	; 0x1000
 8005e0a:	d123      	bne.n	8005e54 <UART_Receive_IT+0x60>
 8005e0c:	6852      	ldr	r2, [r2, #4]
 8005e0e:	b9ec      	cbnz	r4, 8005e4c <UART_Receive_IT+0x58>
 8005e10:	f3c2 0208 	ubfx	r2, r2, #0, #9
 8005e14:	f823 2b02 	strh.w	r2, [r3], #2
 8005e18:	6283      	str	r3, [r0, #40]	; 0x28
 8005e1a:	8dc4      	ldrh	r4, [r0, #46]	; 0x2e
 8005e1c:	3c01      	subs	r4, #1
 8005e1e:	b2a4      	uxth	r4, r4
 8005e20:	85c4      	strh	r4, [r0, #46]	; 0x2e
 8005e22:	b98c      	cbnz	r4, 8005e48 <UART_Receive_IT+0x54>
 8005e24:	6803      	ldr	r3, [r0, #0]
 8005e26:	68da      	ldr	r2, [r3, #12]
 8005e28:	f022 0220 	bic.w	r2, r2, #32
 8005e2c:	60da      	str	r2, [r3, #12]
 8005e2e:	68da      	ldr	r2, [r3, #12]
 8005e30:	f422 7280 	bic.w	r2, r2, #256	; 0x100
 8005e34:	60da      	str	r2, [r3, #12]
 8005e36:	695a      	ldr	r2, [r3, #20]
 8005e38:	f022 0201 	bic.w	r2, r2, #1
 8005e3c:	615a      	str	r2, [r3, #20]
 8005e3e:	2320      	movs	r3, #32
 8005e40:	f880 303a 	strb.w	r3, [r0, #58]	; 0x3a
 8005e44:	f7fd ff3c 	bl	8003cc0 <HAL_UART_RxCpltCallback>
 8005e48:	2000      	movs	r0, #0
 8005e4a:	e00d      	b.n	8005e68 <UART_Receive_IT+0x74>
 8005e4c:	b2d2      	uxtb	r2, r2
 8005e4e:	f823 2b01 	strh.w	r2, [r3], #1
 8005e52:	e7e1      	b.n	8005e18 <UART_Receive_IT+0x24>
 8005e54:	1c59      	adds	r1, r3, #1
 8005e56:	6852      	ldr	r2, [r2, #4]
 8005e58:	6281      	str	r1, [r0, #40]	; 0x28
 8005e5a:	b90c      	cbnz	r4, 8005e60 <UART_Receive_IT+0x6c>
 8005e5c:	701a      	strb	r2, [r3, #0]
 8005e5e:	e7dc      	b.n	8005e1a <UART_Receive_IT+0x26>
 8005e60:	f002 027f 	and.w	r2, r2, #127	; 0x7f
 8005e64:	e7fa      	b.n	8005e5c <UART_Receive_IT+0x68>
 8005e66:	2002      	movs	r0, #2
 8005e68:	bd10      	pop	{r4, pc}

08005e6a <HAL_UART_ErrorCallback>:
 8005e6a:	4770      	bx	lr

08005e6c <HAL_UART_IRQHandler>:
 8005e6c:	6803      	ldr	r3, [r0, #0]
 8005e6e:	681a      	ldr	r2, [r3, #0]
 8005e70:	68d9      	ldr	r1, [r3, #12]
 8005e72:	b570      	push	{r4, r5, r6, lr}
 8005e74:	0716      	lsls	r6, r2, #28
 8005e76:	4604      	mov	r4, r0
 8005e78:	695d      	ldr	r5, [r3, #20]
 8005e7a:	d107      	bne.n	8005e8c <HAL_UART_IRQHandler+0x20>
 8005e7c:	0696      	lsls	r6, r2, #26
 8005e7e:	d55a      	bpl.n	8005f36 <HAL_UART_IRQHandler+0xca>
 8005e80:	068d      	lsls	r5, r1, #26
 8005e82:	d558      	bpl.n	8005f36 <HAL_UART_IRQHandler+0xca>
 8005e84:	e8bd 4070 	ldmia.w	sp!, {r4, r5, r6, lr}
 8005e88:	f7ff bfb4 	b.w	8005df4 <UART_Receive_IT>
 8005e8c:	f015 0501 	ands.w	r5, r5, #1
 8005e90:	d102      	bne.n	8005e98 <HAL_UART_IRQHandler+0x2c>
 8005e92:	f411 7f90 	tst.w	r1, #288	; 0x120
 8005e96:	d04e      	beq.n	8005f36 <HAL_UART_IRQHandler+0xca>
 8005e98:	07d0      	lsls	r0, r2, #31
 8005e9a:	d505      	bpl.n	8005ea8 <HAL_UART_IRQHandler+0x3c>
 8005e9c:	05cb      	lsls	r3, r1, #23
 8005e9e:	bf42      	ittt	mi
 8005ea0:	6be3      	ldrmi	r3, [r4, #60]	; 0x3c
 8005ea2:	f043 0301 	orrmi.w	r3, r3, #1
 8005ea6:	63e3      	strmi	r3, [r4, #60]	; 0x3c
 8005ea8:	0756      	lsls	r6, r2, #29
 8005eaa:	d504      	bpl.n	8005eb6 <HAL_UART_IRQHandler+0x4a>
 8005eac:	b11d      	cbz	r5, 8005eb6 <HAL_UART_IRQHandler+0x4a>
 8005eae:	6be3      	ldr	r3, [r4, #60]	; 0x3c
 8005eb0:	f043 0302 	orr.w	r3, r3, #2
 8005eb4:	63e3      	str	r3, [r4, #60]	; 0x3c
 8005eb6:	0790      	lsls	r0, r2, #30
 8005eb8:	d504      	bpl.n	8005ec4 <HAL_UART_IRQHandler+0x58>
 8005eba:	b11d      	cbz	r5, 8005ec4 <HAL_UART_IRQHandler+0x58>
 8005ebc:	6be3      	ldr	r3, [r4, #60]	; 0x3c
 8005ebe:	f043 0304 	orr.w	r3, r3, #4
 8005ec2:	63e3      	str	r3, [r4, #60]	; 0x3c
 8005ec4:	0713      	lsls	r3, r2, #28
 8005ec6:	d506      	bpl.n	8005ed6 <HAL_UART_IRQHandler+0x6a>
 8005ec8:	068e      	lsls	r6, r1, #26
 8005eca:	d400      	bmi.n	8005ece <HAL_UART_IRQHandler+0x62>
 8005ecc:	b11d      	cbz	r5, 8005ed6 <HAL_UART_IRQHandler+0x6a>
 8005ece:	6be3      	ldr	r3, [r4, #60]	; 0x3c
 8005ed0:	f043 0308 	orr.w	r3, r3, #8
 8005ed4:	63e3      	str	r3, [r4, #60]	; 0x3c
 8005ed6:	6be3      	ldr	r3, [r4, #60]	; 0x3c
 8005ed8:	b343      	cbz	r3, 8005f2c <HAL_UART_IRQHandler+0xc0>
 8005eda:	0695      	lsls	r5, r2, #26
 8005edc:	d504      	bpl.n	8005ee8 <HAL_UART_IRQHandler+0x7c>
 8005ede:	0688      	lsls	r0, r1, #26
 8005ee0:	d502      	bpl.n	8005ee8 <HAL_UART_IRQHandler+0x7c>
 8005ee2:	4620      	mov	r0, r4
 8005ee4:	f7ff ff86 	bl	8005df4 <UART_Receive_IT>
 8005ee8:	6823      	ldr	r3, [r4, #0]
 8005eea:	695d      	ldr	r5, [r3, #20]
 8005eec:	6be2      	ldr	r2, [r4, #60]	; 0x3c
 8005eee:	0711      	lsls	r1, r2, #28
 8005ef0:	4620      	mov	r0, r4
 8005ef2:	d402      	bmi.n	8005efa <HAL_UART_IRQHandler+0x8e>
 8005ef4:	f015 0540 	ands.w	r5, r5, #64	; 0x40
 8005ef8:	d019      	beq.n	8005f2e <HAL_UART_IRQHandler+0xc2>
 8005efa:	f7ff fe23 	bl	8005b44 <UART_EndRxTransfer>
 8005efe:	6823      	ldr	r3, [r4, #0]
 8005f00:	695a      	ldr	r2, [r3, #20]
 8005f02:	0652      	lsls	r2, r2, #25
 8005f04:	d50f      	bpl.n	8005f26 <HAL_UART_IRQHandler+0xba>
 8005f06:	695a      	ldr	r2, [r3, #20]
 8005f08:	6b60      	ldr	r0, [r4, #52]	; 0x34
 8005f0a:	f022 0240 	bic.w	r2, r2, #64	; 0x40
 8005f0e:	615a      	str	r2, [r3, #20]
 8005f10:	b148      	cbz	r0, 8005f26 <HAL_UART_IRQHandler+0xba>
 8005f12:	4b26      	ldr	r3, [pc, #152]	; (8005fac <HAL_UART_IRQHandler+0x140>)
 8005f14:	6503      	str	r3, [r0, #80]	; 0x50
 8005f16:	f7fe fd05 	bl	8004924 <HAL_DMA_Abort_IT>
 8005f1a:	b138      	cbz	r0, 8005f2c <HAL_UART_IRQHandler+0xc0>
 8005f1c:	6b60      	ldr	r0, [r4, #52]	; 0x34
 8005f1e:	e8bd 4070 	ldmia.w	sp!, {r4, r5, r6, lr}
 8005f22:	6d03      	ldr	r3, [r0, #80]	; 0x50
 8005f24:	4718      	bx	r3
 8005f26:	4620      	mov	r0, r4
 8005f28:	f7ff ff9f 	bl	8005e6a <HAL_UART_ErrorCallback>
 8005f2c:	bd70      	pop	{r4, r5, r6, pc}
 8005f2e:	f7ff ff9c 	bl	8005e6a <HAL_UART_ErrorCallback>
 8005f32:	63e5      	str	r5, [r4, #60]	; 0x3c
 8005f34:	e7fa      	b.n	8005f2c <HAL_UART_IRQHandler+0xc0>
 8005f36:	0616      	lsls	r6, r2, #24
 8005f38:	d528      	bpl.n	8005f8c <HAL_UART_IRQHandler+0x120>
 8005f3a:	060d      	lsls	r5, r1, #24
 8005f3c:	d526      	bpl.n	8005f8c <HAL_UART_IRQHandler+0x120>
 8005f3e:	f894 2039 	ldrb.w	r2, [r4, #57]	; 0x39
 8005f42:	2a21      	cmp	r2, #33	; 0x21
 8005f44:	d1f2      	bne.n	8005f2c <HAL_UART_IRQHandler+0xc0>
 8005f46:	68a1      	ldr	r1, [r4, #8]
 8005f48:	6a22      	ldr	r2, [r4, #32]
 8005f4a:	f5b1 5f80 	cmp.w	r1, #4096	; 0x1000
 8005f4e:	d118      	bne.n	8005f82 <HAL_UART_IRQHandler+0x116>
 8005f50:	8811      	ldrh	r1, [r2, #0]
 8005f52:	f3c1 0108 	ubfx	r1, r1, #0, #9
 8005f56:	6059      	str	r1, [r3, #4]
 8005f58:	6921      	ldr	r1, [r4, #16]
 8005f5a:	b981      	cbnz	r1, 8005f7e <HAL_UART_IRQHandler+0x112>
 8005f5c:	3202      	adds	r2, #2
 8005f5e:	6222      	str	r2, [r4, #32]
 8005f60:	8ce2      	ldrh	r2, [r4, #38]	; 0x26
 8005f62:	3a01      	subs	r2, #1
 8005f64:	b292      	uxth	r2, r2
 8005f66:	84e2      	strh	r2, [r4, #38]	; 0x26
 8005f68:	2a00      	cmp	r2, #0
 8005f6a:	d1df      	bne.n	8005f2c <HAL_UART_IRQHandler+0xc0>
 8005f6c:	68da      	ldr	r2, [r3, #12]
 8005f6e:	f022 0280 	bic.w	r2, r2, #128	; 0x80
 8005f72:	60da      	str	r2, [r3, #12]
 8005f74:	68da      	ldr	r2, [r3, #12]
 8005f76:	f042 0240 	orr.w	r2, r2, #64	; 0x40
 8005f7a:	60da      	str	r2, [r3, #12]
 8005f7c:	e7d6      	b.n	8005f2c <HAL_UART_IRQHandler+0xc0>
 8005f7e:	3201      	adds	r2, #1
 8005f80:	e7ed      	b.n	8005f5e <HAL_UART_IRQHandler+0xf2>
 8005f82:	1c51      	adds	r1, r2, #1
 8005f84:	6221      	str	r1, [r4, #32]
 8005f86:	7812      	ldrb	r2, [r2, #0]
 8005f88:	605a      	str	r2, [r3, #4]
 8005f8a:	e7e9      	b.n	8005f60 <HAL_UART_IRQHandler+0xf4>
 8005f8c:	0650      	lsls	r0, r2, #25
 8005f8e:	d5cd      	bpl.n	8005f2c <HAL_UART_IRQHandler+0xc0>
 8005f90:	064a      	lsls	r2, r1, #25
 8005f92:	d5cb      	bpl.n	8005f2c <HAL_UART_IRQHandler+0xc0>
 8005f94:	68da      	ldr	r2, [r3, #12]
 8005f96:	f022 0240 	bic.w	r2, r2, #64	; 0x40
 8005f9a:	60da      	str	r2, [r3, #12]
 8005f9c:	2320      	movs	r3, #32
 8005f9e:	f884 3039 	strb.w	r3, [r4, #57]	; 0x39
 8005fa2:	4620      	mov	r0, r4
 8005fa4:	f7ff ff25 	bl	8005df2 <HAL_UART_TxCpltCallback>
 8005fa8:	e7c0      	b.n	8005f2c <HAL_UART_IRQHandler+0xc0>
 8005faa:	bf00      	nop
 8005fac:	08005fb1 	.word	0x08005fb1

08005fb0 <UART_DMAAbortOnError>:
 8005fb0:	b508      	push	{r3, lr}
 8005fb2:	6b80      	ldr	r0, [r0, #56]	; 0x38
 8005fb4:	2300      	movs	r3, #0
 8005fb6:	85c3      	strh	r3, [r0, #46]	; 0x2e
 8005fb8:	84c3      	strh	r3, [r0, #38]	; 0x26
 8005fba:	f7ff ff56 	bl	8005e6a <HAL_UART_ErrorCallback>
 8005fbe:	bd08      	pop	{r3, pc}

08005fc0 <round>:
 8005fc0:	b5f8      	push	{r3, r4, r5, r6, r7, lr}
 8005fc2:	ec57 6b10 	vmov	r6, r7, d0
 8005fc6:	f3c7 500a 	ubfx	r0, r7, #20, #11
 8005fca:	f2a0 34ff 	subw	r4, r0, #1023	; 0x3ff
 8005fce:	2c13      	cmp	r4, #19
 8005fd0:	463b      	mov	r3, r7
 8005fd2:	463d      	mov	r5, r7
 8005fd4:	dc17      	bgt.n	8006006 <round+0x46>
 8005fd6:	2c00      	cmp	r4, #0
 8005fd8:	da09      	bge.n	8005fee <round+0x2e>
 8005fda:	3401      	adds	r4, #1
 8005fdc:	f007 4300 	and.w	r3, r7, #2147483648	; 0x80000000
 8005fe0:	d103      	bne.n	8005fea <round+0x2a>
 8005fe2:	f043 537f 	orr.w	r3, r3, #1069547520	; 0x3fc00000
 8005fe6:	f443 1340 	orr.w	r3, r3, #3145728	; 0x300000
 8005fea:	2100      	movs	r1, #0
 8005fec:	e02c      	b.n	8006048 <round+0x88>
 8005fee:	4a18      	ldr	r2, [pc, #96]	; (8006050 <round+0x90>)
 8005ff0:	4122      	asrs	r2, r4
 8005ff2:	4217      	tst	r7, r2
 8005ff4:	d100      	bne.n	8005ff8 <round+0x38>
 8005ff6:	b19e      	cbz	r6, 8006020 <round+0x60>
 8005ff8:	f44f 2300 	mov.w	r3, #524288	; 0x80000
 8005ffc:	4123      	asrs	r3, r4
 8005ffe:	442b      	add	r3, r5
 8006000:	ea23 0302 	bic.w	r3, r3, r2
 8006004:	e7f1      	b.n	8005fea <round+0x2a>
 8006006:	2c33      	cmp	r4, #51	; 0x33
 8006008:	dd0d      	ble.n	8006026 <round+0x66>
 800600a:	f5b4 6f80 	cmp.w	r4, #1024	; 0x400
 800600e:	d107      	bne.n	8006020 <round+0x60>
 8006010:	4630      	mov	r0, r6
 8006012:	4639      	mov	r1, r7
 8006014:	ee10 2a10 	vmov	r2, s0
 8006018:	f7fa f958 	bl	80002cc <__adddf3>
 800601c:	4606      	mov	r6, r0
 800601e:	460f      	mov	r7, r1
 8006020:	ec47 6b10 	vmov	d0, r6, r7
 8006024:	bdf8      	pop	{r3, r4, r5, r6, r7, pc}
 8006026:	f2a0 4213 	subw	r2, r0, #1043	; 0x413
 800602a:	f04f 30ff 	mov.w	r0, #4294967295
 800602e:	40d0      	lsrs	r0, r2
 8006030:	4206      	tst	r6, r0
 8006032:	d0f5      	beq.n	8006020 <round+0x60>
 8006034:	2201      	movs	r2, #1
 8006036:	f1c4 0433 	rsb	r4, r4, #51	; 0x33
 800603a:	fa02 f404 	lsl.w	r4, r2, r4
 800603e:	1931      	adds	r1, r6, r4
 8006040:	bf28      	it	cs
 8006042:	189b      	addcs	r3, r3, r2
 8006044:	ea21 0100 	bic.w	r1, r1, r0
 8006048:	461f      	mov	r7, r3
 800604a:	460e      	mov	r6, r1
 800604c:	e7e8      	b.n	8006020 <round+0x60>
 800604e:	bf00      	nop
 8006050:	000fffff 	.word	0x000fffff

08006054 <cosf>:
 8006054:	ee10 3a10 	vmov	r3, s0
 8006058:	b507      	push	{r0, r1, r2, lr}
 800605a:	4a1c      	ldr	r2, [pc, #112]	; (80060cc <cosf+0x78>)
 800605c:	f023 4300 	bic.w	r3, r3, #2147483648	; 0x80000000
 8006060:	4293      	cmp	r3, r2
 8006062:	dc04      	bgt.n	800606e <cosf+0x1a>
 8006064:	eddf 0a1a 	vldr	s1, [pc, #104]	; 80060d0 <cosf+0x7c>
 8006068:	f000 fe24 	bl	8006cb4 <__kernel_cosf>
 800606c:	e004      	b.n	8006078 <cosf+0x24>
 800606e:	f1b3 4fff 	cmp.w	r3, #2139095040	; 0x7f800000
 8006072:	db04      	blt.n	800607e <cosf+0x2a>
 8006074:	ee30 0a40 	vsub.f32	s0, s0, s0
 8006078:	b003      	add	sp, #12
 800607a:	f85d fb04 	ldr.w	pc, [sp], #4
 800607e:	4668      	mov	r0, sp
 8006080:	f000 fce8 	bl	8006a54 <__ieee754_rem_pio2f>
 8006084:	f000 0003 	and.w	r0, r0, #3
 8006088:	2801      	cmp	r0, #1
 800608a:	d007      	beq.n	800609c <cosf+0x48>
 800608c:	2802      	cmp	r0, #2
 800608e:	d00e      	beq.n	80060ae <cosf+0x5a>
 8006090:	b9a0      	cbnz	r0, 80060bc <cosf+0x68>
 8006092:	eddd 0a01 	vldr	s1, [sp, #4]
 8006096:	ed9d 0a00 	vldr	s0, [sp]
 800609a:	e7e5      	b.n	8006068 <cosf+0x14>
 800609c:	eddd 0a01 	vldr	s1, [sp, #4]
 80060a0:	ed9d 0a00 	vldr	s0, [sp]
 80060a4:	f001 f8e6 	bl	8007274 <__kernel_sinf>
 80060a8:	eeb1 0a40 	vneg.f32	s0, s0
 80060ac:	e7e4      	b.n	8006078 <cosf+0x24>
 80060ae:	eddd 0a01 	vldr	s1, [sp, #4]
 80060b2:	ed9d 0a00 	vldr	s0, [sp]
 80060b6:	f000 fdfd 	bl	8006cb4 <__kernel_cosf>
 80060ba:	e7f5      	b.n	80060a8 <cosf+0x54>
 80060bc:	2001      	movs	r0, #1
 80060be:	eddd 0a01 	vldr	s1, [sp, #4]
 80060c2:	ed9d 0a00 	vldr	s0, [sp]
 80060c6:	f001 f8d5 	bl	8007274 <__kernel_sinf>
 80060ca:	e7d5      	b.n	8006078 <cosf+0x24>
 80060cc:	3f490fd8 	.word	0x3f490fd8
 80060d0:	00000000 	.word	0x00000000

080060d4 <fmaxf>:
 80060d4:	b508      	push	{r3, lr}
 80060d6:	ed2d 8b02 	vpush	{d8}
 80060da:	eeb0 8a40 	vmov.f32	s16, s0
 80060de:	eef0 8a60 	vmov.f32	s17, s1
 80060e2:	f000 f82d 	bl	8006140 <__fpclassifyf>
 80060e6:	b148      	cbz	r0, 80060fc <fmaxf+0x28>
 80060e8:	eeb0 0a68 	vmov.f32	s0, s17
 80060ec:	f000 f828 	bl	8006140 <__fpclassifyf>
 80060f0:	b130      	cbz	r0, 8006100 <fmaxf+0x2c>
 80060f2:	eeb4 8ae8 	vcmpe.f32	s16, s17
 80060f6:	eef1 fa10 	vmrs	APSR_nzcv, fpscr
 80060fa:	dc01      	bgt.n	8006100 <fmaxf+0x2c>
 80060fc:	eeb0 8a68 	vmov.f32	s16, s17
 8006100:	eeb0 0a48 	vmov.f32	s0, s16
 8006104:	ecbd 8b02 	vpop	{d8}
 8006108:	bd08      	pop	{r3, pc}

0800610a <fminf>:
 800610a:	b508      	push	{r3, lr}
 800610c:	ed2d 8b02 	vpush	{d8}
 8006110:	eeb0 8a40 	vmov.f32	s16, s0
 8006114:	eef0 8a60 	vmov.f32	s17, s1
 8006118:	f000 f812 	bl	8006140 <__fpclassifyf>
 800611c:	b148      	cbz	r0, 8006132 <fminf+0x28>
 800611e:	eeb0 0a68 	vmov.f32	s0, s17
 8006122:	f000 f80d 	bl	8006140 <__fpclassifyf>
 8006126:	b130      	cbz	r0, 8006136 <fminf+0x2c>
 8006128:	eeb4 8ae8 	vcmpe.f32	s16, s17
 800612c:	eef1 fa10 	vmrs	APSR_nzcv, fpscr
 8006130:	d401      	bmi.n	8006136 <fminf+0x2c>
 8006132:	eeb0 8a68 	vmov.f32	s16, s17
 8006136:	eeb0 0a48 	vmov.f32	s0, s16
 800613a:	ecbd 8b02 	vpop	{d8}
 800613e:	bd08      	pop	{r3, pc}

08006140 <__fpclassifyf>:
 8006140:	ee10 3a10 	vmov	r3, s0
 8006144:	f033 4000 	bics.w	r0, r3, #2147483648	; 0x80000000
 8006148:	d00d      	beq.n	8006166 <__fpclassifyf+0x26>
 800614a:	f5a0 0300 	sub.w	r3, r0, #8388608	; 0x800000
 800614e:	f1b3 4ffe 	cmp.w	r3, #2130706432	; 0x7f000000
 8006152:	d30a      	bcc.n	800616a <__fpclassifyf+0x2a>
 8006154:	4b07      	ldr	r3, [pc, #28]	; (8006174 <__fpclassifyf+0x34>)
 8006156:	1e42      	subs	r2, r0, #1
 8006158:	429a      	cmp	r2, r3
 800615a:	d908      	bls.n	800616e <__fpclassifyf+0x2e>
 800615c:	f1a0 43ff 	sub.w	r3, r0, #2139095040	; 0x7f800000
 8006160:	4258      	negs	r0, r3
 8006162:	4158      	adcs	r0, r3
 8006164:	4770      	bx	lr
 8006166:	2002      	movs	r0, #2
 8006168:	4770      	bx	lr
 800616a:	2004      	movs	r0, #4
 800616c:	4770      	bx	lr
 800616e:	2003      	movs	r0, #3
 8006170:	4770      	bx	lr
 8006172:	bf00      	nop
 8006174:	007ffffe 	.word	0x007ffffe

08006178 <sinf>:
 8006178:	ee10 3a10 	vmov	r3, s0
 800617c:	b507      	push	{r0, r1, r2, lr}
 800617e:	4a1d      	ldr	r2, [pc, #116]	; (80061f4 <sinf+0x7c>)
 8006180:	f023 4300 	bic.w	r3, r3, #2147483648	; 0x80000000
 8006184:	4293      	cmp	r3, r2
 8006186:	dc05      	bgt.n	8006194 <sinf+0x1c>
 8006188:	eddf 0a1b 	vldr	s1, [pc, #108]	; 80061f8 <sinf+0x80>
 800618c:	2000      	movs	r0, #0
 800618e:	f001 f871 	bl	8007274 <__kernel_sinf>
 8006192:	e004      	b.n	800619e <sinf+0x26>
 8006194:	f1b3 4fff 	cmp.w	r3, #2139095040	; 0x7f800000
 8006198:	db04      	blt.n	80061a4 <sinf+0x2c>
 800619a:	ee30 0a40 	vsub.f32	s0, s0, s0
 800619e:	b003      	add	sp, #12
 80061a0:	f85d fb04 	ldr.w	pc, [sp], #4
 80061a4:	4668      	mov	r0, sp
 80061a6:	f000 fc55 	bl	8006a54 <__ieee754_rem_pio2f>
 80061aa:	f000 0003 	and.w	r0, r0, #3
 80061ae:	2801      	cmp	r0, #1
 80061b0:	d008      	beq.n	80061c4 <sinf+0x4c>
 80061b2:	2802      	cmp	r0, #2
 80061b4:	d00d      	beq.n	80061d2 <sinf+0x5a>
 80061b6:	b9b0      	cbnz	r0, 80061e6 <sinf+0x6e>
 80061b8:	2001      	movs	r0, #1
 80061ba:	eddd 0a01 	vldr	s1, [sp, #4]
 80061be:	ed9d 0a00 	vldr	s0, [sp]
 80061c2:	e7e4      	b.n	800618e <sinf+0x16>
 80061c4:	eddd 0a01 	vldr	s1, [sp, #4]
 80061c8:	ed9d 0a00 	vldr	s0, [sp]
 80061cc:	f000 fd72 	bl	8006cb4 <__kernel_cosf>
 80061d0:	e7e5      	b.n	800619e <sinf+0x26>
 80061d2:	2001      	movs	r0, #1
 80061d4:	eddd 0a01 	vldr	s1, [sp, #4]
 80061d8:	ed9d 0a00 	vldr	s0, [sp]
 80061dc:	f001 f84a 	bl	8007274 <__kernel_sinf>
 80061e0:	eeb1 0a40 	vneg.f32	s0, s0
 80061e4:	e7db      	b.n	800619e <sinf+0x26>
 80061e6:	eddd 0a01 	vldr	s1, [sp, #4]
 80061ea:	ed9d 0a00 	vldr	s0, [sp]
 80061ee:	f000 fd61 	bl	8006cb4 <__kernel_cosf>
 80061f2:	e7f5      	b.n	80061e0 <sinf+0x68>
 80061f4:	3f490fd8 	.word	0x3f490fd8
	...

08006200 <exp>:
 8006200:	b5f0      	push	{r4, r5, r6, r7, lr}
 8006202:	ed2d 8b02 	vpush	{d8}
 8006206:	4e38      	ldr	r6, [pc, #224]	; (80062e8 <exp+0xe8>)
 8006208:	b08b      	sub	sp, #44	; 0x2c
 800620a:	ec55 4b10 	vmov	r4, r5, d0
 800620e:	f000 f97b 	bl	8006508 <__ieee754_exp>
 8006212:	f996 3000 	ldrsb.w	r3, [r6]
 8006216:	eeb0 8a40 	vmov.f32	s16, s0
 800621a:	eef0 8a60 	vmov.f32	s17, s1
 800621e:	3301      	adds	r3, #1
 8006220:	d02c      	beq.n	800627c <exp+0x7c>
 8006222:	ec45 4b10 	vmov	d0, r4, r5
 8006226:	f001 f86d 	bl	8007304 <finite>
 800622a:	b338      	cbz	r0, 800627c <exp+0x7c>
 800622c:	a32a      	add	r3, pc, #168	; (adr r3, 80062d8 <exp+0xd8>)
 800622e:	e9d3 2300 	ldrd	r2, r3, [r3]
 8006232:	4620      	mov	r0, r4
 8006234:	4629      	mov	r1, r5
 8006236:	f7fa fc8f 	bl	8000b58 <__aeabi_dcmpgt>
 800623a:	4607      	mov	r7, r0
 800623c:	2800      	cmp	r0, #0
 800623e:	d030      	beq.n	80062a2 <exp+0xa2>
 8006240:	2303      	movs	r3, #3
 8006242:	9300      	str	r3, [sp, #0]
 8006244:	4b29      	ldr	r3, [pc, #164]	; (80062ec <exp+0xec>)
 8006246:	9301      	str	r3, [sp, #4]
 8006248:	2300      	movs	r3, #0
 800624a:	9308      	str	r3, [sp, #32]
 800624c:	f996 3000 	ldrsb.w	r3, [r6]
 8006250:	e9cd 4504 	strd	r4, r5, [sp, #16]
 8006254:	e9cd 4502 	strd	r4, r5, [sp, #8]
 8006258:	b9c3      	cbnz	r3, 800628c <exp+0x8c>
 800625a:	4b25      	ldr	r3, [pc, #148]	; (80062f0 <exp+0xf0>)
 800625c:	f04f 4260 	mov.w	r2, #3758096384	; 0xe0000000
 8006260:	e9cd 2306 	strd	r2, r3, [sp, #24]
 8006264:	4668      	mov	r0, sp
 8006266:	f001 f855 	bl	8007314 <matherr>
 800626a:	b1a8      	cbz	r0, 8006298 <exp+0x98>
 800626c:	9b08      	ldr	r3, [sp, #32]
 800626e:	b11b      	cbz	r3, 8006278 <exp+0x78>
 8006270:	f001 f910 	bl	8007494 <__errno>
 8006274:	9b08      	ldr	r3, [sp, #32]
 8006276:	6003      	str	r3, [r0, #0]
 8006278:	ed9d 8b06 	vldr	d8, [sp, #24]
 800627c:	eeb0 0a48 	vmov.f32	s0, s16
 8006280:	eef0 0a68 	vmov.f32	s1, s17
 8006284:	b00b      	add	sp, #44	; 0x2c
 8006286:	ecbd 8b02 	vpop	{d8}
 800628a:	bdf0      	pop	{r4, r5, r6, r7, pc}
 800628c:	4919      	ldr	r1, [pc, #100]	; (80062f4 <exp+0xf4>)
 800628e:	2000      	movs	r0, #0
 8006290:	e9cd 0106 	strd	r0, r1, [sp, #24]
 8006294:	2b02      	cmp	r3, #2
 8006296:	d1e5      	bne.n	8006264 <exp+0x64>
 8006298:	f001 f8fc 	bl	8007494 <__errno>
 800629c:	2322      	movs	r3, #34	; 0x22
 800629e:	6003      	str	r3, [r0, #0]
 80062a0:	e7e4      	b.n	800626c <exp+0x6c>
 80062a2:	a30f      	add	r3, pc, #60	; (adr r3, 80062e0 <exp+0xe0>)
 80062a4:	e9d3 2300 	ldrd	r2, r3, [r3]
 80062a8:	4620      	mov	r0, r4
 80062aa:	4629      	mov	r1, r5
 80062ac:	f7fa fc36 	bl	8000b1c <__aeabi_dcmplt>
 80062b0:	2800      	cmp	r0, #0
 80062b2:	d0e3      	beq.n	800627c <exp+0x7c>
 80062b4:	2304      	movs	r3, #4
 80062b6:	9300      	str	r3, [sp, #0]
 80062b8:	4b0c      	ldr	r3, [pc, #48]	; (80062ec <exp+0xec>)
 80062ba:	9301      	str	r3, [sp, #4]
 80062bc:	2200      	movs	r2, #0
 80062be:	2300      	movs	r3, #0
 80062c0:	e9cd 2306 	strd	r2, r3, [sp, #24]
 80062c4:	9708      	str	r7, [sp, #32]
 80062c6:	e9cd 4504 	strd	r4, r5, [sp, #16]
 80062ca:	e9cd 4502 	strd	r4, r5, [sp, #8]
 80062ce:	f996 3000 	ldrsb.w	r3, [r6]
 80062d2:	e7df      	b.n	8006294 <exp+0x94>
 80062d4:	f3af 8000 	nop.w
 80062d8:	fefa39ef 	.word	0xfefa39ef
 80062dc:	40862e42 	.word	0x40862e42
 80062e0:	d52d3051 	.word	0xd52d3051
 80062e4:	c0874910 	.word	0xc0874910
 80062e8:	2000000c 	.word	0x2000000c
 80062ec:	0800d0de 	.word	0x0800d0de
 80062f0:	47efffff 	.word	0x47efffff
 80062f4:	7ff00000 	.word	0x7ff00000

080062f8 <sqrt>:
 80062f8:	e92d 43f0 	stmdb	sp!, {r4, r5, r6, r7, r8, r9, lr}
 80062fc:	ed2d 8b02 	vpush	{d8}
 8006300:	b08b      	sub	sp, #44	; 0x2c
 8006302:	ec55 4b10 	vmov	r4, r5, d0
 8006306:	f000 fa6d 	bl	80067e4 <__ieee754_sqrt>
 800630a:	4b26      	ldr	r3, [pc, #152]	; (80063a4 <sqrt+0xac>)
 800630c:	eeb0 8a40 	vmov.f32	s16, s0
 8006310:	eef0 8a60 	vmov.f32	s17, s1
 8006314:	f993 6000 	ldrsb.w	r6, [r3]
 8006318:	1c73      	adds	r3, r6, #1
 800631a:	d02a      	beq.n	8006372 <sqrt+0x7a>
 800631c:	4622      	mov	r2, r4
 800631e:	462b      	mov	r3, r5
 8006320:	4620      	mov	r0, r4
 8006322:	4629      	mov	r1, r5
 8006324:	f7fa fc22 	bl	8000b6c <__aeabi_dcmpun>
 8006328:	4607      	mov	r7, r0
 800632a:	bb10      	cbnz	r0, 8006372 <sqrt+0x7a>
 800632c:	f04f 0800 	mov.w	r8, #0
 8006330:	f04f 0900 	mov.w	r9, #0
 8006334:	4642      	mov	r2, r8
 8006336:	464b      	mov	r3, r9
 8006338:	4620      	mov	r0, r4
 800633a:	4629      	mov	r1, r5
 800633c:	f7fa fbee 	bl	8000b1c <__aeabi_dcmplt>
 8006340:	b1b8      	cbz	r0, 8006372 <sqrt+0x7a>
 8006342:	2301      	movs	r3, #1
 8006344:	9300      	str	r3, [sp, #0]
 8006346:	4b18      	ldr	r3, [pc, #96]	; (80063a8 <sqrt+0xb0>)
 8006348:	9301      	str	r3, [sp, #4]
 800634a:	9708      	str	r7, [sp, #32]
 800634c:	e9cd 4504 	strd	r4, r5, [sp, #16]
 8006350:	e9cd 4502 	strd	r4, r5, [sp, #8]
 8006354:	b9b6      	cbnz	r6, 8006384 <sqrt+0x8c>
 8006356:	e9cd 8906 	strd	r8, r9, [sp, #24]
 800635a:	4668      	mov	r0, sp
 800635c:	f000 ffda 	bl	8007314 <matherr>
 8006360:	b1d0      	cbz	r0, 8006398 <sqrt+0xa0>
 8006362:	9b08      	ldr	r3, [sp, #32]
 8006364:	b11b      	cbz	r3, 800636e <sqrt+0x76>
 8006366:	f001 f895 	bl	8007494 <__errno>
 800636a:	9b08      	ldr	r3, [sp, #32]
 800636c:	6003      	str	r3, [r0, #0]
 800636e:	ed9d 8b06 	vldr	d8, [sp, #24]
 8006372:	eeb0 0a48 	vmov.f32	s0, s16
 8006376:	eef0 0a68 	vmov.f32	s1, s17
 800637a:	b00b      	add	sp, #44	; 0x2c
 800637c:	ecbd 8b02 	vpop	{d8}
 8006380:	e8bd 83f0 	ldmia.w	sp!, {r4, r5, r6, r7, r8, r9, pc}
 8006384:	4642      	mov	r2, r8
 8006386:	464b      	mov	r3, r9
 8006388:	4640      	mov	r0, r8
 800638a:	4649      	mov	r1, r9
 800638c:	f7fa fa7e 	bl	800088c <__aeabi_ddiv>
 8006390:	2e02      	cmp	r6, #2
 8006392:	e9cd 0106 	strd	r0, r1, [sp, #24]
 8006396:	d1e0      	bne.n	800635a <sqrt+0x62>
 8006398:	f001 f87c 	bl	8007494 <__errno>
 800639c:	2321      	movs	r3, #33	; 0x21
 800639e:	6003      	str	r3, [r0, #0]
 80063a0:	e7df      	b.n	8006362 <sqrt+0x6a>
 80063a2:	bf00      	nop
 80063a4:	2000000c 	.word	0x2000000c
 80063a8:	0800d0e2 	.word	0x0800d0e2

080063ac <fmodf>:
 80063ac:	b5d0      	push	{r4, r6, r7, lr}
 80063ae:	ed2d 8b02 	vpush	{d8}
 80063b2:	b08a      	sub	sp, #40	; 0x28
 80063b4:	eef0 8a40 	vmov.f32	s17, s0
 80063b8:	eeb0 8a60 	vmov.f32	s16, s1
 80063bc:	f000 fac2 	bl	8006944 <__ieee754_fmodf>
 80063c0:	4b26      	ldr	r3, [pc, #152]	; (800645c <fmodf+0xb0>)
 80063c2:	f993 4000 	ldrsb.w	r4, [r3]
 80063c6:	1c63      	adds	r3, r4, #1
 80063c8:	d035      	beq.n	8006436 <fmodf+0x8a>
 80063ca:	eeb4 8a48 	vcmp.f32	s16, s16
 80063ce:	eef1 fa10 	vmrs	APSR_nzcv, fpscr
 80063d2:	d630      	bvs.n	8006436 <fmodf+0x8a>
 80063d4:	eef4 8a68 	vcmp.f32	s17, s17
 80063d8:	eef1 fa10 	vmrs	APSR_nzcv, fpscr
 80063dc:	d62b      	bvs.n	8006436 <fmodf+0x8a>
 80063de:	eeb5 8a40 	vcmp.f32	s16, #0.0
 80063e2:	eef1 fa10 	vmrs	APSR_nzcv, fpscr
 80063e6:	d126      	bne.n	8006436 <fmodf+0x8a>
 80063e8:	2301      	movs	r3, #1
 80063ea:	9300      	str	r3, [sp, #0]
 80063ec:	4b1c      	ldr	r3, [pc, #112]	; (8006460 <fmodf+0xb4>)
 80063ee:	9301      	str	r3, [sp, #4]
 80063f0:	ee18 0a90 	vmov	r0, s17
 80063f4:	2300      	movs	r3, #0
 80063f6:	9308      	str	r3, [sp, #32]
 80063f8:	f7fa f8c6 	bl	8000588 <__aeabi_f2d>
 80063fc:	4606      	mov	r6, r0
 80063fe:	460f      	mov	r7, r1
 8006400:	ee18 0a10 	vmov	r0, s16
 8006404:	e9cd 6702 	strd	r6, r7, [sp, #8]
 8006408:	f7fa f8be 	bl	8000588 <__aeabi_f2d>
 800640c:	e9cd 0104 	strd	r0, r1, [sp, #16]
 8006410:	b9ac      	cbnz	r4, 800643e <fmodf+0x92>
 8006412:	e9cd 6706 	strd	r6, r7, [sp, #24]
 8006416:	4668      	mov	r0, sp
 8006418:	f000 ff7c 	bl	8007314 <matherr>
 800641c:	b1c8      	cbz	r0, 8006452 <fmodf+0xa6>
 800641e:	9b08      	ldr	r3, [sp, #32]
 8006420:	b11b      	cbz	r3, 800642a <fmodf+0x7e>
 8006422:	f001 f837 	bl	8007494 <__errno>
 8006426:	9b08      	ldr	r3, [sp, #32]
 8006428:	6003      	str	r3, [r0, #0]
 800642a:	e9dd 0106 	ldrd	r0, r1, [sp, #24]
 800642e:	f7fa fbfb 	bl	8000c28 <__aeabi_d2f>
 8006432:	ee00 0a10 	vmov	s0, r0
 8006436:	b00a      	add	sp, #40	; 0x28
 8006438:	ecbd 8b02 	vpop	{d8}
 800643c:	bdd0      	pop	{r4, r6, r7, pc}
 800643e:	2200      	movs	r2, #0
 8006440:	2300      	movs	r3, #0
 8006442:	4610      	mov	r0, r2
 8006444:	4619      	mov	r1, r3
 8006446:	f7fa fa21 	bl	800088c <__aeabi_ddiv>
 800644a:	2c02      	cmp	r4, #2
 800644c:	e9cd 0106 	strd	r0, r1, [sp, #24]
 8006450:	d1e1      	bne.n	8006416 <fmodf+0x6a>
 8006452:	f001 f81f 	bl	8007494 <__errno>
 8006456:	2321      	movs	r3, #33	; 0x21
 8006458:	6003      	str	r3, [r0, #0]
 800645a:	e7e0      	b.n	800641e <fmodf+0x72>
 800645c:	2000000c 	.word	0x2000000c
 8006460:	0800d0e7 	.word	0x0800d0e7

08006464 <sqrtf>:
 8006464:	b510      	push	{r4, lr}
 8006466:	ed2d 8b02 	vpush	{d8}
 800646a:	b08a      	sub	sp, #40	; 0x28
 800646c:	eeb0 8a40 	vmov.f32	s16, s0
 8006470:	f000 fc1c 	bl	8006cac <__ieee754_sqrtf>
 8006474:	4b21      	ldr	r3, [pc, #132]	; (80064fc <sqrtf+0x98>)
 8006476:	f993 4000 	ldrsb.w	r4, [r3]
 800647a:	1c63      	adds	r3, r4, #1
 800647c:	d02c      	beq.n	80064d8 <sqrtf+0x74>
 800647e:	eeb4 8a48 	vcmp.f32	s16, s16
 8006482:	eef1 fa10 	vmrs	APSR_nzcv, fpscr
 8006486:	d627      	bvs.n	80064d8 <sqrtf+0x74>
 8006488:	eeb5 8ac0 	vcmpe.f32	s16, #0.0
 800648c:	eef1 fa10 	vmrs	APSR_nzcv, fpscr
 8006490:	d522      	bpl.n	80064d8 <sqrtf+0x74>
 8006492:	2301      	movs	r3, #1
 8006494:	9300      	str	r3, [sp, #0]
 8006496:	4b1a      	ldr	r3, [pc, #104]	; (8006500 <sqrtf+0x9c>)
 8006498:	9301      	str	r3, [sp, #4]
 800649a:	ee18 0a10 	vmov	r0, s16
 800649e:	2300      	movs	r3, #0
 80064a0:	9308      	str	r3, [sp, #32]
 80064a2:	f7fa f871 	bl	8000588 <__aeabi_f2d>
 80064a6:	2200      	movs	r2, #0
 80064a8:	e9cd 0104 	strd	r0, r1, [sp, #16]
 80064ac:	e9cd 0102 	strd	r0, r1, [sp, #8]
 80064b0:	2300      	movs	r3, #0
 80064b2:	b9ac      	cbnz	r4, 80064e0 <sqrtf+0x7c>
 80064b4:	e9cd 2306 	strd	r2, r3, [sp, #24]
 80064b8:	4668      	mov	r0, sp
 80064ba:	f000 ff2b 	bl	8007314 <matherr>
 80064be:	b1b8      	cbz	r0, 80064f0 <sqrtf+0x8c>
 80064c0:	9b08      	ldr	r3, [sp, #32]
 80064c2:	b11b      	cbz	r3, 80064cc <sqrtf+0x68>
 80064c4:	f000 ffe6 	bl	8007494 <__errno>
 80064c8:	9b08      	ldr	r3, [sp, #32]
 80064ca:	6003      	str	r3, [r0, #0]
 80064cc:	e9dd 0106 	ldrd	r0, r1, [sp, #24]
 80064d0:	f7fa fbaa 	bl	8000c28 <__aeabi_d2f>
 80064d4:	ee00 0a10 	vmov	s0, r0
 80064d8:	b00a      	add	sp, #40	; 0x28
 80064da:	ecbd 8b02 	vpop	{d8}
 80064de:	bd10      	pop	{r4, pc}
 80064e0:	4610      	mov	r0, r2
 80064e2:	4619      	mov	r1, r3
 80064e4:	f7fa f9d2 	bl	800088c <__aeabi_ddiv>
 80064e8:	2c02      	cmp	r4, #2
 80064ea:	e9cd 0106 	strd	r0, r1, [sp, #24]
 80064ee:	d1e3      	bne.n	80064b8 <sqrtf+0x54>
 80064f0:	f000 ffd0 	bl	8007494 <__errno>
 80064f4:	2321      	movs	r3, #33	; 0x21
 80064f6:	6003      	str	r3, [r0, #0]
 80064f8:	e7e2      	b.n	80064c0 <sqrtf+0x5c>
 80064fa:	bf00      	nop
 80064fc:	2000000c 	.word	0x2000000c
 8006500:	0800d0ed 	.word	0x0800d0ed
 8006504:	00000000 	.word	0x00000000

08006508 <__ieee754_exp>:
 8006508:	e92d 47ff 	stmdb	sp!, {r0, r1, r2, r3, r4, r5, r6, r7, r8, r9, sl, lr}
 800650c:	ec55 4b10 	vmov	r4, r5, d0
 8006510:	4aab      	ldr	r2, [pc, #684]	; (80067c0 <__ieee754_exp+0x2b8>)
 8006512:	f025 4600 	bic.w	r6, r5, #2147483648	; 0x80000000
 8006516:	4296      	cmp	r6, r2
 8006518:	ea4f 77d5 	mov.w	r7, r5, lsr #31
 800651c:	d932      	bls.n	8006584 <__ieee754_exp+0x7c>
 800651e:	4aa9      	ldr	r2, [pc, #676]	; (80067c4 <__ieee754_exp+0x2bc>)
 8006520:	4296      	cmp	r6, r2
 8006522:	d913      	bls.n	800654c <__ieee754_exp+0x44>
 8006524:	f3c5 0313 	ubfx	r3, r5, #0, #20
 8006528:	4323      	orrs	r3, r4
 800652a:	ee10 2a10 	vmov	r2, s0
 800652e:	d007      	beq.n	8006540 <__ieee754_exp+0x38>
 8006530:	462b      	mov	r3, r5
 8006532:	4620      	mov	r0, r4
 8006534:	4629      	mov	r1, r5
 8006536:	f7f9 fec9 	bl	80002cc <__adddf3>
 800653a:	4604      	mov	r4, r0
 800653c:	460d      	mov	r5, r1
 800653e:	e000      	b.n	8006542 <__ieee754_exp+0x3a>
 8006540:	b9ef      	cbnz	r7, 800657e <__ieee754_exp+0x76>
 8006542:	ec45 4b10 	vmov	d0, r4, r5
 8006546:	b004      	add	sp, #16
 8006548:	e8bd 87f0 	ldmia.w	sp!, {r4, r5, r6, r7, r8, r9, sl, pc}
 800654c:	a386      	add	r3, pc, #536	; (adr r3, 8006768 <__ieee754_exp+0x260>)
 800654e:	e9d3 2300 	ldrd	r2, r3, [r3]
 8006552:	ee10 0a10 	vmov	r0, s0
 8006556:	4629      	mov	r1, r5
 8006558:	f7fa fafe 	bl	8000b58 <__aeabi_dcmpgt>
 800655c:	b138      	cbz	r0, 800656e <__ieee754_exp+0x66>
 800655e:	a384      	add	r3, pc, #528	; (adr r3, 8006770 <__ieee754_exp+0x268>)
 8006560:	e9d3 2300 	ldrd	r2, r3, [r3]
 8006564:	4610      	mov	r0, r2
 8006566:	4619      	mov	r1, r3
 8006568:	f7fa f866 	bl	8000638 <__aeabi_dmul>
 800656c:	e7e5      	b.n	800653a <__ieee754_exp+0x32>
 800656e:	a382      	add	r3, pc, #520	; (adr r3, 8006778 <__ieee754_exp+0x270>)
 8006570:	e9d3 2300 	ldrd	r2, r3, [r3]
 8006574:	4620      	mov	r0, r4
 8006576:	4629      	mov	r1, r5
 8006578:	f7fa fad0 	bl	8000b1c <__aeabi_dcmplt>
 800657c:	b130      	cbz	r0, 800658c <__ieee754_exp+0x84>
 800657e:	2400      	movs	r4, #0
 8006580:	2500      	movs	r5, #0
 8006582:	e7de      	b.n	8006542 <__ieee754_exp+0x3a>
 8006584:	4b90      	ldr	r3, [pc, #576]	; (80067c8 <__ieee754_exp+0x2c0>)
 8006586:	429e      	cmp	r6, r3
 8006588:	f240 80a6 	bls.w	80066d8 <__ieee754_exp+0x1d0>
 800658c:	4b8f      	ldr	r3, [pc, #572]	; (80067cc <__ieee754_exp+0x2c4>)
 800658e:	429e      	cmp	r6, r3
 8006590:	ea4f 08c7 	mov.w	r8, r7, lsl #3
 8006594:	d875      	bhi.n	8006682 <__ieee754_exp+0x17a>
 8006596:	4b8e      	ldr	r3, [pc, #568]	; (80067d0 <__ieee754_exp+0x2c8>)
 8006598:	4e8e      	ldr	r6, [pc, #568]	; (80067d4 <__ieee754_exp+0x2cc>)
 800659a:	4443      	add	r3, r8
 800659c:	e9d3 2300 	ldrd	r2, r3, [r3]
 80065a0:	4620      	mov	r0, r4
 80065a2:	4629      	mov	r1, r5
 80065a4:	f7f9 fe90 	bl	80002c8 <__aeabi_dsub>
 80065a8:	4446      	add	r6, r8
 80065aa:	e9cd 0100 	strd	r0, r1, [sp]
 80065ae:	e9d6 8900 	ldrd	r8, r9, [r6]
 80065b2:	f1c7 0a01 	rsb	sl, r7, #1
 80065b6:	ebaa 0a07 	sub.w	sl, sl, r7
 80065ba:	4642      	mov	r2, r8
 80065bc:	464b      	mov	r3, r9
 80065be:	e9dd 0100 	ldrd	r0, r1, [sp]
 80065c2:	f7f9 fe81 	bl	80002c8 <__aeabi_dsub>
 80065c6:	4604      	mov	r4, r0
 80065c8:	460d      	mov	r5, r1
 80065ca:	4622      	mov	r2, r4
 80065cc:	462b      	mov	r3, r5
 80065ce:	4620      	mov	r0, r4
 80065d0:	4629      	mov	r1, r5
 80065d2:	f7fa f831 	bl	8000638 <__aeabi_dmul>
 80065d6:	a36a      	add	r3, pc, #424	; (adr r3, 8006780 <__ieee754_exp+0x278>)
 80065d8:	e9d3 2300 	ldrd	r2, r3, [r3]
 80065dc:	4606      	mov	r6, r0
 80065de:	460f      	mov	r7, r1
 80065e0:	f7fa f82a 	bl	8000638 <__aeabi_dmul>
 80065e4:	a368      	add	r3, pc, #416	; (adr r3, 8006788 <__ieee754_exp+0x280>)
 80065e6:	e9d3 2300 	ldrd	r2, r3, [r3]
 80065ea:	f7f9 fe6d 	bl	80002c8 <__aeabi_dsub>
 80065ee:	4632      	mov	r2, r6
 80065f0:	463b      	mov	r3, r7
 80065f2:	f7fa f821 	bl	8000638 <__aeabi_dmul>
 80065f6:	a366      	add	r3, pc, #408	; (adr r3, 8006790 <__ieee754_exp+0x288>)
 80065f8:	e9d3 2300 	ldrd	r2, r3, [r3]
 80065fc:	f7f9 fe66 	bl	80002cc <__adddf3>
 8006600:	4632      	mov	r2, r6
 8006602:	463b      	mov	r3, r7
 8006604:	f7fa f818 	bl	8000638 <__aeabi_dmul>
 8006608:	a363      	add	r3, pc, #396	; (adr r3, 8006798 <__ieee754_exp+0x290>)
 800660a:	e9d3 2300 	ldrd	r2, r3, [r3]
 800660e:	f7f9 fe5b 	bl	80002c8 <__aeabi_dsub>
 8006612:	4632      	mov	r2, r6
 8006614:	463b      	mov	r3, r7
 8006616:	f7fa f80f 	bl	8000638 <__aeabi_dmul>
 800661a:	a361      	add	r3, pc, #388	; (adr r3, 80067a0 <__ieee754_exp+0x298>)
 800661c:	e9d3 2300 	ldrd	r2, r3, [r3]
 8006620:	f7f9 fe54 	bl	80002cc <__adddf3>
 8006624:	4632      	mov	r2, r6
 8006626:	463b      	mov	r3, r7
 8006628:	f7fa f806 	bl	8000638 <__aeabi_dmul>
 800662c:	4602      	mov	r2, r0
 800662e:	460b      	mov	r3, r1
 8006630:	4620      	mov	r0, r4
 8006632:	4629      	mov	r1, r5
 8006634:	f7f9 fe48 	bl	80002c8 <__aeabi_dsub>
 8006638:	4602      	mov	r2, r0
 800663a:	460b      	mov	r3, r1
 800663c:	4606      	mov	r6, r0
 800663e:	460f      	mov	r7, r1
 8006640:	4620      	mov	r0, r4
 8006642:	4629      	mov	r1, r5
 8006644:	f7f9 fff8 	bl	8000638 <__aeabi_dmul>
 8006648:	e9cd 0102 	strd	r0, r1, [sp, #8]
 800664c:	f1ba 0f00 	cmp.w	sl, #0
 8006650:	d15c      	bne.n	800670c <__ieee754_exp+0x204>
 8006652:	2200      	movs	r2, #0
 8006654:	f04f 4380 	mov.w	r3, #1073741824	; 0x40000000
 8006658:	4630      	mov	r0, r6
 800665a:	4639      	mov	r1, r7
 800665c:	f7f9 fe34 	bl	80002c8 <__aeabi_dsub>
 8006660:	4602      	mov	r2, r0
 8006662:	460b      	mov	r3, r1
 8006664:	e9dd 0102 	ldrd	r0, r1, [sp, #8]
 8006668:	f7fa f910 	bl	800088c <__aeabi_ddiv>
 800666c:	4622      	mov	r2, r4
 800666e:	462b      	mov	r3, r5
 8006670:	f7f9 fe2a 	bl	80002c8 <__aeabi_dsub>
 8006674:	4602      	mov	r2, r0
 8006676:	460b      	mov	r3, r1
 8006678:	2000      	movs	r0, #0
 800667a:	4957      	ldr	r1, [pc, #348]	; (80067d8 <__ieee754_exp+0x2d0>)
 800667c:	f7f9 fe24 	bl	80002c8 <__aeabi_dsub>
 8006680:	e75b      	b.n	800653a <__ieee754_exp+0x32>
 8006682:	4e56      	ldr	r6, [pc, #344]	; (80067dc <__ieee754_exp+0x2d4>)
 8006684:	a348      	add	r3, pc, #288	; (adr r3, 80067a8 <__ieee754_exp+0x2a0>)
 8006686:	e9d3 2300 	ldrd	r2, r3, [r3]
 800668a:	4446      	add	r6, r8
 800668c:	4620      	mov	r0, r4
 800668e:	4629      	mov	r1, r5
 8006690:	f7f9 ffd2 	bl	8000638 <__aeabi_dmul>
 8006694:	e9d6 2300 	ldrd	r2, r3, [r6]
 8006698:	f7f9 fe18 	bl	80002cc <__adddf3>
 800669c:	f7fa fa7c 	bl	8000b98 <__aeabi_d2iz>
 80066a0:	4682      	mov	sl, r0
 80066a2:	f7f9 ff5f 	bl	8000564 <__aeabi_i2d>
 80066a6:	a342      	add	r3, pc, #264	; (adr r3, 80067b0 <__ieee754_exp+0x2a8>)
 80066a8:	e9d3 2300 	ldrd	r2, r3, [r3]
 80066ac:	4606      	mov	r6, r0
 80066ae:	460f      	mov	r7, r1
 80066b0:	f7f9 ffc2 	bl	8000638 <__aeabi_dmul>
 80066b4:	4602      	mov	r2, r0
 80066b6:	460b      	mov	r3, r1
 80066b8:	4620      	mov	r0, r4
 80066ba:	4629      	mov	r1, r5
 80066bc:	f7f9 fe04 	bl	80002c8 <__aeabi_dsub>
 80066c0:	a33d      	add	r3, pc, #244	; (adr r3, 80067b8 <__ieee754_exp+0x2b0>)
 80066c2:	e9d3 2300 	ldrd	r2, r3, [r3]
 80066c6:	e9cd 0100 	strd	r0, r1, [sp]
 80066ca:	4630      	mov	r0, r6
 80066cc:	4639      	mov	r1, r7
 80066ce:	f7f9 ffb3 	bl	8000638 <__aeabi_dmul>
 80066d2:	4680      	mov	r8, r0
 80066d4:	4689      	mov	r9, r1
 80066d6:	e770      	b.n	80065ba <__ieee754_exp+0xb2>
 80066d8:	4b41      	ldr	r3, [pc, #260]	; (80067e0 <__ieee754_exp+0x2d8>)
 80066da:	429e      	cmp	r6, r3
 80066dc:	d811      	bhi.n	8006702 <__ieee754_exp+0x1fa>
 80066de:	a324      	add	r3, pc, #144	; (adr r3, 8006770 <__ieee754_exp+0x268>)
 80066e0:	e9d3 2300 	ldrd	r2, r3, [r3]
 80066e4:	ee10 0a10 	vmov	r0, s0
 80066e8:	4629      	mov	r1, r5
 80066ea:	f7f9 fdef 	bl	80002cc <__adddf3>
 80066ee:	2200      	movs	r2, #0
 80066f0:	4b39      	ldr	r3, [pc, #228]	; (80067d8 <__ieee754_exp+0x2d0>)
 80066f2:	f7fa fa31 	bl	8000b58 <__aeabi_dcmpgt>
 80066f6:	b138      	cbz	r0, 8006708 <__ieee754_exp+0x200>
 80066f8:	2200      	movs	r2, #0
 80066fa:	4b37      	ldr	r3, [pc, #220]	; (80067d8 <__ieee754_exp+0x2d0>)
 80066fc:	4620      	mov	r0, r4
 80066fe:	4629      	mov	r1, r5
 8006700:	e719      	b.n	8006536 <__ieee754_exp+0x2e>
 8006702:	f04f 0a00 	mov.w	sl, #0
 8006706:	e760      	b.n	80065ca <__ieee754_exp+0xc2>
 8006708:	4682      	mov	sl, r0
 800670a:	e75e      	b.n	80065ca <__ieee754_exp+0xc2>
 800670c:	4632      	mov	r2, r6
 800670e:	463b      	mov	r3, r7
 8006710:	2000      	movs	r0, #0
 8006712:	f04f 4180 	mov.w	r1, #1073741824	; 0x40000000
 8006716:	f7f9 fdd7 	bl	80002c8 <__aeabi_dsub>
 800671a:	4602      	mov	r2, r0
 800671c:	460b      	mov	r3, r1
 800671e:	e9dd 0102 	ldrd	r0, r1, [sp, #8]
 8006722:	f7fa f8b3 	bl	800088c <__aeabi_ddiv>
 8006726:	4602      	mov	r2, r0
 8006728:	460b      	mov	r3, r1
 800672a:	4640      	mov	r0, r8
 800672c:	4649      	mov	r1, r9
 800672e:	f7f9 fdcb 	bl	80002c8 <__aeabi_dsub>
 8006732:	e9dd 2300 	ldrd	r2, r3, [sp]
 8006736:	f7f9 fdc7 	bl	80002c8 <__aeabi_dsub>
 800673a:	4602      	mov	r2, r0
 800673c:	460b      	mov	r3, r1
 800673e:	2000      	movs	r0, #0
 8006740:	4925      	ldr	r1, [pc, #148]	; (80067d8 <__ieee754_exp+0x2d0>)
 8006742:	f7f9 fdc1 	bl	80002c8 <__aeabi_dsub>
 8006746:	f46f 727f 	mvn.w	r2, #1020	; 0x3fc
 800674a:	4592      	cmp	sl, r2
 800674c:	db02      	blt.n	8006754 <__ieee754_exp+0x24c>
 800674e:	eb01 510a 	add.w	r1, r1, sl, lsl #20
 8006752:	e6f2      	b.n	800653a <__ieee754_exp+0x32>
 8006754:	f50a 7a7a 	add.w	sl, sl, #1000	; 0x3e8
 8006758:	eb01 510a 	add.w	r1, r1, sl, lsl #20
 800675c:	2200      	movs	r2, #0
 800675e:	f04f 73b8 	mov.w	r3, #24117248	; 0x1700000
 8006762:	e701      	b.n	8006568 <__ieee754_exp+0x60>
 8006764:	f3af 8000 	nop.w
 8006768:	fefa39ef 	.word	0xfefa39ef
 800676c:	40862e42 	.word	0x40862e42
 8006770:	8800759c 	.word	0x8800759c
 8006774:	7e37e43c 	.word	0x7e37e43c
 8006778:	d52d3051 	.word	0xd52d3051
 800677c:	c0874910 	.word	0xc0874910
 8006780:	72bea4d0 	.word	0x72bea4d0
 8006784:	3e663769 	.word	0x3e663769
 8006788:	c5d26bf1 	.word	0xc5d26bf1
 800678c:	3ebbbd41 	.word	0x3ebbbd41
 8006790:	af25de2c 	.word	0xaf25de2c
 8006794:	3f11566a 	.word	0x3f11566a
 8006798:	16bebd93 	.word	0x16bebd93
 800679c:	3f66c16c 	.word	0x3f66c16c
 80067a0:	5555553e 	.word	0x5555553e
 80067a4:	3fc55555 	.word	0x3fc55555
 80067a8:	652b82fe 	.word	0x652b82fe
 80067ac:	3ff71547 	.word	0x3ff71547
 80067b0:	fee00000 	.word	0xfee00000
 80067b4:	3fe62e42 	.word	0x3fe62e42
 80067b8:	35793c76 	.word	0x35793c76
 80067bc:	3dea39ef 	.word	0x3dea39ef
 80067c0:	40862e41 	.word	0x40862e41
 80067c4:	7fefffff 	.word	0x7fefffff
 80067c8:	3fd62e42 	.word	0x3fd62e42
 80067cc:	3ff0a2b1 	.word	0x3ff0a2b1
 80067d0:	0800d108 	.word	0x0800d108
 80067d4:	0800d118 	.word	0x0800d118
 80067d8:	3ff00000 	.word	0x3ff00000
 80067dc:	0800d0f8 	.word	0x0800d0f8
 80067e0:	3e2fffff 	.word	0x3e2fffff

080067e4 <__ieee754_sqrt>:
 80067e4:	e92d 41f0 	stmdb	sp!, {r4, r5, r6, r7, r8, lr}
 80067e8:	4955      	ldr	r1, [pc, #340]	; (8006940 <__ieee754_sqrt+0x15c>)
 80067ea:	ec55 4b10 	vmov	r4, r5, d0
 80067ee:	43a9      	bics	r1, r5
 80067f0:	462b      	mov	r3, r5
 80067f2:	462a      	mov	r2, r5
 80067f4:	d112      	bne.n	800681c <__ieee754_sqrt+0x38>
 80067f6:	ee10 2a10 	vmov	r2, s0
 80067fa:	ee10 0a10 	vmov	r0, s0
 80067fe:	4629      	mov	r1, r5
 8006800:	f7f9 ff1a 	bl	8000638 <__aeabi_dmul>
 8006804:	4602      	mov	r2, r0
 8006806:	460b      	mov	r3, r1
 8006808:	4620      	mov	r0, r4
 800680a:	4629      	mov	r1, r5
 800680c:	f7f9 fd5e 	bl	80002cc <__adddf3>
 8006810:	4604      	mov	r4, r0
 8006812:	460d      	mov	r5, r1
 8006814:	ec45 4b10 	vmov	d0, r4, r5
 8006818:	e8bd 81f0 	ldmia.w	sp!, {r4, r5, r6, r7, r8, pc}
 800681c:	2d00      	cmp	r5, #0
 800681e:	ee10 0a10 	vmov	r0, s0
 8006822:	4621      	mov	r1, r4
 8006824:	dc0f      	bgt.n	8006846 <__ieee754_sqrt+0x62>
 8006826:	f025 4600 	bic.w	r6, r5, #2147483648	; 0x80000000
 800682a:	4330      	orrs	r0, r6
 800682c:	d0f2      	beq.n	8006814 <__ieee754_sqrt+0x30>
 800682e:	b155      	cbz	r5, 8006846 <__ieee754_sqrt+0x62>
 8006830:	ee10 2a10 	vmov	r2, s0
 8006834:	4620      	mov	r0, r4
 8006836:	4629      	mov	r1, r5
 8006838:	f7f9 fd46 	bl	80002c8 <__aeabi_dsub>
 800683c:	4602      	mov	r2, r0
 800683e:	460b      	mov	r3, r1
 8006840:	f7fa f824 	bl	800088c <__aeabi_ddiv>
 8006844:	e7e4      	b.n	8006810 <__ieee754_sqrt+0x2c>
 8006846:	151b      	asrs	r3, r3, #20
 8006848:	d073      	beq.n	8006932 <__ieee754_sqrt+0x14e>
 800684a:	f2a3 33ff 	subw	r3, r3, #1023	; 0x3ff
 800684e:	07dd      	lsls	r5, r3, #31
 8006850:	f3c2 0213 	ubfx	r2, r2, #0, #20
 8006854:	bf48      	it	mi
 8006856:	0fc8      	lsrmi	r0, r1, #31
 8006858:	f442 1280 	orr.w	r2, r2, #1048576	; 0x100000
 800685c:	bf44      	itt	mi
 800685e:	0049      	lslmi	r1, r1, #1
 8006860:	eb00 0242 	addmi.w	r2, r0, r2, lsl #1
 8006864:	2500      	movs	r5, #0
 8006866:	1058      	asrs	r0, r3, #1
 8006868:	0fcb      	lsrs	r3, r1, #31
 800686a:	eb03 0242 	add.w	r2, r3, r2, lsl #1
 800686e:	0049      	lsls	r1, r1, #1
 8006870:	2316      	movs	r3, #22
 8006872:	462c      	mov	r4, r5
 8006874:	f44f 1600 	mov.w	r6, #2097152	; 0x200000
 8006878:	19a7      	adds	r7, r4, r6
 800687a:	4297      	cmp	r7, r2
 800687c:	bfde      	ittt	le
 800687e:	19bc      	addle	r4, r7, r6
 8006880:	1bd2      	suble	r2, r2, r7
 8006882:	19ad      	addle	r5, r5, r6
 8006884:	0fcf      	lsrs	r7, r1, #31
 8006886:	3b01      	subs	r3, #1
 8006888:	eb07 0242 	add.w	r2, r7, r2, lsl #1
 800688c:	ea4f 0141 	mov.w	r1, r1, lsl #1
 8006890:	ea4f 0656 	mov.w	r6, r6, lsr #1
 8006894:	d1f0      	bne.n	8006878 <__ieee754_sqrt+0x94>
 8006896:	f04f 0c20 	mov.w	ip, #32
 800689a:	469e      	mov	lr, r3
 800689c:	f04f 4600 	mov.w	r6, #2147483648	; 0x80000000
 80068a0:	42a2      	cmp	r2, r4
 80068a2:	eb06 070e 	add.w	r7, r6, lr
 80068a6:	dc02      	bgt.n	80068ae <__ieee754_sqrt+0xca>
 80068a8:	d112      	bne.n	80068d0 <__ieee754_sqrt+0xec>
 80068aa:	428f      	cmp	r7, r1
 80068ac:	d810      	bhi.n	80068d0 <__ieee754_sqrt+0xec>
 80068ae:	2f00      	cmp	r7, #0
 80068b0:	eb07 0e06 	add.w	lr, r7, r6
 80068b4:	da42      	bge.n	800693c <__ieee754_sqrt+0x158>
 80068b6:	f1be 0f00 	cmp.w	lr, #0
 80068ba:	db3f      	blt.n	800693c <__ieee754_sqrt+0x158>
 80068bc:	f104 0801 	add.w	r8, r4, #1
 80068c0:	1b12      	subs	r2, r2, r4
 80068c2:	428f      	cmp	r7, r1
 80068c4:	bf88      	it	hi
 80068c6:	f102 32ff 	addhi.w	r2, r2, #4294967295
 80068ca:	1bc9      	subs	r1, r1, r7
 80068cc:	4433      	add	r3, r6
 80068ce:	4644      	mov	r4, r8
 80068d0:	0052      	lsls	r2, r2, #1
 80068d2:	f1bc 0c01 	subs.w	ip, ip, #1
 80068d6:	eb02 72d1 	add.w	r2, r2, r1, lsr #31
 80068da:	ea4f 0656 	mov.w	r6, r6, lsr #1
 80068de:	ea4f 0141 	mov.w	r1, r1, lsl #1
 80068e2:	d1dd      	bne.n	80068a0 <__ieee754_sqrt+0xbc>
 80068e4:	430a      	orrs	r2, r1
 80068e6:	d006      	beq.n	80068f6 <__ieee754_sqrt+0x112>
 80068e8:	1c5c      	adds	r4, r3, #1
 80068ea:	bf13      	iteet	ne
 80068ec:	3301      	addne	r3, #1
 80068ee:	3501      	addeq	r5, #1
 80068f0:	4663      	moveq	r3, ip
 80068f2:	f023 0301 	bicne.w	r3, r3, #1
 80068f6:	106a      	asrs	r2, r5, #1
 80068f8:	085b      	lsrs	r3, r3, #1
 80068fa:	07e9      	lsls	r1, r5, #31
 80068fc:	f102 527f 	add.w	r2, r2, #1069547520	; 0x3fc00000
 8006900:	f502 1200 	add.w	r2, r2, #2097152	; 0x200000
 8006904:	bf48      	it	mi
 8006906:	f043 4300 	orrmi.w	r3, r3, #2147483648	; 0x80000000
 800690a:	eb02 5500 	add.w	r5, r2, r0, lsl #20
 800690e:	461c      	mov	r4, r3
 8006910:	e780      	b.n	8006814 <__ieee754_sqrt+0x30>
 8006912:	0aca      	lsrs	r2, r1, #11
 8006914:	3815      	subs	r0, #21
 8006916:	0549      	lsls	r1, r1, #21
 8006918:	2a00      	cmp	r2, #0
 800691a:	d0fa      	beq.n	8006912 <__ieee754_sqrt+0x12e>
 800691c:	02d6      	lsls	r6, r2, #11
 800691e:	d50a      	bpl.n	8006936 <__ieee754_sqrt+0x152>
 8006920:	f1c3 0420 	rsb	r4, r3, #32
 8006924:	fa21 f404 	lsr.w	r4, r1, r4
 8006928:	1e5d      	subs	r5, r3, #1
 800692a:	4099      	lsls	r1, r3
 800692c:	4322      	orrs	r2, r4
 800692e:	1b43      	subs	r3, r0, r5
 8006930:	e78b      	b.n	800684a <__ieee754_sqrt+0x66>
 8006932:	4618      	mov	r0, r3
 8006934:	e7f0      	b.n	8006918 <__ieee754_sqrt+0x134>
 8006936:	0052      	lsls	r2, r2, #1
 8006938:	3301      	adds	r3, #1
 800693a:	e7ef      	b.n	800691c <__ieee754_sqrt+0x138>
 800693c:	46a0      	mov	r8, r4
 800693e:	e7bf      	b.n	80068c0 <__ieee754_sqrt+0xdc>
 8006940:	7ff00000 	.word	0x7ff00000

08006944 <__ieee754_fmodf>:
 8006944:	b5f0      	push	{r4, r5, r6, r7, lr}
 8006946:	ee10 6a90 	vmov	r6, s1
 800694a:	f036 4500 	bics.w	r5, r6, #2147483648	; 0x80000000
 800694e:	ee10 3a10 	vmov	r3, s0
 8006952:	d009      	beq.n	8006968 <__ieee754_fmodf+0x24>
 8006954:	f023 4100 	bic.w	r1, r3, #2147483648	; 0x80000000
 8006958:	f1b1 4fff 	cmp.w	r1, #2139095040	; 0x7f800000
 800695c:	ee10 7a10 	vmov	r7, s0
 8006960:	da02      	bge.n	8006968 <__ieee754_fmodf+0x24>
 8006962:	f1b5 4fff 	cmp.w	r5, #2139095040	; 0x7f800000
 8006966:	dd0a      	ble.n	800697e <__ieee754_fmodf+0x3a>
 8006968:	ee07 3a90 	vmov	s15, r3
 800696c:	ee67 0aa0 	vmul.f32	s1, s15, s1
 8006970:	eec0 7aa0 	vdiv.f32	s15, s1, s1
 8006974:	ee17 3a90 	vmov	r3, s15
 8006978:	ee00 3a10 	vmov	s0, r3
 800697c:	bdf0      	pop	{r4, r5, r6, r7, pc}
 800697e:	42a9      	cmp	r1, r5
 8006980:	dbfa      	blt.n	8006978 <__ieee754_fmodf+0x34>
 8006982:	f003 4400 	and.w	r4, r3, #2147483648	; 0x80000000
 8006986:	d105      	bne.n	8006994 <__ieee754_fmodf+0x50>
 8006988:	4a30      	ldr	r2, [pc, #192]	; (8006a4c <__ieee754_fmodf+0x108>)
 800698a:	0fe3      	lsrs	r3, r4, #31
 800698c:	eb02 0383 	add.w	r3, r2, r3, lsl #2
 8006990:	681b      	ldr	r3, [r3, #0]
 8006992:	e7f1      	b.n	8006978 <__ieee754_fmodf+0x34>
 8006994:	4b2e      	ldr	r3, [pc, #184]	; (8006a50 <__ieee754_fmodf+0x10c>)
 8006996:	4299      	cmp	r1, r3
 8006998:	dc3e      	bgt.n	8006a18 <__ieee754_fmodf+0xd4>
 800699a:	020a      	lsls	r2, r1, #8
 800699c:	f06f 007d 	mvn.w	r0, #125	; 0x7d
 80069a0:	2a00      	cmp	r2, #0
 80069a2:	dc36      	bgt.n	8006a12 <__ieee754_fmodf+0xce>
 80069a4:	429d      	cmp	r5, r3
 80069a6:	dc3a      	bgt.n	8006a1e <__ieee754_fmodf+0xda>
 80069a8:	022b      	lsls	r3, r5, #8
 80069aa:	f06f 027d 	mvn.w	r2, #125	; 0x7d
 80069ae:	005b      	lsls	r3, r3, #1
 80069b0:	f102 32ff 	add.w	r2, r2, #4294967295
 80069b4:	d5fb      	bpl.n	80069ae <__ieee754_fmodf+0x6a>
 80069b6:	f110 0f7e 	cmn.w	r0, #126	; 0x7e
 80069ba:	bfbb      	ittet	lt
 80069bc:	f06f 037d 	mvnlt.w	r3, #125	; 0x7d
 80069c0:	1a1b      	sublt	r3, r3, r0
 80069c2:	f3c7 0116 	ubfxge	r1, r7, #0, #23
 80069c6:	4099      	lsllt	r1, r3
 80069c8:	bfa8      	it	ge
 80069ca:	f441 0100 	orrge.w	r1, r1, #8388608	; 0x800000
 80069ce:	f112 0f7e 	cmn.w	r2, #126	; 0x7e
 80069d2:	bfb5      	itete	lt
 80069d4:	f06f 037d 	mvnlt.w	r3, #125	; 0x7d
 80069d8:	f3c6 0516 	ubfxge	r5, r6, #0, #23
 80069dc:	1a9b      	sublt	r3, r3, r2
 80069de:	f445 0500 	orrge.w	r5, r5, #8388608	; 0x800000
 80069e2:	bfb8      	it	lt
 80069e4:	409d      	lsllt	r5, r3
 80069e6:	1a80      	subs	r0, r0, r2
 80069e8:	1b4b      	subs	r3, r1, r5
 80069ea:	b9d8      	cbnz	r0, 8006a24 <__ieee754_fmodf+0xe0>
 80069ec:	ea33 0323 	bics.w	r3, r3, r3, asr #32
 80069f0:	bf28      	it	cs
 80069f2:	460b      	movcs	r3, r1
 80069f4:	2b00      	cmp	r3, #0
 80069f6:	d0c7      	beq.n	8006988 <__ieee754_fmodf+0x44>
 80069f8:	4915      	ldr	r1, [pc, #84]	; (8006a50 <__ieee754_fmodf+0x10c>)
 80069fa:	428b      	cmp	r3, r1
 80069fc:	dd1a      	ble.n	8006a34 <__ieee754_fmodf+0xf0>
 80069fe:	f112 0f7e 	cmn.w	r2, #126	; 0x7e
 8006a02:	db1a      	blt.n	8006a3a <__ieee754_fmodf+0xf6>
 8006a04:	f5a3 0300 	sub.w	r3, r3, #8388608	; 0x800000
 8006a08:	4323      	orrs	r3, r4
 8006a0a:	327f      	adds	r2, #127	; 0x7f
 8006a0c:	ea43 53c2 	orr.w	r3, r3, r2, lsl #23
 8006a10:	e7b2      	b.n	8006978 <__ieee754_fmodf+0x34>
 8006a12:	3801      	subs	r0, #1
 8006a14:	0052      	lsls	r2, r2, #1
 8006a16:	e7c3      	b.n	80069a0 <__ieee754_fmodf+0x5c>
 8006a18:	15c8      	asrs	r0, r1, #23
 8006a1a:	387f      	subs	r0, #127	; 0x7f
 8006a1c:	e7c2      	b.n	80069a4 <__ieee754_fmodf+0x60>
 8006a1e:	15ea      	asrs	r2, r5, #23
 8006a20:	3a7f      	subs	r2, #127	; 0x7f
 8006a22:	e7c8      	b.n	80069b6 <__ieee754_fmodf+0x72>
 8006a24:	2b00      	cmp	r3, #0
 8006a26:	da02      	bge.n	8006a2e <__ieee754_fmodf+0xea>
 8006a28:	0049      	lsls	r1, r1, #1
 8006a2a:	3801      	subs	r0, #1
 8006a2c:	e7dc      	b.n	80069e8 <__ieee754_fmodf+0xa4>
 8006a2e:	d0ab      	beq.n	8006988 <__ieee754_fmodf+0x44>
 8006a30:	0059      	lsls	r1, r3, #1
 8006a32:	e7fa      	b.n	8006a2a <__ieee754_fmodf+0xe6>
 8006a34:	005b      	lsls	r3, r3, #1
 8006a36:	3a01      	subs	r2, #1
 8006a38:	e7df      	b.n	80069fa <__ieee754_fmodf+0xb6>
 8006a3a:	f1c2 22ff 	rsb	r2, r2, #4278255360	; 0xff00ff00
 8006a3e:	f502 027f 	add.w	r2, r2, #16711680	; 0xff0000
 8006a42:	3282      	adds	r2, #130	; 0x82
 8006a44:	4113      	asrs	r3, r2
 8006a46:	4323      	orrs	r3, r4
 8006a48:	e796      	b.n	8006978 <__ieee754_fmodf+0x34>
 8006a4a:	bf00      	nop
 8006a4c:	0800d128 	.word	0x0800d128
 8006a50:	007fffff 	.word	0x007fffff

08006a54 <__ieee754_rem_pio2f>:
 8006a54:	b5f0      	push	{r4, r5, r6, r7, lr}
 8006a56:	ee10 6a10 	vmov	r6, s0
 8006a5a:	4b86      	ldr	r3, [pc, #536]	; (8006c74 <__ieee754_rem_pio2f+0x220>)
 8006a5c:	f026 4400 	bic.w	r4, r6, #2147483648	; 0x80000000
 8006a60:	429c      	cmp	r4, r3
 8006a62:	b087      	sub	sp, #28
 8006a64:	4605      	mov	r5, r0
 8006a66:	dc05      	bgt.n	8006a74 <__ieee754_rem_pio2f+0x20>
 8006a68:	2300      	movs	r3, #0
 8006a6a:	ed85 0a00 	vstr	s0, [r5]
 8006a6e:	6043      	str	r3, [r0, #4]
 8006a70:	2000      	movs	r0, #0
 8006a72:	e020      	b.n	8006ab6 <__ieee754_rem_pio2f+0x62>
 8006a74:	4b80      	ldr	r3, [pc, #512]	; (8006c78 <__ieee754_rem_pio2f+0x224>)
 8006a76:	429c      	cmp	r4, r3
 8006a78:	dc38      	bgt.n	8006aec <__ieee754_rem_pio2f+0x98>
 8006a7a:	2e00      	cmp	r6, #0
 8006a7c:	f024 040f 	bic.w	r4, r4, #15
 8006a80:	ed9f 7a7e 	vldr	s14, [pc, #504]	; 8006c7c <__ieee754_rem_pio2f+0x228>
 8006a84:	4b7e      	ldr	r3, [pc, #504]	; (8006c80 <__ieee754_rem_pio2f+0x22c>)
 8006a86:	dd18      	ble.n	8006aba <__ieee754_rem_pio2f+0x66>
 8006a88:	429c      	cmp	r4, r3
 8006a8a:	ee70 7a47 	vsub.f32	s15, s0, s14
 8006a8e:	bf09      	itett	eq
 8006a90:	ed9f 7a7c 	vldreq	s14, [pc, #496]	; 8006c84 <__ieee754_rem_pio2f+0x230>
 8006a94:	ed9f 7a7c 	vldrne	s14, [pc, #496]	; 8006c88 <__ieee754_rem_pio2f+0x234>
 8006a98:	ee77 7ac7 	vsubeq.f32	s15, s15, s14
 8006a9c:	ed9f 7a7b 	vldreq	s14, [pc, #492]	; 8006c8c <__ieee754_rem_pio2f+0x238>
 8006aa0:	ee77 6ac7 	vsub.f32	s13, s15, s14
 8006aa4:	ee77 7ae6 	vsub.f32	s15, s15, s13
 8006aa8:	edc0 6a00 	vstr	s13, [r0]
 8006aac:	ee77 7ac7 	vsub.f32	s15, s15, s14
 8006ab0:	edc0 7a01 	vstr	s15, [r0, #4]
 8006ab4:	2001      	movs	r0, #1
 8006ab6:	b007      	add	sp, #28
 8006ab8:	bdf0      	pop	{r4, r5, r6, r7, pc}
 8006aba:	429c      	cmp	r4, r3
 8006abc:	ee70 7a07 	vadd.f32	s15, s0, s14
 8006ac0:	bf09      	itett	eq
 8006ac2:	ed9f 7a70 	vldreq	s14, [pc, #448]	; 8006c84 <__ieee754_rem_pio2f+0x230>
 8006ac6:	ed9f 7a70 	vldrne	s14, [pc, #448]	; 8006c88 <__ieee754_rem_pio2f+0x234>
 8006aca:	ee77 7a87 	vaddeq.f32	s15, s15, s14
 8006ace:	ed9f 7a6f 	vldreq	s14, [pc, #444]	; 8006c8c <__ieee754_rem_pio2f+0x238>
 8006ad2:	ee77 6a87 	vadd.f32	s13, s15, s14
 8006ad6:	ee77 7ae6 	vsub.f32	s15, s15, s13
 8006ada:	edc0 6a00 	vstr	s13, [r0]
 8006ade:	ee77 7a87 	vadd.f32	s15, s15, s14
 8006ae2:	edc0 7a01 	vstr	s15, [r0, #4]
 8006ae6:	f04f 30ff 	mov.w	r0, #4294967295
 8006aea:	e7e4      	b.n	8006ab6 <__ieee754_rem_pio2f+0x62>
 8006aec:	4b68      	ldr	r3, [pc, #416]	; (8006c90 <__ieee754_rem_pio2f+0x23c>)
 8006aee:	429c      	cmp	r4, r3
 8006af0:	dc71      	bgt.n	8006bd6 <__ieee754_rem_pio2f+0x182>
 8006af2:	f000 fc11 	bl	8007318 <fabsf>
 8006af6:	ed9f 7a67 	vldr	s14, [pc, #412]	; 8006c94 <__ieee754_rem_pio2f+0x240>
 8006afa:	eef6 7a00 	vmov.f32	s15, #96	; 0x3f000000  0.5
 8006afe:	eee0 7a07 	vfma.f32	s15, s0, s14
 8006b02:	eefd 7ae7 	vcvt.s32.f32	s15, s15
 8006b06:	eeb8 6ae7 	vcvt.f32.s32	s12, s15
 8006b0a:	ee17 0a90 	vmov	r0, s15
 8006b0e:	eddf 7a5b 	vldr	s15, [pc, #364]	; 8006c7c <__ieee754_rem_pio2f+0x228>
 8006b12:	eeb1 7a46 	vneg.f32	s14, s12
 8006b16:	eea7 0a27 	vfma.f32	s0, s14, s15
 8006b1a:	281f      	cmp	r0, #31
 8006b1c:	eddf 7a5a 	vldr	s15, [pc, #360]	; 8006c88 <__ieee754_rem_pio2f+0x234>
 8006b20:	ee66 7a27 	vmul.f32	s15, s12, s15
 8006b24:	ee70 6a67 	vsub.f32	s13, s0, s15
 8006b28:	ee16 3a90 	vmov	r3, s13
 8006b2c:	dc1c      	bgt.n	8006b68 <__ieee754_rem_pio2f+0x114>
 8006b2e:	1e47      	subs	r7, r0, #1
 8006b30:	4959      	ldr	r1, [pc, #356]	; (8006c98 <__ieee754_rem_pio2f+0x244>)
 8006b32:	f851 1027 	ldr.w	r1, [r1, r7, lsl #2]
 8006b36:	f024 02ff 	bic.w	r2, r4, #255	; 0xff
 8006b3a:	428a      	cmp	r2, r1
 8006b3c:	d014      	beq.n	8006b68 <__ieee754_rem_pio2f+0x114>
 8006b3e:	602b      	str	r3, [r5, #0]
 8006b40:	ed95 7a00 	vldr	s14, [r5]
 8006b44:	ee30 0a47 	vsub.f32	s0, s0, s14
 8006b48:	2e00      	cmp	r6, #0
 8006b4a:	ee30 0a67 	vsub.f32	s0, s0, s15
 8006b4e:	ed85 0a01 	vstr	s0, [r5, #4]
 8006b52:	dab0      	bge.n	8006ab6 <__ieee754_rem_pio2f+0x62>
 8006b54:	eeb1 7a47 	vneg.f32	s14, s14
 8006b58:	eeb1 0a40 	vneg.f32	s0, s0
 8006b5c:	ed85 7a00 	vstr	s14, [r5]
 8006b60:	ed85 0a01 	vstr	s0, [r5, #4]
 8006b64:	4240      	negs	r0, r0
 8006b66:	e7a6      	b.n	8006ab6 <__ieee754_rem_pio2f+0x62>
 8006b68:	15e4      	asrs	r4, r4, #23
 8006b6a:	f3c3 52c7 	ubfx	r2, r3, #23, #8
 8006b6e:	1aa2      	subs	r2, r4, r2
 8006b70:	2a08      	cmp	r2, #8
 8006b72:	dde4      	ble.n	8006b3e <__ieee754_rem_pio2f+0xea>
 8006b74:	eddf 7a43 	vldr	s15, [pc, #268]	; 8006c84 <__ieee754_rem_pio2f+0x230>
 8006b78:	eef0 6a40 	vmov.f32	s13, s0
 8006b7c:	eee7 6a27 	vfma.f32	s13, s14, s15
 8006b80:	ee30 0a66 	vsub.f32	s0, s0, s13
 8006b84:	eea7 0a27 	vfma.f32	s0, s14, s15
 8006b88:	eddf 7a40 	vldr	s15, [pc, #256]	; 8006c8c <__ieee754_rem_pio2f+0x238>
 8006b8c:	ee96 0a27 	vfnms.f32	s0, s12, s15
 8006b90:	ee76 5ac0 	vsub.f32	s11, s13, s0
 8006b94:	eef0 7a40 	vmov.f32	s15, s0
 8006b98:	ee15 3a90 	vmov	r3, s11
 8006b9c:	f3c3 52c7 	ubfx	r2, r3, #23, #8
 8006ba0:	1aa4      	subs	r4, r4, r2
 8006ba2:	2c19      	cmp	r4, #25
 8006ba4:	dc04      	bgt.n	8006bb0 <__ieee754_rem_pio2f+0x15c>
 8006ba6:	edc5 5a00 	vstr	s11, [r5]
 8006baa:	eeb0 0a66 	vmov.f32	s0, s13
 8006bae:	e7c7      	b.n	8006b40 <__ieee754_rem_pio2f+0xec>
 8006bb0:	eddf 5a3a 	vldr	s11, [pc, #232]	; 8006c9c <__ieee754_rem_pio2f+0x248>
 8006bb4:	eeb0 0a66 	vmov.f32	s0, s13
 8006bb8:	eea7 0a25 	vfma.f32	s0, s14, s11
 8006bbc:	ee76 7ac0 	vsub.f32	s15, s13, s0
 8006bc0:	eee7 7a25 	vfma.f32	s15, s14, s11
 8006bc4:	ed9f 7a36 	vldr	s14, [pc, #216]	; 8006ca0 <__ieee754_rem_pio2f+0x24c>
 8006bc8:	eed6 7a07 	vfnms.f32	s15, s12, s14
 8006bcc:	ee30 7a67 	vsub.f32	s14, s0, s15
 8006bd0:	ed85 7a00 	vstr	s14, [r5]
 8006bd4:	e7b4      	b.n	8006b40 <__ieee754_rem_pio2f+0xec>
 8006bd6:	f1b4 4fff 	cmp.w	r4, #2139095040	; 0x7f800000
 8006bda:	db06      	blt.n	8006bea <__ieee754_rem_pio2f+0x196>
 8006bdc:	ee70 7a40 	vsub.f32	s15, s0, s0
 8006be0:	edc0 7a01 	vstr	s15, [r0, #4]
 8006be4:	edc0 7a00 	vstr	s15, [r0]
 8006be8:	e742      	b.n	8006a70 <__ieee754_rem_pio2f+0x1c>
 8006bea:	15e2      	asrs	r2, r4, #23
 8006bec:	3a86      	subs	r2, #134	; 0x86
 8006bee:	eba4 53c2 	sub.w	r3, r4, r2, lsl #23
 8006bf2:	ee07 3a90 	vmov	s15, r3
 8006bf6:	eebd 7ae7 	vcvt.s32.f32	s14, s15
 8006bfa:	eddf 6a2a 	vldr	s13, [pc, #168]	; 8006ca4 <__ieee754_rem_pio2f+0x250>
 8006bfe:	eeb8 7ac7 	vcvt.f32.s32	s14, s14
 8006c02:	ee77 7ac7 	vsub.f32	s15, s15, s14
 8006c06:	ed8d 7a03 	vstr	s14, [sp, #12]
 8006c0a:	ee67 7aa6 	vmul.f32	s15, s15, s13
 8006c0e:	eebd 7ae7 	vcvt.s32.f32	s14, s15
 8006c12:	eeb8 7ac7 	vcvt.f32.s32	s14, s14
 8006c16:	ee77 7ac7 	vsub.f32	s15, s15, s14
 8006c1a:	ed8d 7a04 	vstr	s14, [sp, #16]
 8006c1e:	ee67 7aa6 	vmul.f32	s15, s15, s13
 8006c22:	eef5 7a40 	vcmp.f32	s15, #0.0
 8006c26:	eef1 fa10 	vmrs	APSR_nzcv, fpscr
 8006c2a:	edcd 7a05 	vstr	s15, [sp, #20]
 8006c2e:	d11e      	bne.n	8006c6e <__ieee754_rem_pio2f+0x21a>
 8006c30:	eeb5 7a40 	vcmp.f32	s14, #0.0
 8006c34:	eef1 fa10 	vmrs	APSR_nzcv, fpscr
 8006c38:	bf0c      	ite	eq
 8006c3a:	2301      	moveq	r3, #1
 8006c3c:	2302      	movne	r3, #2
 8006c3e:	491a      	ldr	r1, [pc, #104]	; (8006ca8 <__ieee754_rem_pio2f+0x254>)
 8006c40:	9101      	str	r1, [sp, #4]
 8006c42:	2102      	movs	r1, #2
 8006c44:	9100      	str	r1, [sp, #0]
 8006c46:	a803      	add	r0, sp, #12
 8006c48:	4629      	mov	r1, r5
 8006c4a:	f000 f891 	bl	8006d70 <__kernel_rem_pio2f>
 8006c4e:	2e00      	cmp	r6, #0
 8006c50:	f6bf af31 	bge.w	8006ab6 <__ieee754_rem_pio2f+0x62>
 8006c54:	edd5 7a00 	vldr	s15, [r5]
 8006c58:	eef1 7a67 	vneg.f32	s15, s15
 8006c5c:	edc5 7a00 	vstr	s15, [r5]
 8006c60:	edd5 7a01 	vldr	s15, [r5, #4]
 8006c64:	eef1 7a67 	vneg.f32	s15, s15
 8006c68:	edc5 7a01 	vstr	s15, [r5, #4]
 8006c6c:	e77a      	b.n	8006b64 <__ieee754_rem_pio2f+0x110>
 8006c6e:	2303      	movs	r3, #3
 8006c70:	e7e5      	b.n	8006c3e <__ieee754_rem_pio2f+0x1ea>
 8006c72:	bf00      	nop
 8006c74:	3f490fd8 	.word	0x3f490fd8
 8006c78:	4016cbe3 	.word	0x4016cbe3
 8006c7c:	3fc90f80 	.word	0x3fc90f80
 8006c80:	3fc90fd0 	.word	0x3fc90fd0
 8006c84:	37354400 	.word	0x37354400
 8006c88:	37354443 	.word	0x37354443
 8006c8c:	2e85a308 	.word	0x2e85a308
 8006c90:	43490f80 	.word	0x43490f80
 8006c94:	3f22f984 	.word	0x3f22f984
 8006c98:	0800d130 	.word	0x0800d130
 8006c9c:	2e85a300 	.word	0x2e85a300
 8006ca0:	248d3132 	.word	0x248d3132
 8006ca4:	43800000 	.word	0x43800000
 8006ca8:	0800d1b0 	.word	0x0800d1b0

08006cac <__ieee754_sqrtf>:
 8006cac:	eeb1 0ac0 	vsqrt.f32	s0, s0
 8006cb0:	4770      	bx	lr
	...

08006cb4 <__kernel_cosf>:
 8006cb4:	ee10 3a10 	vmov	r3, s0
 8006cb8:	f023 4300 	bic.w	r3, r3, #2147483648	; 0x80000000
 8006cbc:	f1b3 5f48 	cmp.w	r3, #838860800	; 0x32000000
 8006cc0:	eef7 6a00 	vmov.f32	s13, #112	; 0x3f800000  1.0
 8006cc4:	da05      	bge.n	8006cd2 <__kernel_cosf+0x1e>
 8006cc6:	eefd 7ac0 	vcvt.s32.f32	s15, s0
 8006cca:	ee17 2a90 	vmov	r2, s15
 8006cce:	2a00      	cmp	r2, #0
 8006cd0:	d03b      	beq.n	8006d4a <__kernel_cosf+0x96>
 8006cd2:	ee20 6a00 	vmul.f32	s12, s0, s0
 8006cd6:	eeb6 7a00 	vmov.f32	s14, #96	; 0x3f000000  0.5
 8006cda:	eddf 5a1d 	vldr	s11, [pc, #116]	; 8006d50 <__kernel_cosf+0x9c>
 8006cde:	4a1d      	ldr	r2, [pc, #116]	; (8006d54 <__kernel_cosf+0xa0>)
 8006ce0:	ee66 7a07 	vmul.f32	s15, s12, s14
 8006ce4:	ed9f 7a1c 	vldr	s14, [pc, #112]	; 8006d58 <__kernel_cosf+0xa4>
 8006ce8:	eea6 7a25 	vfma.f32	s14, s12, s11
 8006cec:	4293      	cmp	r3, r2
 8006cee:	eddf 5a1b 	vldr	s11, [pc, #108]	; 8006d5c <__kernel_cosf+0xa8>
 8006cf2:	eee7 5a06 	vfma.f32	s11, s14, s12
 8006cf6:	ed9f 7a1a 	vldr	s14, [pc, #104]	; 8006d60 <__kernel_cosf+0xac>
 8006cfa:	eea5 7a86 	vfma.f32	s14, s11, s12
 8006cfe:	eddf 5a19 	vldr	s11, [pc, #100]	; 8006d64 <__kernel_cosf+0xb0>
 8006d02:	eee7 5a06 	vfma.f32	s11, s14, s12
 8006d06:	ed9f 7a18 	vldr	s14, [pc, #96]	; 8006d68 <__kernel_cosf+0xb4>
 8006d0a:	eea5 7a86 	vfma.f32	s14, s11, s12
 8006d0e:	ee60 0ac0 	vnmul.f32	s1, s1, s0
 8006d12:	ee27 7a06 	vmul.f32	s14, s14, s12
 8006d16:	eee6 0a07 	vfma.f32	s1, s12, s14
 8006d1a:	dc04      	bgt.n	8006d26 <__kernel_cosf+0x72>
 8006d1c:	ee77 0ae0 	vsub.f32	s1, s15, s1
 8006d20:	ee36 0ae0 	vsub.f32	s0, s13, s1
 8006d24:	4770      	bx	lr
 8006d26:	4a11      	ldr	r2, [pc, #68]	; (8006d6c <__kernel_cosf+0xb8>)
 8006d28:	4293      	cmp	r3, r2
 8006d2a:	bfda      	itte	le
 8006d2c:	f103 437f 	addle.w	r3, r3, #4278190080	; 0xff000000
 8006d30:	ee07 3a10 	vmovle	s14, r3
 8006d34:	eeb5 7a02 	vmovgt.f32	s14, #82	; 0x3e900000  0.2812500
 8006d38:	ee77 7ac7 	vsub.f32	s15, s15, s14
 8006d3c:	ee36 0ac7 	vsub.f32	s0, s13, s14
 8006d40:	ee77 7ae0 	vsub.f32	s15, s15, s1
 8006d44:	ee30 0a67 	vsub.f32	s0, s0, s15
 8006d48:	4770      	bx	lr
 8006d4a:	eeb0 0a66 	vmov.f32	s0, s13
 8006d4e:	4770      	bx	lr
 8006d50:	ad47d74e 	.word	0xad47d74e
 8006d54:	3e999999 	.word	0x3e999999
 8006d58:	310f74f6 	.word	0x310f74f6
 8006d5c:	b493f27c 	.word	0xb493f27c
 8006d60:	37d00d01 	.word	0x37d00d01
 8006d64:	bab60b61 	.word	0xbab60b61
 8006d68:	3d2aaaab 	.word	0x3d2aaaab
 8006d6c:	3f480000 	.word	0x3f480000

08006d70 <__kernel_rem_pio2f>:
 8006d70:	e92d 4ff0 	stmdb	sp!, {r4, r5, r6, r7, r8, r9, sl, fp, lr}
 8006d74:	ed2d 8b04 	vpush	{d8-d9}
 8006d78:	b0d7      	sub	sp, #348	; 0x15c
 8006d7a:	469b      	mov	fp, r3
 8006d7c:	460e      	mov	r6, r1
 8006d7e:	4bbe      	ldr	r3, [pc, #760]	; (8007078 <__kernel_rem_pio2f+0x308>)
 8006d80:	9964      	ldr	r1, [sp, #400]	; 0x190
 8006d82:	9002      	str	r0, [sp, #8]
 8006d84:	f853 9021 	ldr.w	r9, [r3, r1, lsl #2]
 8006d88:	9865      	ldr	r0, [sp, #404]	; 0x194
 8006d8a:	ed9f 7abf 	vldr	s14, [pc, #764]	; 8007088 <__kernel_rem_pio2f+0x318>
 8006d8e:	1ed1      	subs	r1, r2, #3
 8006d90:	2308      	movs	r3, #8
 8006d92:	fb91 f1f3 	sdiv	r1, r1, r3
 8006d96:	ea21 71e1 	bic.w	r1, r1, r1, asr #31
 8006d9a:	f10b 3aff 	add.w	sl, fp, #4294967295
 8006d9e:	1c4c      	adds	r4, r1, #1
 8006da0:	eba2 04c4 	sub.w	r4, r2, r4, lsl #3
 8006da4:	eba1 050a 	sub.w	r5, r1, sl
 8006da8:	aa1a      	add	r2, sp, #104	; 0x68
 8006daa:	eb09 070a 	add.w	r7, r9, sl
 8006dae:	eb00 0c85 	add.w	ip, r0, r5, lsl #2
 8006db2:	4696      	mov	lr, r2
 8006db4:	2300      	movs	r3, #0
 8006db6:	42bb      	cmp	r3, r7
 8006db8:	dd0f      	ble.n	8006dda <__kernel_rem_pio2f+0x6a>
 8006dba:	af42      	add	r7, sp, #264	; 0x108
 8006dbc:	2200      	movs	r2, #0
 8006dbe:	454a      	cmp	r2, r9
 8006dc0:	dc27      	bgt.n	8006e12 <__kernel_rem_pio2f+0xa2>
 8006dc2:	f10d 0c68 	add.w	ip, sp, #104	; 0x68
 8006dc6:	eb0b 0302 	add.w	r3, fp, r2
 8006dca:	eb0c 0383 	add.w	r3, ip, r3, lsl #2
 8006dce:	9d02      	ldr	r5, [sp, #8]
 8006dd0:	eddf 7aad 	vldr	s15, [pc, #692]	; 8007088 <__kernel_rem_pio2f+0x318>
 8006dd4:	f04f 0c00 	mov.w	ip, #0
 8006dd8:	e015      	b.n	8006e06 <__kernel_rem_pio2f+0x96>
 8006dda:	42dd      	cmn	r5, r3
 8006ddc:	bf5d      	ittte	pl
 8006dde:	f85c 2023 	ldrpl.w	r2, [ip, r3, lsl #2]
 8006de2:	ee07 2a90 	vmovpl	s15, r2
 8006de6:	eef8 7ae7 	vcvtpl.f32.s32	s15, s15
 8006dea:	eef0 7a47 	vmovmi.f32	s15, s14
 8006dee:	ecee 7a01 	vstmia	lr!, {s15}
 8006df2:	3301      	adds	r3, #1
 8006df4:	e7df      	b.n	8006db6 <__kernel_rem_pio2f+0x46>
 8006df6:	ecf5 6a01 	vldmia	r5!, {s13}
 8006dfa:	ed33 7a01 	vldmdb	r3!, {s14}
 8006dfe:	eee6 7a87 	vfma.f32	s15, s13, s14
 8006e02:	f10c 0c01 	add.w	ip, ip, #1
 8006e06:	45d4      	cmp	ip, sl
 8006e08:	ddf5      	ble.n	8006df6 <__kernel_rem_pio2f+0x86>
 8006e0a:	ece7 7a01 	vstmia	r7!, {s15}
 8006e0e:	3201      	adds	r2, #1
 8006e10:	e7d5      	b.n	8006dbe <__kernel_rem_pio2f+0x4e>
 8006e12:	ab06      	add	r3, sp, #24
 8006e14:	eb03 0389 	add.w	r3, r3, r9, lsl #2
 8006e18:	9304      	str	r3, [sp, #16]
 8006e1a:	eddf 8a9a 	vldr	s17, [pc, #616]	; 8007084 <__kernel_rem_pio2f+0x314>
 8006e1e:	ed9f 9a98 	vldr	s18, [pc, #608]	; 8007080 <__kernel_rem_pio2f+0x310>
 8006e22:	eb00 0381 	add.w	r3, r0, r1, lsl #2
 8006e26:	9303      	str	r3, [sp, #12]
 8006e28:	464d      	mov	r5, r9
 8006e2a:	ab56      	add	r3, sp, #344	; 0x158
 8006e2c:	f105 4780 	add.w	r7, r5, #1073741824	; 0x40000000
 8006e30:	eb03 0385 	add.w	r3, r3, r5, lsl #2
 8006e34:	3f01      	subs	r7, #1
 8006e36:	ed13 0a14 	vldr	s0, [r3, #-80]	; 0xffffffb0
 8006e3a:	00bf      	lsls	r7, r7, #2
 8006e3c:	ab56      	add	r3, sp, #344	; 0x158
 8006e3e:	19da      	adds	r2, r3, r7
 8006e40:	3a4c      	subs	r2, #76	; 0x4c
 8006e42:	2300      	movs	r3, #0
 8006e44:	1ae9      	subs	r1, r5, r3
 8006e46:	2900      	cmp	r1, #0
 8006e48:	dc4c      	bgt.n	8006ee4 <__kernel_rem_pio2f+0x174>
 8006e4a:	4620      	mov	r0, r4
 8006e4c:	f000 faae 	bl	80073ac <scalbnf>
 8006e50:	eeb0 8a40 	vmov.f32	s16, s0
 8006e54:	eeb4 0a00 	vmov.f32	s0, #64	; 0x3e000000  0.125
 8006e58:	ee28 0a00 	vmul.f32	s0, s16, s0
 8006e5c:	f000 fa64 	bl	8007328 <floorf>
 8006e60:	eef2 7a00 	vmov.f32	s15, #32	; 0x41000000  8.0
 8006e64:	eea0 8a67 	vfms.f32	s16, s0, s15
 8006e68:	2c00      	cmp	r4, #0
 8006e6a:	eefd 7ac8 	vcvt.s32.f32	s15, s16
 8006e6e:	edcd 7a01 	vstr	s15, [sp, #4]
 8006e72:	eef8 7ae7 	vcvt.f32.s32	s15, s15
 8006e76:	ee38 8a67 	vsub.f32	s16, s16, s15
 8006e7a:	dd48      	ble.n	8006f0e <__kernel_rem_pio2f+0x19e>
 8006e7c:	1e69      	subs	r1, r5, #1
 8006e7e:	ab06      	add	r3, sp, #24
 8006e80:	f1c4 0008 	rsb	r0, r4, #8
 8006e84:	f853 c021 	ldr.w	ip, [r3, r1, lsl #2]
 8006e88:	9a01      	ldr	r2, [sp, #4]
 8006e8a:	fa4c f300 	asr.w	r3, ip, r0
 8006e8e:	441a      	add	r2, r3
 8006e90:	4083      	lsls	r3, r0
 8006e92:	9201      	str	r2, [sp, #4]
 8006e94:	ebac 0203 	sub.w	r2, ip, r3
 8006e98:	ab06      	add	r3, sp, #24
 8006e9a:	f843 2021 	str.w	r2, [r3, r1, lsl #2]
 8006e9e:	f1c4 0307 	rsb	r3, r4, #7
 8006ea2:	fa42 f803 	asr.w	r8, r2, r3
 8006ea6:	f1b8 0f00 	cmp.w	r8, #0
 8006eaa:	dd41      	ble.n	8006f30 <__kernel_rem_pio2f+0x1c0>
 8006eac:	9b01      	ldr	r3, [sp, #4]
 8006eae:	2000      	movs	r0, #0
 8006eb0:	3301      	adds	r3, #1
 8006eb2:	9301      	str	r3, [sp, #4]
 8006eb4:	4601      	mov	r1, r0
 8006eb6:	4285      	cmp	r5, r0
 8006eb8:	dc6d      	bgt.n	8006f96 <__kernel_rem_pio2f+0x226>
 8006eba:	2c00      	cmp	r4, #0
 8006ebc:	dd04      	ble.n	8006ec8 <__kernel_rem_pio2f+0x158>
 8006ebe:	2c01      	cmp	r4, #1
 8006ec0:	d07e      	beq.n	8006fc0 <__kernel_rem_pio2f+0x250>
 8006ec2:	2c02      	cmp	r4, #2
 8006ec4:	f000 8086 	beq.w	8006fd4 <__kernel_rem_pio2f+0x264>
 8006ec8:	f1b8 0f02 	cmp.w	r8, #2
 8006ecc:	d130      	bne.n	8006f30 <__kernel_rem_pio2f+0x1c0>
 8006ece:	eeb7 0a00 	vmov.f32	s0, #112	; 0x3f800000  1.0
 8006ed2:	ee30 8a48 	vsub.f32	s16, s0, s16
 8006ed6:	b359      	cbz	r1, 8006f30 <__kernel_rem_pio2f+0x1c0>
 8006ed8:	4620      	mov	r0, r4
 8006eda:	f000 fa67 	bl	80073ac <scalbnf>
 8006ede:	ee38 8a40 	vsub.f32	s16, s16, s0
 8006ee2:	e025      	b.n	8006f30 <__kernel_rem_pio2f+0x1c0>
 8006ee4:	ee60 7a28 	vmul.f32	s15, s0, s17
 8006ee8:	a806      	add	r0, sp, #24
 8006eea:	eefd 7ae7 	vcvt.s32.f32	s15, s15
 8006eee:	eef8 7ae7 	vcvt.f32.s32	s15, s15
 8006ef2:	eea7 0ac9 	vfms.f32	s0, s15, s18
 8006ef6:	eebd 0ac0 	vcvt.s32.f32	s0, s0
 8006efa:	ee10 1a10 	vmov	r1, s0
 8006efe:	ed32 0a01 	vldmdb	r2!, {s0}
 8006f02:	f840 1023 	str.w	r1, [r0, r3, lsl #2]
 8006f06:	ee37 0a80 	vadd.f32	s0, s15, s0
 8006f0a:	3301      	adds	r3, #1
 8006f0c:	e79a      	b.n	8006e44 <__kernel_rem_pio2f+0xd4>
 8006f0e:	d106      	bne.n	8006f1e <__kernel_rem_pio2f+0x1ae>
 8006f10:	1e6b      	subs	r3, r5, #1
 8006f12:	aa06      	add	r2, sp, #24
 8006f14:	f852 2023 	ldr.w	r2, [r2, r3, lsl #2]
 8006f18:	ea4f 2822 	mov.w	r8, r2, asr #8
 8006f1c:	e7c3      	b.n	8006ea6 <__kernel_rem_pio2f+0x136>
 8006f1e:	eef6 7a00 	vmov.f32	s15, #96	; 0x3f000000  0.5
 8006f22:	eeb4 8ae7 	vcmpe.f32	s16, s15
 8006f26:	eef1 fa10 	vmrs	APSR_nzcv, fpscr
 8006f2a:	da31      	bge.n	8006f90 <__kernel_rem_pio2f+0x220>
 8006f2c:	f04f 0800 	mov.w	r8, #0
 8006f30:	eeb5 8a40 	vcmp.f32	s16, #0.0
 8006f34:	eef1 fa10 	vmrs	APSR_nzcv, fpscr
 8006f38:	f040 80a8 	bne.w	800708c <__kernel_rem_pio2f+0x31c>
 8006f3c:	1e6b      	subs	r3, r5, #1
 8006f3e:	4618      	mov	r0, r3
 8006f40:	2200      	movs	r2, #0
 8006f42:	4548      	cmp	r0, r9
 8006f44:	da4d      	bge.n	8006fe2 <__kernel_rem_pio2f+0x272>
 8006f46:	2a00      	cmp	r2, #0
 8006f48:	f000 8087 	beq.w	800705a <__kernel_rem_pio2f+0x2ea>
 8006f4c:	aa06      	add	r2, sp, #24
 8006f4e:	3c08      	subs	r4, #8
 8006f50:	f852 1023 	ldr.w	r1, [r2, r3, lsl #2]
 8006f54:	2900      	cmp	r1, #0
 8006f56:	f000 808d 	beq.w	8007074 <__kernel_rem_pio2f+0x304>
 8006f5a:	4620      	mov	r0, r4
 8006f5c:	eeb7 0a00 	vmov.f32	s0, #112	; 0x3f800000  1.0
 8006f60:	9302      	str	r3, [sp, #8]
 8006f62:	f000 fa23 	bl	80073ac <scalbnf>
 8006f66:	9b02      	ldr	r3, [sp, #8]
 8006f68:	ed9f 7a46 	vldr	s14, [pc, #280]	; 8007084 <__kernel_rem_pio2f+0x314>
 8006f6c:	0099      	lsls	r1, r3, #2
 8006f6e:	aa42      	add	r2, sp, #264	; 0x108
 8006f70:	1850      	adds	r0, r2, r1
 8006f72:	1d05      	adds	r5, r0, #4
 8006f74:	461c      	mov	r4, r3
 8006f76:	2c00      	cmp	r4, #0
 8006f78:	f280 80b8 	bge.w	80070ec <__kernel_rem_pio2f+0x37c>
 8006f7c:	2500      	movs	r5, #0
 8006f7e:	1b5c      	subs	r4, r3, r5
 8006f80:	2c00      	cmp	r4, #0
 8006f82:	f2c0 80d8 	blt.w	8007136 <__kernel_rem_pio2f+0x3c6>
 8006f86:	4f3d      	ldr	r7, [pc, #244]	; (800707c <__kernel_rem_pio2f+0x30c>)
 8006f88:	eddf 7a3f 	vldr	s15, [pc, #252]	; 8007088 <__kernel_rem_pio2f+0x318>
 8006f8c:	2400      	movs	r4, #0
 8006f8e:	e0c6      	b.n	800711e <__kernel_rem_pio2f+0x3ae>
 8006f90:	f04f 0802 	mov.w	r8, #2
 8006f94:	e78a      	b.n	8006eac <__kernel_rem_pio2f+0x13c>
 8006f96:	ab06      	add	r3, sp, #24
 8006f98:	f853 3020 	ldr.w	r3, [r3, r0, lsl #2]
 8006f9c:	b949      	cbnz	r1, 8006fb2 <__kernel_rem_pio2f+0x242>
 8006f9e:	b12b      	cbz	r3, 8006fac <__kernel_rem_pio2f+0x23c>
 8006fa0:	aa06      	add	r2, sp, #24
 8006fa2:	f5c3 7380 	rsb	r3, r3, #256	; 0x100
 8006fa6:	f842 3020 	str.w	r3, [r2, r0, lsl #2]
 8006faa:	2301      	movs	r3, #1
 8006fac:	3001      	adds	r0, #1
 8006fae:	4619      	mov	r1, r3
 8006fb0:	e781      	b.n	8006eb6 <__kernel_rem_pio2f+0x146>
 8006fb2:	aa06      	add	r2, sp, #24
 8006fb4:	f1c3 03ff 	rsb	r3, r3, #255	; 0xff
 8006fb8:	f842 3020 	str.w	r3, [r2, r0, lsl #2]
 8006fbc:	460b      	mov	r3, r1
 8006fbe:	e7f5      	b.n	8006fac <__kernel_rem_pio2f+0x23c>
 8006fc0:	1e68      	subs	r0, r5, #1
 8006fc2:	ab06      	add	r3, sp, #24
 8006fc4:	f853 3020 	ldr.w	r3, [r3, r0, lsl #2]
 8006fc8:	f003 037f 	and.w	r3, r3, #127	; 0x7f
 8006fcc:	aa06      	add	r2, sp, #24
 8006fce:	f842 3020 	str.w	r3, [r2, r0, lsl #2]
 8006fd2:	e779      	b.n	8006ec8 <__kernel_rem_pio2f+0x158>
 8006fd4:	1e68      	subs	r0, r5, #1
 8006fd6:	ab06      	add	r3, sp, #24
 8006fd8:	f853 3020 	ldr.w	r3, [r3, r0, lsl #2]
 8006fdc:	f003 033f 	and.w	r3, r3, #63	; 0x3f
 8006fe0:	e7f4      	b.n	8006fcc <__kernel_rem_pio2f+0x25c>
 8006fe2:	a906      	add	r1, sp, #24
 8006fe4:	f851 1020 	ldr.w	r1, [r1, r0, lsl #2]
 8006fe8:	3801      	subs	r0, #1
 8006fea:	430a      	orrs	r2, r1
 8006fec:	e7a9      	b.n	8006f42 <__kernel_rem_pio2f+0x1d2>
 8006fee:	f10c 0c01 	add.w	ip, ip, #1
 8006ff2:	f853 2d04 	ldr.w	r2, [r3, #-4]!
 8006ff6:	2a00      	cmp	r2, #0
 8006ff8:	d0f9      	beq.n	8006fee <__kernel_rem_pio2f+0x27e>
 8006ffa:	eb0b 0305 	add.w	r3, fp, r5
 8006ffe:	aa1a      	add	r2, sp, #104	; 0x68
 8007000:	009b      	lsls	r3, r3, #2
 8007002:	1898      	adds	r0, r3, r2
 8007004:	3004      	adds	r0, #4
 8007006:	1c69      	adds	r1, r5, #1
 8007008:	3704      	adds	r7, #4
 800700a:	2200      	movs	r2, #0
 800700c:	4465      	add	r5, ip
 800700e:	9005      	str	r0, [sp, #20]
 8007010:	428d      	cmp	r5, r1
 8007012:	f6ff af0a 	blt.w	8006e2a <__kernel_rem_pio2f+0xba>
 8007016:	a81a      	add	r0, sp, #104	; 0x68
 8007018:	eb02 0c03 	add.w	ip, r2, r3
 800701c:	4484      	add	ip, r0
 800701e:	9803      	ldr	r0, [sp, #12]
 8007020:	f8dd e008 	ldr.w	lr, [sp, #8]
 8007024:	f850 0021 	ldr.w	r0, [r0, r1, lsl #2]
 8007028:	9001      	str	r0, [sp, #4]
 800702a:	ee07 0a90 	vmov	s15, r0
 800702e:	eef8 7ae7 	vcvt.f32.s32	s15, s15
 8007032:	9805      	ldr	r0, [sp, #20]
 8007034:	edcc 7a00 	vstr	s15, [ip]
 8007038:	eddf 7a13 	vldr	s15, [pc, #76]	; 8007088 <__kernel_rem_pio2f+0x318>
 800703c:	eb00 0802 	add.w	r8, r0, r2
 8007040:	f04f 0c00 	mov.w	ip, #0
 8007044:	45d4      	cmp	ip, sl
 8007046:	dd0c      	ble.n	8007062 <__kernel_rem_pio2f+0x2f2>
 8007048:	eb02 0c07 	add.w	ip, r2, r7
 800704c:	a842      	add	r0, sp, #264	; 0x108
 800704e:	4484      	add	ip, r0
 8007050:	edcc 7a01 	vstr	s15, [ip, #4]
 8007054:	3101      	adds	r1, #1
 8007056:	3204      	adds	r2, #4
 8007058:	e7da      	b.n	8007010 <__kernel_rem_pio2f+0x2a0>
 800705a:	9b04      	ldr	r3, [sp, #16]
 800705c:	f04f 0c01 	mov.w	ip, #1
 8007060:	e7c7      	b.n	8006ff2 <__kernel_rem_pio2f+0x282>
 8007062:	ecfe 6a01 	vldmia	lr!, {s13}
 8007066:	ed38 7a01 	vldmdb	r8!, {s14}
 800706a:	f10c 0c01 	add.w	ip, ip, #1
 800706e:	eee6 7a87 	vfma.f32	s15, s13, s14
 8007072:	e7e7      	b.n	8007044 <__kernel_rem_pio2f+0x2d4>
 8007074:	3b01      	subs	r3, #1
 8007076:	e769      	b.n	8006f4c <__kernel_rem_pio2f+0x1dc>
 8007078:	0800d4f4 	.word	0x0800d4f4
 800707c:	0800d4c8 	.word	0x0800d4c8
 8007080:	43800000 	.word	0x43800000
 8007084:	3b800000 	.word	0x3b800000
 8007088:	00000000 	.word	0x00000000
 800708c:	4260      	negs	r0, r4
 800708e:	eeb0 0a48 	vmov.f32	s0, s16
 8007092:	f000 f98b 	bl	80073ac <scalbnf>
 8007096:	ed1f 7a06 	vldr	s14, [pc, #-24]	; 8007080 <__kernel_rem_pio2f+0x310>
 800709a:	eeb4 0ac7 	vcmpe.f32	s0, s14
 800709e:	eef1 fa10 	vmrs	APSR_nzcv, fpscr
 80070a2:	db1a      	blt.n	80070da <__kernel_rem_pio2f+0x36a>
 80070a4:	ed5f 7a09 	vldr	s15, [pc, #-36]	; 8007084 <__kernel_rem_pio2f+0x314>
 80070a8:	ee60 7a27 	vmul.f32	s15, s0, s15
 80070ac:	aa06      	add	r2, sp, #24
 80070ae:	eefd 7ae7 	vcvt.s32.f32	s15, s15
 80070b2:	a906      	add	r1, sp, #24
 80070b4:	eef8 7ae7 	vcvt.f32.s32	s15, s15
 80070b8:	3408      	adds	r4, #8
 80070ba:	eea7 0ac7 	vfms.f32	s0, s15, s14
 80070be:	eefd 7ae7 	vcvt.s32.f32	s15, s15
 80070c2:	eebd 0ac0 	vcvt.s32.f32	s0, s0
 80070c6:	ee10 3a10 	vmov	r3, s0
 80070ca:	f842 3025 	str.w	r3, [r2, r5, lsl #2]
 80070ce:	1c6b      	adds	r3, r5, #1
 80070d0:	ee17 2a90 	vmov	r2, s15
 80070d4:	f841 2023 	str.w	r2, [r1, r3, lsl #2]
 80070d8:	e73f      	b.n	8006f5a <__kernel_rem_pio2f+0x1ea>
 80070da:	eebd 0ac0 	vcvt.s32.f32	s0, s0
 80070de:	aa06      	add	r2, sp, #24
 80070e0:	ee10 3a10 	vmov	r3, s0
 80070e4:	f842 3025 	str.w	r3, [r2, r5, lsl #2]
 80070e8:	462b      	mov	r3, r5
 80070ea:	e736      	b.n	8006f5a <__kernel_rem_pio2f+0x1ea>
 80070ec:	aa06      	add	r2, sp, #24
 80070ee:	f852 2024 	ldr.w	r2, [r2, r4, lsl #2]
 80070f2:	9202      	str	r2, [sp, #8]
 80070f4:	ee07 2a90 	vmov	s15, r2
 80070f8:	eef8 7ae7 	vcvt.f32.s32	s15, s15
 80070fc:	3c01      	subs	r4, #1
 80070fe:	ee67 7a80 	vmul.f32	s15, s15, s0
 8007102:	ee20 0a07 	vmul.f32	s0, s0, s14
 8007106:	ed65 7a01 	vstmdb	r5!, {s15}
 800710a:	e734      	b.n	8006f76 <__kernel_rem_pio2f+0x206>
 800710c:	eb00 0c84 	add.w	ip, r0, r4, lsl #2
 8007110:	ecf7 6a01 	vldmia	r7!, {s13}
 8007114:	ed9c 7a00 	vldr	s14, [ip]
 8007118:	eee6 7a87 	vfma.f32	s15, s13, s14
 800711c:	3401      	adds	r4, #1
 800711e:	454c      	cmp	r4, r9
 8007120:	dc01      	bgt.n	8007126 <__kernel_rem_pio2f+0x3b6>
 8007122:	42a5      	cmp	r5, r4
 8007124:	daf2      	bge.n	800710c <__kernel_rem_pio2f+0x39c>
 8007126:	aa56      	add	r2, sp, #344	; 0x158
 8007128:	eb02 0485 	add.w	r4, r2, r5, lsl #2
 800712c:	ed44 7a28 	vstr	s15, [r4, #-160]	; 0xffffff60
 8007130:	3501      	adds	r5, #1
 8007132:	3804      	subs	r0, #4
 8007134:	e723      	b.n	8006f7e <__kernel_rem_pio2f+0x20e>
 8007136:	9a64      	ldr	r2, [sp, #400]	; 0x190
 8007138:	2a03      	cmp	r2, #3
 800713a:	d84d      	bhi.n	80071d8 <__kernel_rem_pio2f+0x468>
 800713c:	e8df f002 	tbb	[pc, r2]
 8007140:	021f1f3e 	.word	0x021f1f3e
 8007144:	aa56      	add	r2, sp, #344	; 0x158
 8007146:	4411      	add	r1, r2
 8007148:	399c      	subs	r1, #156	; 0x9c
 800714a:	4608      	mov	r0, r1
 800714c:	461c      	mov	r4, r3
 800714e:	2c00      	cmp	r4, #0
 8007150:	dc5f      	bgt.n	8007212 <__kernel_rem_pio2f+0x4a2>
 8007152:	4608      	mov	r0, r1
 8007154:	461c      	mov	r4, r3
 8007156:	2c01      	cmp	r4, #1
 8007158:	dc6b      	bgt.n	8007232 <__kernel_rem_pio2f+0x4c2>
 800715a:	ed5f 7a35 	vldr	s15, [pc, #-212]	; 8007088 <__kernel_rem_pio2f+0x318>
 800715e:	2b01      	cmp	r3, #1
 8007160:	dc77      	bgt.n	8007252 <__kernel_rem_pio2f+0x4e2>
 8007162:	eddd 6a2e 	vldr	s13, [sp, #184]	; 0xb8
 8007166:	ed9d 7a2f 	vldr	s14, [sp, #188]	; 0xbc
 800716a:	f1b8 0f00 	cmp.w	r8, #0
 800716e:	d176      	bne.n	800725e <__kernel_rem_pio2f+0x4ee>
 8007170:	edc6 6a00 	vstr	s13, [r6]
 8007174:	ed86 7a01 	vstr	s14, [r6, #4]
 8007178:	edc6 7a02 	vstr	s15, [r6, #8]
 800717c:	e02c      	b.n	80071d8 <__kernel_rem_pio2f+0x468>
 800717e:	aa56      	add	r2, sp, #344	; 0x158
 8007180:	4411      	add	r1, r2
 8007182:	ed1f 7a3f 	vldr	s14, [pc, #-252]	; 8007088 <__kernel_rem_pio2f+0x318>
 8007186:	399c      	subs	r1, #156	; 0x9c
 8007188:	4618      	mov	r0, r3
 800718a:	2800      	cmp	r0, #0
 800718c:	da32      	bge.n	80071f4 <__kernel_rem_pio2f+0x484>
 800718e:	f1b8 0f00 	cmp.w	r8, #0
 8007192:	d035      	beq.n	8007200 <__kernel_rem_pio2f+0x490>
 8007194:	eef1 7a47 	vneg.f32	s15, s14
 8007198:	edc6 7a00 	vstr	s15, [r6]
 800719c:	eddd 7a2e 	vldr	s15, [sp, #184]	; 0xb8
 80071a0:	ee77 7ac7 	vsub.f32	s15, s15, s14
 80071a4:	a82f      	add	r0, sp, #188	; 0xbc
 80071a6:	2101      	movs	r1, #1
 80071a8:	428b      	cmp	r3, r1
 80071aa:	da2c      	bge.n	8007206 <__kernel_rem_pio2f+0x496>
 80071ac:	f1b8 0f00 	cmp.w	r8, #0
 80071b0:	d001      	beq.n	80071b6 <__kernel_rem_pio2f+0x446>
 80071b2:	eef1 7a67 	vneg.f32	s15, s15
 80071b6:	edc6 7a01 	vstr	s15, [r6, #4]
 80071ba:	e00d      	b.n	80071d8 <__kernel_rem_pio2f+0x468>
 80071bc:	aa56      	add	r2, sp, #344	; 0x158
 80071be:	4411      	add	r1, r2
 80071c0:	ed5f 7a4f 	vldr	s15, [pc, #-316]	; 8007088 <__kernel_rem_pio2f+0x318>
 80071c4:	399c      	subs	r1, #156	; 0x9c
 80071c6:	2b00      	cmp	r3, #0
 80071c8:	da0e      	bge.n	80071e8 <__kernel_rem_pio2f+0x478>
 80071ca:	f1b8 0f00 	cmp.w	r8, #0
 80071ce:	d001      	beq.n	80071d4 <__kernel_rem_pio2f+0x464>
 80071d0:	eef1 7a67 	vneg.f32	s15, s15
 80071d4:	edc6 7a00 	vstr	s15, [r6]
 80071d8:	9b01      	ldr	r3, [sp, #4]
 80071da:	f003 0007 	and.w	r0, r3, #7
 80071de:	b057      	add	sp, #348	; 0x15c
 80071e0:	ecbd 8b04 	vpop	{d8-d9}
 80071e4:	e8bd 8ff0 	ldmia.w	sp!, {r4, r5, r6, r7, r8, r9, sl, fp, pc}
 80071e8:	ed31 7a01 	vldmdb	r1!, {s14}
 80071ec:	3b01      	subs	r3, #1
 80071ee:	ee77 7a87 	vadd.f32	s15, s15, s14
 80071f2:	e7e8      	b.n	80071c6 <__kernel_rem_pio2f+0x456>
 80071f4:	ed71 7a01 	vldmdb	r1!, {s15}
 80071f8:	3801      	subs	r0, #1
 80071fa:	ee37 7a27 	vadd.f32	s14, s14, s15
 80071fe:	e7c4      	b.n	800718a <__kernel_rem_pio2f+0x41a>
 8007200:	eef0 7a47 	vmov.f32	s15, s14
 8007204:	e7c8      	b.n	8007198 <__kernel_rem_pio2f+0x428>
 8007206:	ecb0 7a01 	vldmia	r0!, {s14}
 800720a:	3101      	adds	r1, #1
 800720c:	ee77 7a87 	vadd.f32	s15, s15, s14
 8007210:	e7ca      	b.n	80071a8 <__kernel_rem_pio2f+0x438>
 8007212:	ed50 7a02 	vldr	s15, [r0, #-8]
 8007216:	ed70 6a01 	vldmdb	r0!, {s13}
 800721a:	ee37 7aa6 	vadd.f32	s14, s15, s13
 800721e:	3c01      	subs	r4, #1
 8007220:	ee77 7ac7 	vsub.f32	s15, s15, s14
 8007224:	ed00 7a01 	vstr	s14, [r0, #-4]
 8007228:	ee77 7aa6 	vadd.f32	s15, s15, s13
 800722c:	edc0 7a00 	vstr	s15, [r0]
 8007230:	e78d      	b.n	800714e <__kernel_rem_pio2f+0x3de>
 8007232:	ed50 7a02 	vldr	s15, [r0, #-8]
 8007236:	ed70 6a01 	vldmdb	r0!, {s13}
 800723a:	ee37 7aa6 	vadd.f32	s14, s15, s13
 800723e:	3c01      	subs	r4, #1
 8007240:	ee77 7ac7 	vsub.f32	s15, s15, s14
 8007244:	ed00 7a01 	vstr	s14, [r0, #-4]
 8007248:	ee77 7aa6 	vadd.f32	s15, s15, s13
 800724c:	edc0 7a00 	vstr	s15, [r0]
 8007250:	e781      	b.n	8007156 <__kernel_rem_pio2f+0x3e6>
 8007252:	ed31 7a01 	vldmdb	r1!, {s14}
 8007256:	3b01      	subs	r3, #1
 8007258:	ee77 7a87 	vadd.f32	s15, s15, s14
 800725c:	e77f      	b.n	800715e <__kernel_rem_pio2f+0x3ee>
 800725e:	eef1 6a66 	vneg.f32	s13, s13
 8007262:	eeb1 7a47 	vneg.f32	s14, s14
 8007266:	edc6 6a00 	vstr	s13, [r6]
 800726a:	ed86 7a01 	vstr	s14, [r6, #4]
 800726e:	eef1 7a67 	vneg.f32	s15, s15
 8007272:	e781      	b.n	8007178 <__kernel_rem_pio2f+0x408>

08007274 <__kernel_sinf>:
 8007274:	ee10 3a10 	vmov	r3, s0
 8007278:	f023 4300 	bic.w	r3, r3, #2147483648	; 0x80000000
 800727c:	f1b3 5f48 	cmp.w	r3, #838860800	; 0x32000000
 8007280:	da04      	bge.n	800728c <__kernel_sinf+0x18>
 8007282:	eefd 7ac0 	vcvt.s32.f32	s15, s0
 8007286:	ee17 3a90 	vmov	r3, s15
 800728a:	b35b      	cbz	r3, 80072e4 <__kernel_sinf+0x70>
 800728c:	ee20 7a00 	vmul.f32	s14, s0, s0
 8007290:	eddf 7a15 	vldr	s15, [pc, #84]	; 80072e8 <__kernel_sinf+0x74>
 8007294:	ed9f 6a15 	vldr	s12, [pc, #84]	; 80072ec <__kernel_sinf+0x78>
 8007298:	eea7 6a27 	vfma.f32	s12, s14, s15
 800729c:	eddf 7a14 	vldr	s15, [pc, #80]	; 80072f0 <__kernel_sinf+0x7c>
 80072a0:	eee6 7a07 	vfma.f32	s15, s12, s14
 80072a4:	ed9f 6a13 	vldr	s12, [pc, #76]	; 80072f4 <__kernel_sinf+0x80>
 80072a8:	eea7 6a87 	vfma.f32	s12, s15, s14
 80072ac:	eddf 7a12 	vldr	s15, [pc, #72]	; 80072f8 <__kernel_sinf+0x84>
 80072b0:	ee60 6a07 	vmul.f32	s13, s0, s14
 80072b4:	eee6 7a07 	vfma.f32	s15, s12, s14
 80072b8:	b930      	cbnz	r0, 80072c8 <__kernel_sinf+0x54>
 80072ba:	ed9f 6a10 	vldr	s12, [pc, #64]	; 80072fc <__kernel_sinf+0x88>
 80072be:	eea7 6a27 	vfma.f32	s12, s14, s15
 80072c2:	eea6 0a26 	vfma.f32	s0, s12, s13
 80072c6:	4770      	bx	lr
 80072c8:	ee67 7ae6 	vnmul.f32	s15, s15, s13
 80072cc:	eeb6 6a00 	vmov.f32	s12, #96	; 0x3f000000  0.5
 80072d0:	eee0 7a86 	vfma.f32	s15, s1, s12
 80072d4:	eed7 0a87 	vfnms.f32	s1, s15, s14
 80072d8:	eddf 7a09 	vldr	s15, [pc, #36]	; 8007300 <__kernel_sinf+0x8c>
 80072dc:	eee6 0aa7 	vfma.f32	s1, s13, s15
 80072e0:	ee30 0a60 	vsub.f32	s0, s0, s1
 80072e4:	4770      	bx	lr
 80072e6:	bf00      	nop
 80072e8:	2f2ec9d3 	.word	0x2f2ec9d3
 80072ec:	b2d72f34 	.word	0xb2d72f34
 80072f0:	3638ef1b 	.word	0x3638ef1b
 80072f4:	b9500d01 	.word	0xb9500d01
 80072f8:	3c088889 	.word	0x3c088889
 80072fc:	be2aaaab 	.word	0xbe2aaaab
 8007300:	3e2aaaab 	.word	0x3e2aaaab

08007304 <finite>:
 8007304:	ee10 3a90 	vmov	r3, s1
 8007308:	f043 4000 	orr.w	r0, r3, #2147483648	; 0x80000000
 800730c:	f500 1080 	add.w	r0, r0, #1048576	; 0x100000
 8007310:	0fc0      	lsrs	r0, r0, #31
 8007312:	4770      	bx	lr

08007314 <matherr>:
 8007314:	2000      	movs	r0, #0
 8007316:	4770      	bx	lr

08007318 <fabsf>:
 8007318:	ee10 3a10 	vmov	r3, s0
 800731c:	f023 4300 	bic.w	r3, r3, #2147483648	; 0x80000000
 8007320:	ee00 3a10 	vmov	s0, r3
 8007324:	4770      	bx	lr
	...

08007328 <floorf>:
 8007328:	ee10 3a10 	vmov	r3, s0
 800732c:	f023 4100 	bic.w	r1, r3, #2147483648	; 0x80000000
 8007330:	0dca      	lsrs	r2, r1, #23
 8007332:	3a7f      	subs	r2, #127	; 0x7f
 8007334:	2a16      	cmp	r2, #22
 8007336:	dc2a      	bgt.n	800738e <floorf+0x66>
 8007338:	2a00      	cmp	r2, #0
 800733a:	da11      	bge.n	8007360 <floorf+0x38>
 800733c:	eddf 7a18 	vldr	s15, [pc, #96]	; 80073a0 <floorf+0x78>
 8007340:	ee30 0a27 	vadd.f32	s0, s0, s15
 8007344:	eeb5 0ac0 	vcmpe.f32	s0, #0.0
 8007348:	eef1 fa10 	vmrs	APSR_nzcv, fpscr
 800734c:	dd05      	ble.n	800735a <floorf+0x32>
 800734e:	2b00      	cmp	r3, #0
 8007350:	da23      	bge.n	800739a <floorf+0x72>
 8007352:	4a14      	ldr	r2, [pc, #80]	; (80073a4 <floorf+0x7c>)
 8007354:	2900      	cmp	r1, #0
 8007356:	bf18      	it	ne
 8007358:	4613      	movne	r3, r2
 800735a:	ee00 3a10 	vmov	s0, r3
 800735e:	4770      	bx	lr
 8007360:	4911      	ldr	r1, [pc, #68]	; (80073a8 <floorf+0x80>)
 8007362:	4111      	asrs	r1, r2
 8007364:	420b      	tst	r3, r1
 8007366:	d0fa      	beq.n	800735e <floorf+0x36>
 8007368:	eddf 7a0d 	vldr	s15, [pc, #52]	; 80073a0 <floorf+0x78>
 800736c:	ee30 0a27 	vadd.f32	s0, s0, s15
 8007370:	eeb5 0ac0 	vcmpe.f32	s0, #0.0
 8007374:	eef1 fa10 	vmrs	APSR_nzcv, fpscr
 8007378:	ddef      	ble.n	800735a <floorf+0x32>
 800737a:	2b00      	cmp	r3, #0
 800737c:	bfbe      	ittt	lt
 800737e:	f44f 0000 	movlt.w	r0, #8388608	; 0x800000
 8007382:	fa40 f202 	asrlt.w	r2, r0, r2
 8007386:	189b      	addlt	r3, r3, r2
 8007388:	ea23 0301 	bic.w	r3, r3, r1
 800738c:	e7e5      	b.n	800735a <floorf+0x32>
 800738e:	f1b1 4fff 	cmp.w	r1, #2139095040	; 0x7f800000
 8007392:	d3e4      	bcc.n	800735e <floorf+0x36>
 8007394:	ee30 0a00 	vadd.f32	s0, s0, s0
 8007398:	4770      	bx	lr
 800739a:	2300      	movs	r3, #0
 800739c:	e7dd      	b.n	800735a <floorf+0x32>
 800739e:	bf00      	nop
 80073a0:	7149f2ca 	.word	0x7149f2ca
 80073a4:	bf800000 	.word	0xbf800000
 80073a8:	007fffff 	.word	0x007fffff

080073ac <scalbnf>:
 80073ac:	b508      	push	{r3, lr}
 80073ae:	ee10 2a10 	vmov	r2, s0
 80073b2:	f032 4300 	bics.w	r3, r2, #2147483648	; 0x80000000
 80073b6:	ed2d 8b02 	vpush	{d8}
 80073ba:	eef0 0a40 	vmov.f32	s1, s0
 80073be:	d004      	beq.n	80073ca <scalbnf+0x1e>
 80073c0:	f1b3 4fff 	cmp.w	r3, #2139095040	; 0x7f800000
 80073c4:	d306      	bcc.n	80073d4 <scalbnf+0x28>
 80073c6:	ee70 0a00 	vadd.f32	s1, s0, s0
 80073ca:	ecbd 8b02 	vpop	{d8}
 80073ce:	eeb0 0a60 	vmov.f32	s0, s1
 80073d2:	bd08      	pop	{r3, pc}
 80073d4:	f5b3 0f00 	cmp.w	r3, #8388608	; 0x800000
 80073d8:	d21c      	bcs.n	8007414 <scalbnf+0x68>
 80073da:	4b1f      	ldr	r3, [pc, #124]	; (8007458 <scalbnf+0xac>)
 80073dc:	eddf 7a1f 	vldr	s15, [pc, #124]	; 800745c <scalbnf+0xb0>
 80073e0:	4298      	cmp	r0, r3
 80073e2:	ee60 0a27 	vmul.f32	s1, s0, s15
 80073e6:	db10      	blt.n	800740a <scalbnf+0x5e>
 80073e8:	ee10 2a90 	vmov	r2, s1
 80073ec:	f3c2 53c7 	ubfx	r3, r2, #23, #8
 80073f0:	3b19      	subs	r3, #25
 80073f2:	4403      	add	r3, r0
 80073f4:	2bfe      	cmp	r3, #254	; 0xfe
 80073f6:	dd0f      	ble.n	8007418 <scalbnf+0x6c>
 80073f8:	ed9f 8a19 	vldr	s16, [pc, #100]	; 8007460 <scalbnf+0xb4>
 80073fc:	eeb0 0a48 	vmov.f32	s0, s16
 8007400:	f000 f834 	bl	800746c <copysignf>
 8007404:	ee60 0a08 	vmul.f32	s1, s0, s16
 8007408:	e7df      	b.n	80073ca <scalbnf+0x1e>
 800740a:	eddf 7a16 	vldr	s15, [pc, #88]	; 8007464 <scalbnf+0xb8>
 800740e:	ee60 0aa7 	vmul.f32	s1, s1, s15
 8007412:	e7da      	b.n	80073ca <scalbnf+0x1e>
 8007414:	0ddb      	lsrs	r3, r3, #23
 8007416:	e7ec      	b.n	80073f2 <scalbnf+0x46>
 8007418:	2b00      	cmp	r3, #0
 800741a:	dd06      	ble.n	800742a <scalbnf+0x7e>
 800741c:	f022 42ff 	bic.w	r2, r2, #2139095040	; 0x7f800000
 8007420:	ea42 53c3 	orr.w	r3, r2, r3, lsl #23
 8007424:	ee00 3a90 	vmov	s1, r3
 8007428:	e7cf      	b.n	80073ca <scalbnf+0x1e>
 800742a:	f113 0f16 	cmn.w	r3, #22
 800742e:	da06      	bge.n	800743e <scalbnf+0x92>
 8007430:	f24c 3350 	movw	r3, #50000	; 0xc350
 8007434:	4298      	cmp	r0, r3
 8007436:	dcdf      	bgt.n	80073f8 <scalbnf+0x4c>
 8007438:	ed9f 8a0a 	vldr	s16, [pc, #40]	; 8007464 <scalbnf+0xb8>
 800743c:	e7de      	b.n	80073fc <scalbnf+0x50>
 800743e:	3319      	adds	r3, #25
 8007440:	f022 42ff 	bic.w	r2, r2, #2139095040	; 0x7f800000
 8007444:	ea42 53c3 	orr.w	r3, r2, r3, lsl #23
 8007448:	eddf 7a07 	vldr	s15, [pc, #28]	; 8007468 <scalbnf+0xbc>
 800744c:	ee07 3a10 	vmov	s14, r3
 8007450:	ee67 0a27 	vmul.f32	s1, s14, s15
 8007454:	e7b9      	b.n	80073ca <scalbnf+0x1e>
 8007456:	bf00      	nop
 8007458:	ffff3cb0 	.word	0xffff3cb0
 800745c:	4c000000 	.word	0x4c000000
 8007460:	7149f2ca 	.word	0x7149f2ca
 8007464:	0da24260 	.word	0x0da24260
 8007468:	33000000 	.word	0x33000000

0800746c <copysignf>:
 800746c:	ee10 3a10 	vmov	r3, s0
 8007470:	ee10 2a90 	vmov	r2, s1
 8007474:	f023 4300 	bic.w	r3, r3, #2147483648	; 0x80000000
 8007478:	f002 4200 	and.w	r2, r2, #2147483648	; 0x80000000
 800747c:	4313      	orrs	r3, r2
 800747e:	ee00 3a10 	vmov	s0, r3
 8007482:	4770      	bx	lr

08007484 <atof>:
 8007484:	2100      	movs	r1, #0
 8007486:	f000 beb3 	b.w	80081f0 <strtod>

0800748a <atoi>:
 800748a:	220a      	movs	r2, #10
 800748c:	2100      	movs	r1, #0
 800748e:	f000 bf3f 	b.w	8008310 <strtol>
	...

08007494 <__errno>:
 8007494:	4b01      	ldr	r3, [pc, #4]	; (800749c <__errno+0x8>)
 8007496:	6818      	ldr	r0, [r3, #0]
 8007498:	4770      	bx	lr
 800749a:	bf00      	nop
 800749c:	20000010 	.word	0x20000010

080074a0 <__libc_init_array>:
 80074a0:	b570      	push	{r4, r5, r6, lr}
 80074a2:	4e0d      	ldr	r6, [pc, #52]	; (80074d8 <__libc_init_array+0x38>)
 80074a4:	4c0d      	ldr	r4, [pc, #52]	; (80074dc <__libc_init_array+0x3c>)
 80074a6:	1ba4      	subs	r4, r4, r6
 80074a8:	10a4      	asrs	r4, r4, #2
 80074aa:	2500      	movs	r5, #0
 80074ac:	42a5      	cmp	r5, r4
 80074ae:	d109      	bne.n	80074c4 <__libc_init_array+0x24>
 80074b0:	4e0b      	ldr	r6, [pc, #44]	; (80074e0 <__libc_init_array+0x40>)
 80074b2:	4c0c      	ldr	r4, [pc, #48]	; (80074e4 <__libc_init_array+0x44>)
 80074b4:	f005 fb00 	bl	800cab8 <_init>
 80074b8:	1ba4      	subs	r4, r4, r6
 80074ba:	10a4      	asrs	r4, r4, #2
 80074bc:	2500      	movs	r5, #0
 80074be:	42a5      	cmp	r5, r4
 80074c0:	d105      	bne.n	80074ce <__libc_init_array+0x2e>
 80074c2:	bd70      	pop	{r4, r5, r6, pc}
 80074c4:	f856 3025 	ldr.w	r3, [r6, r5, lsl #2]
 80074c8:	4798      	blx	r3
 80074ca:	3501      	adds	r5, #1
 80074cc:	e7ee      	b.n	80074ac <__libc_init_array+0xc>
 80074ce:	f856 3025 	ldr.w	r3, [r6, r5, lsl #2]
 80074d2:	4798      	blx	r3
 80074d4:	3501      	adds	r5, #1
 80074d6:	e7f2      	b.n	80074be <__libc_init_array+0x1e>
 80074d8:	0800d7d0 	.word	0x0800d7d0
 80074dc:	0800d7d0 	.word	0x0800d7d0
 80074e0:	0800d7d0 	.word	0x0800d7d0
 80074e4:	0800d7d8 	.word	0x0800d7d8

080074e8 <memcpy>:
 80074e8:	b510      	push	{r4, lr}
 80074ea:	1e43      	subs	r3, r0, #1
 80074ec:	440a      	add	r2, r1
 80074ee:	4291      	cmp	r1, r2
 80074f0:	d100      	bne.n	80074f4 <memcpy+0xc>
 80074f2:	bd10      	pop	{r4, pc}
 80074f4:	f811 4b01 	ldrb.w	r4, [r1], #1
 80074f8:	f803 4f01 	strb.w	r4, [r3, #1]!
 80074fc:	e7f7      	b.n	80074ee <memcpy+0x6>

080074fe <memset>:
 80074fe:	4402      	add	r2, r0
 8007500:	4603      	mov	r3, r0
 8007502:	4293      	cmp	r3, r2
 8007504:	d100      	bne.n	8007508 <memset+0xa>
 8007506:	4770      	bx	lr
 8007508:	f803 1b01 	strb.w	r1, [r3], #1
 800750c:	e7f9      	b.n	8007502 <memset+0x4>
	...

08007510 <printf>:
 8007510:	b40f      	push	{r0, r1, r2, r3}
 8007512:	b507      	push	{r0, r1, r2, lr}
 8007514:	4906      	ldr	r1, [pc, #24]	; (8007530 <printf+0x20>)
 8007516:	ab04      	add	r3, sp, #16
 8007518:	6808      	ldr	r0, [r1, #0]
 800751a:	f853 2b04 	ldr.w	r2, [r3], #4
 800751e:	6881      	ldr	r1, [r0, #8]
 8007520:	9301      	str	r3, [sp, #4]
 8007522:	f000 ff0d 	bl	8008340 <_vfprintf_r>
 8007526:	b003      	add	sp, #12
 8007528:	f85d eb04 	ldr.w	lr, [sp], #4
 800752c:	b004      	add	sp, #16
 800752e:	4770      	bx	lr
 8007530:	20000010 	.word	0x20000010

08007534 <_puts_r>:
 8007534:	b530      	push	{r4, r5, lr}
 8007536:	4605      	mov	r5, r0
 8007538:	b089      	sub	sp, #36	; 0x24
 800753a:	4608      	mov	r0, r1
 800753c:	460c      	mov	r4, r1
 800753e:	f7f8 fe67 	bl	8000210 <strlen>
 8007542:	4b1e      	ldr	r3, [pc, #120]	; (80075bc <_puts_r+0x88>)
 8007544:	9306      	str	r3, [sp, #24]
 8007546:	2301      	movs	r3, #1
 8007548:	e9cd 4004 	strd	r4, r0, [sp, #16]
 800754c:	9307      	str	r3, [sp, #28]
 800754e:	4418      	add	r0, r3
 8007550:	ab04      	add	r3, sp, #16
 8007552:	9301      	str	r3, [sp, #4]
 8007554:	2302      	movs	r3, #2
 8007556:	9302      	str	r3, [sp, #8]
 8007558:	6bab      	ldr	r3, [r5, #56]	; 0x38
 800755a:	9003      	str	r0, [sp, #12]
 800755c:	68ac      	ldr	r4, [r5, #8]
 800755e:	b913      	cbnz	r3, 8007566 <_puts_r+0x32>
 8007560:	4628      	mov	r0, r5
 8007562:	f003 f937 	bl	800a7d4 <__sinit>
 8007566:	6e63      	ldr	r3, [r4, #100]	; 0x64
 8007568:	07db      	lsls	r3, r3, #31
 800756a:	d405      	bmi.n	8007578 <_puts_r+0x44>
 800756c:	89a3      	ldrh	r3, [r4, #12]
 800756e:	0598      	lsls	r0, r3, #22
 8007570:	d402      	bmi.n	8007578 <_puts_r+0x44>
 8007572:	6da0      	ldr	r0, [r4, #88]	; 0x58
 8007574:	f003 ff30 	bl	800b3d8 <__retarget_lock_acquire_recursive>
 8007578:	f9b4 300c 	ldrsh.w	r3, [r4, #12]
 800757c:	0499      	lsls	r1, r3, #18
 800757e:	d406      	bmi.n	800758e <_puts_r+0x5a>
 8007580:	f443 5300 	orr.w	r3, r3, #8192	; 0x2000
 8007584:	81a3      	strh	r3, [r4, #12]
 8007586:	6e63      	ldr	r3, [r4, #100]	; 0x64
 8007588:	f423 5300 	bic.w	r3, r3, #8192	; 0x2000
 800758c:	6663      	str	r3, [r4, #100]	; 0x64
 800758e:	4628      	mov	r0, r5
 8007590:	aa01      	add	r2, sp, #4
 8007592:	4621      	mov	r1, r4
 8007594:	f003 fa6a 	bl	800aa6c <__sfvwrite_r>
 8007598:	6e63      	ldr	r3, [r4, #100]	; 0x64
 800759a:	2800      	cmp	r0, #0
 800759c:	bf0c      	ite	eq
 800759e:	250a      	moveq	r5, #10
 80075a0:	f04f 35ff 	movne.w	r5, #4294967295
 80075a4:	07da      	lsls	r2, r3, #31
 80075a6:	d405      	bmi.n	80075b4 <_puts_r+0x80>
 80075a8:	89a3      	ldrh	r3, [r4, #12]
 80075aa:	059b      	lsls	r3, r3, #22
 80075ac:	d402      	bmi.n	80075b4 <_puts_r+0x80>
 80075ae:	6da0      	ldr	r0, [r4, #88]	; 0x58
 80075b0:	f003 ff13 	bl	800b3da <__retarget_lock_release_recursive>
 80075b4:	4628      	mov	r0, r5
 80075b6:	b009      	add	sp, #36	; 0x24
 80075b8:	bd30      	pop	{r4, r5, pc}
 80075ba:	bf00      	nop
 80075bc:	0800cb09 	.word	0x0800cb09

080075c0 <puts>:
 80075c0:	4b02      	ldr	r3, [pc, #8]	; (80075cc <puts+0xc>)
 80075c2:	4601      	mov	r1, r0
 80075c4:	6818      	ldr	r0, [r3, #0]
 80075c6:	f7ff bfb5 	b.w	8007534 <_puts_r>
 80075ca:	bf00      	nop
 80075cc:	20000010 	.word	0x20000010

080075d0 <sulp>:
 80075d0:	b570      	push	{r4, r5, r6, lr}
 80075d2:	4604      	mov	r4, r0
 80075d4:	460d      	mov	r5, r1
 80075d6:	ec45 4b10 	vmov	d0, r4, r5
 80075da:	4616      	mov	r6, r2
 80075dc:	f004 fc78 	bl	800bed0 <__ulp>
 80075e0:	ec51 0b10 	vmov	r0, r1, d0
 80075e4:	b17e      	cbz	r6, 8007606 <sulp+0x36>
 80075e6:	f3c5 530a 	ubfx	r3, r5, #20, #11
 80075ea:	f1c3 036b 	rsb	r3, r3, #107	; 0x6b
 80075ee:	2b00      	cmp	r3, #0
 80075f0:	dd09      	ble.n	8007606 <sulp+0x36>
 80075f2:	051b      	lsls	r3, r3, #20
 80075f4:	f103 557f 	add.w	r5, r3, #1069547520	; 0x3fc00000
 80075f8:	2400      	movs	r4, #0
 80075fa:	f505 1540 	add.w	r5, r5, #3145728	; 0x300000
 80075fe:	4622      	mov	r2, r4
 8007600:	462b      	mov	r3, r5
 8007602:	f7f9 f819 	bl	8000638 <__aeabi_dmul>
 8007606:	bd70      	pop	{r4, r5, r6, pc}

08007608 <_strtod_l>:
 8007608:	e92d 4ff0 	stmdb	sp!, {r4, r5, r6, r7, r8, r9, sl, fp, lr}
 800760c:	461f      	mov	r7, r3
 800760e:	b0a1      	sub	sp, #132	; 0x84
 8007610:	2300      	movs	r3, #0
 8007612:	4681      	mov	r9, r0
 8007614:	4638      	mov	r0, r7
 8007616:	460e      	mov	r6, r1
 8007618:	9217      	str	r2, [sp, #92]	; 0x5c
 800761a:	931c      	str	r3, [sp, #112]	; 0x70
 800761c:	f003 fec9 	bl	800b3b2 <__localeconv_l>
 8007620:	4680      	mov	r8, r0
 8007622:	6800      	ldr	r0, [r0, #0]
 8007624:	f7f8 fdf4 	bl	8000210 <strlen>
 8007628:	f04f 0a00 	mov.w	sl, #0
 800762c:	4604      	mov	r4, r0
 800762e:	f04f 0b00 	mov.w	fp, #0
 8007632:	961b      	str	r6, [sp, #108]	; 0x6c
 8007634:	9b1b      	ldr	r3, [sp, #108]	; 0x6c
 8007636:	781a      	ldrb	r2, [r3, #0]
 8007638:	2a0d      	cmp	r2, #13
 800763a:	d832      	bhi.n	80076a2 <_strtod_l+0x9a>
 800763c:	2a09      	cmp	r2, #9
 800763e:	d236      	bcs.n	80076ae <_strtod_l+0xa6>
 8007640:	2a00      	cmp	r2, #0
 8007642:	d03e      	beq.n	80076c2 <_strtod_l+0xba>
 8007644:	2300      	movs	r3, #0
 8007646:	930d      	str	r3, [sp, #52]	; 0x34
 8007648:	9d1b      	ldr	r5, [sp, #108]	; 0x6c
 800764a:	782b      	ldrb	r3, [r5, #0]
 800764c:	2b30      	cmp	r3, #48	; 0x30
 800764e:	f040 80ac 	bne.w	80077aa <_strtod_l+0x1a2>
 8007652:	786b      	ldrb	r3, [r5, #1]
 8007654:	2b58      	cmp	r3, #88	; 0x58
 8007656:	d001      	beq.n	800765c <_strtod_l+0x54>
 8007658:	2b78      	cmp	r3, #120	; 0x78
 800765a:	d167      	bne.n	800772c <_strtod_l+0x124>
 800765c:	9b0d      	ldr	r3, [sp, #52]	; 0x34
 800765e:	9301      	str	r3, [sp, #4]
 8007660:	ab1c      	add	r3, sp, #112	; 0x70
 8007662:	9300      	str	r3, [sp, #0]
 8007664:	9702      	str	r7, [sp, #8]
 8007666:	ab1d      	add	r3, sp, #116	; 0x74
 8007668:	4a88      	ldr	r2, [pc, #544]	; (800788c <_strtod_l+0x284>)
 800766a:	a91b      	add	r1, sp, #108	; 0x6c
 800766c:	4648      	mov	r0, r9
 800766e:	f003 fbb8 	bl	800ade2 <__gethex>
 8007672:	f010 0407 	ands.w	r4, r0, #7
 8007676:	4606      	mov	r6, r0
 8007678:	d005      	beq.n	8007686 <_strtod_l+0x7e>
 800767a:	2c06      	cmp	r4, #6
 800767c:	d12b      	bne.n	80076d6 <_strtod_l+0xce>
 800767e:	3501      	adds	r5, #1
 8007680:	2300      	movs	r3, #0
 8007682:	951b      	str	r5, [sp, #108]	; 0x6c
 8007684:	930d      	str	r3, [sp, #52]	; 0x34
 8007686:	9b17      	ldr	r3, [sp, #92]	; 0x5c
 8007688:	2b00      	cmp	r3, #0
 800768a:	f040 859a 	bne.w	80081c2 <_strtod_l+0xbba>
 800768e:	9b0d      	ldr	r3, [sp, #52]	; 0x34
 8007690:	b1e3      	cbz	r3, 80076cc <_strtod_l+0xc4>
 8007692:	4652      	mov	r2, sl
 8007694:	f10b 4300 	add.w	r3, fp, #2147483648	; 0x80000000
 8007698:	ec43 2b10 	vmov	d0, r2, r3
 800769c:	b021      	add	sp, #132	; 0x84
 800769e:	e8bd 8ff0 	ldmia.w	sp!, {r4, r5, r6, r7, r8, r9, sl, fp, pc}
 80076a2:	2a2b      	cmp	r2, #43	; 0x2b
 80076a4:	d015      	beq.n	80076d2 <_strtod_l+0xca>
 80076a6:	2a2d      	cmp	r2, #45	; 0x2d
 80076a8:	d004      	beq.n	80076b4 <_strtod_l+0xac>
 80076aa:	2a20      	cmp	r2, #32
 80076ac:	d1ca      	bne.n	8007644 <_strtod_l+0x3c>
 80076ae:	3301      	adds	r3, #1
 80076b0:	931b      	str	r3, [sp, #108]	; 0x6c
 80076b2:	e7bf      	b.n	8007634 <_strtod_l+0x2c>
 80076b4:	2201      	movs	r2, #1
 80076b6:	920d      	str	r2, [sp, #52]	; 0x34
 80076b8:	1c5a      	adds	r2, r3, #1
 80076ba:	921b      	str	r2, [sp, #108]	; 0x6c
 80076bc:	785b      	ldrb	r3, [r3, #1]
 80076be:	2b00      	cmp	r3, #0
 80076c0:	d1c2      	bne.n	8007648 <_strtod_l+0x40>
 80076c2:	9b17      	ldr	r3, [sp, #92]	; 0x5c
 80076c4:	961b      	str	r6, [sp, #108]	; 0x6c
 80076c6:	2b00      	cmp	r3, #0
 80076c8:	f040 8579 	bne.w	80081be <_strtod_l+0xbb6>
 80076cc:	4652      	mov	r2, sl
 80076ce:	465b      	mov	r3, fp
 80076d0:	e7e2      	b.n	8007698 <_strtod_l+0x90>
 80076d2:	2200      	movs	r2, #0
 80076d4:	e7ef      	b.n	80076b6 <_strtod_l+0xae>
 80076d6:	9a1c      	ldr	r2, [sp, #112]	; 0x70
 80076d8:	b13a      	cbz	r2, 80076ea <_strtod_l+0xe2>
 80076da:	2135      	movs	r1, #53	; 0x35
 80076dc:	a81e      	add	r0, sp, #120	; 0x78
 80076de:	f004 fcef 	bl	800c0c0 <__copybits>
 80076e2:	991c      	ldr	r1, [sp, #112]	; 0x70
 80076e4:	4648      	mov	r0, r9
 80076e6:	f004 f978 	bl	800b9da <_Bfree>
 80076ea:	3c01      	subs	r4, #1
 80076ec:	2c04      	cmp	r4, #4
 80076ee:	d806      	bhi.n	80076fe <_strtod_l+0xf6>
 80076f0:	e8df f004 	tbb	[pc, r4]
 80076f4:	1714030a 	.word	0x1714030a
 80076f8:	0a          	.byte	0x0a
 80076f9:	00          	.byte	0x00
 80076fa:	e9dd ab1e 	ldrd	sl, fp, [sp, #120]	; 0x78
 80076fe:	0730      	lsls	r0, r6, #28
 8007700:	d5c1      	bpl.n	8007686 <_strtod_l+0x7e>
 8007702:	f04b 4b00 	orr.w	fp, fp, #2147483648	; 0x80000000
 8007706:	e7be      	b.n	8007686 <_strtod_l+0x7e>
 8007708:	e9dd a31e 	ldrd	sl, r3, [sp, #120]	; 0x78
 800770c:	9a1d      	ldr	r2, [sp, #116]	; 0x74
 800770e:	f423 1380 	bic.w	r3, r3, #1048576	; 0x100000
 8007712:	f202 4233 	addw	r2, r2, #1075	; 0x433
 8007716:	ea43 5b02 	orr.w	fp, r3, r2, lsl #20
 800771a:	e7f0      	b.n	80076fe <_strtod_l+0xf6>
 800771c:	f8df b170 	ldr.w	fp, [pc, #368]	; 8007890 <_strtod_l+0x288>
 8007720:	e7ed      	b.n	80076fe <_strtod_l+0xf6>
 8007722:	f06f 4b00 	mvn.w	fp, #2147483648	; 0x80000000
 8007726:	f04f 3aff 	mov.w	sl, #4294967295
 800772a:	e7e8      	b.n	80076fe <_strtod_l+0xf6>
 800772c:	9b1b      	ldr	r3, [sp, #108]	; 0x6c
 800772e:	1c5a      	adds	r2, r3, #1
 8007730:	921b      	str	r2, [sp, #108]	; 0x6c
 8007732:	785b      	ldrb	r3, [r3, #1]
 8007734:	2b30      	cmp	r3, #48	; 0x30
 8007736:	d0f9      	beq.n	800772c <_strtod_l+0x124>
 8007738:	2b00      	cmp	r3, #0
 800773a:	d0a4      	beq.n	8007686 <_strtod_l+0x7e>
 800773c:	2301      	movs	r3, #1
 800773e:	2500      	movs	r5, #0
 8007740:	9306      	str	r3, [sp, #24]
 8007742:	9b1b      	ldr	r3, [sp, #108]	; 0x6c
 8007744:	9308      	str	r3, [sp, #32]
 8007746:	9507      	str	r5, [sp, #28]
 8007748:	9505      	str	r5, [sp, #20]
 800774a:	220a      	movs	r2, #10
 800774c:	981b      	ldr	r0, [sp, #108]	; 0x6c
 800774e:	7807      	ldrb	r7, [r0, #0]
 8007750:	f1a7 0330 	sub.w	r3, r7, #48	; 0x30
 8007754:	b2d9      	uxtb	r1, r3
 8007756:	2909      	cmp	r1, #9
 8007758:	d929      	bls.n	80077ae <_strtod_l+0x1a6>
 800775a:	4622      	mov	r2, r4
 800775c:	f8d8 1000 	ldr.w	r1, [r8]
 8007760:	f004 ff1b 	bl	800c59a <strncmp>
 8007764:	2800      	cmp	r0, #0
 8007766:	d031      	beq.n	80077cc <_strtod_l+0x1c4>
 8007768:	2000      	movs	r0, #0
 800776a:	9c05      	ldr	r4, [sp, #20]
 800776c:	9004      	str	r0, [sp, #16]
 800776e:	463b      	mov	r3, r7
 8007770:	4602      	mov	r2, r0
 8007772:	2b65      	cmp	r3, #101	; 0x65
 8007774:	d001      	beq.n	800777a <_strtod_l+0x172>
 8007776:	2b45      	cmp	r3, #69	; 0x45
 8007778:	d114      	bne.n	80077a4 <_strtod_l+0x19c>
 800777a:	b924      	cbnz	r4, 8007786 <_strtod_l+0x17e>
 800777c:	b910      	cbnz	r0, 8007784 <_strtod_l+0x17c>
 800777e:	9b06      	ldr	r3, [sp, #24]
 8007780:	2b00      	cmp	r3, #0
 8007782:	d09e      	beq.n	80076c2 <_strtod_l+0xba>
 8007784:	2400      	movs	r4, #0
 8007786:	9e1b      	ldr	r6, [sp, #108]	; 0x6c
 8007788:	1c73      	adds	r3, r6, #1
 800778a:	931b      	str	r3, [sp, #108]	; 0x6c
 800778c:	7873      	ldrb	r3, [r6, #1]
 800778e:	2b2b      	cmp	r3, #43	; 0x2b
 8007790:	d078      	beq.n	8007884 <_strtod_l+0x27c>
 8007792:	2b2d      	cmp	r3, #45	; 0x2d
 8007794:	d070      	beq.n	8007878 <_strtod_l+0x270>
 8007796:	f04f 0c00 	mov.w	ip, #0
 800779a:	f1a3 0730 	sub.w	r7, r3, #48	; 0x30
 800779e:	2f09      	cmp	r7, #9
 80077a0:	d97c      	bls.n	800789c <_strtod_l+0x294>
 80077a2:	961b      	str	r6, [sp, #108]	; 0x6c
 80077a4:	f04f 0e00 	mov.w	lr, #0
 80077a8:	e09a      	b.n	80078e0 <_strtod_l+0x2d8>
 80077aa:	2300      	movs	r3, #0
 80077ac:	e7c7      	b.n	800773e <_strtod_l+0x136>
 80077ae:	9905      	ldr	r1, [sp, #20]
 80077b0:	2908      	cmp	r1, #8
 80077b2:	bfdd      	ittte	le
 80077b4:	9907      	ldrle	r1, [sp, #28]
 80077b6:	fb02 3301 	mlale	r3, r2, r1, r3
 80077ba:	9307      	strle	r3, [sp, #28]
 80077bc:	fb02 3505 	mlagt	r5, r2, r5, r3
 80077c0:	9b05      	ldr	r3, [sp, #20]
 80077c2:	3001      	adds	r0, #1
 80077c4:	3301      	adds	r3, #1
 80077c6:	9305      	str	r3, [sp, #20]
 80077c8:	901b      	str	r0, [sp, #108]	; 0x6c
 80077ca:	e7bf      	b.n	800774c <_strtod_l+0x144>
 80077cc:	9b1b      	ldr	r3, [sp, #108]	; 0x6c
 80077ce:	191a      	adds	r2, r3, r4
 80077d0:	921b      	str	r2, [sp, #108]	; 0x6c
 80077d2:	9a05      	ldr	r2, [sp, #20]
 80077d4:	5d1b      	ldrb	r3, [r3, r4]
 80077d6:	2a00      	cmp	r2, #0
 80077d8:	d037      	beq.n	800784a <_strtod_l+0x242>
 80077da:	9c05      	ldr	r4, [sp, #20]
 80077dc:	4602      	mov	r2, r0
 80077de:	f1a3 0130 	sub.w	r1, r3, #48	; 0x30
 80077e2:	2909      	cmp	r1, #9
 80077e4:	d913      	bls.n	800780e <_strtod_l+0x206>
 80077e6:	2101      	movs	r1, #1
 80077e8:	9104      	str	r1, [sp, #16]
 80077ea:	e7c2      	b.n	8007772 <_strtod_l+0x16a>
 80077ec:	9b1b      	ldr	r3, [sp, #108]	; 0x6c
 80077ee:	1c5a      	adds	r2, r3, #1
 80077f0:	921b      	str	r2, [sp, #108]	; 0x6c
 80077f2:	785b      	ldrb	r3, [r3, #1]
 80077f4:	3001      	adds	r0, #1
 80077f6:	2b30      	cmp	r3, #48	; 0x30
 80077f8:	d0f8      	beq.n	80077ec <_strtod_l+0x1e4>
 80077fa:	f1a3 0231 	sub.w	r2, r3, #49	; 0x31
 80077fe:	2a08      	cmp	r2, #8
 8007800:	f200 84e4 	bhi.w	80081cc <_strtod_l+0xbc4>
 8007804:	9a1b      	ldr	r2, [sp, #108]	; 0x6c
 8007806:	9208      	str	r2, [sp, #32]
 8007808:	4602      	mov	r2, r0
 800780a:	2000      	movs	r0, #0
 800780c:	4604      	mov	r4, r0
 800780e:	f1b3 0e30 	subs.w	lr, r3, #48	; 0x30
 8007812:	f100 0101 	add.w	r1, r0, #1
 8007816:	d012      	beq.n	800783e <_strtod_l+0x236>
 8007818:	440a      	add	r2, r1
 800781a:	eb00 0c04 	add.w	ip, r0, r4
 800781e:	4621      	mov	r1, r4
 8007820:	270a      	movs	r7, #10
 8007822:	458c      	cmp	ip, r1
 8007824:	d113      	bne.n	800784e <_strtod_l+0x246>
 8007826:	1821      	adds	r1, r4, r0
 8007828:	2908      	cmp	r1, #8
 800782a:	f104 0401 	add.w	r4, r4, #1
 800782e:	4404      	add	r4, r0
 8007830:	dc19      	bgt.n	8007866 <_strtod_l+0x25e>
 8007832:	9b07      	ldr	r3, [sp, #28]
 8007834:	210a      	movs	r1, #10
 8007836:	fb01 e303 	mla	r3, r1, r3, lr
 800783a:	9307      	str	r3, [sp, #28]
 800783c:	2100      	movs	r1, #0
 800783e:	9b1b      	ldr	r3, [sp, #108]	; 0x6c
 8007840:	1c58      	adds	r0, r3, #1
 8007842:	901b      	str	r0, [sp, #108]	; 0x6c
 8007844:	785b      	ldrb	r3, [r3, #1]
 8007846:	4608      	mov	r0, r1
 8007848:	e7c9      	b.n	80077de <_strtod_l+0x1d6>
 800784a:	9805      	ldr	r0, [sp, #20]
 800784c:	e7d3      	b.n	80077f6 <_strtod_l+0x1ee>
 800784e:	2908      	cmp	r1, #8
 8007850:	f101 0101 	add.w	r1, r1, #1
 8007854:	dc03      	bgt.n	800785e <_strtod_l+0x256>
 8007856:	9b07      	ldr	r3, [sp, #28]
 8007858:	437b      	muls	r3, r7
 800785a:	9307      	str	r3, [sp, #28]
 800785c:	e7e1      	b.n	8007822 <_strtod_l+0x21a>
 800785e:	2910      	cmp	r1, #16
 8007860:	bfd8      	it	le
 8007862:	437d      	mulle	r5, r7
 8007864:	e7dd      	b.n	8007822 <_strtod_l+0x21a>
 8007866:	2c10      	cmp	r4, #16
 8007868:	bfdc      	itt	le
 800786a:	210a      	movle	r1, #10
 800786c:	fb01 e505 	mlale	r5, r1, r5, lr
 8007870:	e7e4      	b.n	800783c <_strtod_l+0x234>
 8007872:	2301      	movs	r3, #1
 8007874:	9304      	str	r3, [sp, #16]
 8007876:	e781      	b.n	800777c <_strtod_l+0x174>
 8007878:	f04f 0c01 	mov.w	ip, #1
 800787c:	1cb3      	adds	r3, r6, #2
 800787e:	931b      	str	r3, [sp, #108]	; 0x6c
 8007880:	78b3      	ldrb	r3, [r6, #2]
 8007882:	e78a      	b.n	800779a <_strtod_l+0x192>
 8007884:	f04f 0c00 	mov.w	ip, #0
 8007888:	e7f8      	b.n	800787c <_strtod_l+0x274>
 800788a:	bf00      	nop
 800788c:	0800d504 	.word	0x0800d504
 8007890:	7ff00000 	.word	0x7ff00000
 8007894:	9b1b      	ldr	r3, [sp, #108]	; 0x6c
 8007896:	1c5f      	adds	r7, r3, #1
 8007898:	971b      	str	r7, [sp, #108]	; 0x6c
 800789a:	785b      	ldrb	r3, [r3, #1]
 800789c:	2b30      	cmp	r3, #48	; 0x30
 800789e:	d0f9      	beq.n	8007894 <_strtod_l+0x28c>
 80078a0:	f1a3 0731 	sub.w	r7, r3, #49	; 0x31
 80078a4:	2f08      	cmp	r7, #8
 80078a6:	f63f af7d 	bhi.w	80077a4 <_strtod_l+0x19c>
 80078aa:	f1a3 0e30 	sub.w	lr, r3, #48	; 0x30
 80078ae:	9b1b      	ldr	r3, [sp, #108]	; 0x6c
 80078b0:	930a      	str	r3, [sp, #40]	; 0x28
 80078b2:	9b1b      	ldr	r3, [sp, #108]	; 0x6c
 80078b4:	1c5f      	adds	r7, r3, #1
 80078b6:	971b      	str	r7, [sp, #108]	; 0x6c
 80078b8:	785b      	ldrb	r3, [r3, #1]
 80078ba:	f1a3 0830 	sub.w	r8, r3, #48	; 0x30
 80078be:	f1b8 0f09 	cmp.w	r8, #9
 80078c2:	d937      	bls.n	8007934 <_strtod_l+0x32c>
 80078c4:	990a      	ldr	r1, [sp, #40]	; 0x28
 80078c6:	1a7f      	subs	r7, r7, r1
 80078c8:	2f08      	cmp	r7, #8
 80078ca:	f644 671f 	movw	r7, #19999	; 0x4e1f
 80078ce:	dc37      	bgt.n	8007940 <_strtod_l+0x338>
 80078d0:	45be      	cmp	lr, r7
 80078d2:	bfa8      	it	ge
 80078d4:	46be      	movge	lr, r7
 80078d6:	f1bc 0f00 	cmp.w	ip, #0
 80078da:	d001      	beq.n	80078e0 <_strtod_l+0x2d8>
 80078dc:	f1ce 0e00 	rsb	lr, lr, #0
 80078e0:	2c00      	cmp	r4, #0
 80078e2:	d151      	bne.n	8007988 <_strtod_l+0x380>
 80078e4:	2800      	cmp	r0, #0
 80078e6:	f47f aece 	bne.w	8007686 <_strtod_l+0x7e>
 80078ea:	9a06      	ldr	r2, [sp, #24]
 80078ec:	2a00      	cmp	r2, #0
 80078ee:	f47f aeca 	bne.w	8007686 <_strtod_l+0x7e>
 80078f2:	9a04      	ldr	r2, [sp, #16]
 80078f4:	2a00      	cmp	r2, #0
 80078f6:	f47f aee4 	bne.w	80076c2 <_strtod_l+0xba>
 80078fa:	2b4e      	cmp	r3, #78	; 0x4e
 80078fc:	d027      	beq.n	800794e <_strtod_l+0x346>
 80078fe:	dc21      	bgt.n	8007944 <_strtod_l+0x33c>
 8007900:	2b49      	cmp	r3, #73	; 0x49
 8007902:	f47f aede 	bne.w	80076c2 <_strtod_l+0xba>
 8007906:	49a0      	ldr	r1, [pc, #640]	; (8007b88 <_strtod_l+0x580>)
 8007908:	a81b      	add	r0, sp, #108	; 0x6c
 800790a:	f003 fc9d 	bl	800b248 <__match>
 800790e:	2800      	cmp	r0, #0
 8007910:	f43f aed7 	beq.w	80076c2 <_strtod_l+0xba>
 8007914:	9b1b      	ldr	r3, [sp, #108]	; 0x6c
 8007916:	499d      	ldr	r1, [pc, #628]	; (8007b8c <_strtod_l+0x584>)
 8007918:	3b01      	subs	r3, #1
 800791a:	a81b      	add	r0, sp, #108	; 0x6c
 800791c:	931b      	str	r3, [sp, #108]	; 0x6c
 800791e:	f003 fc93 	bl	800b248 <__match>
 8007922:	b910      	cbnz	r0, 800792a <_strtod_l+0x322>
 8007924:	9b1b      	ldr	r3, [sp, #108]	; 0x6c
 8007926:	3301      	adds	r3, #1
 8007928:	931b      	str	r3, [sp, #108]	; 0x6c
 800792a:	f8df b274 	ldr.w	fp, [pc, #628]	; 8007ba0 <_strtod_l+0x598>
 800792e:	f04f 0a00 	mov.w	sl, #0
 8007932:	e6a8      	b.n	8007686 <_strtod_l+0x7e>
 8007934:	210a      	movs	r1, #10
 8007936:	fb01 3e0e 	mla	lr, r1, lr, r3
 800793a:	f1ae 0e30 	sub.w	lr, lr, #48	; 0x30
 800793e:	e7b8      	b.n	80078b2 <_strtod_l+0x2aa>
 8007940:	46be      	mov	lr, r7
 8007942:	e7c8      	b.n	80078d6 <_strtod_l+0x2ce>
 8007944:	2b69      	cmp	r3, #105	; 0x69
 8007946:	d0de      	beq.n	8007906 <_strtod_l+0x2fe>
 8007948:	2b6e      	cmp	r3, #110	; 0x6e
 800794a:	f47f aeba 	bne.w	80076c2 <_strtod_l+0xba>
 800794e:	4990      	ldr	r1, [pc, #576]	; (8007b90 <_strtod_l+0x588>)
 8007950:	a81b      	add	r0, sp, #108	; 0x6c
 8007952:	f003 fc79 	bl	800b248 <__match>
 8007956:	2800      	cmp	r0, #0
 8007958:	f43f aeb3 	beq.w	80076c2 <_strtod_l+0xba>
 800795c:	9b1b      	ldr	r3, [sp, #108]	; 0x6c
 800795e:	781b      	ldrb	r3, [r3, #0]
 8007960:	2b28      	cmp	r3, #40	; 0x28
 8007962:	d10e      	bne.n	8007982 <_strtod_l+0x37a>
 8007964:	aa1e      	add	r2, sp, #120	; 0x78
 8007966:	498b      	ldr	r1, [pc, #556]	; (8007b94 <_strtod_l+0x58c>)
 8007968:	a81b      	add	r0, sp, #108	; 0x6c
 800796a:	f003 fc81 	bl	800b270 <__hexnan>
 800796e:	2805      	cmp	r0, #5
 8007970:	d107      	bne.n	8007982 <_strtod_l+0x37a>
 8007972:	9b1f      	ldr	r3, [sp, #124]	; 0x7c
 8007974:	f8dd a078 	ldr.w	sl, [sp, #120]	; 0x78
 8007978:	f043 4bff 	orr.w	fp, r3, #2139095040	; 0x7f800000
 800797c:	f44b 0be0 	orr.w	fp, fp, #7340032	; 0x700000
 8007980:	e681      	b.n	8007686 <_strtod_l+0x7e>
 8007982:	f8df b224 	ldr.w	fp, [pc, #548]	; 8007ba8 <_strtod_l+0x5a0>
 8007986:	e7d2      	b.n	800792e <_strtod_l+0x326>
 8007988:	ebae 0302 	sub.w	r3, lr, r2
 800798c:	9306      	str	r3, [sp, #24]
 800798e:	9b05      	ldr	r3, [sp, #20]
 8007990:	9807      	ldr	r0, [sp, #28]
 8007992:	2b00      	cmp	r3, #0
 8007994:	bf08      	it	eq
 8007996:	4623      	moveq	r3, r4
 8007998:	2c10      	cmp	r4, #16
 800799a:	9305      	str	r3, [sp, #20]
 800799c:	46a0      	mov	r8, r4
 800799e:	bfa8      	it	ge
 80079a0:	f04f 0810 	movge.w	r8, #16
 80079a4:	f7f8 fdce 	bl	8000544 <__aeabi_ui2d>
 80079a8:	2c09      	cmp	r4, #9
 80079aa:	4682      	mov	sl, r0
 80079ac:	468b      	mov	fp, r1
 80079ae:	dc13      	bgt.n	80079d8 <_strtod_l+0x3d0>
 80079b0:	9b06      	ldr	r3, [sp, #24]
 80079b2:	2b00      	cmp	r3, #0
 80079b4:	f43f ae67 	beq.w	8007686 <_strtod_l+0x7e>
 80079b8:	9b06      	ldr	r3, [sp, #24]
 80079ba:	dd7a      	ble.n	8007ab2 <_strtod_l+0x4aa>
 80079bc:	2b16      	cmp	r3, #22
 80079be:	dc61      	bgt.n	8007a84 <_strtod_l+0x47c>
 80079c0:	4a75      	ldr	r2, [pc, #468]	; (8007b98 <_strtod_l+0x590>)
 80079c2:	eb02 0ec3 	add.w	lr, r2, r3, lsl #3
 80079c6:	e9de 0100 	ldrd	r0, r1, [lr]
 80079ca:	4652      	mov	r2, sl
 80079cc:	465b      	mov	r3, fp
 80079ce:	f7f8 fe33 	bl	8000638 <__aeabi_dmul>
 80079d2:	4682      	mov	sl, r0
 80079d4:	468b      	mov	fp, r1
 80079d6:	e656      	b.n	8007686 <_strtod_l+0x7e>
 80079d8:	4b6f      	ldr	r3, [pc, #444]	; (8007b98 <_strtod_l+0x590>)
 80079da:	eb03 03c8 	add.w	r3, r3, r8, lsl #3
 80079de:	e953 2312 	ldrd	r2, r3, [r3, #-72]	; 0x48
 80079e2:	f7f8 fe29 	bl	8000638 <__aeabi_dmul>
 80079e6:	4606      	mov	r6, r0
 80079e8:	4628      	mov	r0, r5
 80079ea:	460f      	mov	r7, r1
 80079ec:	f7f8 fdaa 	bl	8000544 <__aeabi_ui2d>
 80079f0:	4602      	mov	r2, r0
 80079f2:	460b      	mov	r3, r1
 80079f4:	4630      	mov	r0, r6
 80079f6:	4639      	mov	r1, r7
 80079f8:	f7f8 fc68 	bl	80002cc <__adddf3>
 80079fc:	2c0f      	cmp	r4, #15
 80079fe:	4682      	mov	sl, r0
 8007a00:	468b      	mov	fp, r1
 8007a02:	ddd5      	ble.n	80079b0 <_strtod_l+0x3a8>
 8007a04:	9b06      	ldr	r3, [sp, #24]
 8007a06:	eba4 0808 	sub.w	r8, r4, r8
 8007a0a:	4498      	add	r8, r3
 8007a0c:	f1b8 0f00 	cmp.w	r8, #0
 8007a10:	f340 8096 	ble.w	8007b40 <_strtod_l+0x538>
 8007a14:	f018 030f 	ands.w	r3, r8, #15
 8007a18:	d00a      	beq.n	8007a30 <_strtod_l+0x428>
 8007a1a:	495f      	ldr	r1, [pc, #380]	; (8007b98 <_strtod_l+0x590>)
 8007a1c:	eb01 01c3 	add.w	r1, r1, r3, lsl #3
 8007a20:	4652      	mov	r2, sl
 8007a22:	465b      	mov	r3, fp
 8007a24:	e9d1 0100 	ldrd	r0, r1, [r1]
 8007a28:	f7f8 fe06 	bl	8000638 <__aeabi_dmul>
 8007a2c:	4682      	mov	sl, r0
 8007a2e:	468b      	mov	fp, r1
 8007a30:	f038 080f 	bics.w	r8, r8, #15
 8007a34:	d073      	beq.n	8007b1e <_strtod_l+0x516>
 8007a36:	f5b8 7f9a 	cmp.w	r8, #308	; 0x134
 8007a3a:	dd47      	ble.n	8007acc <_strtod_l+0x4c4>
 8007a3c:	2400      	movs	r4, #0
 8007a3e:	46a0      	mov	r8, r4
 8007a40:	9407      	str	r4, [sp, #28]
 8007a42:	9405      	str	r4, [sp, #20]
 8007a44:	2322      	movs	r3, #34	; 0x22
 8007a46:	f8df b158 	ldr.w	fp, [pc, #344]	; 8007ba0 <_strtod_l+0x598>
 8007a4a:	f8c9 3000 	str.w	r3, [r9]
 8007a4e:	f04f 0a00 	mov.w	sl, #0
 8007a52:	9b07      	ldr	r3, [sp, #28]
 8007a54:	2b00      	cmp	r3, #0
 8007a56:	f43f ae16 	beq.w	8007686 <_strtod_l+0x7e>
 8007a5a:	991c      	ldr	r1, [sp, #112]	; 0x70
 8007a5c:	4648      	mov	r0, r9
 8007a5e:	f003 ffbc 	bl	800b9da <_Bfree>
 8007a62:	9905      	ldr	r1, [sp, #20]
 8007a64:	4648      	mov	r0, r9
 8007a66:	f003 ffb8 	bl	800b9da <_Bfree>
 8007a6a:	4641      	mov	r1, r8
 8007a6c:	4648      	mov	r0, r9
 8007a6e:	f003 ffb4 	bl	800b9da <_Bfree>
 8007a72:	9907      	ldr	r1, [sp, #28]
 8007a74:	4648      	mov	r0, r9
 8007a76:	f003 ffb0 	bl	800b9da <_Bfree>
 8007a7a:	4621      	mov	r1, r4
 8007a7c:	4648      	mov	r0, r9
 8007a7e:	f003 ffac 	bl	800b9da <_Bfree>
 8007a82:	e600      	b.n	8007686 <_strtod_l+0x7e>
 8007a84:	9a06      	ldr	r2, [sp, #24]
 8007a86:	f1c4 0325 	rsb	r3, r4, #37	; 0x25
 8007a8a:	4293      	cmp	r3, r2
 8007a8c:	dbba      	blt.n	8007a04 <_strtod_l+0x3fc>
 8007a8e:	4d42      	ldr	r5, [pc, #264]	; (8007b98 <_strtod_l+0x590>)
 8007a90:	f1c4 040f 	rsb	r4, r4, #15
 8007a94:	eb05 01c4 	add.w	r1, r5, r4, lsl #3
 8007a98:	4652      	mov	r2, sl
 8007a9a:	465b      	mov	r3, fp
 8007a9c:	e9d1 0100 	ldrd	r0, r1, [r1]
 8007aa0:	f7f8 fdca 	bl	8000638 <__aeabi_dmul>
 8007aa4:	9b06      	ldr	r3, [sp, #24]
 8007aa6:	1b1c      	subs	r4, r3, r4
 8007aa8:	eb05 05c4 	add.w	r5, r5, r4, lsl #3
 8007aac:	e9d5 2300 	ldrd	r2, r3, [r5]
 8007ab0:	e78d      	b.n	80079ce <_strtod_l+0x3c6>
 8007ab2:	f113 0f16 	cmn.w	r3, #22
 8007ab6:	dba5      	blt.n	8007a04 <_strtod_l+0x3fc>
 8007ab8:	4a37      	ldr	r2, [pc, #220]	; (8007b98 <_strtod_l+0x590>)
 8007aba:	eba2 02c3 	sub.w	r2, r2, r3, lsl #3
 8007abe:	e9d2 2300 	ldrd	r2, r3, [r2]
 8007ac2:	4650      	mov	r0, sl
 8007ac4:	4659      	mov	r1, fp
 8007ac6:	f7f8 fee1 	bl	800088c <__aeabi_ddiv>
 8007aca:	e782      	b.n	80079d2 <_strtod_l+0x3ca>
 8007acc:	2300      	movs	r3, #0
 8007ace:	4e33      	ldr	r6, [pc, #204]	; (8007b9c <_strtod_l+0x594>)
 8007ad0:	ea4f 1828 	mov.w	r8, r8, asr #4
 8007ad4:	4650      	mov	r0, sl
 8007ad6:	4659      	mov	r1, fp
 8007ad8:	461d      	mov	r5, r3
 8007ada:	f1b8 0f01 	cmp.w	r8, #1
 8007ade:	dc21      	bgt.n	8007b24 <_strtod_l+0x51c>
 8007ae0:	b10b      	cbz	r3, 8007ae6 <_strtod_l+0x4de>
 8007ae2:	4682      	mov	sl, r0
 8007ae4:	468b      	mov	fp, r1
 8007ae6:	4b2d      	ldr	r3, [pc, #180]	; (8007b9c <_strtod_l+0x594>)
 8007ae8:	f1ab 7b54 	sub.w	fp, fp, #55574528	; 0x3500000
 8007aec:	eb03 05c5 	add.w	r5, r3, r5, lsl #3
 8007af0:	4652      	mov	r2, sl
 8007af2:	465b      	mov	r3, fp
 8007af4:	e9d5 0100 	ldrd	r0, r1, [r5]
 8007af8:	f7f8 fd9e 	bl	8000638 <__aeabi_dmul>
 8007afc:	4b28      	ldr	r3, [pc, #160]	; (8007ba0 <_strtod_l+0x598>)
 8007afe:	460a      	mov	r2, r1
 8007b00:	400b      	ands	r3, r1
 8007b02:	4928      	ldr	r1, [pc, #160]	; (8007ba4 <_strtod_l+0x59c>)
 8007b04:	428b      	cmp	r3, r1
 8007b06:	4682      	mov	sl, r0
 8007b08:	d898      	bhi.n	8007a3c <_strtod_l+0x434>
 8007b0a:	f5a1 1180 	sub.w	r1, r1, #1048576	; 0x100000
 8007b0e:	428b      	cmp	r3, r1
 8007b10:	bf86      	itte	hi
 8007b12:	f8df b098 	ldrhi.w	fp, [pc, #152]	; 8007bac <_strtod_l+0x5a4>
 8007b16:	f04f 3aff 	movhi.w	sl, #4294967295
 8007b1a:	f102 7b54 	addls.w	fp, r2, #55574528	; 0x3500000
 8007b1e:	2300      	movs	r3, #0
 8007b20:	9304      	str	r3, [sp, #16]
 8007b22:	e077      	b.n	8007c14 <_strtod_l+0x60c>
 8007b24:	f018 0f01 	tst.w	r8, #1
 8007b28:	d006      	beq.n	8007b38 <_strtod_l+0x530>
 8007b2a:	eb06 03c5 	add.w	r3, r6, r5, lsl #3
 8007b2e:	e9d3 2300 	ldrd	r2, r3, [r3]
 8007b32:	f7f8 fd81 	bl	8000638 <__aeabi_dmul>
 8007b36:	2301      	movs	r3, #1
 8007b38:	3501      	adds	r5, #1
 8007b3a:	ea4f 0868 	mov.w	r8, r8, asr #1
 8007b3e:	e7cc      	b.n	8007ada <_strtod_l+0x4d2>
 8007b40:	d0ed      	beq.n	8007b1e <_strtod_l+0x516>
 8007b42:	f1c8 0800 	rsb	r8, r8, #0
 8007b46:	f018 020f 	ands.w	r2, r8, #15
 8007b4a:	d00a      	beq.n	8007b62 <_strtod_l+0x55a>
 8007b4c:	4b12      	ldr	r3, [pc, #72]	; (8007b98 <_strtod_l+0x590>)
 8007b4e:	eb03 03c2 	add.w	r3, r3, r2, lsl #3
 8007b52:	4650      	mov	r0, sl
 8007b54:	4659      	mov	r1, fp
 8007b56:	e9d3 2300 	ldrd	r2, r3, [r3]
 8007b5a:	f7f8 fe97 	bl	800088c <__aeabi_ddiv>
 8007b5e:	4682      	mov	sl, r0
 8007b60:	468b      	mov	fp, r1
 8007b62:	ea5f 1828 	movs.w	r8, r8, asr #4
 8007b66:	d0da      	beq.n	8007b1e <_strtod_l+0x516>
 8007b68:	f1b8 0f1f 	cmp.w	r8, #31
 8007b6c:	dd20      	ble.n	8007bb0 <_strtod_l+0x5a8>
 8007b6e:	2400      	movs	r4, #0
 8007b70:	46a0      	mov	r8, r4
 8007b72:	9407      	str	r4, [sp, #28]
 8007b74:	9405      	str	r4, [sp, #20]
 8007b76:	2322      	movs	r3, #34	; 0x22
 8007b78:	f04f 0a00 	mov.w	sl, #0
 8007b7c:	f04f 0b00 	mov.w	fp, #0
 8007b80:	f8c9 3000 	str.w	r3, [r9]
 8007b84:	e765      	b.n	8007a52 <_strtod_l+0x44a>
 8007b86:	bf00      	nop
 8007b88:	0800d55d 	.word	0x0800d55d
 8007b8c:	0800d5ad 	.word	0x0800d5ad
 8007b90:	0800d565 	.word	0x0800d565
 8007b94:	0800d518 	.word	0x0800d518
 8007b98:	0800d5f0 	.word	0x0800d5f0
 8007b9c:	0800d5c8 	.word	0x0800d5c8
 8007ba0:	7ff00000 	.word	0x7ff00000
 8007ba4:	7ca00000 	.word	0x7ca00000
 8007ba8:	fff80000 	.word	0xfff80000
 8007bac:	7fefffff 	.word	0x7fefffff
 8007bb0:	f018 0310 	ands.w	r3, r8, #16
 8007bb4:	bf18      	it	ne
 8007bb6:	236a      	movne	r3, #106	; 0x6a
 8007bb8:	4da0      	ldr	r5, [pc, #640]	; (8007e3c <_strtod_l+0x834>)
 8007bba:	9304      	str	r3, [sp, #16]
 8007bbc:	4650      	mov	r0, sl
 8007bbe:	4659      	mov	r1, fp
 8007bc0:	2300      	movs	r3, #0
 8007bc2:	f1b8 0f00 	cmp.w	r8, #0
 8007bc6:	f300 810a 	bgt.w	8007dde <_strtod_l+0x7d6>
 8007bca:	b10b      	cbz	r3, 8007bd0 <_strtod_l+0x5c8>
 8007bcc:	4682      	mov	sl, r0
 8007bce:	468b      	mov	fp, r1
 8007bd0:	9b04      	ldr	r3, [sp, #16]
 8007bd2:	b1bb      	cbz	r3, 8007c04 <_strtod_l+0x5fc>
 8007bd4:	f3cb 530a 	ubfx	r3, fp, #20, #11
 8007bd8:	f1c3 036b 	rsb	r3, r3, #107	; 0x6b
 8007bdc:	2b00      	cmp	r3, #0
 8007bde:	4659      	mov	r1, fp
 8007be0:	dd10      	ble.n	8007c04 <_strtod_l+0x5fc>
 8007be2:	2b1f      	cmp	r3, #31
 8007be4:	f340 8107 	ble.w	8007df6 <_strtod_l+0x7ee>
 8007be8:	2b34      	cmp	r3, #52	; 0x34
 8007bea:	bfde      	ittt	le
 8007bec:	3b20      	suble	r3, #32
 8007bee:	f04f 32ff 	movle.w	r2, #4294967295
 8007bf2:	fa02 f303 	lslle.w	r3, r2, r3
 8007bf6:	f04f 0a00 	mov.w	sl, #0
 8007bfa:	bfcc      	ite	gt
 8007bfc:	f04f 7b5c 	movgt.w	fp, #57671680	; 0x3700000
 8007c00:	ea03 0b01 	andle.w	fp, r3, r1
 8007c04:	2200      	movs	r2, #0
 8007c06:	2300      	movs	r3, #0
 8007c08:	4650      	mov	r0, sl
 8007c0a:	4659      	mov	r1, fp
 8007c0c:	f7f8 ff7c 	bl	8000b08 <__aeabi_dcmpeq>
 8007c10:	2800      	cmp	r0, #0
 8007c12:	d1ac      	bne.n	8007b6e <_strtod_l+0x566>
 8007c14:	9b07      	ldr	r3, [sp, #28]
 8007c16:	9300      	str	r3, [sp, #0]
 8007c18:	9a05      	ldr	r2, [sp, #20]
 8007c1a:	9908      	ldr	r1, [sp, #32]
 8007c1c:	4623      	mov	r3, r4
 8007c1e:	4648      	mov	r0, r9
 8007c20:	f003 ff1f 	bl	800ba62 <__s2b>
 8007c24:	9007      	str	r0, [sp, #28]
 8007c26:	2800      	cmp	r0, #0
 8007c28:	f43f af08 	beq.w	8007a3c <_strtod_l+0x434>
 8007c2c:	9a06      	ldr	r2, [sp, #24]
 8007c2e:	9b06      	ldr	r3, [sp, #24]
 8007c30:	2a00      	cmp	r2, #0
 8007c32:	f1c3 0300 	rsb	r3, r3, #0
 8007c36:	bfa8      	it	ge
 8007c38:	2300      	movge	r3, #0
 8007c3a:	930e      	str	r3, [sp, #56]	; 0x38
 8007c3c:	2400      	movs	r4, #0
 8007c3e:	ea22 73e2 	bic.w	r3, r2, r2, asr #31
 8007c42:	9316      	str	r3, [sp, #88]	; 0x58
 8007c44:	46a0      	mov	r8, r4
 8007c46:	9b07      	ldr	r3, [sp, #28]
 8007c48:	4648      	mov	r0, r9
 8007c4a:	6859      	ldr	r1, [r3, #4]
 8007c4c:	f003 fea0 	bl	800b990 <_Balloc>
 8007c50:	9005      	str	r0, [sp, #20]
 8007c52:	2800      	cmp	r0, #0
 8007c54:	f43f aef6 	beq.w	8007a44 <_strtod_l+0x43c>
 8007c58:	9b07      	ldr	r3, [sp, #28]
 8007c5a:	691a      	ldr	r2, [r3, #16]
 8007c5c:	3202      	adds	r2, #2
 8007c5e:	f103 010c 	add.w	r1, r3, #12
 8007c62:	0092      	lsls	r2, r2, #2
 8007c64:	300c      	adds	r0, #12
 8007c66:	f7ff fc3f 	bl	80074e8 <memcpy>
 8007c6a:	aa1e      	add	r2, sp, #120	; 0x78
 8007c6c:	a91d      	add	r1, sp, #116	; 0x74
 8007c6e:	ec4b ab10 	vmov	d0, sl, fp
 8007c72:	4648      	mov	r0, r9
 8007c74:	e9cd ab08 	strd	sl, fp, [sp, #32]
 8007c78:	f004 f9a0 	bl	800bfbc <__d2b>
 8007c7c:	901c      	str	r0, [sp, #112]	; 0x70
 8007c7e:	2800      	cmp	r0, #0
 8007c80:	f43f aee0 	beq.w	8007a44 <_strtod_l+0x43c>
 8007c84:	2101      	movs	r1, #1
 8007c86:	4648      	mov	r0, r9
 8007c88:	f003 ff77 	bl	800bb7a <__i2b>
 8007c8c:	4680      	mov	r8, r0
 8007c8e:	2800      	cmp	r0, #0
 8007c90:	f43f aed8 	beq.w	8007a44 <_strtod_l+0x43c>
 8007c94:	9e1d      	ldr	r6, [sp, #116]	; 0x74
 8007c96:	9a1e      	ldr	r2, [sp, #120]	; 0x78
 8007c98:	2e00      	cmp	r6, #0
 8007c9a:	bfab      	itete	ge
 8007c9c:	9b0e      	ldrge	r3, [sp, #56]	; 0x38
 8007c9e:	9b16      	ldrlt	r3, [sp, #88]	; 0x58
 8007ca0:	9d16      	ldrge	r5, [sp, #88]	; 0x58
 8007ca2:	9f0e      	ldrlt	r7, [sp, #56]	; 0x38
 8007ca4:	bfac      	ite	ge
 8007ca6:	18f7      	addge	r7, r6, r3
 8007ca8:	1b9d      	sublt	r5, r3, r6
 8007caa:	9b04      	ldr	r3, [sp, #16]
 8007cac:	1af6      	subs	r6, r6, r3
 8007cae:	4416      	add	r6, r2
 8007cb0:	4b63      	ldr	r3, [pc, #396]	; (8007e40 <_strtod_l+0x838>)
 8007cb2:	3e01      	subs	r6, #1
 8007cb4:	429e      	cmp	r6, r3
 8007cb6:	f1c2 0236 	rsb	r2, r2, #54	; 0x36
 8007cba:	f280 80af 	bge.w	8007e1c <_strtod_l+0x814>
 8007cbe:	1b9b      	subs	r3, r3, r6
 8007cc0:	2b1f      	cmp	r3, #31
 8007cc2:	eba2 0203 	sub.w	r2, r2, r3
 8007cc6:	f04f 0101 	mov.w	r1, #1
 8007cca:	f300 809b 	bgt.w	8007e04 <_strtod_l+0x7fc>
 8007cce:	fa01 f303 	lsl.w	r3, r1, r3
 8007cd2:	930f      	str	r3, [sp, #60]	; 0x3c
 8007cd4:	2300      	movs	r3, #0
 8007cd6:	930a      	str	r3, [sp, #40]	; 0x28
 8007cd8:	18be      	adds	r6, r7, r2
 8007cda:	9b04      	ldr	r3, [sp, #16]
 8007cdc:	42b7      	cmp	r7, r6
 8007cde:	4415      	add	r5, r2
 8007ce0:	441d      	add	r5, r3
 8007ce2:	463b      	mov	r3, r7
 8007ce4:	bfa8      	it	ge
 8007ce6:	4633      	movge	r3, r6
 8007ce8:	42ab      	cmp	r3, r5
 8007cea:	bfa8      	it	ge
 8007cec:	462b      	movge	r3, r5
 8007cee:	2b00      	cmp	r3, #0
 8007cf0:	bfc2      	ittt	gt
 8007cf2:	1af6      	subgt	r6, r6, r3
 8007cf4:	1aed      	subgt	r5, r5, r3
 8007cf6:	1aff      	subgt	r7, r7, r3
 8007cf8:	9b0e      	ldr	r3, [sp, #56]	; 0x38
 8007cfa:	b1bb      	cbz	r3, 8007d2c <_strtod_l+0x724>
 8007cfc:	4641      	mov	r1, r8
 8007cfe:	461a      	mov	r2, r3
 8007d00:	4648      	mov	r0, r9
 8007d02:	f003 ffd9 	bl	800bcb8 <__pow5mult>
 8007d06:	4680      	mov	r8, r0
 8007d08:	2800      	cmp	r0, #0
 8007d0a:	f43f ae9b 	beq.w	8007a44 <_strtod_l+0x43c>
 8007d0e:	4601      	mov	r1, r0
 8007d10:	9a1c      	ldr	r2, [sp, #112]	; 0x70
 8007d12:	4648      	mov	r0, r9
 8007d14:	f003 ff3a 	bl	800bb8c <__multiply>
 8007d18:	900c      	str	r0, [sp, #48]	; 0x30
 8007d1a:	2800      	cmp	r0, #0
 8007d1c:	f43f ae92 	beq.w	8007a44 <_strtod_l+0x43c>
 8007d20:	991c      	ldr	r1, [sp, #112]	; 0x70
 8007d22:	4648      	mov	r0, r9
 8007d24:	f003 fe59 	bl	800b9da <_Bfree>
 8007d28:	9b0c      	ldr	r3, [sp, #48]	; 0x30
 8007d2a:	931c      	str	r3, [sp, #112]	; 0x70
 8007d2c:	2e00      	cmp	r6, #0
 8007d2e:	dc7a      	bgt.n	8007e26 <_strtod_l+0x81e>
 8007d30:	9b06      	ldr	r3, [sp, #24]
 8007d32:	2b00      	cmp	r3, #0
 8007d34:	dd08      	ble.n	8007d48 <_strtod_l+0x740>
 8007d36:	9a16      	ldr	r2, [sp, #88]	; 0x58
 8007d38:	9905      	ldr	r1, [sp, #20]
 8007d3a:	4648      	mov	r0, r9
 8007d3c:	f003 ffbc 	bl	800bcb8 <__pow5mult>
 8007d40:	9005      	str	r0, [sp, #20]
 8007d42:	2800      	cmp	r0, #0
 8007d44:	f43f ae7e 	beq.w	8007a44 <_strtod_l+0x43c>
 8007d48:	2d00      	cmp	r5, #0
 8007d4a:	dd08      	ble.n	8007d5e <_strtod_l+0x756>
 8007d4c:	462a      	mov	r2, r5
 8007d4e:	9905      	ldr	r1, [sp, #20]
 8007d50:	4648      	mov	r0, r9
 8007d52:	f003 fff1 	bl	800bd38 <__lshift>
 8007d56:	9005      	str	r0, [sp, #20]
 8007d58:	2800      	cmp	r0, #0
 8007d5a:	f43f ae73 	beq.w	8007a44 <_strtod_l+0x43c>
 8007d5e:	2f00      	cmp	r7, #0
 8007d60:	dd08      	ble.n	8007d74 <_strtod_l+0x76c>
 8007d62:	4641      	mov	r1, r8
 8007d64:	463a      	mov	r2, r7
 8007d66:	4648      	mov	r0, r9
 8007d68:	f003 ffe6 	bl	800bd38 <__lshift>
 8007d6c:	4680      	mov	r8, r0
 8007d6e:	2800      	cmp	r0, #0
 8007d70:	f43f ae68 	beq.w	8007a44 <_strtod_l+0x43c>
 8007d74:	9a05      	ldr	r2, [sp, #20]
 8007d76:	991c      	ldr	r1, [sp, #112]	; 0x70
 8007d78:	4648      	mov	r0, r9
 8007d7a:	f004 f84b 	bl	800be14 <__mdiff>
 8007d7e:	4604      	mov	r4, r0
 8007d80:	2800      	cmp	r0, #0
 8007d82:	f43f ae5f 	beq.w	8007a44 <_strtod_l+0x43c>
 8007d86:	68c3      	ldr	r3, [r0, #12]
 8007d88:	930c      	str	r3, [sp, #48]	; 0x30
 8007d8a:	2300      	movs	r3, #0
 8007d8c:	60c3      	str	r3, [r0, #12]
 8007d8e:	4641      	mov	r1, r8
 8007d90:	f004 f826 	bl	800bde0 <__mcmp>
 8007d94:	2800      	cmp	r0, #0
 8007d96:	da55      	bge.n	8007e44 <_strtod_l+0x83c>
 8007d98:	9b0c      	ldr	r3, [sp, #48]	; 0x30
 8007d9a:	b9e3      	cbnz	r3, 8007dd6 <_strtod_l+0x7ce>
 8007d9c:	f1ba 0f00 	cmp.w	sl, #0
 8007da0:	d119      	bne.n	8007dd6 <_strtod_l+0x7ce>
 8007da2:	f3cb 0313 	ubfx	r3, fp, #0, #20
 8007da6:	b9b3      	cbnz	r3, 8007dd6 <_strtod_l+0x7ce>
 8007da8:	f02b 4300 	bic.w	r3, fp, #2147483648	; 0x80000000
 8007dac:	0d1b      	lsrs	r3, r3, #20
 8007dae:	051b      	lsls	r3, r3, #20
 8007db0:	f1b3 6fd6 	cmp.w	r3, #112197632	; 0x6b00000
 8007db4:	d90f      	bls.n	8007dd6 <_strtod_l+0x7ce>
 8007db6:	6963      	ldr	r3, [r4, #20]
 8007db8:	b913      	cbnz	r3, 8007dc0 <_strtod_l+0x7b8>
 8007dba:	6923      	ldr	r3, [r4, #16]
 8007dbc:	2b01      	cmp	r3, #1
 8007dbe:	dd0a      	ble.n	8007dd6 <_strtod_l+0x7ce>
 8007dc0:	4621      	mov	r1, r4
 8007dc2:	2201      	movs	r2, #1
 8007dc4:	4648      	mov	r0, r9
 8007dc6:	f003 ffb7 	bl	800bd38 <__lshift>
 8007dca:	4641      	mov	r1, r8
 8007dcc:	4604      	mov	r4, r0
 8007dce:	f004 f807 	bl	800bde0 <__mcmp>
 8007dd2:	2800      	cmp	r0, #0
 8007dd4:	dc67      	bgt.n	8007ea6 <_strtod_l+0x89e>
 8007dd6:	9b04      	ldr	r3, [sp, #16]
 8007dd8:	2b00      	cmp	r3, #0
 8007dda:	d171      	bne.n	8007ec0 <_strtod_l+0x8b8>
 8007ddc:	e63d      	b.n	8007a5a <_strtod_l+0x452>
 8007dde:	f018 0f01 	tst.w	r8, #1
 8007de2:	d004      	beq.n	8007dee <_strtod_l+0x7e6>
 8007de4:	e9d5 2300 	ldrd	r2, r3, [r5]
 8007de8:	f7f8 fc26 	bl	8000638 <__aeabi_dmul>
 8007dec:	2301      	movs	r3, #1
 8007dee:	ea4f 0868 	mov.w	r8, r8, asr #1
 8007df2:	3508      	adds	r5, #8
 8007df4:	e6e5      	b.n	8007bc2 <_strtod_l+0x5ba>
 8007df6:	f04f 32ff 	mov.w	r2, #4294967295
 8007dfa:	fa02 f303 	lsl.w	r3, r2, r3
 8007dfe:	ea03 0a0a 	and.w	sl, r3, sl
 8007e02:	e6ff      	b.n	8007c04 <_strtod_l+0x5fc>
 8007e04:	f1c6 467f 	rsb	r6, r6, #4278190080	; 0xff000000
 8007e08:	f506 067f 	add.w	r6, r6, #16711680	; 0xff0000
 8007e0c:	f506 467b 	add.w	r6, r6, #64256	; 0xfb00
 8007e10:	36e2      	adds	r6, #226	; 0xe2
 8007e12:	fa01 f306 	lsl.w	r3, r1, r6
 8007e16:	930a      	str	r3, [sp, #40]	; 0x28
 8007e18:	910f      	str	r1, [sp, #60]	; 0x3c
 8007e1a:	e75d      	b.n	8007cd8 <_strtod_l+0x6d0>
 8007e1c:	2300      	movs	r3, #0
 8007e1e:	930a      	str	r3, [sp, #40]	; 0x28
 8007e20:	2301      	movs	r3, #1
 8007e22:	930f      	str	r3, [sp, #60]	; 0x3c
 8007e24:	e758      	b.n	8007cd8 <_strtod_l+0x6d0>
 8007e26:	4632      	mov	r2, r6
 8007e28:	991c      	ldr	r1, [sp, #112]	; 0x70
 8007e2a:	4648      	mov	r0, r9
 8007e2c:	f003 ff84 	bl	800bd38 <__lshift>
 8007e30:	901c      	str	r0, [sp, #112]	; 0x70
 8007e32:	2800      	cmp	r0, #0
 8007e34:	f47f af7c 	bne.w	8007d30 <_strtod_l+0x728>
 8007e38:	e604      	b.n	8007a44 <_strtod_l+0x43c>
 8007e3a:	bf00      	nop
 8007e3c:	0800d530 	.word	0x0800d530
 8007e40:	fffffc02 	.word	0xfffffc02
 8007e44:	465d      	mov	r5, fp
 8007e46:	f040 8086 	bne.w	8007f56 <_strtod_l+0x94e>
 8007e4a:	9a0c      	ldr	r2, [sp, #48]	; 0x30
 8007e4c:	f3cb 0313 	ubfx	r3, fp, #0, #20
 8007e50:	b32a      	cbz	r2, 8007e9e <_strtod_l+0x896>
 8007e52:	4aaf      	ldr	r2, [pc, #700]	; (8008110 <_strtod_l+0xb08>)
 8007e54:	4293      	cmp	r3, r2
 8007e56:	d153      	bne.n	8007f00 <_strtod_l+0x8f8>
 8007e58:	9b04      	ldr	r3, [sp, #16]
 8007e5a:	4650      	mov	r0, sl
 8007e5c:	b1d3      	cbz	r3, 8007e94 <_strtod_l+0x88c>
 8007e5e:	4aad      	ldr	r2, [pc, #692]	; (8008114 <_strtod_l+0xb0c>)
 8007e60:	402a      	ands	r2, r5
 8007e62:	f1b2 6fd4 	cmp.w	r2, #111149056	; 0x6a00000
 8007e66:	f04f 31ff 	mov.w	r1, #4294967295
 8007e6a:	d816      	bhi.n	8007e9a <_strtod_l+0x892>
 8007e6c:	0d12      	lsrs	r2, r2, #20
 8007e6e:	f1c2 036b 	rsb	r3, r2, #107	; 0x6b
 8007e72:	fa01 f303 	lsl.w	r3, r1, r3
 8007e76:	4298      	cmp	r0, r3
 8007e78:	d142      	bne.n	8007f00 <_strtod_l+0x8f8>
 8007e7a:	4ba7      	ldr	r3, [pc, #668]	; (8008118 <_strtod_l+0xb10>)
 8007e7c:	429d      	cmp	r5, r3
 8007e7e:	d102      	bne.n	8007e86 <_strtod_l+0x87e>
 8007e80:	3001      	adds	r0, #1
 8007e82:	f43f addf 	beq.w	8007a44 <_strtod_l+0x43c>
 8007e86:	4ba3      	ldr	r3, [pc, #652]	; (8008114 <_strtod_l+0xb0c>)
 8007e88:	402b      	ands	r3, r5
 8007e8a:	f503 1b80 	add.w	fp, r3, #1048576	; 0x100000
 8007e8e:	f04f 0a00 	mov.w	sl, #0
 8007e92:	e7a0      	b.n	8007dd6 <_strtod_l+0x7ce>
 8007e94:	f04f 33ff 	mov.w	r3, #4294967295
 8007e98:	e7ed      	b.n	8007e76 <_strtod_l+0x86e>
 8007e9a:	460b      	mov	r3, r1
 8007e9c:	e7eb      	b.n	8007e76 <_strtod_l+0x86e>
 8007e9e:	bb7b      	cbnz	r3, 8007f00 <_strtod_l+0x8f8>
 8007ea0:	f1ba 0f00 	cmp.w	sl, #0
 8007ea4:	d12c      	bne.n	8007f00 <_strtod_l+0x8f8>
 8007ea6:	9904      	ldr	r1, [sp, #16]
 8007ea8:	4a9a      	ldr	r2, [pc, #616]	; (8008114 <_strtod_l+0xb0c>)
 8007eaa:	465b      	mov	r3, fp
 8007eac:	b1f1      	cbz	r1, 8007eec <_strtod_l+0x8e4>
 8007eae:	ea02 010b 	and.w	r1, r2, fp
 8007eb2:	f1b1 6fd6 	cmp.w	r1, #112197632	; 0x6b00000
 8007eb6:	dc19      	bgt.n	8007eec <_strtod_l+0x8e4>
 8007eb8:	f1b1 7f5c 	cmp.w	r1, #57671680	; 0x3700000
 8007ebc:	f77f ae5b 	ble.w	8007b76 <_strtod_l+0x56e>
 8007ec0:	4a96      	ldr	r2, [pc, #600]	; (800811c <_strtod_l+0xb14>)
 8007ec2:	2300      	movs	r3, #0
 8007ec4:	e9cd 3214 	strd	r3, r2, [sp, #80]	; 0x50
 8007ec8:	4650      	mov	r0, sl
 8007eca:	4659      	mov	r1, fp
 8007ecc:	e9dd 2314 	ldrd	r2, r3, [sp, #80]	; 0x50
 8007ed0:	f7f8 fbb2 	bl	8000638 <__aeabi_dmul>
 8007ed4:	4682      	mov	sl, r0
 8007ed6:	468b      	mov	fp, r1
 8007ed8:	2900      	cmp	r1, #0
 8007eda:	f47f adbe 	bne.w	8007a5a <_strtod_l+0x452>
 8007ede:	2800      	cmp	r0, #0
 8007ee0:	f47f adbb 	bne.w	8007a5a <_strtod_l+0x452>
 8007ee4:	2322      	movs	r3, #34	; 0x22
 8007ee6:	f8c9 3000 	str.w	r3, [r9]
 8007eea:	e5b6      	b.n	8007a5a <_strtod_l+0x452>
 8007eec:	4013      	ands	r3, r2
 8007eee:	f5a3 1380 	sub.w	r3, r3, #1048576	; 0x100000
 8007ef2:	ea6f 5b13 	mvn.w	fp, r3, lsr #20
 8007ef6:	ea6f 5b0b 	mvn.w	fp, fp, lsl #20
 8007efa:	f04f 3aff 	mov.w	sl, #4294967295
 8007efe:	e76a      	b.n	8007dd6 <_strtod_l+0x7ce>
 8007f00:	9b0a      	ldr	r3, [sp, #40]	; 0x28
 8007f02:	b193      	cbz	r3, 8007f2a <_strtod_l+0x922>
 8007f04:	422b      	tst	r3, r5
 8007f06:	f43f af66 	beq.w	8007dd6 <_strtod_l+0x7ce>
 8007f0a:	9b0c      	ldr	r3, [sp, #48]	; 0x30
 8007f0c:	9a04      	ldr	r2, [sp, #16]
 8007f0e:	4650      	mov	r0, sl
 8007f10:	4659      	mov	r1, fp
 8007f12:	b173      	cbz	r3, 8007f32 <_strtod_l+0x92a>
 8007f14:	f7ff fb5c 	bl	80075d0 <sulp>
 8007f18:	4602      	mov	r2, r0
 8007f1a:	460b      	mov	r3, r1
 8007f1c:	e9dd 0108 	ldrd	r0, r1, [sp, #32]
 8007f20:	f7f8 f9d4 	bl	80002cc <__adddf3>
 8007f24:	4682      	mov	sl, r0
 8007f26:	468b      	mov	fp, r1
 8007f28:	e755      	b.n	8007dd6 <_strtod_l+0x7ce>
 8007f2a:	9b0f      	ldr	r3, [sp, #60]	; 0x3c
 8007f2c:	ea13 0f0a 	tst.w	r3, sl
 8007f30:	e7e9      	b.n	8007f06 <_strtod_l+0x8fe>
 8007f32:	f7ff fb4d 	bl	80075d0 <sulp>
 8007f36:	4602      	mov	r2, r0
 8007f38:	460b      	mov	r3, r1
 8007f3a:	e9dd 0108 	ldrd	r0, r1, [sp, #32]
 8007f3e:	f7f8 f9c3 	bl	80002c8 <__aeabi_dsub>
 8007f42:	2200      	movs	r2, #0
 8007f44:	2300      	movs	r3, #0
 8007f46:	4682      	mov	sl, r0
 8007f48:	468b      	mov	fp, r1
 8007f4a:	f7f8 fddd 	bl	8000b08 <__aeabi_dcmpeq>
 8007f4e:	2800      	cmp	r0, #0
 8007f50:	f47f ae11 	bne.w	8007b76 <_strtod_l+0x56e>
 8007f54:	e73f      	b.n	8007dd6 <_strtod_l+0x7ce>
 8007f56:	4641      	mov	r1, r8
 8007f58:	4620      	mov	r0, r4
 8007f5a:	f004 f87e 	bl	800c05a <__ratio>
 8007f5e:	ec57 6b10 	vmov	r6, r7, d0
 8007f62:	2200      	movs	r2, #0
 8007f64:	f04f 4380 	mov.w	r3, #1073741824	; 0x40000000
 8007f68:	ee10 0a10 	vmov	r0, s0
 8007f6c:	4639      	mov	r1, r7
 8007f6e:	f7f8 fddf 	bl	8000b30 <__aeabi_dcmple>
 8007f72:	2800      	cmp	r0, #0
 8007f74:	d077      	beq.n	8008066 <_strtod_l+0xa5e>
 8007f76:	9b0c      	ldr	r3, [sp, #48]	; 0x30
 8007f78:	2b00      	cmp	r3, #0
 8007f7a:	d04a      	beq.n	8008012 <_strtod_l+0xa0a>
 8007f7c:	4b68      	ldr	r3, [pc, #416]	; (8008120 <_strtod_l+0xb18>)
 8007f7e:	2200      	movs	r2, #0
 8007f80:	e9cd 230a 	strd	r2, r3, [sp, #40]	; 0x28
 8007f84:	4f66      	ldr	r7, [pc, #408]	; (8008120 <_strtod_l+0xb18>)
 8007f86:	2600      	movs	r6, #0
 8007f88:	4b62      	ldr	r3, [pc, #392]	; (8008114 <_strtod_l+0xb0c>)
 8007f8a:	402b      	ands	r3, r5
 8007f8c:	930f      	str	r3, [sp, #60]	; 0x3c
 8007f8e:	9a0f      	ldr	r2, [sp, #60]	; 0x3c
 8007f90:	4b64      	ldr	r3, [pc, #400]	; (8008124 <_strtod_l+0xb1c>)
 8007f92:	429a      	cmp	r2, r3
 8007f94:	f040 80ce 	bne.w	8008134 <_strtod_l+0xb2c>
 8007f98:	e9dd 2308 	ldrd	r2, r3, [sp, #32]
 8007f9c:	e9dd 010a 	ldrd	r0, r1, [sp, #40]	; 0x28
 8007fa0:	f1a5 7b54 	sub.w	fp, r5, #55574528	; 0x3500000
 8007fa4:	ec4b ab10 	vmov	d0, sl, fp
 8007fa8:	e9cd 2314 	strd	r2, r3, [sp, #80]	; 0x50
 8007fac:	e9cd 010a 	strd	r0, r1, [sp, #40]	; 0x28
 8007fb0:	f003 ff8e 	bl	800bed0 <__ulp>
 8007fb4:	e9dd 010a 	ldrd	r0, r1, [sp, #40]	; 0x28
 8007fb8:	ec53 2b10 	vmov	r2, r3, d0
 8007fbc:	f7f8 fb3c 	bl	8000638 <__aeabi_dmul>
 8007fc0:	4652      	mov	r2, sl
 8007fc2:	465b      	mov	r3, fp
 8007fc4:	f7f8 f982 	bl	80002cc <__adddf3>
 8007fc8:	460b      	mov	r3, r1
 8007fca:	4952      	ldr	r1, [pc, #328]	; (8008114 <_strtod_l+0xb0c>)
 8007fcc:	4a56      	ldr	r2, [pc, #344]	; (8008128 <_strtod_l+0xb20>)
 8007fce:	4019      	ands	r1, r3
 8007fd0:	4291      	cmp	r1, r2
 8007fd2:	4682      	mov	sl, r0
 8007fd4:	d95b      	bls.n	800808e <_strtod_l+0xa86>
 8007fd6:	9b09      	ldr	r3, [sp, #36]	; 0x24
 8007fd8:	f102 7254 	add.w	r2, r2, #55574528	; 0x3500000
 8007fdc:	4293      	cmp	r3, r2
 8007fde:	d103      	bne.n	8007fe8 <_strtod_l+0x9e0>
 8007fe0:	9b08      	ldr	r3, [sp, #32]
 8007fe2:	3301      	adds	r3, #1
 8007fe4:	f43f ad2e 	beq.w	8007a44 <_strtod_l+0x43c>
 8007fe8:	f8df b12c 	ldr.w	fp, [pc, #300]	; 8008118 <_strtod_l+0xb10>
 8007fec:	f04f 3aff 	mov.w	sl, #4294967295
 8007ff0:	991c      	ldr	r1, [sp, #112]	; 0x70
 8007ff2:	4648      	mov	r0, r9
 8007ff4:	f003 fcf1 	bl	800b9da <_Bfree>
 8007ff8:	9905      	ldr	r1, [sp, #20]
 8007ffa:	4648      	mov	r0, r9
 8007ffc:	f003 fced 	bl	800b9da <_Bfree>
 8008000:	4641      	mov	r1, r8
 8008002:	4648      	mov	r0, r9
 8008004:	f003 fce9 	bl	800b9da <_Bfree>
 8008008:	4621      	mov	r1, r4
 800800a:	4648      	mov	r0, r9
 800800c:	f003 fce5 	bl	800b9da <_Bfree>
 8008010:	e619      	b.n	8007c46 <_strtod_l+0x63e>
 8008012:	f1ba 0f00 	cmp.w	sl, #0
 8008016:	d11a      	bne.n	800804e <_strtod_l+0xa46>
 8008018:	f3cb 0313 	ubfx	r3, fp, #0, #20
 800801c:	b9eb      	cbnz	r3, 800805a <_strtod_l+0xa52>
 800801e:	2200      	movs	r2, #0
 8008020:	4b3f      	ldr	r3, [pc, #252]	; (8008120 <_strtod_l+0xb18>)
 8008022:	4630      	mov	r0, r6
 8008024:	4639      	mov	r1, r7
 8008026:	f7f8 fd79 	bl	8000b1c <__aeabi_dcmplt>
 800802a:	b9c8      	cbnz	r0, 8008060 <_strtod_l+0xa58>
 800802c:	4630      	mov	r0, r6
 800802e:	4639      	mov	r1, r7
 8008030:	2200      	movs	r2, #0
 8008032:	4b3e      	ldr	r3, [pc, #248]	; (800812c <_strtod_l+0xb24>)
 8008034:	f7f8 fb00 	bl	8000638 <__aeabi_dmul>
 8008038:	4606      	mov	r6, r0
 800803a:	460f      	mov	r7, r1
 800803c:	f107 4300 	add.w	r3, r7, #2147483648	; 0x80000000
 8008040:	9618      	str	r6, [sp, #96]	; 0x60
 8008042:	9319      	str	r3, [sp, #100]	; 0x64
 8008044:	e9dd 2318 	ldrd	r2, r3, [sp, #96]	; 0x60
 8008048:	e9cd 230a 	strd	r2, r3, [sp, #40]	; 0x28
 800804c:	e79c      	b.n	8007f88 <_strtod_l+0x980>
 800804e:	f1ba 0f01 	cmp.w	sl, #1
 8008052:	d102      	bne.n	800805a <_strtod_l+0xa52>
 8008054:	2d00      	cmp	r5, #0
 8008056:	f43f ad8e 	beq.w	8007b76 <_strtod_l+0x56e>
 800805a:	2200      	movs	r2, #0
 800805c:	4b34      	ldr	r3, [pc, #208]	; (8008130 <_strtod_l+0xb28>)
 800805e:	e78f      	b.n	8007f80 <_strtod_l+0x978>
 8008060:	2600      	movs	r6, #0
 8008062:	4f32      	ldr	r7, [pc, #200]	; (800812c <_strtod_l+0xb24>)
 8008064:	e7ea      	b.n	800803c <_strtod_l+0xa34>
 8008066:	4b31      	ldr	r3, [pc, #196]	; (800812c <_strtod_l+0xb24>)
 8008068:	4630      	mov	r0, r6
 800806a:	4639      	mov	r1, r7
 800806c:	2200      	movs	r2, #0
 800806e:	f7f8 fae3 	bl	8000638 <__aeabi_dmul>
 8008072:	9b0c      	ldr	r3, [sp, #48]	; 0x30
 8008074:	4606      	mov	r6, r0
 8008076:	460f      	mov	r7, r1
 8008078:	b933      	cbnz	r3, 8008088 <_strtod_l+0xa80>
 800807a:	f101 4300 	add.w	r3, r1, #2147483648	; 0x80000000
 800807e:	9010      	str	r0, [sp, #64]	; 0x40
 8008080:	9311      	str	r3, [sp, #68]	; 0x44
 8008082:	e9dd 2310 	ldrd	r2, r3, [sp, #64]	; 0x40
 8008086:	e7df      	b.n	8008048 <_strtod_l+0xa40>
 8008088:	e9cd 6710 	strd	r6, r7, [sp, #64]	; 0x40
 800808c:	e7f9      	b.n	8008082 <_strtod_l+0xa7a>
 800808e:	f103 7b54 	add.w	fp, r3, #55574528	; 0x3500000
 8008092:	9b04      	ldr	r3, [sp, #16]
 8008094:	2b00      	cmp	r3, #0
 8008096:	d1ab      	bne.n	8007ff0 <_strtod_l+0x9e8>
 8008098:	f02b 4300 	bic.w	r3, fp, #2147483648	; 0x80000000
 800809c:	0d1b      	lsrs	r3, r3, #20
 800809e:	9a0f      	ldr	r2, [sp, #60]	; 0x3c
 80080a0:	051b      	lsls	r3, r3, #20
 80080a2:	429a      	cmp	r2, r3
 80080a4:	465d      	mov	r5, fp
 80080a6:	d1a3      	bne.n	8007ff0 <_strtod_l+0x9e8>
 80080a8:	4639      	mov	r1, r7
 80080aa:	4630      	mov	r0, r6
 80080ac:	f7f8 fd74 	bl	8000b98 <__aeabi_d2iz>
 80080b0:	f7f8 fa58 	bl	8000564 <__aeabi_i2d>
 80080b4:	460b      	mov	r3, r1
 80080b6:	4602      	mov	r2, r0
 80080b8:	4639      	mov	r1, r7
 80080ba:	4630      	mov	r0, r6
 80080bc:	f7f8 f904 	bl	80002c8 <__aeabi_dsub>
 80080c0:	9b0c      	ldr	r3, [sp, #48]	; 0x30
 80080c2:	4606      	mov	r6, r0
 80080c4:	460f      	mov	r7, r1
 80080c6:	b933      	cbnz	r3, 80080d6 <_strtod_l+0xace>
 80080c8:	f1ba 0f00 	cmp.w	sl, #0
 80080cc:	d103      	bne.n	80080d6 <_strtod_l+0xace>
 80080ce:	f3cb 0513 	ubfx	r5, fp, #0, #20
 80080d2:	2d00      	cmp	r5, #0
 80080d4:	d06d      	beq.n	80081b2 <_strtod_l+0xbaa>
 80080d6:	a30a      	add	r3, pc, #40	; (adr r3, 8008100 <_strtod_l+0xaf8>)
 80080d8:	e9d3 2300 	ldrd	r2, r3, [r3]
 80080dc:	4630      	mov	r0, r6
 80080de:	4639      	mov	r1, r7
 80080e0:	f7f8 fd1c 	bl	8000b1c <__aeabi_dcmplt>
 80080e4:	2800      	cmp	r0, #0
 80080e6:	f47f acb8 	bne.w	8007a5a <_strtod_l+0x452>
 80080ea:	a307      	add	r3, pc, #28	; (adr r3, 8008108 <_strtod_l+0xb00>)
 80080ec:	e9d3 2300 	ldrd	r2, r3, [r3]
 80080f0:	4630      	mov	r0, r6
 80080f2:	4639      	mov	r1, r7
 80080f4:	f7f8 fd30 	bl	8000b58 <__aeabi_dcmpgt>
 80080f8:	2800      	cmp	r0, #0
 80080fa:	f43f af79 	beq.w	8007ff0 <_strtod_l+0x9e8>
 80080fe:	e4ac      	b.n	8007a5a <_strtod_l+0x452>
 8008100:	94a03595 	.word	0x94a03595
 8008104:	3fdfffff 	.word	0x3fdfffff
 8008108:	35afe535 	.word	0x35afe535
 800810c:	3fe00000 	.word	0x3fe00000
 8008110:	000fffff 	.word	0x000fffff
 8008114:	7ff00000 	.word	0x7ff00000
 8008118:	7fefffff 	.word	0x7fefffff
 800811c:	39500000 	.word	0x39500000
 8008120:	3ff00000 	.word	0x3ff00000
 8008124:	7fe00000 	.word	0x7fe00000
 8008128:	7c9fffff 	.word	0x7c9fffff
 800812c:	3fe00000 	.word	0x3fe00000
 8008130:	bff00000 	.word	0xbff00000
 8008134:	9b04      	ldr	r3, [sp, #16]
 8008136:	b333      	cbz	r3, 8008186 <_strtod_l+0xb7e>
 8008138:	9b0f      	ldr	r3, [sp, #60]	; 0x3c
 800813a:	f1b3 6fd4 	cmp.w	r3, #111149056	; 0x6a00000
 800813e:	d822      	bhi.n	8008186 <_strtod_l+0xb7e>
 8008140:	a327      	add	r3, pc, #156	; (adr r3, 80081e0 <_strtod_l+0xbd8>)
 8008142:	e9d3 2300 	ldrd	r2, r3, [r3]
 8008146:	4630      	mov	r0, r6
 8008148:	4639      	mov	r1, r7
 800814a:	f7f8 fcf1 	bl	8000b30 <__aeabi_dcmple>
 800814e:	b1a0      	cbz	r0, 800817a <_strtod_l+0xb72>
 8008150:	4639      	mov	r1, r7
 8008152:	4630      	mov	r0, r6
 8008154:	f7f8 fd48 	bl	8000be8 <__aeabi_d2uiz>
 8008158:	2800      	cmp	r0, #0
 800815a:	bf08      	it	eq
 800815c:	2001      	moveq	r0, #1
 800815e:	f7f8 f9f1 	bl	8000544 <__aeabi_ui2d>
 8008162:	9b0c      	ldr	r3, [sp, #48]	; 0x30
 8008164:	4606      	mov	r6, r0
 8008166:	460f      	mov	r7, r1
 8008168:	bb03      	cbnz	r3, 80081ac <_strtod_l+0xba4>
 800816a:	f101 4300 	add.w	r3, r1, #2147483648	; 0x80000000
 800816e:	9012      	str	r0, [sp, #72]	; 0x48
 8008170:	9313      	str	r3, [sp, #76]	; 0x4c
 8008172:	e9dd 2312 	ldrd	r2, r3, [sp, #72]	; 0x48
 8008176:	e9cd 230a 	strd	r2, r3, [sp, #40]	; 0x28
 800817a:	9b0b      	ldr	r3, [sp, #44]	; 0x2c
 800817c:	9a0f      	ldr	r2, [sp, #60]	; 0x3c
 800817e:	f103 63d6 	add.w	r3, r3, #112197632	; 0x6b00000
 8008182:	1a9b      	subs	r3, r3, r2
 8008184:	930b      	str	r3, [sp, #44]	; 0x2c
 8008186:	ed9d 0b08 	vldr	d0, [sp, #32]
 800818a:	e9dd ab0a 	ldrd	sl, fp, [sp, #40]	; 0x28
 800818e:	f003 fe9f 	bl	800bed0 <__ulp>
 8008192:	4650      	mov	r0, sl
 8008194:	ec53 2b10 	vmov	r2, r3, d0
 8008198:	4659      	mov	r1, fp
 800819a:	f7f8 fa4d 	bl	8000638 <__aeabi_dmul>
 800819e:	e9dd 2308 	ldrd	r2, r3, [sp, #32]
 80081a2:	f7f8 f893 	bl	80002cc <__adddf3>
 80081a6:	4682      	mov	sl, r0
 80081a8:	468b      	mov	fp, r1
 80081aa:	e772      	b.n	8008092 <_strtod_l+0xa8a>
 80081ac:	e9cd 6712 	strd	r6, r7, [sp, #72]	; 0x48
 80081b0:	e7df      	b.n	8008172 <_strtod_l+0xb6a>
 80081b2:	a30d      	add	r3, pc, #52	; (adr r3, 80081e8 <_strtod_l+0xbe0>)
 80081b4:	e9d3 2300 	ldrd	r2, r3, [r3]
 80081b8:	f7f8 fcb0 	bl	8000b1c <__aeabi_dcmplt>
 80081bc:	e79c      	b.n	80080f8 <_strtod_l+0xaf0>
 80081be:	2300      	movs	r3, #0
 80081c0:	930d      	str	r3, [sp, #52]	; 0x34
 80081c2:	9a17      	ldr	r2, [sp, #92]	; 0x5c
 80081c4:	9b1b      	ldr	r3, [sp, #108]	; 0x6c
 80081c6:	6013      	str	r3, [r2, #0]
 80081c8:	f7ff ba61 	b.w	800768e <_strtod_l+0x86>
 80081cc:	2b65      	cmp	r3, #101	; 0x65
 80081ce:	f04f 0200 	mov.w	r2, #0
 80081d2:	f43f ab4e 	beq.w	8007872 <_strtod_l+0x26a>
 80081d6:	2101      	movs	r1, #1
 80081d8:	4614      	mov	r4, r2
 80081da:	9104      	str	r1, [sp, #16]
 80081dc:	f7ff bacb 	b.w	8007776 <_strtod_l+0x16e>
 80081e0:	ffc00000 	.word	0xffc00000
 80081e4:	41dfffff 	.word	0x41dfffff
 80081e8:	94a03595 	.word	0x94a03595
 80081ec:	3fcfffff 	.word	0x3fcfffff

080081f0 <strtod>:
 80081f0:	4b07      	ldr	r3, [pc, #28]	; (8008210 <strtod+0x20>)
 80081f2:	4a08      	ldr	r2, [pc, #32]	; (8008214 <strtod+0x24>)
 80081f4:	b410      	push	{r4}
 80081f6:	681c      	ldr	r4, [r3, #0]
 80081f8:	6b63      	ldr	r3, [r4, #52]	; 0x34
 80081fa:	2b00      	cmp	r3, #0
 80081fc:	bf08      	it	eq
 80081fe:	4613      	moveq	r3, r2
 8008200:	460a      	mov	r2, r1
 8008202:	4601      	mov	r1, r0
 8008204:	4620      	mov	r0, r4
 8008206:	f85d 4b04 	ldr.w	r4, [sp], #4
 800820a:	f7ff b9fd 	b.w	8007608 <_strtod_l>
 800820e:	bf00      	nop
 8008210:	20000010 	.word	0x20000010
 8008214:	20000444 	.word	0x20000444

08008218 <_strtol_l.isra.0>:
 8008218:	e92d 47f0 	stmdb	sp!, {r4, r5, r6, r7, r8, r9, sl, lr}
 800821c:	4680      	mov	r8, r0
 800821e:	4689      	mov	r9, r1
 8008220:	4692      	mov	sl, r2
 8008222:	461e      	mov	r6, r3
 8008224:	460f      	mov	r7, r1
 8008226:	463d      	mov	r5, r7
 8008228:	9808      	ldr	r0, [sp, #32]
 800822a:	f815 4b01 	ldrb.w	r4, [r5], #1
 800822e:	f003 f8bd 	bl	800b3ac <__locale_ctype_ptr_l>
 8008232:	4420      	add	r0, r4
 8008234:	7843      	ldrb	r3, [r0, #1]
 8008236:	f013 0308 	ands.w	r3, r3, #8
 800823a:	d132      	bne.n	80082a2 <_strtol_l.isra.0+0x8a>
 800823c:	2c2d      	cmp	r4, #45	; 0x2d
 800823e:	d132      	bne.n	80082a6 <_strtol_l.isra.0+0x8e>
 8008240:	787c      	ldrb	r4, [r7, #1]
 8008242:	1cbd      	adds	r5, r7, #2
 8008244:	2201      	movs	r2, #1
 8008246:	2e00      	cmp	r6, #0
 8008248:	d05d      	beq.n	8008306 <_strtol_l.isra.0+0xee>
 800824a:	2e10      	cmp	r6, #16
 800824c:	d109      	bne.n	8008262 <_strtol_l.isra.0+0x4a>
 800824e:	2c30      	cmp	r4, #48	; 0x30
 8008250:	d107      	bne.n	8008262 <_strtol_l.isra.0+0x4a>
 8008252:	782b      	ldrb	r3, [r5, #0]
 8008254:	f003 03df 	and.w	r3, r3, #223	; 0xdf
 8008258:	2b58      	cmp	r3, #88	; 0x58
 800825a:	d14f      	bne.n	80082fc <_strtol_l.isra.0+0xe4>
 800825c:	786c      	ldrb	r4, [r5, #1]
 800825e:	2610      	movs	r6, #16
 8008260:	3502      	adds	r5, #2
 8008262:	2a00      	cmp	r2, #0
 8008264:	bf14      	ite	ne
 8008266:	f04f 4100 	movne.w	r1, #2147483648	; 0x80000000
 800826a:	f06f 4100 	mvneq.w	r1, #2147483648	; 0x80000000
 800826e:	2700      	movs	r7, #0
 8008270:	fbb1 fcf6 	udiv	ip, r1, r6
 8008274:	4638      	mov	r0, r7
 8008276:	fb06 1e1c 	mls	lr, r6, ip, r1
 800827a:	f1a4 0330 	sub.w	r3, r4, #48	; 0x30
 800827e:	2b09      	cmp	r3, #9
 8008280:	d817      	bhi.n	80082b2 <_strtol_l.isra.0+0x9a>
 8008282:	461c      	mov	r4, r3
 8008284:	42a6      	cmp	r6, r4
 8008286:	dd23      	ble.n	80082d0 <_strtol_l.isra.0+0xb8>
 8008288:	1c7b      	adds	r3, r7, #1
 800828a:	d007      	beq.n	800829c <_strtol_l.isra.0+0x84>
 800828c:	4584      	cmp	ip, r0
 800828e:	d31c      	bcc.n	80082ca <_strtol_l.isra.0+0xb2>
 8008290:	d101      	bne.n	8008296 <_strtol_l.isra.0+0x7e>
 8008292:	45a6      	cmp	lr, r4
 8008294:	db19      	blt.n	80082ca <_strtol_l.isra.0+0xb2>
 8008296:	fb00 4006 	mla	r0, r0, r6, r4
 800829a:	2701      	movs	r7, #1
 800829c:	f815 4b01 	ldrb.w	r4, [r5], #1
 80082a0:	e7eb      	b.n	800827a <_strtol_l.isra.0+0x62>
 80082a2:	462f      	mov	r7, r5
 80082a4:	e7bf      	b.n	8008226 <_strtol_l.isra.0+0xe>
 80082a6:	2c2b      	cmp	r4, #43	; 0x2b
 80082a8:	bf04      	itt	eq
 80082aa:	1cbd      	addeq	r5, r7, #2
 80082ac:	787c      	ldrbeq	r4, [r7, #1]
 80082ae:	461a      	mov	r2, r3
 80082b0:	e7c9      	b.n	8008246 <_strtol_l.isra.0+0x2e>
 80082b2:	f1a4 0341 	sub.w	r3, r4, #65	; 0x41
 80082b6:	2b19      	cmp	r3, #25
 80082b8:	d801      	bhi.n	80082be <_strtol_l.isra.0+0xa6>
 80082ba:	3c37      	subs	r4, #55	; 0x37
 80082bc:	e7e2      	b.n	8008284 <_strtol_l.isra.0+0x6c>
 80082be:	f1a4 0361 	sub.w	r3, r4, #97	; 0x61
 80082c2:	2b19      	cmp	r3, #25
 80082c4:	d804      	bhi.n	80082d0 <_strtol_l.isra.0+0xb8>
 80082c6:	3c57      	subs	r4, #87	; 0x57
 80082c8:	e7dc      	b.n	8008284 <_strtol_l.isra.0+0x6c>
 80082ca:	f04f 37ff 	mov.w	r7, #4294967295
 80082ce:	e7e5      	b.n	800829c <_strtol_l.isra.0+0x84>
 80082d0:	1c7b      	adds	r3, r7, #1
 80082d2:	d108      	bne.n	80082e6 <_strtol_l.isra.0+0xce>
 80082d4:	2322      	movs	r3, #34	; 0x22
 80082d6:	f8c8 3000 	str.w	r3, [r8]
 80082da:	4608      	mov	r0, r1
 80082dc:	f1ba 0f00 	cmp.w	sl, #0
 80082e0:	d107      	bne.n	80082f2 <_strtol_l.isra.0+0xda>
 80082e2:	e8bd 87f0 	ldmia.w	sp!, {r4, r5, r6, r7, r8, r9, sl, pc}
 80082e6:	b102      	cbz	r2, 80082ea <_strtol_l.isra.0+0xd2>
 80082e8:	4240      	negs	r0, r0
 80082ea:	f1ba 0f00 	cmp.w	sl, #0
 80082ee:	d0f8      	beq.n	80082e2 <_strtol_l.isra.0+0xca>
 80082f0:	b10f      	cbz	r7, 80082f6 <_strtol_l.isra.0+0xde>
 80082f2:	f105 39ff 	add.w	r9, r5, #4294967295
 80082f6:	f8ca 9000 	str.w	r9, [sl]
 80082fa:	e7f2      	b.n	80082e2 <_strtol_l.isra.0+0xca>
 80082fc:	2430      	movs	r4, #48	; 0x30
 80082fe:	2e00      	cmp	r6, #0
 8008300:	d1af      	bne.n	8008262 <_strtol_l.isra.0+0x4a>
 8008302:	2608      	movs	r6, #8
 8008304:	e7ad      	b.n	8008262 <_strtol_l.isra.0+0x4a>
 8008306:	2c30      	cmp	r4, #48	; 0x30
 8008308:	d0a3      	beq.n	8008252 <_strtol_l.isra.0+0x3a>
 800830a:	260a      	movs	r6, #10
 800830c:	e7a9      	b.n	8008262 <_strtol_l.isra.0+0x4a>
	...

08008310 <strtol>:
 8008310:	4b08      	ldr	r3, [pc, #32]	; (8008334 <strtol+0x24>)
 8008312:	b537      	push	{r0, r1, r2, r4, r5, lr}
 8008314:	681c      	ldr	r4, [r3, #0]
 8008316:	4d08      	ldr	r5, [pc, #32]	; (8008338 <strtol+0x28>)
 8008318:	6b63      	ldr	r3, [r4, #52]	; 0x34
 800831a:	2b00      	cmp	r3, #0
 800831c:	bf08      	it	eq
 800831e:	462b      	moveq	r3, r5
 8008320:	9300      	str	r3, [sp, #0]
 8008322:	4613      	mov	r3, r2
 8008324:	460a      	mov	r2, r1
 8008326:	4601      	mov	r1, r0
 8008328:	4620      	mov	r0, r4
 800832a:	f7ff ff75 	bl	8008218 <_strtol_l.isra.0>
 800832e:	b003      	add	sp, #12
 8008330:	bd30      	pop	{r4, r5, pc}
 8008332:	bf00      	nop
 8008334:	20000010 	.word	0x20000010
 8008338:	20000444 	.word	0x20000444
 800833c:	00000000 	.word	0x00000000

08008340 <_vfprintf_r>:
 8008340:	e92d 4ff0 	stmdb	sp!, {r4, r5, r6, r7, r8, r9, sl, fp, lr}
 8008344:	b0d3      	sub	sp, #332	; 0x14c
 8008346:	4688      	mov	r8, r1
 8008348:	4691      	mov	r9, r2
 800834a:	461c      	mov	r4, r3
 800834c:	461e      	mov	r6, r3
 800834e:	4683      	mov	fp, r0
 8008350:	f003 f832 	bl	800b3b8 <_localeconv_r>
 8008354:	6803      	ldr	r3, [r0, #0]
 8008356:	9316      	str	r3, [sp, #88]	; 0x58
 8008358:	4618      	mov	r0, r3
 800835a:	f7f7 ff59 	bl	8000210 <strlen>
 800835e:	900d      	str	r0, [sp, #52]	; 0x34
 8008360:	f1bb 0f00 	cmp.w	fp, #0
 8008364:	d005      	beq.n	8008372 <_vfprintf_r+0x32>
 8008366:	f8db 3038 	ldr.w	r3, [fp, #56]	; 0x38
 800836a:	b913      	cbnz	r3, 8008372 <_vfprintf_r+0x32>
 800836c:	4658      	mov	r0, fp
 800836e:	f002 fa31 	bl	800a7d4 <__sinit>
 8008372:	f8d8 3064 	ldr.w	r3, [r8, #100]	; 0x64
 8008376:	07d8      	lsls	r0, r3, #31
 8008378:	d407      	bmi.n	800838a <_vfprintf_r+0x4a>
 800837a:	f8b8 300c 	ldrh.w	r3, [r8, #12]
 800837e:	0599      	lsls	r1, r3, #22
 8008380:	d403      	bmi.n	800838a <_vfprintf_r+0x4a>
 8008382:	f8d8 0058 	ldr.w	r0, [r8, #88]	; 0x58
 8008386:	f003 f827 	bl	800b3d8 <__retarget_lock_acquire_recursive>
 800838a:	f9b8 300c 	ldrsh.w	r3, [r8, #12]
 800838e:	049a      	lsls	r2, r3, #18
 8008390:	d409      	bmi.n	80083a6 <_vfprintf_r+0x66>
 8008392:	f443 5300 	orr.w	r3, r3, #8192	; 0x2000
 8008396:	f8a8 300c 	strh.w	r3, [r8, #12]
 800839a:	f8d8 3064 	ldr.w	r3, [r8, #100]	; 0x64
 800839e:	f423 5300 	bic.w	r3, r3, #8192	; 0x2000
 80083a2:	f8c8 3064 	str.w	r3, [r8, #100]	; 0x64
 80083a6:	f8b8 300c 	ldrh.w	r3, [r8, #12]
 80083aa:	071f      	lsls	r7, r3, #28
 80083ac:	d502      	bpl.n	80083b4 <_vfprintf_r+0x74>
 80083ae:	f8d8 3010 	ldr.w	r3, [r8, #16]
 80083b2:	b9a3      	cbnz	r3, 80083de <_vfprintf_r+0x9e>
 80083b4:	4641      	mov	r1, r8
 80083b6:	4658      	mov	r0, fp
 80083b8:	f001 fa74 	bl	80098a4 <__swsetup_r>
 80083bc:	b178      	cbz	r0, 80083de <_vfprintf_r+0x9e>
 80083be:	f8d8 3064 	ldr.w	r3, [r8, #100]	; 0x64
 80083c2:	07dd      	lsls	r5, r3, #31
 80083c4:	d407      	bmi.n	80083d6 <_vfprintf_r+0x96>
 80083c6:	f8b8 300c 	ldrh.w	r3, [r8, #12]
 80083ca:	059c      	lsls	r4, r3, #22
 80083cc:	d403      	bmi.n	80083d6 <_vfprintf_r+0x96>
 80083ce:	f8d8 0058 	ldr.w	r0, [r8, #88]	; 0x58
 80083d2:	f003 f802 	bl	800b3da <__retarget_lock_release_recursive>
 80083d6:	f04f 33ff 	mov.w	r3, #4294967295
 80083da:	930e      	str	r3, [sp, #56]	; 0x38
 80083dc:	e01a      	b.n	8008414 <_vfprintf_r+0xd4>
 80083de:	f8b8 300c 	ldrh.w	r3, [r8, #12]
 80083e2:	f003 021a 	and.w	r2, r3, #26
 80083e6:	2a0a      	cmp	r2, #10
 80083e8:	d118      	bne.n	800841c <_vfprintf_r+0xdc>
 80083ea:	f9b8 200e 	ldrsh.w	r2, [r8, #14]
 80083ee:	2a00      	cmp	r2, #0
 80083f0:	db14      	blt.n	800841c <_vfprintf_r+0xdc>
 80083f2:	f8d8 2064 	ldr.w	r2, [r8, #100]	; 0x64
 80083f6:	07d0      	lsls	r0, r2, #31
 80083f8:	d405      	bmi.n	8008406 <_vfprintf_r+0xc6>
 80083fa:	0599      	lsls	r1, r3, #22
 80083fc:	d403      	bmi.n	8008406 <_vfprintf_r+0xc6>
 80083fe:	f8d8 0058 	ldr.w	r0, [r8, #88]	; 0x58
 8008402:	f002 ffea 	bl	800b3da <__retarget_lock_release_recursive>
 8008406:	4623      	mov	r3, r4
 8008408:	464a      	mov	r2, r9
 800840a:	4641      	mov	r1, r8
 800840c:	4658      	mov	r0, fp
 800840e:	f001 fa09 	bl	8009824 <__sbprintf>
 8008412:	900e      	str	r0, [sp, #56]	; 0x38
 8008414:	980e      	ldr	r0, [sp, #56]	; 0x38
 8008416:	b053      	add	sp, #332	; 0x14c
 8008418:	e8bd 8ff0 	ldmia.w	sp!, {r4, r5, r6, r7, r8, r9, sl, fp, pc}
 800841c:	ed9f 7bc8 	vldr	d7, [pc, #800]	; 8008740 <_vfprintf_r+0x400>
 8008420:	2300      	movs	r3, #0
 8008422:	e9cd 3327 	strd	r3, r3, [sp, #156]	; 0x9c
 8008426:	ed8d 7b0a 	vstr	d7, [sp, #40]	; 0x28
 800842a:	e9cd 3317 	strd	r3, r3, [sp, #92]	; 0x5c
 800842e:	ac29      	add	r4, sp, #164	; 0xa4
 8008430:	9426      	str	r4, [sp, #152]	; 0x98
 8008432:	9304      	str	r3, [sp, #16]
 8008434:	9308      	str	r3, [sp, #32]
 8008436:	9312      	str	r3, [sp, #72]	; 0x48
 8008438:	9319      	str	r3, [sp, #100]	; 0x64
 800843a:	930e      	str	r3, [sp, #56]	; 0x38
 800843c:	464d      	mov	r5, r9
 800843e:	462b      	mov	r3, r5
 8008440:	f813 2b01 	ldrb.w	r2, [r3], #1
 8008444:	b112      	cbz	r2, 800844c <_vfprintf_r+0x10c>
 8008446:	2a25      	cmp	r2, #37	; 0x25
 8008448:	f040 80e4 	bne.w	8008614 <_vfprintf_r+0x2d4>
 800844c:	ebb5 0709 	subs.w	r7, r5, r9
 8008450:	d00e      	beq.n	8008470 <_vfprintf_r+0x130>
 8008452:	9b28      	ldr	r3, [sp, #160]	; 0xa0
 8008454:	443b      	add	r3, r7
 8008456:	9328      	str	r3, [sp, #160]	; 0xa0
 8008458:	9b27      	ldr	r3, [sp, #156]	; 0x9c
 800845a:	3301      	adds	r3, #1
 800845c:	2b07      	cmp	r3, #7
 800845e:	e9c4 9700 	strd	r9, r7, [r4]
 8008462:	9327      	str	r3, [sp, #156]	; 0x9c
 8008464:	f300 80d8 	bgt.w	8008618 <_vfprintf_r+0x2d8>
 8008468:	3408      	adds	r4, #8
 800846a:	9b0e      	ldr	r3, [sp, #56]	; 0x38
 800846c:	443b      	add	r3, r7
 800846e:	930e      	str	r3, [sp, #56]	; 0x38
 8008470:	782b      	ldrb	r3, [r5, #0]
 8008472:	2b00      	cmp	r3, #0
 8008474:	f001 81c2 	beq.w	80097fc <_vfprintf_r+0x14bc>
 8008478:	1c6b      	adds	r3, r5, #1
 800847a:	930c      	str	r3, [sp, #48]	; 0x30
 800847c:	2300      	movs	r3, #0
 800847e:	f88d 307b 	strb.w	r3, [sp, #123]	; 0x7b
 8008482:	f04f 35ff 	mov.w	r5, #4294967295
 8008486:	930f      	str	r3, [sp, #60]	; 0x3c
 8008488:	469a      	mov	sl, r3
 800848a:	270a      	movs	r7, #10
 800848c:	9b0c      	ldr	r3, [sp, #48]	; 0x30
 800848e:	781b      	ldrb	r3, [r3, #0]
 8008490:	9306      	str	r3, [sp, #24]
 8008492:	9b0c      	ldr	r3, [sp, #48]	; 0x30
 8008494:	3301      	adds	r3, #1
 8008496:	930c      	str	r3, [sp, #48]	; 0x30
 8008498:	9b06      	ldr	r3, [sp, #24]
 800849a:	3b20      	subs	r3, #32
 800849c:	2b5a      	cmp	r3, #90	; 0x5a
 800849e:	f200 862f 	bhi.w	8009100 <_vfprintf_r+0xdc0>
 80084a2:	a201      	add	r2, pc, #4	; (adr r2, 80084a8 <_vfprintf_r+0x168>)
 80084a4:	f852 f023 	ldr.w	pc, [r2, r3, lsl #2]
 80084a8:	080086ab 	.word	0x080086ab
 80084ac:	08009101 	.word	0x08009101
 80084b0:	08009101 	.word	0x08009101
 80084b4:	080086bd 	.word	0x080086bd
 80084b8:	08009101 	.word	0x08009101
 80084bc:	08009101 	.word	0x08009101
 80084c0:	08009101 	.word	0x08009101
 80084c4:	08008671 	.word	0x08008671
 80084c8:	08009101 	.word	0x08009101
 80084cc:	08009101 	.word	0x08009101
 80084d0:	080086c3 	.word	0x080086c3
 80084d4:	080086db 	.word	0x080086db
 80084d8:	08009101 	.word	0x08009101
 80084dc:	080086d5 	.word	0x080086d5
 80084e0:	080086df 	.word	0x080086df
 80084e4:	08009101 	.word	0x08009101
 80084e8:	08008713 	.word	0x08008713
 80084ec:	08008719 	.word	0x08008719
 80084f0:	08008719 	.word	0x08008719
 80084f4:	08008719 	.word	0x08008719
 80084f8:	08008719 	.word	0x08008719
 80084fc:	08008719 	.word	0x08008719
 8008500:	08008719 	.word	0x08008719
 8008504:	08008719 	.word	0x08008719
 8008508:	08008719 	.word	0x08008719
 800850c:	08008719 	.word	0x08008719
 8008510:	08009101 	.word	0x08009101
 8008514:	08009101 	.word	0x08009101
 8008518:	08009101 	.word	0x08009101
 800851c:	08009101 	.word	0x08009101
 8008520:	08009101 	.word	0x08009101
 8008524:	08009101 	.word	0x08009101
 8008528:	08009101 	.word	0x08009101
 800852c:	08008817 	.word	0x08008817
 8008530:	08009101 	.word	0x08009101
 8008534:	08008781 	.word	0x08008781
 8008538:	080087a3 	.word	0x080087a3
 800853c:	08008817 	.word	0x08008817
 8008540:	08008817 	.word	0x08008817
 8008544:	08008817 	.word	0x08008817
 8008548:	08009101 	.word	0x08009101
 800854c:	08009101 	.word	0x08009101
 8008550:	08009101 	.word	0x08009101
 8008554:	08009101 	.word	0x08009101
 8008558:	08008739 	.word	0x08008739
 800855c:	08009101 	.word	0x08009101
 8008560:	08009101 	.word	0x08009101
 8008564:	08008cfd 	.word	0x08008cfd
 8008568:	08009101 	.word	0x08009101
 800856c:	08009101 	.word	0x08009101
 8008570:	08009101 	.word	0x08009101
 8008574:	08008d89 	.word	0x08008d89
 8008578:	08009101 	.word	0x08009101
 800857c:	08008f6d 	.word	0x08008f6d
 8008580:	08009101 	.word	0x08009101
 8008584:	08009101 	.word	0x08009101
 8008588:	08008631 	.word	0x08008631
 800858c:	08009101 	.word	0x08009101
 8008590:	08009101 	.word	0x08009101
 8008594:	08009101 	.word	0x08009101
 8008598:	08009101 	.word	0x08009101
 800859c:	08009101 	.word	0x08009101
 80085a0:	08009101 	.word	0x08009101
 80085a4:	08009101 	.word	0x08009101
 80085a8:	08009101 	.word	0x08009101
 80085ac:	08008817 	.word	0x08008817
 80085b0:	08009101 	.word	0x08009101
 80085b4:	08008781 	.word	0x08008781
 80085b8:	080087a7 	.word	0x080087a7
 80085bc:	08008817 	.word	0x08008817
 80085c0:	08008817 	.word	0x08008817
 80085c4:	08008817 	.word	0x08008817
 80085c8:	0800874d 	.word	0x0800874d
 80085cc:	080087a7 	.word	0x080087a7
 80085d0:	08008775 	.word	0x08008775
 80085d4:	08009101 	.word	0x08009101
 80085d8:	08008767 	.word	0x08008767
 80085dc:	08009101 	.word	0x08009101
 80085e0:	08008cb7 	.word	0x08008cb7
 80085e4:	08008d01 	.word	0x08008d01
 80085e8:	08008d69 	.word	0x08008d69
 80085ec:	08008775 	.word	0x08008775
 80085f0:	08009101 	.word	0x08009101
 80085f4:	08008d89 	.word	0x08008d89
 80085f8:	0800848d 	.word	0x0800848d
 80085fc:	08008f71 	.word	0x08008f71
 8008600:	08009101 	.word	0x08009101
 8008604:	08009101 	.word	0x08009101
 8008608:	08008faf 	.word	0x08008faf
 800860c:	08009101 	.word	0x08009101
 8008610:	0800848d 	.word	0x0800848d
 8008614:	461d      	mov	r5, r3
 8008616:	e712      	b.n	800843e <_vfprintf_r+0xfe>
 8008618:	aa26      	add	r2, sp, #152	; 0x98
 800861a:	4641      	mov	r1, r8
 800861c:	4658      	mov	r0, fp
 800861e:	f003 fff0 	bl	800c602 <__sprint_r>
 8008622:	2800      	cmp	r0, #0
 8008624:	f040 8161 	bne.w	80088ea <_vfprintf_r+0x5aa>
 8008628:	ac29      	add	r4, sp, #164	; 0xa4
 800862a:	e71e      	b.n	800846a <_vfprintf_r+0x12a>
 800862c:	461e      	mov	r6, r3
 800862e:	e72d      	b.n	800848c <_vfprintf_r+0x14c>
 8008630:	4b45      	ldr	r3, [pc, #276]	; (8008748 <_vfprintf_r+0x408>)
 8008632:	9318      	str	r3, [sp, #96]	; 0x60
 8008634:	f01a 0f20 	tst.w	sl, #32
 8008638:	f000 84bc 	beq.w	8008fb4 <_vfprintf_r+0xc74>
 800863c:	3607      	adds	r6, #7
 800863e:	f026 0607 	bic.w	r6, r6, #7
 8008642:	f106 0308 	add.w	r3, r6, #8
 8008646:	e9d6 6700 	ldrd	r6, r7, [r6]
 800864a:	9309      	str	r3, [sp, #36]	; 0x24
 800864c:	f01a 0f01 	tst.w	sl, #1
 8008650:	d00a      	beq.n	8008668 <_vfprintf_r+0x328>
 8008652:	ea56 0307 	orrs.w	r3, r6, r7
 8008656:	d007      	beq.n	8008668 <_vfprintf_r+0x328>
 8008658:	2330      	movs	r3, #48	; 0x30
 800865a:	f88d 307c 	strb.w	r3, [sp, #124]	; 0x7c
 800865e:	9b06      	ldr	r3, [sp, #24]
 8008660:	f88d 307d 	strb.w	r3, [sp, #125]	; 0x7d
 8008664:	f04a 0a02 	orr.w	sl, sl, #2
 8008668:	f42a 6a80 	bic.w	sl, sl, #1024	; 0x400
 800866c:	2302      	movs	r3, #2
 800866e:	e355      	b.n	8008d1c <_vfprintf_r+0x9dc>
 8008670:	4658      	mov	r0, fp
 8008672:	f002 fea1 	bl	800b3b8 <_localeconv_r>
 8008676:	6843      	ldr	r3, [r0, #4]
 8008678:	9319      	str	r3, [sp, #100]	; 0x64
 800867a:	4618      	mov	r0, r3
 800867c:	f7f7 fdc8 	bl	8000210 <strlen>
 8008680:	9012      	str	r0, [sp, #72]	; 0x48
 8008682:	4658      	mov	r0, fp
 8008684:	f002 fe98 	bl	800b3b8 <_localeconv_r>
 8008688:	6883      	ldr	r3, [r0, #8]
 800868a:	9308      	str	r3, [sp, #32]
 800868c:	9b12      	ldr	r3, [sp, #72]	; 0x48
 800868e:	2b00      	cmp	r3, #0
 8008690:	f43f aefc 	beq.w	800848c <_vfprintf_r+0x14c>
 8008694:	9b08      	ldr	r3, [sp, #32]
 8008696:	2b00      	cmp	r3, #0
 8008698:	f43f aef8 	beq.w	800848c <_vfprintf_r+0x14c>
 800869c:	781b      	ldrb	r3, [r3, #0]
 800869e:	2b00      	cmp	r3, #0
 80086a0:	f43f aef4 	beq.w	800848c <_vfprintf_r+0x14c>
 80086a4:	f44a 6a80 	orr.w	sl, sl, #1024	; 0x400
 80086a8:	e6f0      	b.n	800848c <_vfprintf_r+0x14c>
 80086aa:	f89d 307b 	ldrb.w	r3, [sp, #123]	; 0x7b
 80086ae:	2b00      	cmp	r3, #0
 80086b0:	f47f aeec 	bne.w	800848c <_vfprintf_r+0x14c>
 80086b4:	2320      	movs	r3, #32
 80086b6:	f88d 307b 	strb.w	r3, [sp, #123]	; 0x7b
 80086ba:	e6e7      	b.n	800848c <_vfprintf_r+0x14c>
 80086bc:	f04a 0a01 	orr.w	sl, sl, #1
 80086c0:	e6e4      	b.n	800848c <_vfprintf_r+0x14c>
 80086c2:	6832      	ldr	r2, [r6, #0]
 80086c4:	920f      	str	r2, [sp, #60]	; 0x3c
 80086c6:	2a00      	cmp	r2, #0
 80086c8:	f106 0304 	add.w	r3, r6, #4
 80086cc:	daae      	bge.n	800862c <_vfprintf_r+0x2ec>
 80086ce:	4252      	negs	r2, r2
 80086d0:	920f      	str	r2, [sp, #60]	; 0x3c
 80086d2:	461e      	mov	r6, r3
 80086d4:	f04a 0a04 	orr.w	sl, sl, #4
 80086d8:	e6d8      	b.n	800848c <_vfprintf_r+0x14c>
 80086da:	232b      	movs	r3, #43	; 0x2b
 80086dc:	e7eb      	b.n	80086b6 <_vfprintf_r+0x376>
 80086de:	9a0c      	ldr	r2, [sp, #48]	; 0x30
 80086e0:	9b0c      	ldr	r3, [sp, #48]	; 0x30
 80086e2:	7812      	ldrb	r2, [r2, #0]
 80086e4:	9206      	str	r2, [sp, #24]
 80086e6:	2a2a      	cmp	r2, #42	; 0x2a
 80086e8:	f103 0301 	add.w	r3, r3, #1
 80086ec:	d10f      	bne.n	800870e <_vfprintf_r+0x3ce>
 80086ee:	6835      	ldr	r5, [r6, #0]
 80086f0:	930c      	str	r3, [sp, #48]	; 0x30
 80086f2:	ea45 75e5 	orr.w	r5, r5, r5, asr #31
 80086f6:	3604      	adds	r6, #4
 80086f8:	e6c8      	b.n	800848c <_vfprintf_r+0x14c>
 80086fa:	fb07 2505 	mla	r5, r7, r5, r2
 80086fe:	f813 2b01 	ldrb.w	r2, [r3], #1
 8008702:	9206      	str	r2, [sp, #24]
 8008704:	9a06      	ldr	r2, [sp, #24]
 8008706:	3a30      	subs	r2, #48	; 0x30
 8008708:	2a09      	cmp	r2, #9
 800870a:	d9f6      	bls.n	80086fa <_vfprintf_r+0x3ba>
 800870c:	e6c3      	b.n	8008496 <_vfprintf_r+0x156>
 800870e:	2500      	movs	r5, #0
 8008710:	e7f8      	b.n	8008704 <_vfprintf_r+0x3c4>
 8008712:	f04a 0a80 	orr.w	sl, sl, #128	; 0x80
 8008716:	e6b9      	b.n	800848c <_vfprintf_r+0x14c>
 8008718:	2200      	movs	r2, #0
 800871a:	9b0c      	ldr	r3, [sp, #48]	; 0x30
 800871c:	920f      	str	r2, [sp, #60]	; 0x3c
 800871e:	9a06      	ldr	r2, [sp, #24]
 8008720:	990f      	ldr	r1, [sp, #60]	; 0x3c
 8008722:	3a30      	subs	r2, #48	; 0x30
 8008724:	fb07 2201 	mla	r2, r7, r1, r2
 8008728:	920f      	str	r2, [sp, #60]	; 0x3c
 800872a:	f813 2b01 	ldrb.w	r2, [r3], #1
 800872e:	9206      	str	r2, [sp, #24]
 8008730:	3a30      	subs	r2, #48	; 0x30
 8008732:	2a09      	cmp	r2, #9
 8008734:	d9f3      	bls.n	800871e <_vfprintf_r+0x3de>
 8008736:	e6ae      	b.n	8008496 <_vfprintf_r+0x156>
 8008738:	f04a 0a08 	orr.w	sl, sl, #8
 800873c:	e6a6      	b.n	800848c <_vfprintf_r+0x14c>
 800873e:	bf00      	nop
	...
 8008748:	0800d579 	.word	0x0800d579
 800874c:	9b0c      	ldr	r3, [sp, #48]	; 0x30
 800874e:	781b      	ldrb	r3, [r3, #0]
 8008750:	2b68      	cmp	r3, #104	; 0x68
 8008752:	bf01      	itttt	eq
 8008754:	9b0c      	ldreq	r3, [sp, #48]	; 0x30
 8008756:	3301      	addeq	r3, #1
 8008758:	930c      	streq	r3, [sp, #48]	; 0x30
 800875a:	f44a 7a00 	orreq.w	sl, sl, #512	; 0x200
 800875e:	bf18      	it	ne
 8008760:	f04a 0a40 	orrne.w	sl, sl, #64	; 0x40
 8008764:	e692      	b.n	800848c <_vfprintf_r+0x14c>
 8008766:	9b0c      	ldr	r3, [sp, #48]	; 0x30
 8008768:	781b      	ldrb	r3, [r3, #0]
 800876a:	2b6c      	cmp	r3, #108	; 0x6c
 800876c:	d105      	bne.n	800877a <_vfprintf_r+0x43a>
 800876e:	9b0c      	ldr	r3, [sp, #48]	; 0x30
 8008770:	3301      	adds	r3, #1
 8008772:	930c      	str	r3, [sp, #48]	; 0x30
 8008774:	f04a 0a20 	orr.w	sl, sl, #32
 8008778:	e688      	b.n	800848c <_vfprintf_r+0x14c>
 800877a:	f04a 0a10 	orr.w	sl, sl, #16
 800877e:	e685      	b.n	800848c <_vfprintf_r+0x14c>
 8008780:	1d33      	adds	r3, r6, #4
 8008782:	9309      	str	r3, [sp, #36]	; 0x24
 8008784:	2000      	movs	r0, #0
 8008786:	6833      	ldr	r3, [r6, #0]
 8008788:	f88d 30e4 	strb.w	r3, [sp, #228]	; 0xe4
 800878c:	f88d 007b 	strb.w	r0, [sp, #123]	; 0x7b
 8008790:	9003      	str	r0, [sp, #12]
 8008792:	2501      	movs	r5, #1
 8008794:	9010      	str	r0, [sp, #64]	; 0x40
 8008796:	4607      	mov	r7, r0
 8008798:	9007      	str	r0, [sp, #28]
 800879a:	4606      	mov	r6, r0
 800879c:	f10d 09e4 	add.w	r9, sp, #228	; 0xe4
 80087a0:	e30b      	b.n	8008dba <_vfprintf_r+0xa7a>
 80087a2:	f04a 0a10 	orr.w	sl, sl, #16
 80087a6:	f01a 0f20 	tst.w	sl, #32
 80087aa:	d021      	beq.n	80087f0 <_vfprintf_r+0x4b0>
 80087ac:	3607      	adds	r6, #7
 80087ae:	f026 0607 	bic.w	r6, r6, #7
 80087b2:	f106 0308 	add.w	r3, r6, #8
 80087b6:	e9d6 6700 	ldrd	r6, r7, [r6]
 80087ba:	9309      	str	r3, [sp, #36]	; 0x24
 80087bc:	2e00      	cmp	r6, #0
 80087be:	f177 0300 	sbcs.w	r3, r7, #0
 80087c2:	da06      	bge.n	80087d2 <_vfprintf_r+0x492>
 80087c4:	4276      	negs	r6, r6
 80087c6:	f04f 032d 	mov.w	r3, #45	; 0x2d
 80087ca:	eb67 0747 	sbc.w	r7, r7, r7, lsl #1
 80087ce:	f88d 307b 	strb.w	r3, [sp, #123]	; 0x7b
 80087d2:	1c6b      	adds	r3, r5, #1
 80087d4:	f040 8401 	bne.w	8008fda <_vfprintf_r+0xc9a>
 80087d8:	2f00      	cmp	r7, #0
 80087da:	bf08      	it	eq
 80087dc:	2e0a      	cmpeq	r6, #10
 80087de:	f080 8431 	bcs.w	8009044 <_vfprintf_r+0xd04>
 80087e2:	f50d 79a4 	add.w	r9, sp, #328	; 0x148
 80087e6:	3630      	adds	r6, #48	; 0x30
 80087e8:	f809 6d01 	strb.w	r6, [r9, #-1]!
 80087ec:	f000 bc18 	b.w	8009020 <_vfprintf_r+0xce0>
 80087f0:	1d33      	adds	r3, r6, #4
 80087f2:	f01a 0f10 	tst.w	sl, #16
 80087f6:	9309      	str	r3, [sp, #36]	; 0x24
 80087f8:	d002      	beq.n	8008800 <_vfprintf_r+0x4c0>
 80087fa:	6836      	ldr	r6, [r6, #0]
 80087fc:	17f7      	asrs	r7, r6, #31
 80087fe:	e7dd      	b.n	80087bc <_vfprintf_r+0x47c>
 8008800:	f01a 0f40 	tst.w	sl, #64	; 0x40
 8008804:	6836      	ldr	r6, [r6, #0]
 8008806:	d001      	beq.n	800880c <_vfprintf_r+0x4cc>
 8008808:	b236      	sxth	r6, r6
 800880a:	e7f7      	b.n	80087fc <_vfprintf_r+0x4bc>
 800880c:	f41a 7f00 	tst.w	sl, #512	; 0x200
 8008810:	bf18      	it	ne
 8008812:	b276      	sxtbne	r6, r6
 8008814:	e7f2      	b.n	80087fc <_vfprintf_r+0x4bc>
 8008816:	3607      	adds	r6, #7
 8008818:	f026 0607 	bic.w	r6, r6, #7
 800881c:	ed96 7b00 	vldr	d7, [r6]
 8008820:	f106 0308 	add.w	r3, r6, #8
 8008824:	ed8d 7b0a 	vstr	d7, [sp, #40]	; 0x28
 8008828:	9309      	str	r3, [sp, #36]	; 0x24
 800882a:	9b0a      	ldr	r3, [sp, #40]	; 0x28
 800882c:	931a      	str	r3, [sp, #104]	; 0x68
 800882e:	9b0b      	ldr	r3, [sp, #44]	; 0x2c
 8008830:	f023 4300 	bic.w	r3, r3, #2147483648	; 0x80000000
 8008834:	931b      	str	r3, [sp, #108]	; 0x6c
 8008836:	f04f 32ff 	mov.w	r2, #4294967295
 800883a:	4bb0      	ldr	r3, [pc, #704]	; (8008afc <_vfprintf_r+0x7bc>)
 800883c:	e9dd 011a 	ldrd	r0, r1, [sp, #104]	; 0x68
 8008840:	f7f8 f994 	bl	8000b6c <__aeabi_dcmpun>
 8008844:	b9f8      	cbnz	r0, 8008886 <_vfprintf_r+0x546>
 8008846:	f04f 32ff 	mov.w	r2, #4294967295
 800884a:	4bac      	ldr	r3, [pc, #688]	; (8008afc <_vfprintf_r+0x7bc>)
 800884c:	e9dd 011a 	ldrd	r0, r1, [sp, #104]	; 0x68
 8008850:	f7f8 f96e 	bl	8000b30 <__aeabi_dcmple>
 8008854:	b9b8      	cbnz	r0, 8008886 <_vfprintf_r+0x546>
 8008856:	2200      	movs	r2, #0
 8008858:	2300      	movs	r3, #0
 800885a:	e9dd 010a 	ldrd	r0, r1, [sp, #40]	; 0x28
 800885e:	f7f8 f95d 	bl	8000b1c <__aeabi_dcmplt>
 8008862:	b110      	cbz	r0, 800886a <_vfprintf_r+0x52a>
 8008864:	232d      	movs	r3, #45	; 0x2d
 8008866:	f88d 307b 	strb.w	r3, [sp, #123]	; 0x7b
 800886a:	4aa5      	ldr	r2, [pc, #660]	; (8008b00 <_vfprintf_r+0x7c0>)
 800886c:	4ba5      	ldr	r3, [pc, #660]	; (8008b04 <_vfprintf_r+0x7c4>)
 800886e:	9906      	ldr	r1, [sp, #24]
 8008870:	2947      	cmp	r1, #71	; 0x47
 8008872:	bfcc      	ite	gt
 8008874:	4691      	movgt	r9, r2
 8008876:	4699      	movle	r9, r3
 8008878:	2300      	movs	r3, #0
 800887a:	f02a 0a80 	bic.w	sl, sl, #128	; 0x80
 800887e:	9303      	str	r3, [sp, #12]
 8008880:	2503      	movs	r5, #3
 8008882:	9310      	str	r3, [sp, #64]	; 0x40
 8008884:	e3d2      	b.n	800902c <_vfprintf_r+0xcec>
 8008886:	e9dd 230a 	ldrd	r2, r3, [sp, #40]	; 0x28
 800888a:	4610      	mov	r0, r2
 800888c:	4619      	mov	r1, r3
 800888e:	f7f8 f96d 	bl	8000b6c <__aeabi_dcmpun>
 8008892:	b140      	cbz	r0, 80088a6 <_vfprintf_r+0x566>
 8008894:	9b0b      	ldr	r3, [sp, #44]	; 0x2c
 8008896:	4a9c      	ldr	r2, [pc, #624]	; (8008b08 <_vfprintf_r+0x7c8>)
 8008898:	2b00      	cmp	r3, #0
 800889a:	bfbc      	itt	lt
 800889c:	232d      	movlt	r3, #45	; 0x2d
 800889e:	f88d 307b 	strblt.w	r3, [sp, #123]	; 0x7b
 80088a2:	4b9a      	ldr	r3, [pc, #616]	; (8008b0c <_vfprintf_r+0x7cc>)
 80088a4:	e7e3      	b.n	800886e <_vfprintf_r+0x52e>
 80088a6:	9b06      	ldr	r3, [sp, #24]
 80088a8:	f023 0320 	bic.w	r3, r3, #32
 80088ac:	2b41      	cmp	r3, #65	; 0x41
 80088ae:	9307      	str	r3, [sp, #28]
 80088b0:	d12d      	bne.n	800890e <_vfprintf_r+0x5ce>
 80088b2:	2330      	movs	r3, #48	; 0x30
 80088b4:	f88d 307c 	strb.w	r3, [sp, #124]	; 0x7c
 80088b8:	9b06      	ldr	r3, [sp, #24]
 80088ba:	2b61      	cmp	r3, #97	; 0x61
 80088bc:	bf14      	ite	ne
 80088be:	2358      	movne	r3, #88	; 0x58
 80088c0:	2378      	moveq	r3, #120	; 0x78
 80088c2:	2d63      	cmp	r5, #99	; 0x63
 80088c4:	f88d 307d 	strb.w	r3, [sp, #125]	; 0x7d
 80088c8:	f04a 0a02 	orr.w	sl, sl, #2
 80088cc:	dd2a      	ble.n	8008924 <_vfprintf_r+0x5e4>
 80088ce:	1c69      	adds	r1, r5, #1
 80088d0:	4658      	mov	r0, fp
 80088d2:	f002 fdef 	bl	800b4b4 <_malloc_r>
 80088d6:	4681      	mov	r9, r0
 80088d8:	2800      	cmp	r0, #0
 80088da:	f040 8121 	bne.w	8008b20 <_vfprintf_r+0x7e0>
 80088de:	f8b8 300c 	ldrh.w	r3, [r8, #12]
 80088e2:	f043 0340 	orr.w	r3, r3, #64	; 0x40
 80088e6:	f8a8 300c 	strh.w	r3, [r8, #12]
 80088ea:	f8d8 3064 	ldr.w	r3, [r8, #100]	; 0x64
 80088ee:	07d8      	lsls	r0, r3, #31
 80088f0:	d407      	bmi.n	8008902 <_vfprintf_r+0x5c2>
 80088f2:	f8b8 300c 	ldrh.w	r3, [r8, #12]
 80088f6:	0599      	lsls	r1, r3, #22
 80088f8:	d403      	bmi.n	8008902 <_vfprintf_r+0x5c2>
 80088fa:	f8d8 0058 	ldr.w	r0, [r8, #88]	; 0x58
 80088fe:	f002 fd6c 	bl	800b3da <__retarget_lock_release_recursive>
 8008902:	f8b8 300c 	ldrh.w	r3, [r8, #12]
 8008906:	065a      	lsls	r2, r3, #25
 8008908:	f57f ad84 	bpl.w	8008414 <_vfprintf_r+0xd4>
 800890c:	e563      	b.n	80083d6 <_vfprintf_r+0x96>
 800890e:	1c6a      	adds	r2, r5, #1
 8008910:	f000 8108 	beq.w	8008b24 <_vfprintf_r+0x7e4>
 8008914:	9b07      	ldr	r3, [sp, #28]
 8008916:	2b47      	cmp	r3, #71	; 0x47
 8008918:	d102      	bne.n	8008920 <_vfprintf_r+0x5e0>
 800891a:	2d00      	cmp	r5, #0
 800891c:	f000 8105 	beq.w	8008b2a <_vfprintf_r+0x7ea>
 8008920:	9003      	str	r0, [sp, #12]
 8008922:	e002      	b.n	800892a <_vfprintf_r+0x5ea>
 8008924:	9003      	str	r0, [sp, #12]
 8008926:	f10d 09e4 	add.w	r9, sp, #228	; 0xe4
 800892a:	f44a 7380 	orr.w	r3, sl, #256	; 0x100
 800892e:	9310      	str	r3, [sp, #64]	; 0x40
 8008930:	9b0b      	ldr	r3, [sp, #44]	; 0x2c
 8008932:	2b00      	cmp	r3, #0
 8008934:	f280 80fc 	bge.w	8008b30 <_vfprintf_r+0x7f0>
 8008938:	9b0a      	ldr	r3, [sp, #40]	; 0x28
 800893a:	9314      	str	r3, [sp, #80]	; 0x50
 800893c:	9b0b      	ldr	r3, [sp, #44]	; 0x2c
 800893e:	f103 4300 	add.w	r3, r3, #2147483648	; 0x80000000
 8008942:	9315      	str	r3, [sp, #84]	; 0x54
 8008944:	232d      	movs	r3, #45	; 0x2d
 8008946:	9313      	str	r3, [sp, #76]	; 0x4c
 8008948:	9b07      	ldr	r3, [sp, #28]
 800894a:	2b41      	cmp	r3, #65	; 0x41
 800894c:	f040 8104 	bne.w	8008b58 <_vfprintf_r+0x818>
 8008950:	a820      	add	r0, sp, #128	; 0x80
 8008952:	ed9d 0b14 	vldr	d0, [sp, #80]	; 0x50
 8008956:	f003 fd97 	bl	800c488 <frexp>
 800895a:	2200      	movs	r2, #0
 800895c:	f04f 537f 	mov.w	r3, #1069547520	; 0x3fc00000
 8008960:	ec51 0b10 	vmov	r0, r1, d0
 8008964:	f7f7 fe68 	bl	8000638 <__aeabi_dmul>
 8008968:	2200      	movs	r2, #0
 800896a:	2300      	movs	r3, #0
 800896c:	e9cd 0104 	strd	r0, r1, [sp, #16]
 8008970:	f7f8 f8ca 	bl	8000b08 <__aeabi_dcmpeq>
 8008974:	b108      	cbz	r0, 800897a <_vfprintf_r+0x63a>
 8008976:	2301      	movs	r3, #1
 8008978:	9320      	str	r3, [sp, #128]	; 0x80
 800897a:	4f65      	ldr	r7, [pc, #404]	; (8008b10 <_vfprintf_r+0x7d0>)
 800897c:	4b65      	ldr	r3, [pc, #404]	; (8008b14 <_vfprintf_r+0x7d4>)
 800897e:	9a06      	ldr	r2, [sp, #24]
 8008980:	2a61      	cmp	r2, #97	; 0x61
 8008982:	bf08      	it	eq
 8008984:	461f      	moveq	r7, r3
 8008986:	9711      	str	r7, [sp, #68]	; 0x44
 8008988:	464e      	mov	r6, r9
 800898a:	1e6f      	subs	r7, r5, #1
 800898c:	2200      	movs	r2, #0
 800898e:	4b62      	ldr	r3, [pc, #392]	; (8008b18 <_vfprintf_r+0x7d8>)
 8008990:	e9dd 0104 	ldrd	r0, r1, [sp, #16]
 8008994:	f7f7 fe50 	bl	8000638 <__aeabi_dmul>
 8008998:	e9cd 0104 	strd	r0, r1, [sp, #16]
 800899c:	f7f8 f8fc 	bl	8000b98 <__aeabi_d2iz>
 80089a0:	901c      	str	r0, [sp, #112]	; 0x70
 80089a2:	f7f7 fddf 	bl	8000564 <__aeabi_i2d>
 80089a6:	4602      	mov	r2, r0
 80089a8:	460b      	mov	r3, r1
 80089aa:	e9dd 0104 	ldrd	r0, r1, [sp, #16]
 80089ae:	f7f7 fc8b 	bl	80002c8 <__aeabi_dsub>
 80089b2:	9b11      	ldr	r3, [sp, #68]	; 0x44
 80089b4:	9a1c      	ldr	r2, [sp, #112]	; 0x70
 80089b6:	971d      	str	r7, [sp, #116]	; 0x74
 80089b8:	5c9b      	ldrb	r3, [r3, r2]
 80089ba:	f806 3b01 	strb.w	r3, [r6], #1
 80089be:	1c7b      	adds	r3, r7, #1
 80089c0:	e9cd 0104 	strd	r0, r1, [sp, #16]
 80089c4:	d006      	beq.n	80089d4 <_vfprintf_r+0x694>
 80089c6:	2200      	movs	r2, #0
 80089c8:	2300      	movs	r3, #0
 80089ca:	3f01      	subs	r7, #1
 80089cc:	f7f8 f89c 	bl	8000b08 <__aeabi_dcmpeq>
 80089d0:	2800      	cmp	r0, #0
 80089d2:	d0db      	beq.n	800898c <_vfprintf_r+0x64c>
 80089d4:	2200      	movs	r2, #0
 80089d6:	4b51      	ldr	r3, [pc, #324]	; (8008b1c <_vfprintf_r+0x7dc>)
 80089d8:	e9dd 0104 	ldrd	r0, r1, [sp, #16]
 80089dc:	f7f8 f8bc 	bl	8000b58 <__aeabi_dcmpgt>
 80089e0:	b960      	cbnz	r0, 80089fc <_vfprintf_r+0x6bc>
 80089e2:	2200      	movs	r2, #0
 80089e4:	4b4d      	ldr	r3, [pc, #308]	; (8008b1c <_vfprintf_r+0x7dc>)
 80089e6:	e9dd 0104 	ldrd	r0, r1, [sp, #16]
 80089ea:	f7f8 f88d 	bl	8000b08 <__aeabi_dcmpeq>
 80089ee:	2800      	cmp	r0, #0
 80089f0:	f000 80ad 	beq.w	8008b4e <_vfprintf_r+0x80e>
 80089f4:	9b1c      	ldr	r3, [sp, #112]	; 0x70
 80089f6:	07df      	lsls	r7, r3, #31
 80089f8:	f140 80a9 	bpl.w	8008b4e <_vfprintf_r+0x80e>
 80089fc:	9b11      	ldr	r3, [sp, #68]	; 0x44
 80089fe:	9624      	str	r6, [sp, #144]	; 0x90
 8008a00:	7bd9      	ldrb	r1, [r3, #15]
 8008a02:	2030      	movs	r0, #48	; 0x30
 8008a04:	9a24      	ldr	r2, [sp, #144]	; 0x90
 8008a06:	1e53      	subs	r3, r2, #1
 8008a08:	9324      	str	r3, [sp, #144]	; 0x90
 8008a0a:	f812 3c01 	ldrb.w	r3, [r2, #-1]
 8008a0e:	428b      	cmp	r3, r1
 8008a10:	f000 8094 	beq.w	8008b3c <_vfprintf_r+0x7fc>
 8008a14:	2b39      	cmp	r3, #57	; 0x39
 8008a16:	bf0b      	itete	eq
 8008a18:	9b11      	ldreq	r3, [sp, #68]	; 0x44
 8008a1a:	3301      	addne	r3, #1
 8008a1c:	7a9b      	ldrbeq	r3, [r3, #10]
 8008a1e:	b2db      	uxtbne	r3, r3
 8008a20:	f802 3c01 	strb.w	r3, [r2, #-1]
 8008a24:	4633      	mov	r3, r6
 8008a26:	eba3 0309 	sub.w	r3, r3, r9
 8008a2a:	9304      	str	r3, [sp, #16]
 8008a2c:	9b07      	ldr	r3, [sp, #28]
 8008a2e:	9e20      	ldr	r6, [sp, #128]	; 0x80
 8008a30:	2b47      	cmp	r3, #71	; 0x47
 8008a32:	f040 80d6 	bne.w	8008be2 <_vfprintf_r+0x8a2>
 8008a36:	1cf0      	adds	r0, r6, #3
 8008a38:	db02      	blt.n	8008a40 <_vfprintf_r+0x700>
 8008a3a:	42b5      	cmp	r5, r6
 8008a3c:	f280 80fc 	bge.w	8008c38 <_vfprintf_r+0x8f8>
 8008a40:	9b06      	ldr	r3, [sp, #24]
 8008a42:	3b02      	subs	r3, #2
 8008a44:	9306      	str	r3, [sp, #24]
 8008a46:	9906      	ldr	r1, [sp, #24]
 8008a48:	f89d 2018 	ldrb.w	r2, [sp, #24]
 8008a4c:	f021 0120 	bic.w	r1, r1, #32
 8008a50:	2941      	cmp	r1, #65	; 0x41
 8008a52:	bf08      	it	eq
 8008a54:	320f      	addeq	r2, #15
 8008a56:	f106 33ff 	add.w	r3, r6, #4294967295
 8008a5a:	bf06      	itte	eq
 8008a5c:	b2d2      	uxtbeq	r2, r2
 8008a5e:	2101      	moveq	r1, #1
 8008a60:	2100      	movne	r1, #0
 8008a62:	2b00      	cmp	r3, #0
 8008a64:	9320      	str	r3, [sp, #128]	; 0x80
 8008a66:	bfb8      	it	lt
 8008a68:	f1c6 0301 	rsblt	r3, r6, #1
 8008a6c:	f88d 2088 	strb.w	r2, [sp, #136]	; 0x88
 8008a70:	bfb4      	ite	lt
 8008a72:	222d      	movlt	r2, #45	; 0x2d
 8008a74:	222b      	movge	r2, #43	; 0x2b
 8008a76:	2b09      	cmp	r3, #9
 8008a78:	f88d 2089 	strb.w	r2, [sp, #137]	; 0x89
 8008a7c:	f340 80c8 	ble.w	8008c10 <_vfprintf_r+0x8d0>
 8008a80:	f10d 0297 	add.w	r2, sp, #151	; 0x97
 8008a84:	250a      	movs	r5, #10
 8008a86:	fb93 f0f5 	sdiv	r0, r3, r5
 8008a8a:	fb05 3310 	mls	r3, r5, r0, r3
 8008a8e:	3330      	adds	r3, #48	; 0x30
 8008a90:	2809      	cmp	r0, #9
 8008a92:	f802 3c01 	strb.w	r3, [r2, #-1]
 8008a96:	f102 31ff 	add.w	r1, r2, #4294967295
 8008a9a:	4603      	mov	r3, r0
 8008a9c:	f300 80b1 	bgt.w	8008c02 <_vfprintf_r+0x8c2>
 8008aa0:	3330      	adds	r3, #48	; 0x30
 8008aa2:	f801 3c01 	strb.w	r3, [r1, #-1]
 8008aa6:	3a02      	subs	r2, #2
 8008aa8:	f10d 038a 	add.w	r3, sp, #138	; 0x8a
 8008aac:	f10d 0097 	add.w	r0, sp, #151	; 0x97
 8008ab0:	4282      	cmp	r2, r0
 8008ab2:	4619      	mov	r1, r3
 8008ab4:	f0c0 80a7 	bcc.w	8008c06 <_vfprintf_r+0x8c6>
 8008ab8:	9a04      	ldr	r2, [sp, #16]
 8008aba:	ab22      	add	r3, sp, #136	; 0x88
 8008abc:	1acb      	subs	r3, r1, r3
 8008abe:	2a01      	cmp	r2, #1
 8008ac0:	9317      	str	r3, [sp, #92]	; 0x5c
 8008ac2:	eb03 0502 	add.w	r5, r3, r2
 8008ac6:	dc02      	bgt.n	8008ace <_vfprintf_r+0x78e>
 8008ac8:	f01a 0f01 	tst.w	sl, #1
 8008acc:	d001      	beq.n	8008ad2 <_vfprintf_r+0x792>
 8008ace:	9b0d      	ldr	r3, [sp, #52]	; 0x34
 8008ad0:	441d      	add	r5, r3
 8008ad2:	f42a 6380 	bic.w	r3, sl, #1024	; 0x400
 8008ad6:	2700      	movs	r7, #0
 8008ad8:	f443 7380 	orr.w	r3, r3, #256	; 0x100
 8008adc:	9310      	str	r3, [sp, #64]	; 0x40
 8008ade:	9707      	str	r7, [sp, #28]
 8008ae0:	463e      	mov	r6, r7
 8008ae2:	9b13      	ldr	r3, [sp, #76]	; 0x4c
 8008ae4:	2b00      	cmp	r3, #0
 8008ae6:	f000 8317 	beq.w	8009118 <_vfprintf_r+0xdd8>
 8008aea:	232d      	movs	r3, #45	; 0x2d
 8008aec:	f8dd a040 	ldr.w	sl, [sp, #64]	; 0x40
 8008af0:	f88d 307b 	strb.w	r3, [sp, #123]	; 0x7b
 8008af4:	2300      	movs	r3, #0
 8008af6:	9310      	str	r3, [sp, #64]	; 0x40
 8008af8:	e15f      	b.n	8008dba <_vfprintf_r+0xa7a>
 8008afa:	bf00      	nop
 8008afc:	7fefffff 	.word	0x7fefffff
 8008b00:	0800d55c 	.word	0x0800d55c
 8008b04:	0800d558 	.word	0x0800d558
 8008b08:	0800d564 	.word	0x0800d564
 8008b0c:	0800d560 	.word	0x0800d560
 8008b10:	0800d579 	.word	0x0800d579
 8008b14:	0800d568 	.word	0x0800d568
 8008b18:	40300000 	.word	0x40300000
 8008b1c:	3fe00000 	.word	0x3fe00000
 8008b20:	9003      	str	r0, [sp, #12]
 8008b22:	e702      	b.n	800892a <_vfprintf_r+0x5ea>
 8008b24:	9003      	str	r0, [sp, #12]
 8008b26:	2506      	movs	r5, #6
 8008b28:	e6ff      	b.n	800892a <_vfprintf_r+0x5ea>
 8008b2a:	9503      	str	r5, [sp, #12]
 8008b2c:	2501      	movs	r5, #1
 8008b2e:	e6fc      	b.n	800892a <_vfprintf_r+0x5ea>
 8008b30:	ed9d 7b0a 	vldr	d7, [sp, #40]	; 0x28
 8008b34:	2300      	movs	r3, #0
 8008b36:	ed8d 7b14 	vstr	d7, [sp, #80]	; 0x50
 8008b3a:	e704      	b.n	8008946 <_vfprintf_r+0x606>
 8008b3c:	f802 0c01 	strb.w	r0, [r2, #-1]
 8008b40:	e760      	b.n	8008a04 <_vfprintf_r+0x6c4>
 8008b42:	f803 1b01 	strb.w	r1, [r3], #1
 8008b46:	1af2      	subs	r2, r6, r3
 8008b48:	2a00      	cmp	r2, #0
 8008b4a:	dafa      	bge.n	8008b42 <_vfprintf_r+0x802>
 8008b4c:	e76b      	b.n	8008a26 <_vfprintf_r+0x6e6>
 8008b4e:	9a1d      	ldr	r2, [sp, #116]	; 0x74
 8008b50:	4633      	mov	r3, r6
 8008b52:	2130      	movs	r1, #48	; 0x30
 8008b54:	4416      	add	r6, r2
 8008b56:	e7f6      	b.n	8008b46 <_vfprintf_r+0x806>
 8008b58:	9b07      	ldr	r3, [sp, #28]
 8008b5a:	2b46      	cmp	r3, #70	; 0x46
 8008b5c:	d004      	beq.n	8008b68 <_vfprintf_r+0x828>
 8008b5e:	2b45      	cmp	r3, #69	; 0x45
 8008b60:	d13a      	bne.n	8008bd8 <_vfprintf_r+0x898>
 8008b62:	1c6e      	adds	r6, r5, #1
 8008b64:	2102      	movs	r1, #2
 8008b66:	e001      	b.n	8008b6c <_vfprintf_r+0x82c>
 8008b68:	462e      	mov	r6, r5
 8008b6a:	2103      	movs	r1, #3
 8008b6c:	ab24      	add	r3, sp, #144	; 0x90
 8008b6e:	9301      	str	r3, [sp, #4]
 8008b70:	ab21      	add	r3, sp, #132	; 0x84
 8008b72:	9300      	str	r3, [sp, #0]
 8008b74:	4632      	mov	r2, r6
 8008b76:	ab20      	add	r3, sp, #128	; 0x80
 8008b78:	ed9d 0b14 	vldr	d0, [sp, #80]	; 0x50
 8008b7c:	4658      	mov	r0, fp
 8008b7e:	f000 ff87 	bl	8009a90 <_dtoa_r>
 8008b82:	9b07      	ldr	r3, [sp, #28]
 8008b84:	2b47      	cmp	r3, #71	; 0x47
 8008b86:	4681      	mov	r9, r0
 8008b88:	d102      	bne.n	8008b90 <_vfprintf_r+0x850>
 8008b8a:	f01a 0f01 	tst.w	sl, #1
 8008b8e:	d026      	beq.n	8008bde <_vfprintf_r+0x89e>
 8008b90:	9b07      	ldr	r3, [sp, #28]
 8008b92:	2b46      	cmp	r3, #70	; 0x46
 8008b94:	eb09 0706 	add.w	r7, r9, r6
 8008b98:	d10f      	bne.n	8008bba <_vfprintf_r+0x87a>
 8008b9a:	f899 3000 	ldrb.w	r3, [r9]
 8008b9e:	2b30      	cmp	r3, #48	; 0x30
 8008ba0:	d109      	bne.n	8008bb6 <_vfprintf_r+0x876>
 8008ba2:	2200      	movs	r2, #0
 8008ba4:	2300      	movs	r3, #0
 8008ba6:	e9dd 0114 	ldrd	r0, r1, [sp, #80]	; 0x50
 8008baa:	f7f7 ffad 	bl	8000b08 <__aeabi_dcmpeq>
 8008bae:	b910      	cbnz	r0, 8008bb6 <_vfprintf_r+0x876>
 8008bb0:	f1c6 0601 	rsb	r6, r6, #1
 8008bb4:	9620      	str	r6, [sp, #128]	; 0x80
 8008bb6:	9b20      	ldr	r3, [sp, #128]	; 0x80
 8008bb8:	441f      	add	r7, r3
 8008bba:	2200      	movs	r2, #0
 8008bbc:	2300      	movs	r3, #0
 8008bbe:	e9dd 0114 	ldrd	r0, r1, [sp, #80]	; 0x50
 8008bc2:	f7f7 ffa1 	bl	8000b08 <__aeabi_dcmpeq>
 8008bc6:	b948      	cbnz	r0, 8008bdc <_vfprintf_r+0x89c>
 8008bc8:	2230      	movs	r2, #48	; 0x30
 8008bca:	9b24      	ldr	r3, [sp, #144]	; 0x90
 8008bcc:	429f      	cmp	r7, r3
 8008bce:	d906      	bls.n	8008bde <_vfprintf_r+0x89e>
 8008bd0:	1c59      	adds	r1, r3, #1
 8008bd2:	9124      	str	r1, [sp, #144]	; 0x90
 8008bd4:	701a      	strb	r2, [r3, #0]
 8008bd6:	e7f8      	b.n	8008bca <_vfprintf_r+0x88a>
 8008bd8:	462e      	mov	r6, r5
 8008bda:	e7c3      	b.n	8008b64 <_vfprintf_r+0x824>
 8008bdc:	9724      	str	r7, [sp, #144]	; 0x90
 8008bde:	9b24      	ldr	r3, [sp, #144]	; 0x90
 8008be0:	e721      	b.n	8008a26 <_vfprintf_r+0x6e6>
 8008be2:	9b07      	ldr	r3, [sp, #28]
 8008be4:	2b46      	cmp	r3, #70	; 0x46
 8008be6:	f47f af2e 	bne.w	8008a46 <_vfprintf_r+0x706>
 8008bea:	2e00      	cmp	r6, #0
 8008bec:	dd1d      	ble.n	8008c2a <_vfprintf_r+0x8ea>
 8008bee:	b915      	cbnz	r5, 8008bf6 <_vfprintf_r+0x8b6>
 8008bf0:	f01a 0f01 	tst.w	sl, #1
 8008bf4:	d034      	beq.n	8008c60 <_vfprintf_r+0x920>
 8008bf6:	9b0d      	ldr	r3, [sp, #52]	; 0x34
 8008bf8:	18f3      	adds	r3, r6, r3
 8008bfa:	441d      	add	r5, r3
 8008bfc:	2366      	movs	r3, #102	; 0x66
 8008bfe:	9306      	str	r3, [sp, #24]
 8008c00:	e033      	b.n	8008c6a <_vfprintf_r+0x92a>
 8008c02:	460a      	mov	r2, r1
 8008c04:	e73f      	b.n	8008a86 <_vfprintf_r+0x746>
 8008c06:	f812 1b01 	ldrb.w	r1, [r2], #1
 8008c0a:	f803 1b01 	strb.w	r1, [r3], #1
 8008c0e:	e74f      	b.n	8008ab0 <_vfprintf_r+0x770>
 8008c10:	b941      	cbnz	r1, 8008c24 <_vfprintf_r+0x8e4>
 8008c12:	2230      	movs	r2, #48	; 0x30
 8008c14:	f88d 208a 	strb.w	r2, [sp, #138]	; 0x8a
 8008c18:	f10d 028b 	add.w	r2, sp, #139	; 0x8b
 8008c1c:	3330      	adds	r3, #48	; 0x30
 8008c1e:	1c51      	adds	r1, r2, #1
 8008c20:	7013      	strb	r3, [r2, #0]
 8008c22:	e749      	b.n	8008ab8 <_vfprintf_r+0x778>
 8008c24:	f10d 028a 	add.w	r2, sp, #138	; 0x8a
 8008c28:	e7f8      	b.n	8008c1c <_vfprintf_r+0x8dc>
 8008c2a:	b915      	cbnz	r5, 8008c32 <_vfprintf_r+0x8f2>
 8008c2c:	f01a 0f01 	tst.w	sl, #1
 8008c30:	d018      	beq.n	8008c64 <_vfprintf_r+0x924>
 8008c32:	9b0d      	ldr	r3, [sp, #52]	; 0x34
 8008c34:	3301      	adds	r3, #1
 8008c36:	e7e0      	b.n	8008bfa <_vfprintf_r+0x8ba>
 8008c38:	9b04      	ldr	r3, [sp, #16]
 8008c3a:	42b3      	cmp	r3, r6
 8008c3c:	dc06      	bgt.n	8008c4c <_vfprintf_r+0x90c>
 8008c3e:	f01a 0f01 	tst.w	sl, #1
 8008c42:	d025      	beq.n	8008c90 <_vfprintf_r+0x950>
 8008c44:	9b0d      	ldr	r3, [sp, #52]	; 0x34
 8008c46:	18f5      	adds	r5, r6, r3
 8008c48:	2367      	movs	r3, #103	; 0x67
 8008c4a:	e7d8      	b.n	8008bfe <_vfprintf_r+0x8be>
 8008c4c:	9b04      	ldr	r3, [sp, #16]
 8008c4e:	9a0d      	ldr	r2, [sp, #52]	; 0x34
 8008c50:	2e00      	cmp	r6, #0
 8008c52:	eb03 0502 	add.w	r5, r3, r2
 8008c56:	dcf7      	bgt.n	8008c48 <_vfprintf_r+0x908>
 8008c58:	f1c6 0301 	rsb	r3, r6, #1
 8008c5c:	441d      	add	r5, r3
 8008c5e:	e7f3      	b.n	8008c48 <_vfprintf_r+0x908>
 8008c60:	4635      	mov	r5, r6
 8008c62:	e7cb      	b.n	8008bfc <_vfprintf_r+0x8bc>
 8008c64:	2366      	movs	r3, #102	; 0x66
 8008c66:	9306      	str	r3, [sp, #24]
 8008c68:	2501      	movs	r5, #1
 8008c6a:	f41a 6380 	ands.w	r3, sl, #1024	; 0x400
 8008c6e:	9307      	str	r3, [sp, #28]
 8008c70:	d01f      	beq.n	8008cb2 <_vfprintf_r+0x972>
 8008c72:	2700      	movs	r7, #0
 8008c74:	2e00      	cmp	r6, #0
 8008c76:	9707      	str	r7, [sp, #28]
 8008c78:	f77f af33 	ble.w	8008ae2 <_vfprintf_r+0x7a2>
 8008c7c:	9b08      	ldr	r3, [sp, #32]
 8008c7e:	781b      	ldrb	r3, [r3, #0]
 8008c80:	2bff      	cmp	r3, #255	; 0xff
 8008c82:	d107      	bne.n	8008c94 <_vfprintf_r+0x954>
 8008c84:	9b07      	ldr	r3, [sp, #28]
 8008c86:	9a12      	ldr	r2, [sp, #72]	; 0x48
 8008c88:	443b      	add	r3, r7
 8008c8a:	fb02 5503 	mla	r5, r2, r3, r5
 8008c8e:	e728      	b.n	8008ae2 <_vfprintf_r+0x7a2>
 8008c90:	4635      	mov	r5, r6
 8008c92:	e7d9      	b.n	8008c48 <_vfprintf_r+0x908>
 8008c94:	42b3      	cmp	r3, r6
 8008c96:	daf5      	bge.n	8008c84 <_vfprintf_r+0x944>
 8008c98:	1af6      	subs	r6, r6, r3
 8008c9a:	9b08      	ldr	r3, [sp, #32]
 8008c9c:	785b      	ldrb	r3, [r3, #1]
 8008c9e:	b133      	cbz	r3, 8008cae <_vfprintf_r+0x96e>
 8008ca0:	9b07      	ldr	r3, [sp, #28]
 8008ca2:	3301      	adds	r3, #1
 8008ca4:	9307      	str	r3, [sp, #28]
 8008ca6:	9b08      	ldr	r3, [sp, #32]
 8008ca8:	3301      	adds	r3, #1
 8008caa:	9308      	str	r3, [sp, #32]
 8008cac:	e7e6      	b.n	8008c7c <_vfprintf_r+0x93c>
 8008cae:	3701      	adds	r7, #1
 8008cb0:	e7e4      	b.n	8008c7c <_vfprintf_r+0x93c>
 8008cb2:	9f07      	ldr	r7, [sp, #28]
 8008cb4:	e715      	b.n	8008ae2 <_vfprintf_r+0x7a2>
 8008cb6:	4632      	mov	r2, r6
 8008cb8:	f01a 0f20 	tst.w	sl, #32
 8008cbc:	f852 3b04 	ldr.w	r3, [r2], #4
 8008cc0:	9209      	str	r2, [sp, #36]	; 0x24
 8008cc2:	d009      	beq.n	8008cd8 <_vfprintf_r+0x998>
 8008cc4:	9a0e      	ldr	r2, [sp, #56]	; 0x38
 8008cc6:	4610      	mov	r0, r2
 8008cc8:	17d1      	asrs	r1, r2, #31
 8008cca:	e9c3 0100 	strd	r0, r1, [r3]
 8008cce:	9e09      	ldr	r6, [sp, #36]	; 0x24
 8008cd0:	f8dd 9030 	ldr.w	r9, [sp, #48]	; 0x30
 8008cd4:	f7ff bbb2 	b.w	800843c <_vfprintf_r+0xfc>
 8008cd8:	f01a 0f10 	tst.w	sl, #16
 8008cdc:	d002      	beq.n	8008ce4 <_vfprintf_r+0x9a4>
 8008cde:	9a0e      	ldr	r2, [sp, #56]	; 0x38
 8008ce0:	601a      	str	r2, [r3, #0]
 8008ce2:	e7f4      	b.n	8008cce <_vfprintf_r+0x98e>
 8008ce4:	f01a 0f40 	tst.w	sl, #64	; 0x40
 8008ce8:	d002      	beq.n	8008cf0 <_vfprintf_r+0x9b0>
 8008cea:	9a0e      	ldr	r2, [sp, #56]	; 0x38
 8008cec:	801a      	strh	r2, [r3, #0]
 8008cee:	e7ee      	b.n	8008cce <_vfprintf_r+0x98e>
 8008cf0:	f41a 7f00 	tst.w	sl, #512	; 0x200
 8008cf4:	d0f3      	beq.n	8008cde <_vfprintf_r+0x99e>
 8008cf6:	9a0e      	ldr	r2, [sp, #56]	; 0x38
 8008cf8:	701a      	strb	r2, [r3, #0]
 8008cfa:	e7e8      	b.n	8008cce <_vfprintf_r+0x98e>
 8008cfc:	f04a 0a10 	orr.w	sl, sl, #16
 8008d00:	f01a 0f20 	tst.w	sl, #32
 8008d04:	d01e      	beq.n	8008d44 <_vfprintf_r+0xa04>
 8008d06:	3607      	adds	r6, #7
 8008d08:	f026 0607 	bic.w	r6, r6, #7
 8008d0c:	f106 0308 	add.w	r3, r6, #8
 8008d10:	e9d6 6700 	ldrd	r6, r7, [r6]
 8008d14:	9309      	str	r3, [sp, #36]	; 0x24
 8008d16:	f42a 6a80 	bic.w	sl, sl, #1024	; 0x400
 8008d1a:	2300      	movs	r3, #0
 8008d1c:	2200      	movs	r2, #0
 8008d1e:	f88d 207b 	strb.w	r2, [sp, #123]	; 0x7b
 8008d22:	1c6a      	adds	r2, r5, #1
 8008d24:	f000 815c 	beq.w	8008fe0 <_vfprintf_r+0xca0>
 8008d28:	4652      	mov	r2, sl
 8008d2a:	ea56 0107 	orrs.w	r1, r6, r7
 8008d2e:	f02a 0a80 	bic.w	sl, sl, #128	; 0x80
 8008d32:	f040 8155 	bne.w	8008fe0 <_vfprintf_r+0xca0>
 8008d36:	2d00      	cmp	r5, #0
 8008d38:	f000 81d8 	beq.w	80090ec <_vfprintf_r+0xdac>
 8008d3c:	2b01      	cmp	r3, #1
 8008d3e:	f040 8152 	bne.w	8008fe6 <_vfprintf_r+0xca6>
 8008d42:	e54e      	b.n	80087e2 <_vfprintf_r+0x4a2>
 8008d44:	1d33      	adds	r3, r6, #4
 8008d46:	f01a 0f10 	tst.w	sl, #16
 8008d4a:	9309      	str	r3, [sp, #36]	; 0x24
 8008d4c:	d001      	beq.n	8008d52 <_vfprintf_r+0xa12>
 8008d4e:	6836      	ldr	r6, [r6, #0]
 8008d50:	e003      	b.n	8008d5a <_vfprintf_r+0xa1a>
 8008d52:	f01a 0f40 	tst.w	sl, #64	; 0x40
 8008d56:	d002      	beq.n	8008d5e <_vfprintf_r+0xa1e>
 8008d58:	8836      	ldrh	r6, [r6, #0]
 8008d5a:	2700      	movs	r7, #0
 8008d5c:	e7db      	b.n	8008d16 <_vfprintf_r+0x9d6>
 8008d5e:	f41a 7f00 	tst.w	sl, #512	; 0x200
 8008d62:	d0f4      	beq.n	8008d4e <_vfprintf_r+0xa0e>
 8008d64:	7836      	ldrb	r6, [r6, #0]
 8008d66:	e7f8      	b.n	8008d5a <_vfprintf_r+0xa1a>
 8008d68:	1d33      	adds	r3, r6, #4
 8008d6a:	9309      	str	r3, [sp, #36]	; 0x24
 8008d6c:	f647 0330 	movw	r3, #30768	; 0x7830
 8008d70:	f8ad 307c 	strh.w	r3, [sp, #124]	; 0x7c
 8008d74:	2278      	movs	r2, #120	; 0x78
 8008d76:	4bb0      	ldr	r3, [pc, #704]	; (8009038 <_vfprintf_r+0xcf8>)
 8008d78:	9318      	str	r3, [sp, #96]	; 0x60
 8008d7a:	6836      	ldr	r6, [r6, #0]
 8008d7c:	9206      	str	r2, [sp, #24]
 8008d7e:	2700      	movs	r7, #0
 8008d80:	f04a 0a02 	orr.w	sl, sl, #2
 8008d84:	2302      	movs	r3, #2
 8008d86:	e7c9      	b.n	8008d1c <_vfprintf_r+0x9dc>
 8008d88:	1d33      	adds	r3, r6, #4
 8008d8a:	f8d6 9000 	ldr.w	r9, [r6]
 8008d8e:	9309      	str	r3, [sp, #36]	; 0x24
 8008d90:	2600      	movs	r6, #0
 8008d92:	1c69      	adds	r1, r5, #1
 8008d94:	f88d 607b 	strb.w	r6, [sp, #123]	; 0x7b
 8008d98:	f000 80e1 	beq.w	8008f5e <_vfprintf_r+0xc1e>
 8008d9c:	462a      	mov	r2, r5
 8008d9e:	4631      	mov	r1, r6
 8008da0:	4648      	mov	r0, r9
 8008da2:	f7f7 fa3d 	bl	8000220 <memchr>
 8008da6:	9003      	str	r0, [sp, #12]
 8008da8:	2800      	cmp	r0, #0
 8008daa:	f000 81b9 	beq.w	8009120 <_vfprintf_r+0xde0>
 8008dae:	eba0 0509 	sub.w	r5, r0, r9
 8008db2:	9603      	str	r6, [sp, #12]
 8008db4:	9610      	str	r6, [sp, #64]	; 0x40
 8008db6:	4637      	mov	r7, r6
 8008db8:	9607      	str	r6, [sp, #28]
 8008dba:	9b10      	ldr	r3, [sp, #64]	; 0x40
 8008dbc:	42ab      	cmp	r3, r5
 8008dbe:	bfb8      	it	lt
 8008dc0:	462b      	movlt	r3, r5
 8008dc2:	9311      	str	r3, [sp, #68]	; 0x44
 8008dc4:	f89d 307b 	ldrb.w	r3, [sp, #123]	; 0x7b
 8008dc8:	b113      	cbz	r3, 8008dd0 <_vfprintf_r+0xa90>
 8008dca:	9b11      	ldr	r3, [sp, #68]	; 0x44
 8008dcc:	3301      	adds	r3, #1
 8008dce:	9311      	str	r3, [sp, #68]	; 0x44
 8008dd0:	f01a 0302 	ands.w	r3, sl, #2
 8008dd4:	931c      	str	r3, [sp, #112]	; 0x70
 8008dd6:	bf1e      	ittt	ne
 8008dd8:	9b11      	ldrne	r3, [sp, #68]	; 0x44
 8008dda:	3302      	addne	r3, #2
 8008ddc:	9311      	strne	r3, [sp, #68]	; 0x44
 8008dde:	f01a 0384 	ands.w	r3, sl, #132	; 0x84
 8008de2:	931d      	str	r3, [sp, #116]	; 0x74
 8008de4:	d122      	bne.n	8008e2c <_vfprintf_r+0xaec>
 8008de6:	9b0f      	ldr	r3, [sp, #60]	; 0x3c
 8008de8:	9a11      	ldr	r2, [sp, #68]	; 0x44
 8008dea:	1a9b      	subs	r3, r3, r2
 8008dec:	2b00      	cmp	r3, #0
 8008dee:	9313      	str	r3, [sp, #76]	; 0x4c
 8008df0:	dd1c      	ble.n	8008e2c <_vfprintf_r+0xaec>
 8008df2:	9813      	ldr	r0, [sp, #76]	; 0x4c
 8008df4:	e9dd 2327 	ldrd	r2, r3, [sp, #156]	; 0x9c
 8008df8:	2810      	cmp	r0, #16
 8008dfa:	4890      	ldr	r0, [pc, #576]	; (800903c <_vfprintf_r+0xcfc>)
 8008dfc:	6020      	str	r0, [r4, #0]
 8008dfe:	f102 0201 	add.w	r2, r2, #1
 8008e02:	f104 0108 	add.w	r1, r4, #8
 8008e06:	f300 818e 	bgt.w	8009126 <_vfprintf_r+0xde6>
 8008e0a:	9813      	ldr	r0, [sp, #76]	; 0x4c
 8008e0c:	6060      	str	r0, [r4, #4]
 8008e0e:	4403      	add	r3, r0
 8008e10:	2a07      	cmp	r2, #7
 8008e12:	e9cd 2327 	strd	r2, r3, [sp, #156]	; 0x9c
 8008e16:	f340 819b 	ble.w	8009150 <_vfprintf_r+0xe10>
 8008e1a:	aa26      	add	r2, sp, #152	; 0x98
 8008e1c:	4641      	mov	r1, r8
 8008e1e:	4658      	mov	r0, fp
 8008e20:	f003 fbef 	bl	800c602 <__sprint_r>
 8008e24:	2800      	cmp	r0, #0
 8008e26:	f040 84c7 	bne.w	80097b8 <_vfprintf_r+0x1478>
 8008e2a:	ac29      	add	r4, sp, #164	; 0xa4
 8008e2c:	f89d 307b 	ldrb.w	r3, [sp, #123]	; 0x7b
 8008e30:	b173      	cbz	r3, 8008e50 <_vfprintf_r+0xb10>
 8008e32:	f10d 037b 	add.w	r3, sp, #123	; 0x7b
 8008e36:	6023      	str	r3, [r4, #0]
 8008e38:	2301      	movs	r3, #1
 8008e3a:	6063      	str	r3, [r4, #4]
 8008e3c:	9b28      	ldr	r3, [sp, #160]	; 0xa0
 8008e3e:	3301      	adds	r3, #1
 8008e40:	9328      	str	r3, [sp, #160]	; 0xa0
 8008e42:	9b27      	ldr	r3, [sp, #156]	; 0x9c
 8008e44:	3301      	adds	r3, #1
 8008e46:	2b07      	cmp	r3, #7
 8008e48:	9327      	str	r3, [sp, #156]	; 0x9c
 8008e4a:	f300 8183 	bgt.w	8009154 <_vfprintf_r+0xe14>
 8008e4e:	3408      	adds	r4, #8
 8008e50:	9b1c      	ldr	r3, [sp, #112]	; 0x70
 8008e52:	b16b      	cbz	r3, 8008e70 <_vfprintf_r+0xb30>
 8008e54:	ab1f      	add	r3, sp, #124	; 0x7c
 8008e56:	6023      	str	r3, [r4, #0]
 8008e58:	2302      	movs	r3, #2
 8008e5a:	6063      	str	r3, [r4, #4]
 8008e5c:	9b28      	ldr	r3, [sp, #160]	; 0xa0
 8008e5e:	3302      	adds	r3, #2
 8008e60:	9328      	str	r3, [sp, #160]	; 0xa0
 8008e62:	9b27      	ldr	r3, [sp, #156]	; 0x9c
 8008e64:	3301      	adds	r3, #1
 8008e66:	2b07      	cmp	r3, #7
 8008e68:	9327      	str	r3, [sp, #156]	; 0x9c
 8008e6a:	f300 817d 	bgt.w	8009168 <_vfprintf_r+0xe28>
 8008e6e:	3408      	adds	r4, #8
 8008e70:	9b1d      	ldr	r3, [sp, #116]	; 0x74
 8008e72:	2b80      	cmp	r3, #128	; 0x80
 8008e74:	d122      	bne.n	8008ebc <_vfprintf_r+0xb7c>
 8008e76:	9b0f      	ldr	r3, [sp, #60]	; 0x3c
 8008e78:	9a11      	ldr	r2, [sp, #68]	; 0x44
 8008e7a:	1a9b      	subs	r3, r3, r2
 8008e7c:	2b00      	cmp	r3, #0
 8008e7e:	9313      	str	r3, [sp, #76]	; 0x4c
 8008e80:	dd1c      	ble.n	8008ebc <_vfprintf_r+0xb7c>
 8008e82:	9813      	ldr	r0, [sp, #76]	; 0x4c
 8008e84:	e9dd 2327 	ldrd	r2, r3, [sp, #156]	; 0x9c
 8008e88:	2810      	cmp	r0, #16
 8008e8a:	486d      	ldr	r0, [pc, #436]	; (8009040 <_vfprintf_r+0xd00>)
 8008e8c:	6020      	str	r0, [r4, #0]
 8008e8e:	f102 0201 	add.w	r2, r2, #1
 8008e92:	f104 0108 	add.w	r1, r4, #8
 8008e96:	f300 8171 	bgt.w	800917c <_vfprintf_r+0xe3c>
 8008e9a:	9813      	ldr	r0, [sp, #76]	; 0x4c
 8008e9c:	6060      	str	r0, [r4, #4]
 8008e9e:	4403      	add	r3, r0
 8008ea0:	2a07      	cmp	r2, #7
 8008ea2:	e9cd 2327 	strd	r2, r3, [sp, #156]	; 0x9c
 8008ea6:	f340 817e 	ble.w	80091a6 <_vfprintf_r+0xe66>
 8008eaa:	aa26      	add	r2, sp, #152	; 0x98
 8008eac:	4641      	mov	r1, r8
 8008eae:	4658      	mov	r0, fp
 8008eb0:	f003 fba7 	bl	800c602 <__sprint_r>
 8008eb4:	2800      	cmp	r0, #0
 8008eb6:	f040 847f 	bne.w	80097b8 <_vfprintf_r+0x1478>
 8008eba:	ac29      	add	r4, sp, #164	; 0xa4
 8008ebc:	9b10      	ldr	r3, [sp, #64]	; 0x40
 8008ebe:	1b5b      	subs	r3, r3, r5
 8008ec0:	2b00      	cmp	r3, #0
 8008ec2:	9310      	str	r3, [sp, #64]	; 0x40
 8008ec4:	dd1c      	ble.n	8008f00 <_vfprintf_r+0xbc0>
 8008ec6:	9810      	ldr	r0, [sp, #64]	; 0x40
 8008ec8:	e9dd 2327 	ldrd	r2, r3, [sp, #156]	; 0x9c
 8008ecc:	2810      	cmp	r0, #16
 8008ece:	485c      	ldr	r0, [pc, #368]	; (8009040 <_vfprintf_r+0xd00>)
 8008ed0:	6020      	str	r0, [r4, #0]
 8008ed2:	f102 0201 	add.w	r2, r2, #1
 8008ed6:	f104 0108 	add.w	r1, r4, #8
 8008eda:	f300 8166 	bgt.w	80091aa <_vfprintf_r+0xe6a>
 8008ede:	9810      	ldr	r0, [sp, #64]	; 0x40
 8008ee0:	6060      	str	r0, [r4, #4]
 8008ee2:	4403      	add	r3, r0
 8008ee4:	2a07      	cmp	r2, #7
 8008ee6:	e9cd 2327 	strd	r2, r3, [sp, #156]	; 0x9c
 8008eea:	f340 8173 	ble.w	80091d4 <_vfprintf_r+0xe94>
 8008eee:	aa26      	add	r2, sp, #152	; 0x98
 8008ef0:	4641      	mov	r1, r8
 8008ef2:	4658      	mov	r0, fp
 8008ef4:	f003 fb85 	bl	800c602 <__sprint_r>
 8008ef8:	2800      	cmp	r0, #0
 8008efa:	f040 845d 	bne.w	80097b8 <_vfprintf_r+0x1478>
 8008efe:	ac29      	add	r4, sp, #164	; 0xa4
 8008f00:	9b28      	ldr	r3, [sp, #160]	; 0xa0
 8008f02:	9310      	str	r3, [sp, #64]	; 0x40
 8008f04:	f41a 7f80 	tst.w	sl, #256	; 0x100
 8008f08:	f040 8166 	bne.w	80091d8 <_vfprintf_r+0xe98>
 8008f0c:	e9c4 9500 	strd	r9, r5, [r4]
 8008f10:	441d      	add	r5, r3
 8008f12:	9528      	str	r5, [sp, #160]	; 0xa0
 8008f14:	9b27      	ldr	r3, [sp, #156]	; 0x9c
 8008f16:	3301      	adds	r3, #1
 8008f18:	2b07      	cmp	r3, #7
 8008f1a:	9327      	str	r3, [sp, #156]	; 0x9c
 8008f1c:	f300 81a2 	bgt.w	8009264 <_vfprintf_r+0xf24>
 8008f20:	3408      	adds	r4, #8
 8008f22:	f01a 0f04 	tst.w	sl, #4
 8008f26:	f040 8429 	bne.w	800977c <_vfprintf_r+0x143c>
 8008f2a:	e9dd 320e 	ldrd	r3, r2, [sp, #56]	; 0x38
 8008f2e:	9911      	ldr	r1, [sp, #68]	; 0x44
 8008f30:	428a      	cmp	r2, r1
 8008f32:	bfac      	ite	ge
 8008f34:	189b      	addge	r3, r3, r2
 8008f36:	185b      	addlt	r3, r3, r1
 8008f38:	930e      	str	r3, [sp, #56]	; 0x38
 8008f3a:	9b28      	ldr	r3, [sp, #160]	; 0xa0
 8008f3c:	b13b      	cbz	r3, 8008f4e <_vfprintf_r+0xc0e>
 8008f3e:	aa26      	add	r2, sp, #152	; 0x98
 8008f40:	4641      	mov	r1, r8
 8008f42:	4658      	mov	r0, fp
 8008f44:	f003 fb5d 	bl	800c602 <__sprint_r>
 8008f48:	2800      	cmp	r0, #0
 8008f4a:	f040 8435 	bne.w	80097b8 <_vfprintf_r+0x1478>
 8008f4e:	2300      	movs	r3, #0
 8008f50:	9327      	str	r3, [sp, #156]	; 0x9c
 8008f52:	9b03      	ldr	r3, [sp, #12]
 8008f54:	2b00      	cmp	r3, #0
 8008f56:	f040 844b 	bne.w	80097f0 <_vfprintf_r+0x14b0>
 8008f5a:	ac29      	add	r4, sp, #164	; 0xa4
 8008f5c:	e6b7      	b.n	8008cce <_vfprintf_r+0x98e>
 8008f5e:	4648      	mov	r0, r9
 8008f60:	f7f7 f956 	bl	8000210 <strlen>
 8008f64:	9603      	str	r6, [sp, #12]
 8008f66:	4605      	mov	r5, r0
 8008f68:	4633      	mov	r3, r6
 8008f6a:	e48a      	b.n	8008882 <_vfprintf_r+0x542>
 8008f6c:	f04a 0a10 	orr.w	sl, sl, #16
 8008f70:	f01a 0f20 	tst.w	sl, #32
 8008f74:	d009      	beq.n	8008f8a <_vfprintf_r+0xc4a>
 8008f76:	3607      	adds	r6, #7
 8008f78:	f026 0607 	bic.w	r6, r6, #7
 8008f7c:	f106 0308 	add.w	r3, r6, #8
 8008f80:	e9d6 6700 	ldrd	r6, r7, [r6]
 8008f84:	9309      	str	r3, [sp, #36]	; 0x24
 8008f86:	2301      	movs	r3, #1
 8008f88:	e6c8      	b.n	8008d1c <_vfprintf_r+0x9dc>
 8008f8a:	1d33      	adds	r3, r6, #4
 8008f8c:	f01a 0f10 	tst.w	sl, #16
 8008f90:	9309      	str	r3, [sp, #36]	; 0x24
 8008f92:	d001      	beq.n	8008f98 <_vfprintf_r+0xc58>
 8008f94:	6836      	ldr	r6, [r6, #0]
 8008f96:	e003      	b.n	8008fa0 <_vfprintf_r+0xc60>
 8008f98:	f01a 0f40 	tst.w	sl, #64	; 0x40
 8008f9c:	d002      	beq.n	8008fa4 <_vfprintf_r+0xc64>
 8008f9e:	8836      	ldrh	r6, [r6, #0]
 8008fa0:	2700      	movs	r7, #0
 8008fa2:	e7f0      	b.n	8008f86 <_vfprintf_r+0xc46>
 8008fa4:	f41a 7f00 	tst.w	sl, #512	; 0x200
 8008fa8:	d0f4      	beq.n	8008f94 <_vfprintf_r+0xc54>
 8008faa:	7836      	ldrb	r6, [r6, #0]
 8008fac:	e7f8      	b.n	8008fa0 <_vfprintf_r+0xc60>
 8008fae:	4b22      	ldr	r3, [pc, #136]	; (8009038 <_vfprintf_r+0xcf8>)
 8008fb0:	f7ff bb3f 	b.w	8008632 <_vfprintf_r+0x2f2>
 8008fb4:	1d33      	adds	r3, r6, #4
 8008fb6:	f01a 0f10 	tst.w	sl, #16
 8008fba:	9309      	str	r3, [sp, #36]	; 0x24
 8008fbc:	d001      	beq.n	8008fc2 <_vfprintf_r+0xc82>
 8008fbe:	6836      	ldr	r6, [r6, #0]
 8008fc0:	e003      	b.n	8008fca <_vfprintf_r+0xc8a>
 8008fc2:	f01a 0f40 	tst.w	sl, #64	; 0x40
 8008fc6:	d003      	beq.n	8008fd0 <_vfprintf_r+0xc90>
 8008fc8:	8836      	ldrh	r6, [r6, #0]
 8008fca:	2700      	movs	r7, #0
 8008fcc:	f7ff bb3e 	b.w	800864c <_vfprintf_r+0x30c>
 8008fd0:	f41a 7f00 	tst.w	sl, #512	; 0x200
 8008fd4:	d0f3      	beq.n	8008fbe <_vfprintf_r+0xc7e>
 8008fd6:	7836      	ldrb	r6, [r6, #0]
 8008fd8:	e7f7      	b.n	8008fca <_vfprintf_r+0xc8a>
 8008fda:	4652      	mov	r2, sl
 8008fdc:	2301      	movs	r3, #1
 8008fde:	e6a4      	b.n	8008d2a <_vfprintf_r+0x9ea>
 8008fe0:	2b01      	cmp	r3, #1
 8008fe2:	f43f abf9 	beq.w	80087d8 <_vfprintf_r+0x498>
 8008fe6:	2b02      	cmp	r3, #2
 8008fe8:	d06e      	beq.n	80090c8 <_vfprintf_r+0xd88>
 8008fea:	ab52      	add	r3, sp, #328	; 0x148
 8008fec:	08f1      	lsrs	r1, r6, #3
 8008fee:	ea41 7147 	orr.w	r1, r1, r7, lsl #29
 8008ff2:	08f8      	lsrs	r0, r7, #3
 8008ff4:	f006 0207 	and.w	r2, r6, #7
 8008ff8:	4607      	mov	r7, r0
 8008ffa:	460e      	mov	r6, r1
 8008ffc:	3230      	adds	r2, #48	; 0x30
 8008ffe:	ea56 0107 	orrs.w	r1, r6, r7
 8009002:	f103 39ff 	add.w	r9, r3, #4294967295
 8009006:	f803 2c01 	strb.w	r2, [r3, #-1]
 800900a:	d113      	bne.n	8009034 <_vfprintf_r+0xcf4>
 800900c:	f01a 0f01 	tst.w	sl, #1
 8009010:	d006      	beq.n	8009020 <_vfprintf_r+0xce0>
 8009012:	2a30      	cmp	r2, #48	; 0x30
 8009014:	d004      	beq.n	8009020 <_vfprintf_r+0xce0>
 8009016:	2230      	movs	r2, #48	; 0x30
 8009018:	f809 2c01 	strb.w	r2, [r9, #-1]
 800901c:	f1a3 0902 	sub.w	r9, r3, #2
 8009020:	ab52      	add	r3, sp, #328	; 0x148
 8009022:	9510      	str	r5, [sp, #64]	; 0x40
 8009024:	eba3 0509 	sub.w	r5, r3, r9
 8009028:	2300      	movs	r3, #0
 800902a:	9303      	str	r3, [sp, #12]
 800902c:	461f      	mov	r7, r3
 800902e:	9307      	str	r3, [sp, #28]
 8009030:	461e      	mov	r6, r3
 8009032:	e6c2      	b.n	8008dba <_vfprintf_r+0xa7a>
 8009034:	464b      	mov	r3, r9
 8009036:	e7d9      	b.n	8008fec <_vfprintf_r+0xcac>
 8009038:	0800d568 	.word	0x0800d568
 800903c:	0800d58a 	.word	0x0800d58a
 8009040:	0800d59a 	.word	0x0800d59a
 8009044:	2300      	movs	r3, #0
 8009046:	9304      	str	r3, [sp, #16]
 8009048:	ab52      	add	r3, sp, #328	; 0x148
 800904a:	9303      	str	r3, [sp, #12]
 800904c:	f40a 6380 	and.w	r3, sl, #1024	; 0x400
 8009050:	9307      	str	r3, [sp, #28]
 8009052:	9b03      	ldr	r3, [sp, #12]
 8009054:	220a      	movs	r2, #10
 8009056:	f103 39ff 	add.w	r9, r3, #4294967295
 800905a:	4630      	mov	r0, r6
 800905c:	2300      	movs	r3, #0
 800905e:	4639      	mov	r1, r7
 8009060:	f7f7 fe32 	bl	8000cc8 <__aeabi_uldivmod>
 8009064:	9b03      	ldr	r3, [sp, #12]
 8009066:	3230      	adds	r2, #48	; 0x30
 8009068:	f803 2c01 	strb.w	r2, [r3, #-1]
 800906c:	9b04      	ldr	r3, [sp, #16]
 800906e:	3301      	adds	r3, #1
 8009070:	9304      	str	r3, [sp, #16]
 8009072:	9b07      	ldr	r3, [sp, #28]
 8009074:	b1d3      	cbz	r3, 80090ac <_vfprintf_r+0xd6c>
 8009076:	9b08      	ldr	r3, [sp, #32]
 8009078:	9a04      	ldr	r2, [sp, #16]
 800907a:	781b      	ldrb	r3, [r3, #0]
 800907c:	429a      	cmp	r2, r3
 800907e:	d115      	bne.n	80090ac <_vfprintf_r+0xd6c>
 8009080:	2aff      	cmp	r2, #255	; 0xff
 8009082:	d013      	beq.n	80090ac <_vfprintf_r+0xd6c>
 8009084:	2f00      	cmp	r7, #0
 8009086:	bf08      	it	eq
 8009088:	2e0a      	cmpeq	r6, #10
 800908a:	d30f      	bcc.n	80090ac <_vfprintf_r+0xd6c>
 800908c:	9b12      	ldr	r3, [sp, #72]	; 0x48
 800908e:	9919      	ldr	r1, [sp, #100]	; 0x64
 8009090:	eba9 0903 	sub.w	r9, r9, r3
 8009094:	461a      	mov	r2, r3
 8009096:	4648      	mov	r0, r9
 8009098:	f003 fa91 	bl	800c5be <strncpy>
 800909c:	9b08      	ldr	r3, [sp, #32]
 800909e:	785b      	ldrb	r3, [r3, #1]
 80090a0:	b11b      	cbz	r3, 80090aa <_vfprintf_r+0xd6a>
 80090a2:	9b08      	ldr	r3, [sp, #32]
 80090a4:	3301      	adds	r3, #1
 80090a6:	9308      	str	r3, [sp, #32]
 80090a8:	2300      	movs	r3, #0
 80090aa:	9304      	str	r3, [sp, #16]
 80090ac:	2300      	movs	r3, #0
 80090ae:	4630      	mov	r0, r6
 80090b0:	4639      	mov	r1, r7
 80090b2:	220a      	movs	r2, #10
 80090b4:	f7f7 fe08 	bl	8000cc8 <__aeabi_uldivmod>
 80090b8:	4606      	mov	r6, r0
 80090ba:	460f      	mov	r7, r1
 80090bc:	ea56 0307 	orrs.w	r3, r6, r7
 80090c0:	d0ae      	beq.n	8009020 <_vfprintf_r+0xce0>
 80090c2:	f8cd 900c 	str.w	r9, [sp, #12]
 80090c6:	e7c4      	b.n	8009052 <_vfprintf_r+0xd12>
 80090c8:	f50d 79a4 	add.w	r9, sp, #328	; 0x148
 80090cc:	f006 030f 	and.w	r3, r6, #15
 80090d0:	9a18      	ldr	r2, [sp, #96]	; 0x60
 80090d2:	5cd3      	ldrb	r3, [r2, r3]
 80090d4:	f809 3d01 	strb.w	r3, [r9, #-1]!
 80090d8:	0933      	lsrs	r3, r6, #4
 80090da:	ea43 7307 	orr.w	r3, r3, r7, lsl #28
 80090de:	093a      	lsrs	r2, r7, #4
 80090e0:	461e      	mov	r6, r3
 80090e2:	4617      	mov	r7, r2
 80090e4:	ea56 0307 	orrs.w	r3, r6, r7
 80090e8:	d1f0      	bne.n	80090cc <_vfprintf_r+0xd8c>
 80090ea:	e799      	b.n	8009020 <_vfprintf_r+0xce0>
 80090ec:	f50d 79a4 	add.w	r9, sp, #328	; 0x148
 80090f0:	2b00      	cmp	r3, #0
 80090f2:	d195      	bne.n	8009020 <_vfprintf_r+0xce0>
 80090f4:	07d6      	lsls	r6, r2, #31
 80090f6:	bf44      	itt	mi
 80090f8:	2330      	movmi	r3, #48	; 0x30
 80090fa:	f809 3d01 	strbmi.w	r3, [r9, #-1]!
 80090fe:	e78f      	b.n	8009020 <_vfprintf_r+0xce0>
 8009100:	9b06      	ldr	r3, [sp, #24]
 8009102:	2b00      	cmp	r3, #0
 8009104:	f000 837a 	beq.w	80097fc <_vfprintf_r+0x14bc>
 8009108:	2000      	movs	r0, #0
 800910a:	f88d 30e4 	strb.w	r3, [sp, #228]	; 0xe4
 800910e:	f88d 007b 	strb.w	r0, [sp, #123]	; 0x7b
 8009112:	9609      	str	r6, [sp, #36]	; 0x24
 8009114:	f7ff bb3c 	b.w	8008790 <_vfprintf_r+0x450>
 8009118:	f8dd a040 	ldr.w	sl, [sp, #64]	; 0x40
 800911c:	9b13      	ldr	r3, [sp, #76]	; 0x4c
 800911e:	e4ea      	b.n	8008af6 <_vfprintf_r+0x7b6>
 8009120:	9b03      	ldr	r3, [sp, #12]
 8009122:	f7ff bbae 	b.w	8008882 <_vfprintf_r+0x542>
 8009126:	2010      	movs	r0, #16
 8009128:	4403      	add	r3, r0
 800912a:	2a07      	cmp	r2, #7
 800912c:	6060      	str	r0, [r4, #4]
 800912e:	e9cd 2327 	strd	r2, r3, [sp, #156]	; 0x9c
 8009132:	dd08      	ble.n	8009146 <_vfprintf_r+0xe06>
 8009134:	aa26      	add	r2, sp, #152	; 0x98
 8009136:	4641      	mov	r1, r8
 8009138:	4658      	mov	r0, fp
 800913a:	f003 fa62 	bl	800c602 <__sprint_r>
 800913e:	2800      	cmp	r0, #0
 8009140:	f040 833a 	bne.w	80097b8 <_vfprintf_r+0x1478>
 8009144:	a929      	add	r1, sp, #164	; 0xa4
 8009146:	9b13      	ldr	r3, [sp, #76]	; 0x4c
 8009148:	3b10      	subs	r3, #16
 800914a:	9313      	str	r3, [sp, #76]	; 0x4c
 800914c:	460c      	mov	r4, r1
 800914e:	e650      	b.n	8008df2 <_vfprintf_r+0xab2>
 8009150:	460c      	mov	r4, r1
 8009152:	e66b      	b.n	8008e2c <_vfprintf_r+0xaec>
 8009154:	aa26      	add	r2, sp, #152	; 0x98
 8009156:	4641      	mov	r1, r8
 8009158:	4658      	mov	r0, fp
 800915a:	f003 fa52 	bl	800c602 <__sprint_r>
 800915e:	2800      	cmp	r0, #0
 8009160:	f040 832a 	bne.w	80097b8 <_vfprintf_r+0x1478>
 8009164:	ac29      	add	r4, sp, #164	; 0xa4
 8009166:	e673      	b.n	8008e50 <_vfprintf_r+0xb10>
 8009168:	aa26      	add	r2, sp, #152	; 0x98
 800916a:	4641      	mov	r1, r8
 800916c:	4658      	mov	r0, fp
 800916e:	f003 fa48 	bl	800c602 <__sprint_r>
 8009172:	2800      	cmp	r0, #0
 8009174:	f040 8320 	bne.w	80097b8 <_vfprintf_r+0x1478>
 8009178:	ac29      	add	r4, sp, #164	; 0xa4
 800917a:	e679      	b.n	8008e70 <_vfprintf_r+0xb30>
 800917c:	2010      	movs	r0, #16
 800917e:	4403      	add	r3, r0
 8009180:	2a07      	cmp	r2, #7
 8009182:	6060      	str	r0, [r4, #4]
 8009184:	e9cd 2327 	strd	r2, r3, [sp, #156]	; 0x9c
 8009188:	dd08      	ble.n	800919c <_vfprintf_r+0xe5c>
 800918a:	aa26      	add	r2, sp, #152	; 0x98
 800918c:	4641      	mov	r1, r8
 800918e:	4658      	mov	r0, fp
 8009190:	f003 fa37 	bl	800c602 <__sprint_r>
 8009194:	2800      	cmp	r0, #0
 8009196:	f040 830f 	bne.w	80097b8 <_vfprintf_r+0x1478>
 800919a:	a929      	add	r1, sp, #164	; 0xa4
 800919c:	9b13      	ldr	r3, [sp, #76]	; 0x4c
 800919e:	3b10      	subs	r3, #16
 80091a0:	9313      	str	r3, [sp, #76]	; 0x4c
 80091a2:	460c      	mov	r4, r1
 80091a4:	e66d      	b.n	8008e82 <_vfprintf_r+0xb42>
 80091a6:	460c      	mov	r4, r1
 80091a8:	e688      	b.n	8008ebc <_vfprintf_r+0xb7c>
 80091aa:	2010      	movs	r0, #16
 80091ac:	4403      	add	r3, r0
 80091ae:	2a07      	cmp	r2, #7
 80091b0:	6060      	str	r0, [r4, #4]
 80091b2:	e9cd 2327 	strd	r2, r3, [sp, #156]	; 0x9c
 80091b6:	dd08      	ble.n	80091ca <_vfprintf_r+0xe8a>
 80091b8:	aa26      	add	r2, sp, #152	; 0x98
 80091ba:	4641      	mov	r1, r8
 80091bc:	4658      	mov	r0, fp
 80091be:	f003 fa20 	bl	800c602 <__sprint_r>
 80091c2:	2800      	cmp	r0, #0
 80091c4:	f040 82f8 	bne.w	80097b8 <_vfprintf_r+0x1478>
 80091c8:	a929      	add	r1, sp, #164	; 0xa4
 80091ca:	9b10      	ldr	r3, [sp, #64]	; 0x40
 80091cc:	3b10      	subs	r3, #16
 80091ce:	9310      	str	r3, [sp, #64]	; 0x40
 80091d0:	460c      	mov	r4, r1
 80091d2:	e678      	b.n	8008ec6 <_vfprintf_r+0xb86>
 80091d4:	460c      	mov	r4, r1
 80091d6:	e693      	b.n	8008f00 <_vfprintf_r+0xbc0>
 80091d8:	9b06      	ldr	r3, [sp, #24]
 80091da:	2b65      	cmp	r3, #101	; 0x65
 80091dc:	f340 8234 	ble.w	8009648 <_vfprintf_r+0x1308>
 80091e0:	2200      	movs	r2, #0
 80091e2:	2300      	movs	r3, #0
 80091e4:	e9dd 010a 	ldrd	r0, r1, [sp, #40]	; 0x28
 80091e8:	f7f7 fc8e 	bl	8000b08 <__aeabi_dcmpeq>
 80091ec:	2800      	cmp	r0, #0
 80091ee:	d069      	beq.n	80092c4 <_vfprintf_r+0xf84>
 80091f0:	4b6e      	ldr	r3, [pc, #440]	; (80093ac <_vfprintf_r+0x106c>)
 80091f2:	9d10      	ldr	r5, [sp, #64]	; 0x40
 80091f4:	6023      	str	r3, [r4, #0]
 80091f6:	2301      	movs	r3, #1
 80091f8:	441d      	add	r5, r3
 80091fa:	6063      	str	r3, [r4, #4]
 80091fc:	9b27      	ldr	r3, [sp, #156]	; 0x9c
 80091fe:	9528      	str	r5, [sp, #160]	; 0xa0
 8009200:	3301      	adds	r3, #1
 8009202:	2b07      	cmp	r3, #7
 8009204:	9327      	str	r3, [sp, #156]	; 0x9c
 8009206:	dc37      	bgt.n	8009278 <_vfprintf_r+0xf38>
 8009208:	3408      	adds	r4, #8
 800920a:	9b20      	ldr	r3, [sp, #128]	; 0x80
 800920c:	9a04      	ldr	r2, [sp, #16]
 800920e:	4293      	cmp	r3, r2
 8009210:	db03      	blt.n	800921a <_vfprintf_r+0xeda>
 8009212:	f01a 0f01 	tst.w	sl, #1
 8009216:	f43f ae84 	beq.w	8008f22 <_vfprintf_r+0xbe2>
 800921a:	9b16      	ldr	r3, [sp, #88]	; 0x58
 800921c:	6023      	str	r3, [r4, #0]
 800921e:	9b0d      	ldr	r3, [sp, #52]	; 0x34
 8009220:	6063      	str	r3, [r4, #4]
 8009222:	9a0d      	ldr	r2, [sp, #52]	; 0x34
 8009224:	9b28      	ldr	r3, [sp, #160]	; 0xa0
 8009226:	4413      	add	r3, r2
 8009228:	9328      	str	r3, [sp, #160]	; 0xa0
 800922a:	9b27      	ldr	r3, [sp, #156]	; 0x9c
 800922c:	3301      	adds	r3, #1
 800922e:	2b07      	cmp	r3, #7
 8009230:	9327      	str	r3, [sp, #156]	; 0x9c
 8009232:	dc2b      	bgt.n	800928c <_vfprintf_r+0xf4c>
 8009234:	3408      	adds	r4, #8
 8009236:	9b04      	ldr	r3, [sp, #16]
 8009238:	1e5d      	subs	r5, r3, #1
 800923a:	2d00      	cmp	r5, #0
 800923c:	f77f ae71 	ble.w	8008f22 <_vfprintf_r+0xbe2>
 8009240:	4e5b      	ldr	r6, [pc, #364]	; (80093b0 <_vfprintf_r+0x1070>)
 8009242:	2710      	movs	r7, #16
 8009244:	e9dd 3227 	ldrd	r3, r2, [sp, #156]	; 0x9c
 8009248:	2d10      	cmp	r5, #16
 800924a:	f103 0301 	add.w	r3, r3, #1
 800924e:	f104 0108 	add.w	r1, r4, #8
 8009252:	6026      	str	r6, [r4, #0]
 8009254:	dc24      	bgt.n	80092a0 <_vfprintf_r+0xf60>
 8009256:	6065      	str	r5, [r4, #4]
 8009258:	2b07      	cmp	r3, #7
 800925a:	4415      	add	r5, r2
 800925c:	e9cd 3527 	strd	r3, r5, [sp, #156]	; 0x9c
 8009260:	f340 8289 	ble.w	8009776 <_vfprintf_r+0x1436>
 8009264:	aa26      	add	r2, sp, #152	; 0x98
 8009266:	4641      	mov	r1, r8
 8009268:	4658      	mov	r0, fp
 800926a:	f003 f9ca 	bl	800c602 <__sprint_r>
 800926e:	2800      	cmp	r0, #0
 8009270:	f040 82a2 	bne.w	80097b8 <_vfprintf_r+0x1478>
 8009274:	ac29      	add	r4, sp, #164	; 0xa4
 8009276:	e654      	b.n	8008f22 <_vfprintf_r+0xbe2>
 8009278:	aa26      	add	r2, sp, #152	; 0x98
 800927a:	4641      	mov	r1, r8
 800927c:	4658      	mov	r0, fp
 800927e:	f003 f9c0 	bl	800c602 <__sprint_r>
 8009282:	2800      	cmp	r0, #0
 8009284:	f040 8298 	bne.w	80097b8 <_vfprintf_r+0x1478>
 8009288:	ac29      	add	r4, sp, #164	; 0xa4
 800928a:	e7be      	b.n	800920a <_vfprintf_r+0xeca>
 800928c:	aa26      	add	r2, sp, #152	; 0x98
 800928e:	4641      	mov	r1, r8
 8009290:	4658      	mov	r0, fp
 8009292:	f003 f9b6 	bl	800c602 <__sprint_r>
 8009296:	2800      	cmp	r0, #0
 8009298:	f040 828e 	bne.w	80097b8 <_vfprintf_r+0x1478>
 800929c:	ac29      	add	r4, sp, #164	; 0xa4
 800929e:	e7ca      	b.n	8009236 <_vfprintf_r+0xef6>
 80092a0:	3210      	adds	r2, #16
 80092a2:	2b07      	cmp	r3, #7
 80092a4:	6067      	str	r7, [r4, #4]
 80092a6:	e9cd 3227 	strd	r3, r2, [sp, #156]	; 0x9c
 80092aa:	dd08      	ble.n	80092be <_vfprintf_r+0xf7e>
 80092ac:	aa26      	add	r2, sp, #152	; 0x98
 80092ae:	4641      	mov	r1, r8
 80092b0:	4658      	mov	r0, fp
 80092b2:	f003 f9a6 	bl	800c602 <__sprint_r>
 80092b6:	2800      	cmp	r0, #0
 80092b8:	f040 827e 	bne.w	80097b8 <_vfprintf_r+0x1478>
 80092bc:	a929      	add	r1, sp, #164	; 0xa4
 80092be:	3d10      	subs	r5, #16
 80092c0:	460c      	mov	r4, r1
 80092c2:	e7bf      	b.n	8009244 <_vfprintf_r+0xf04>
 80092c4:	9b20      	ldr	r3, [sp, #128]	; 0x80
 80092c6:	2b00      	cmp	r3, #0
 80092c8:	dc74      	bgt.n	80093b4 <_vfprintf_r+0x1074>
 80092ca:	4b38      	ldr	r3, [pc, #224]	; (80093ac <_vfprintf_r+0x106c>)
 80092cc:	9d10      	ldr	r5, [sp, #64]	; 0x40
 80092ce:	6023      	str	r3, [r4, #0]
 80092d0:	2301      	movs	r3, #1
 80092d2:	441d      	add	r5, r3
 80092d4:	6063      	str	r3, [r4, #4]
 80092d6:	9b27      	ldr	r3, [sp, #156]	; 0x9c
 80092d8:	9528      	str	r5, [sp, #160]	; 0xa0
 80092da:	3301      	adds	r3, #1
 80092dc:	2b07      	cmp	r3, #7
 80092de:	9327      	str	r3, [sp, #156]	; 0x9c
 80092e0:	dc3e      	bgt.n	8009360 <_vfprintf_r+0x1020>
 80092e2:	3408      	adds	r4, #8
 80092e4:	9b20      	ldr	r3, [sp, #128]	; 0x80
 80092e6:	b92b      	cbnz	r3, 80092f4 <_vfprintf_r+0xfb4>
 80092e8:	9b04      	ldr	r3, [sp, #16]
 80092ea:	b91b      	cbnz	r3, 80092f4 <_vfprintf_r+0xfb4>
 80092ec:	f01a 0f01 	tst.w	sl, #1
 80092f0:	f43f ae17 	beq.w	8008f22 <_vfprintf_r+0xbe2>
 80092f4:	9b16      	ldr	r3, [sp, #88]	; 0x58
 80092f6:	6023      	str	r3, [r4, #0]
 80092f8:	9b0d      	ldr	r3, [sp, #52]	; 0x34
 80092fa:	6063      	str	r3, [r4, #4]
 80092fc:	9a0d      	ldr	r2, [sp, #52]	; 0x34
 80092fe:	9b28      	ldr	r3, [sp, #160]	; 0xa0
 8009300:	4413      	add	r3, r2
 8009302:	9328      	str	r3, [sp, #160]	; 0xa0
 8009304:	9b27      	ldr	r3, [sp, #156]	; 0x9c
 8009306:	3301      	adds	r3, #1
 8009308:	2b07      	cmp	r3, #7
 800930a:	9327      	str	r3, [sp, #156]	; 0x9c
 800930c:	dc32      	bgt.n	8009374 <_vfprintf_r+0x1034>
 800930e:	3408      	adds	r4, #8
 8009310:	9d20      	ldr	r5, [sp, #128]	; 0x80
 8009312:	2d00      	cmp	r5, #0
 8009314:	da1b      	bge.n	800934e <_vfprintf_r+0x100e>
 8009316:	4e26      	ldr	r6, [pc, #152]	; (80093b0 <_vfprintf_r+0x1070>)
 8009318:	426d      	negs	r5, r5
 800931a:	4623      	mov	r3, r4
 800931c:	2710      	movs	r7, #16
 800931e:	e9dd 2127 	ldrd	r2, r1, [sp, #156]	; 0x9c
 8009322:	2d10      	cmp	r5, #16
 8009324:	f102 0201 	add.w	r2, r2, #1
 8009328:	f104 0408 	add.w	r4, r4, #8
 800932c:	601e      	str	r6, [r3, #0]
 800932e:	dc2b      	bgt.n	8009388 <_vfprintf_r+0x1048>
 8009330:	605d      	str	r5, [r3, #4]
 8009332:	2a07      	cmp	r2, #7
 8009334:	440d      	add	r5, r1
 8009336:	e9cd 2527 	strd	r2, r5, [sp, #156]	; 0x9c
 800933a:	dd08      	ble.n	800934e <_vfprintf_r+0x100e>
 800933c:	aa26      	add	r2, sp, #152	; 0x98
 800933e:	4641      	mov	r1, r8
 8009340:	4658      	mov	r0, fp
 8009342:	f003 f95e 	bl	800c602 <__sprint_r>
 8009346:	2800      	cmp	r0, #0
 8009348:	f040 8236 	bne.w	80097b8 <_vfprintf_r+0x1478>
 800934c:	ac29      	add	r4, sp, #164	; 0xa4
 800934e:	9b04      	ldr	r3, [sp, #16]
 8009350:	6063      	str	r3, [r4, #4]
 8009352:	9a04      	ldr	r2, [sp, #16]
 8009354:	9b28      	ldr	r3, [sp, #160]	; 0xa0
 8009356:	f8c4 9000 	str.w	r9, [r4]
 800935a:	4413      	add	r3, r2
 800935c:	9328      	str	r3, [sp, #160]	; 0xa0
 800935e:	e5d9      	b.n	8008f14 <_vfprintf_r+0xbd4>
 8009360:	aa26      	add	r2, sp, #152	; 0x98
 8009362:	4641      	mov	r1, r8
 8009364:	4658      	mov	r0, fp
 8009366:	f003 f94c 	bl	800c602 <__sprint_r>
 800936a:	2800      	cmp	r0, #0
 800936c:	f040 8224 	bne.w	80097b8 <_vfprintf_r+0x1478>
 8009370:	ac29      	add	r4, sp, #164	; 0xa4
 8009372:	e7b7      	b.n	80092e4 <_vfprintf_r+0xfa4>
 8009374:	aa26      	add	r2, sp, #152	; 0x98
 8009376:	4641      	mov	r1, r8
 8009378:	4658      	mov	r0, fp
 800937a:	f003 f942 	bl	800c602 <__sprint_r>
 800937e:	2800      	cmp	r0, #0
 8009380:	f040 821a 	bne.w	80097b8 <_vfprintf_r+0x1478>
 8009384:	ac29      	add	r4, sp, #164	; 0xa4
 8009386:	e7c3      	b.n	8009310 <_vfprintf_r+0xfd0>
 8009388:	3110      	adds	r1, #16
 800938a:	2a07      	cmp	r2, #7
 800938c:	605f      	str	r7, [r3, #4]
 800938e:	e9cd 2127 	strd	r2, r1, [sp, #156]	; 0x9c
 8009392:	dd08      	ble.n	80093a6 <_vfprintf_r+0x1066>
 8009394:	aa26      	add	r2, sp, #152	; 0x98
 8009396:	4641      	mov	r1, r8
 8009398:	4658      	mov	r0, fp
 800939a:	f003 f932 	bl	800c602 <__sprint_r>
 800939e:	2800      	cmp	r0, #0
 80093a0:	f040 820a 	bne.w	80097b8 <_vfprintf_r+0x1478>
 80093a4:	ac29      	add	r4, sp, #164	; 0xa4
 80093a6:	3d10      	subs	r5, #16
 80093a8:	4623      	mov	r3, r4
 80093aa:	e7b8      	b.n	800931e <_vfprintf_r+0xfde>
 80093ac:	0800cde5 	.word	0x0800cde5
 80093b0:	0800d59a 	.word	0x0800d59a
 80093b4:	9b04      	ldr	r3, [sp, #16]
 80093b6:	42b3      	cmp	r3, r6
 80093b8:	bfa8      	it	ge
 80093ba:	4633      	movge	r3, r6
 80093bc:	2b00      	cmp	r3, #0
 80093be:	461d      	mov	r5, r3
 80093c0:	dd0b      	ble.n	80093da <_vfprintf_r+0x109a>
 80093c2:	e9c4 9300 	strd	r9, r3, [r4]
 80093c6:	9b10      	ldr	r3, [sp, #64]	; 0x40
 80093c8:	442b      	add	r3, r5
 80093ca:	9328      	str	r3, [sp, #160]	; 0xa0
 80093cc:	9b27      	ldr	r3, [sp, #156]	; 0x9c
 80093ce:	3301      	adds	r3, #1
 80093d0:	2b07      	cmp	r3, #7
 80093d2:	9327      	str	r3, [sp, #156]	; 0x9c
 80093d4:	f300 8086 	bgt.w	80094e4 <_vfprintf_r+0x11a4>
 80093d8:	3408      	adds	r4, #8
 80093da:	2d00      	cmp	r5, #0
 80093dc:	bfac      	ite	ge
 80093de:	1b75      	subge	r5, r6, r5
 80093e0:	4635      	movlt	r5, r6
 80093e2:	2d00      	cmp	r5, #0
 80093e4:	dd19      	ble.n	800941a <_vfprintf_r+0x10da>
 80093e6:	e9dd 3227 	ldrd	r3, r2, [sp, #156]	; 0x9c
 80093ea:	4896      	ldr	r0, [pc, #600]	; (8009644 <_vfprintf_r+0x1304>)
 80093ec:	6020      	str	r0, [r4, #0]
 80093ee:	2d10      	cmp	r5, #16
 80093f0:	f103 0301 	add.w	r3, r3, #1
 80093f4:	f104 0108 	add.w	r1, r4, #8
 80093f8:	dc7e      	bgt.n	80094f8 <_vfprintf_r+0x11b8>
 80093fa:	6065      	str	r5, [r4, #4]
 80093fc:	2b07      	cmp	r3, #7
 80093fe:	4415      	add	r5, r2
 8009400:	e9cd 3527 	strd	r3, r5, [sp, #156]	; 0x9c
 8009404:	f340 808b 	ble.w	800951e <_vfprintf_r+0x11de>
 8009408:	aa26      	add	r2, sp, #152	; 0x98
 800940a:	4641      	mov	r1, r8
 800940c:	4658      	mov	r0, fp
 800940e:	f003 f8f8 	bl	800c602 <__sprint_r>
 8009412:	2800      	cmp	r0, #0
 8009414:	f040 81d0 	bne.w	80097b8 <_vfprintf_r+0x1478>
 8009418:	ac29      	add	r4, sp, #164	; 0xa4
 800941a:	f41a 6f80 	tst.w	sl, #1024	; 0x400
 800941e:	444e      	add	r6, r9
 8009420:	d009      	beq.n	8009436 <_vfprintf_r+0x10f6>
 8009422:	9b07      	ldr	r3, [sp, #28]
 8009424:	2b00      	cmp	r3, #0
 8009426:	d17c      	bne.n	8009522 <_vfprintf_r+0x11e2>
 8009428:	2f00      	cmp	r7, #0
 800942a:	d17c      	bne.n	8009526 <_vfprintf_r+0x11e6>
 800942c:	9b04      	ldr	r3, [sp, #16]
 800942e:	444b      	add	r3, r9
 8009430:	429e      	cmp	r6, r3
 8009432:	bf28      	it	cs
 8009434:	461e      	movcs	r6, r3
 8009436:	9b20      	ldr	r3, [sp, #128]	; 0x80
 8009438:	9a04      	ldr	r2, [sp, #16]
 800943a:	4293      	cmp	r3, r2
 800943c:	db02      	blt.n	8009444 <_vfprintf_r+0x1104>
 800943e:	f01a 0f01 	tst.w	sl, #1
 8009442:	d00e      	beq.n	8009462 <_vfprintf_r+0x1122>
 8009444:	9b16      	ldr	r3, [sp, #88]	; 0x58
 8009446:	6023      	str	r3, [r4, #0]
 8009448:	9b0d      	ldr	r3, [sp, #52]	; 0x34
 800944a:	6063      	str	r3, [r4, #4]
 800944c:	9a0d      	ldr	r2, [sp, #52]	; 0x34
 800944e:	9b28      	ldr	r3, [sp, #160]	; 0xa0
 8009450:	4413      	add	r3, r2
 8009452:	9328      	str	r3, [sp, #160]	; 0xa0
 8009454:	9b27      	ldr	r3, [sp, #156]	; 0x9c
 8009456:	3301      	adds	r3, #1
 8009458:	2b07      	cmp	r3, #7
 800945a:	9327      	str	r3, [sp, #156]	; 0x9c
 800945c:	f300 80dd 	bgt.w	800961a <_vfprintf_r+0x12da>
 8009460:	3408      	adds	r4, #8
 8009462:	9b04      	ldr	r3, [sp, #16]
 8009464:	9a04      	ldr	r2, [sp, #16]
 8009466:	eb09 0503 	add.w	r5, r9, r3
 800946a:	1bab      	subs	r3, r5, r6
 800946c:	9d20      	ldr	r5, [sp, #128]	; 0x80
 800946e:	1b55      	subs	r5, r2, r5
 8009470:	429d      	cmp	r5, r3
 8009472:	bfa8      	it	ge
 8009474:	461d      	movge	r5, r3
 8009476:	2d00      	cmp	r5, #0
 8009478:	dd0b      	ble.n	8009492 <_vfprintf_r+0x1152>
 800947a:	9b28      	ldr	r3, [sp, #160]	; 0xa0
 800947c:	442b      	add	r3, r5
 800947e:	9328      	str	r3, [sp, #160]	; 0xa0
 8009480:	9b27      	ldr	r3, [sp, #156]	; 0x9c
 8009482:	3301      	adds	r3, #1
 8009484:	2b07      	cmp	r3, #7
 8009486:	e9c4 6500 	strd	r6, r5, [r4]
 800948a:	9327      	str	r3, [sp, #156]	; 0x9c
 800948c:	f300 80cf 	bgt.w	800962e <_vfprintf_r+0x12ee>
 8009490:	3408      	adds	r4, #8
 8009492:	9b20      	ldr	r3, [sp, #128]	; 0x80
 8009494:	9a04      	ldr	r2, [sp, #16]
 8009496:	2d00      	cmp	r5, #0
 8009498:	eba2 0303 	sub.w	r3, r2, r3
 800949c:	bfac      	ite	ge
 800949e:	1b5d      	subge	r5, r3, r5
 80094a0:	461d      	movlt	r5, r3
 80094a2:	2d00      	cmp	r5, #0
 80094a4:	f77f ad3d 	ble.w	8008f22 <_vfprintf_r+0xbe2>
 80094a8:	4e66      	ldr	r6, [pc, #408]	; (8009644 <_vfprintf_r+0x1304>)
 80094aa:	2710      	movs	r7, #16
 80094ac:	e9dd 3227 	ldrd	r3, r2, [sp, #156]	; 0x9c
 80094b0:	2d10      	cmp	r5, #16
 80094b2:	f103 0301 	add.w	r3, r3, #1
 80094b6:	f104 0108 	add.w	r1, r4, #8
 80094ba:	6026      	str	r6, [r4, #0]
 80094bc:	f77f aecb 	ble.w	8009256 <_vfprintf_r+0xf16>
 80094c0:	3210      	adds	r2, #16
 80094c2:	2b07      	cmp	r3, #7
 80094c4:	6067      	str	r7, [r4, #4]
 80094c6:	e9cd 3227 	strd	r3, r2, [sp, #156]	; 0x9c
 80094ca:	dd08      	ble.n	80094de <_vfprintf_r+0x119e>
 80094cc:	aa26      	add	r2, sp, #152	; 0x98
 80094ce:	4641      	mov	r1, r8
 80094d0:	4658      	mov	r0, fp
 80094d2:	f003 f896 	bl	800c602 <__sprint_r>
 80094d6:	2800      	cmp	r0, #0
 80094d8:	f040 816e 	bne.w	80097b8 <_vfprintf_r+0x1478>
 80094dc:	a929      	add	r1, sp, #164	; 0xa4
 80094de:	3d10      	subs	r5, #16
 80094e0:	460c      	mov	r4, r1
 80094e2:	e7e3      	b.n	80094ac <_vfprintf_r+0x116c>
 80094e4:	aa26      	add	r2, sp, #152	; 0x98
 80094e6:	4641      	mov	r1, r8
 80094e8:	4658      	mov	r0, fp
 80094ea:	f003 f88a 	bl	800c602 <__sprint_r>
 80094ee:	2800      	cmp	r0, #0
 80094f0:	f040 8162 	bne.w	80097b8 <_vfprintf_r+0x1478>
 80094f4:	ac29      	add	r4, sp, #164	; 0xa4
 80094f6:	e770      	b.n	80093da <_vfprintf_r+0x109a>
 80094f8:	2010      	movs	r0, #16
 80094fa:	4402      	add	r2, r0
 80094fc:	2b07      	cmp	r3, #7
 80094fe:	6060      	str	r0, [r4, #4]
 8009500:	e9cd 3227 	strd	r3, r2, [sp, #156]	; 0x9c
 8009504:	dd08      	ble.n	8009518 <_vfprintf_r+0x11d8>
 8009506:	aa26      	add	r2, sp, #152	; 0x98
 8009508:	4641      	mov	r1, r8
 800950a:	4658      	mov	r0, fp
 800950c:	f003 f879 	bl	800c602 <__sprint_r>
 8009510:	2800      	cmp	r0, #0
 8009512:	f040 8151 	bne.w	80097b8 <_vfprintf_r+0x1478>
 8009516:	a929      	add	r1, sp, #164	; 0xa4
 8009518:	3d10      	subs	r5, #16
 800951a:	460c      	mov	r4, r1
 800951c:	e763      	b.n	80093e6 <_vfprintf_r+0x10a6>
 800951e:	460c      	mov	r4, r1
 8009520:	e77b      	b.n	800941a <_vfprintf_r+0x10da>
 8009522:	2f00      	cmp	r7, #0
 8009524:	d049      	beq.n	80095ba <_vfprintf_r+0x127a>
 8009526:	3f01      	subs	r7, #1
 8009528:	9b19      	ldr	r3, [sp, #100]	; 0x64
 800952a:	6023      	str	r3, [r4, #0]
 800952c:	9b12      	ldr	r3, [sp, #72]	; 0x48
 800952e:	6063      	str	r3, [r4, #4]
 8009530:	9a12      	ldr	r2, [sp, #72]	; 0x48
 8009532:	9b28      	ldr	r3, [sp, #160]	; 0xa0
 8009534:	4413      	add	r3, r2
 8009536:	9328      	str	r3, [sp, #160]	; 0xa0
 8009538:	9b27      	ldr	r3, [sp, #156]	; 0x9c
 800953a:	3301      	adds	r3, #1
 800953c:	2b07      	cmp	r3, #7
 800953e:	9327      	str	r3, [sp, #156]	; 0x9c
 8009540:	dc42      	bgt.n	80095c8 <_vfprintf_r+0x1288>
 8009542:	3408      	adds	r4, #8
 8009544:	9b04      	ldr	r3, [sp, #16]
 8009546:	444b      	add	r3, r9
 8009548:	1b9a      	subs	r2, r3, r6
 800954a:	9b08      	ldr	r3, [sp, #32]
 800954c:	781b      	ldrb	r3, [r3, #0]
 800954e:	4293      	cmp	r3, r2
 8009550:	bfa8      	it	ge
 8009552:	4613      	movge	r3, r2
 8009554:	2b00      	cmp	r3, #0
 8009556:	461d      	mov	r5, r3
 8009558:	dd0a      	ble.n	8009570 <_vfprintf_r+0x1230>
 800955a:	e9c4 6300 	strd	r6, r3, [r4]
 800955e:	9b28      	ldr	r3, [sp, #160]	; 0xa0
 8009560:	442b      	add	r3, r5
 8009562:	9328      	str	r3, [sp, #160]	; 0xa0
 8009564:	9b27      	ldr	r3, [sp, #156]	; 0x9c
 8009566:	3301      	adds	r3, #1
 8009568:	2b07      	cmp	r3, #7
 800956a:	9327      	str	r3, [sp, #156]	; 0x9c
 800956c:	dc36      	bgt.n	80095dc <_vfprintf_r+0x129c>
 800956e:	3408      	adds	r4, #8
 8009570:	9b08      	ldr	r3, [sp, #32]
 8009572:	781b      	ldrb	r3, [r3, #0]
 8009574:	2d00      	cmp	r5, #0
 8009576:	bfac      	ite	ge
 8009578:	1b5d      	subge	r5, r3, r5
 800957a:	461d      	movlt	r5, r3
 800957c:	2d00      	cmp	r5, #0
 800957e:	dd18      	ble.n	80095b2 <_vfprintf_r+0x1272>
 8009580:	e9dd 2327 	ldrd	r2, r3, [sp, #156]	; 0x9c
 8009584:	482f      	ldr	r0, [pc, #188]	; (8009644 <_vfprintf_r+0x1304>)
 8009586:	6020      	str	r0, [r4, #0]
 8009588:	2d10      	cmp	r5, #16
 800958a:	f102 0201 	add.w	r2, r2, #1
 800958e:	f104 0108 	add.w	r1, r4, #8
 8009592:	dc2d      	bgt.n	80095f0 <_vfprintf_r+0x12b0>
 8009594:	442b      	add	r3, r5
 8009596:	2a07      	cmp	r2, #7
 8009598:	6065      	str	r5, [r4, #4]
 800959a:	e9cd 2327 	strd	r2, r3, [sp, #156]	; 0x9c
 800959e:	dd3a      	ble.n	8009616 <_vfprintf_r+0x12d6>
 80095a0:	aa26      	add	r2, sp, #152	; 0x98
 80095a2:	4641      	mov	r1, r8
 80095a4:	4658      	mov	r0, fp
 80095a6:	f003 f82c 	bl	800c602 <__sprint_r>
 80095aa:	2800      	cmp	r0, #0
 80095ac:	f040 8104 	bne.w	80097b8 <_vfprintf_r+0x1478>
 80095b0:	ac29      	add	r4, sp, #164	; 0xa4
 80095b2:	9b08      	ldr	r3, [sp, #32]
 80095b4:	781b      	ldrb	r3, [r3, #0]
 80095b6:	441e      	add	r6, r3
 80095b8:	e733      	b.n	8009422 <_vfprintf_r+0x10e2>
 80095ba:	9b08      	ldr	r3, [sp, #32]
 80095bc:	3b01      	subs	r3, #1
 80095be:	9308      	str	r3, [sp, #32]
 80095c0:	9b07      	ldr	r3, [sp, #28]
 80095c2:	3b01      	subs	r3, #1
 80095c4:	9307      	str	r3, [sp, #28]
 80095c6:	e7af      	b.n	8009528 <_vfprintf_r+0x11e8>
 80095c8:	aa26      	add	r2, sp, #152	; 0x98
 80095ca:	4641      	mov	r1, r8
 80095cc:	4658      	mov	r0, fp
 80095ce:	f003 f818 	bl	800c602 <__sprint_r>
 80095d2:	2800      	cmp	r0, #0
 80095d4:	f040 80f0 	bne.w	80097b8 <_vfprintf_r+0x1478>
 80095d8:	ac29      	add	r4, sp, #164	; 0xa4
 80095da:	e7b3      	b.n	8009544 <_vfprintf_r+0x1204>
 80095dc:	aa26      	add	r2, sp, #152	; 0x98
 80095de:	4641      	mov	r1, r8
 80095e0:	4658      	mov	r0, fp
 80095e2:	f003 f80e 	bl	800c602 <__sprint_r>
 80095e6:	2800      	cmp	r0, #0
 80095e8:	f040 80e6 	bne.w	80097b8 <_vfprintf_r+0x1478>
 80095ec:	ac29      	add	r4, sp, #164	; 0xa4
 80095ee:	e7bf      	b.n	8009570 <_vfprintf_r+0x1230>
 80095f0:	2010      	movs	r0, #16
 80095f2:	4403      	add	r3, r0
 80095f4:	2a07      	cmp	r2, #7
 80095f6:	6060      	str	r0, [r4, #4]
 80095f8:	e9cd 2327 	strd	r2, r3, [sp, #156]	; 0x9c
 80095fc:	dd08      	ble.n	8009610 <_vfprintf_r+0x12d0>
 80095fe:	aa26      	add	r2, sp, #152	; 0x98
 8009600:	4641      	mov	r1, r8
 8009602:	4658      	mov	r0, fp
 8009604:	f002 fffd 	bl	800c602 <__sprint_r>
 8009608:	2800      	cmp	r0, #0
 800960a:	f040 80d5 	bne.w	80097b8 <_vfprintf_r+0x1478>
 800960e:	a929      	add	r1, sp, #164	; 0xa4
 8009610:	3d10      	subs	r5, #16
 8009612:	460c      	mov	r4, r1
 8009614:	e7b4      	b.n	8009580 <_vfprintf_r+0x1240>
 8009616:	460c      	mov	r4, r1
 8009618:	e7cb      	b.n	80095b2 <_vfprintf_r+0x1272>
 800961a:	aa26      	add	r2, sp, #152	; 0x98
 800961c:	4641      	mov	r1, r8
 800961e:	4658      	mov	r0, fp
 8009620:	f002 ffef 	bl	800c602 <__sprint_r>
 8009624:	2800      	cmp	r0, #0
 8009626:	f040 80c7 	bne.w	80097b8 <_vfprintf_r+0x1478>
 800962a:	ac29      	add	r4, sp, #164	; 0xa4
 800962c:	e719      	b.n	8009462 <_vfprintf_r+0x1122>
 800962e:	aa26      	add	r2, sp, #152	; 0x98
 8009630:	4641      	mov	r1, r8
 8009632:	4658      	mov	r0, fp
 8009634:	f002 ffe5 	bl	800c602 <__sprint_r>
 8009638:	2800      	cmp	r0, #0
 800963a:	f040 80bd 	bne.w	80097b8 <_vfprintf_r+0x1478>
 800963e:	ac29      	add	r4, sp, #164	; 0xa4
 8009640:	e727      	b.n	8009492 <_vfprintf_r+0x1152>
 8009642:	bf00      	nop
 8009644:	0800d59a 	.word	0x0800d59a
 8009648:	9a04      	ldr	r2, [sp, #16]
 800964a:	9d10      	ldr	r5, [sp, #64]	; 0x40
 800964c:	9b27      	ldr	r3, [sp, #156]	; 0x9c
 800964e:	2a01      	cmp	r2, #1
 8009650:	f105 0501 	add.w	r5, r5, #1
 8009654:	f103 0301 	add.w	r3, r3, #1
 8009658:	f104 0608 	add.w	r6, r4, #8
 800965c:	dc02      	bgt.n	8009664 <_vfprintf_r+0x1324>
 800965e:	f01a 0f01 	tst.w	sl, #1
 8009662:	d07d      	beq.n	8009760 <_vfprintf_r+0x1420>
 8009664:	2201      	movs	r2, #1
 8009666:	2b07      	cmp	r3, #7
 8009668:	f8c4 9000 	str.w	r9, [r4]
 800966c:	6062      	str	r2, [r4, #4]
 800966e:	e9cd 3527 	strd	r3, r5, [sp, #156]	; 0x9c
 8009672:	dd08      	ble.n	8009686 <_vfprintf_r+0x1346>
 8009674:	aa26      	add	r2, sp, #152	; 0x98
 8009676:	4641      	mov	r1, r8
 8009678:	4658      	mov	r0, fp
 800967a:	f002 ffc2 	bl	800c602 <__sprint_r>
 800967e:	2800      	cmp	r0, #0
 8009680:	f040 809a 	bne.w	80097b8 <_vfprintf_r+0x1478>
 8009684:	ae29      	add	r6, sp, #164	; 0xa4
 8009686:	9b16      	ldr	r3, [sp, #88]	; 0x58
 8009688:	6033      	str	r3, [r6, #0]
 800968a:	9b0d      	ldr	r3, [sp, #52]	; 0x34
 800968c:	6073      	str	r3, [r6, #4]
 800968e:	9a0d      	ldr	r2, [sp, #52]	; 0x34
 8009690:	9b28      	ldr	r3, [sp, #160]	; 0xa0
 8009692:	4413      	add	r3, r2
 8009694:	9328      	str	r3, [sp, #160]	; 0xa0
 8009696:	9b27      	ldr	r3, [sp, #156]	; 0x9c
 8009698:	3301      	adds	r3, #1
 800969a:	2b07      	cmp	r3, #7
 800969c:	9327      	str	r3, [sp, #156]	; 0x9c
 800969e:	dc31      	bgt.n	8009704 <_vfprintf_r+0x13c4>
 80096a0:	3608      	adds	r6, #8
 80096a2:	9b04      	ldr	r3, [sp, #16]
 80096a4:	2200      	movs	r2, #0
 80096a6:	1e5c      	subs	r4, r3, #1
 80096a8:	e9dd 010a 	ldrd	r0, r1, [sp, #40]	; 0x28
 80096ac:	2300      	movs	r3, #0
 80096ae:	f7f7 fa2b 	bl	8000b08 <__aeabi_dcmpeq>
 80096b2:	2800      	cmp	r0, #0
 80096b4:	d12f      	bne.n	8009716 <_vfprintf_r+0x13d6>
 80096b6:	f109 0301 	add.w	r3, r9, #1
 80096ba:	9a27      	ldr	r2, [sp, #156]	; 0x9c
 80096bc:	9904      	ldr	r1, [sp, #16]
 80096be:	e9c6 3400 	strd	r3, r4, [r6]
 80096c2:	9b28      	ldr	r3, [sp, #160]	; 0xa0
 80096c4:	3201      	adds	r2, #1
 80096c6:	3b01      	subs	r3, #1
 80096c8:	440b      	add	r3, r1
 80096ca:	2a07      	cmp	r2, #7
 80096cc:	e9cd 2327 	strd	r2, r3, [sp, #156]	; 0x9c
 80096d0:	dd4f      	ble.n	8009772 <_vfprintf_r+0x1432>
 80096d2:	aa26      	add	r2, sp, #152	; 0x98
 80096d4:	4641      	mov	r1, r8
 80096d6:	4658      	mov	r0, fp
 80096d8:	f002 ff93 	bl	800c602 <__sprint_r>
 80096dc:	2800      	cmp	r0, #0
 80096de:	d16b      	bne.n	80097b8 <_vfprintf_r+0x1478>
 80096e0:	ae29      	add	r6, sp, #164	; 0xa4
 80096e2:	ab22      	add	r3, sp, #136	; 0x88
 80096e4:	6033      	str	r3, [r6, #0]
 80096e6:	9b17      	ldr	r3, [sp, #92]	; 0x5c
 80096e8:	6073      	str	r3, [r6, #4]
 80096ea:	9a17      	ldr	r2, [sp, #92]	; 0x5c
 80096ec:	9b28      	ldr	r3, [sp, #160]	; 0xa0
 80096ee:	4413      	add	r3, r2
 80096f0:	9328      	str	r3, [sp, #160]	; 0xa0
 80096f2:	9b27      	ldr	r3, [sp, #156]	; 0x9c
 80096f4:	3301      	adds	r3, #1
 80096f6:	2b07      	cmp	r3, #7
 80096f8:	9327      	str	r3, [sp, #156]	; 0x9c
 80096fa:	f73f adb3 	bgt.w	8009264 <_vfprintf_r+0xf24>
 80096fe:	f106 0408 	add.w	r4, r6, #8
 8009702:	e40e      	b.n	8008f22 <_vfprintf_r+0xbe2>
 8009704:	aa26      	add	r2, sp, #152	; 0x98
 8009706:	4641      	mov	r1, r8
 8009708:	4658      	mov	r0, fp
 800970a:	f002 ff7a 	bl	800c602 <__sprint_r>
 800970e:	2800      	cmp	r0, #0
 8009710:	d152      	bne.n	80097b8 <_vfprintf_r+0x1478>
 8009712:	ae29      	add	r6, sp, #164	; 0xa4
 8009714:	e7c5      	b.n	80096a2 <_vfprintf_r+0x1362>
 8009716:	2c00      	cmp	r4, #0
 8009718:	dde3      	ble.n	80096e2 <_vfprintf_r+0x13a2>
 800971a:	4d40      	ldr	r5, [pc, #256]	; (800981c <_vfprintf_r+0x14dc>)
 800971c:	2710      	movs	r7, #16
 800971e:	e9dd 3227 	ldrd	r3, r2, [sp, #156]	; 0x9c
 8009722:	2c10      	cmp	r4, #16
 8009724:	f103 0301 	add.w	r3, r3, #1
 8009728:	f106 0108 	add.w	r1, r6, #8
 800972c:	6035      	str	r5, [r6, #0]
 800972e:	dc07      	bgt.n	8009740 <_vfprintf_r+0x1400>
 8009730:	6074      	str	r4, [r6, #4]
 8009732:	2b07      	cmp	r3, #7
 8009734:	4414      	add	r4, r2
 8009736:	e9cd 3427 	strd	r3, r4, [sp, #156]	; 0x9c
 800973a:	dcca      	bgt.n	80096d2 <_vfprintf_r+0x1392>
 800973c:	460e      	mov	r6, r1
 800973e:	e7d0      	b.n	80096e2 <_vfprintf_r+0x13a2>
 8009740:	3210      	adds	r2, #16
 8009742:	2b07      	cmp	r3, #7
 8009744:	6077      	str	r7, [r6, #4]
 8009746:	e9cd 3227 	strd	r3, r2, [sp, #156]	; 0x9c
 800974a:	dd06      	ble.n	800975a <_vfprintf_r+0x141a>
 800974c:	aa26      	add	r2, sp, #152	; 0x98
 800974e:	4641      	mov	r1, r8
 8009750:	4658      	mov	r0, fp
 8009752:	f002 ff56 	bl	800c602 <__sprint_r>
 8009756:	bb78      	cbnz	r0, 80097b8 <_vfprintf_r+0x1478>
 8009758:	a929      	add	r1, sp, #164	; 0xa4
 800975a:	3c10      	subs	r4, #16
 800975c:	460e      	mov	r6, r1
 800975e:	e7de      	b.n	800971e <_vfprintf_r+0x13de>
 8009760:	2201      	movs	r2, #1
 8009762:	2b07      	cmp	r3, #7
 8009764:	f8c4 9000 	str.w	r9, [r4]
 8009768:	6062      	str	r2, [r4, #4]
 800976a:	e9cd 3527 	strd	r3, r5, [sp, #156]	; 0x9c
 800976e:	ddb8      	ble.n	80096e2 <_vfprintf_r+0x13a2>
 8009770:	e7af      	b.n	80096d2 <_vfprintf_r+0x1392>
 8009772:	3608      	adds	r6, #8
 8009774:	e7b5      	b.n	80096e2 <_vfprintf_r+0x13a2>
 8009776:	460c      	mov	r4, r1
 8009778:	f7ff bbd3 	b.w	8008f22 <_vfprintf_r+0xbe2>
 800977c:	9b0f      	ldr	r3, [sp, #60]	; 0x3c
 800977e:	9a11      	ldr	r2, [sp, #68]	; 0x44
 8009780:	1a9d      	subs	r5, r3, r2
 8009782:	2d00      	cmp	r5, #0
 8009784:	f77f abd1 	ble.w	8008f2a <_vfprintf_r+0xbea>
 8009788:	4e25      	ldr	r6, [pc, #148]	; (8009820 <_vfprintf_r+0x14e0>)
 800978a:	2710      	movs	r7, #16
 800978c:	e9dd 3227 	ldrd	r3, r2, [sp, #156]	; 0x9c
 8009790:	2d10      	cmp	r5, #16
 8009792:	f103 0301 	add.w	r3, r3, #1
 8009796:	6026      	str	r6, [r4, #0]
 8009798:	dc18      	bgt.n	80097cc <_vfprintf_r+0x148c>
 800979a:	6065      	str	r5, [r4, #4]
 800979c:	2b07      	cmp	r3, #7
 800979e:	4415      	add	r5, r2
 80097a0:	e9cd 3527 	strd	r3, r5, [sp, #156]	; 0x9c
 80097a4:	f77f abc1 	ble.w	8008f2a <_vfprintf_r+0xbea>
 80097a8:	aa26      	add	r2, sp, #152	; 0x98
 80097aa:	4641      	mov	r1, r8
 80097ac:	4658      	mov	r0, fp
 80097ae:	f002 ff28 	bl	800c602 <__sprint_r>
 80097b2:	2800      	cmp	r0, #0
 80097b4:	f43f abb9 	beq.w	8008f2a <_vfprintf_r+0xbea>
 80097b8:	9b03      	ldr	r3, [sp, #12]
 80097ba:	2b00      	cmp	r3, #0
 80097bc:	f43f a895 	beq.w	80088ea <_vfprintf_r+0x5aa>
 80097c0:	4619      	mov	r1, r3
 80097c2:	4658      	mov	r0, fp
 80097c4:	f001 f896 	bl	800a8f4 <_free_r>
 80097c8:	f7ff b88f 	b.w	80088ea <_vfprintf_r+0x5aa>
 80097cc:	3210      	adds	r2, #16
 80097ce:	2b07      	cmp	r3, #7
 80097d0:	6067      	str	r7, [r4, #4]
 80097d2:	e9cd 3227 	strd	r3, r2, [sp, #156]	; 0x9c
 80097d6:	dc02      	bgt.n	80097de <_vfprintf_r+0x149e>
 80097d8:	3408      	adds	r4, #8
 80097da:	3d10      	subs	r5, #16
 80097dc:	e7d6      	b.n	800978c <_vfprintf_r+0x144c>
 80097de:	aa26      	add	r2, sp, #152	; 0x98
 80097e0:	4641      	mov	r1, r8
 80097e2:	4658      	mov	r0, fp
 80097e4:	f002 ff0d 	bl	800c602 <__sprint_r>
 80097e8:	2800      	cmp	r0, #0
 80097ea:	d1e5      	bne.n	80097b8 <_vfprintf_r+0x1478>
 80097ec:	ac29      	add	r4, sp, #164	; 0xa4
 80097ee:	e7f4      	b.n	80097da <_vfprintf_r+0x149a>
 80097f0:	9903      	ldr	r1, [sp, #12]
 80097f2:	4658      	mov	r0, fp
 80097f4:	f001 f87e 	bl	800a8f4 <_free_r>
 80097f8:	f7ff bbaf 	b.w	8008f5a <_vfprintf_r+0xc1a>
 80097fc:	9b28      	ldr	r3, [sp, #160]	; 0xa0
 80097fe:	b91b      	cbnz	r3, 8009808 <_vfprintf_r+0x14c8>
 8009800:	2300      	movs	r3, #0
 8009802:	9327      	str	r3, [sp, #156]	; 0x9c
 8009804:	f7ff b871 	b.w	80088ea <_vfprintf_r+0x5aa>
 8009808:	aa26      	add	r2, sp, #152	; 0x98
 800980a:	4641      	mov	r1, r8
 800980c:	4658      	mov	r0, fp
 800980e:	f002 fef8 	bl	800c602 <__sprint_r>
 8009812:	2800      	cmp	r0, #0
 8009814:	f47f a869 	bne.w	80088ea <_vfprintf_r+0x5aa>
 8009818:	e7f2      	b.n	8009800 <_vfprintf_r+0x14c0>
 800981a:	bf00      	nop
 800981c:	0800d59a 	.word	0x0800d59a
 8009820:	0800d58a 	.word	0x0800d58a

08009824 <__sbprintf>:
 8009824:	b5f0      	push	{r4, r5, r6, r7, lr}
 8009826:	460c      	mov	r4, r1
 8009828:	f2ad 4d6c 	subw	sp, sp, #1132	; 0x46c
 800982c:	461f      	mov	r7, r3
 800982e:	8989      	ldrh	r1, [r1, #12]
 8009830:	6e63      	ldr	r3, [r4, #100]	; 0x64
 8009832:	9319      	str	r3, [sp, #100]	; 0x64
 8009834:	89e3      	ldrh	r3, [r4, #14]
 8009836:	f8ad 300e 	strh.w	r3, [sp, #14]
 800983a:	f021 0102 	bic.w	r1, r1, #2
 800983e:	69e3      	ldr	r3, [r4, #28]
 8009840:	f8ad 100c 	strh.w	r1, [sp, #12]
 8009844:	9307      	str	r3, [sp, #28]
 8009846:	a91a      	add	r1, sp, #104	; 0x68
 8009848:	6a63      	ldr	r3, [r4, #36]	; 0x24
 800984a:	9309      	str	r3, [sp, #36]	; 0x24
 800984c:	4615      	mov	r5, r2
 800984e:	2300      	movs	r3, #0
 8009850:	4606      	mov	r6, r0
 8009852:	9100      	str	r1, [sp, #0]
 8009854:	9104      	str	r1, [sp, #16]
 8009856:	a816      	add	r0, sp, #88	; 0x58
 8009858:	f44f 6180 	mov.w	r1, #1024	; 0x400
 800985c:	9102      	str	r1, [sp, #8]
 800985e:	9105      	str	r1, [sp, #20]
 8009860:	9306      	str	r3, [sp, #24]
 8009862:	f001 fdb7 	bl	800b3d4 <__retarget_lock_init_recursive>
 8009866:	462a      	mov	r2, r5
 8009868:	463b      	mov	r3, r7
 800986a:	4669      	mov	r1, sp
 800986c:	4630      	mov	r0, r6
 800986e:	f7fe fd67 	bl	8008340 <_vfprintf_r>
 8009872:	1e05      	subs	r5, r0, #0
 8009874:	db07      	blt.n	8009886 <__sbprintf+0x62>
 8009876:	4669      	mov	r1, sp
 8009878:	4630      	mov	r0, r6
 800987a:	f000 ff3f 	bl	800a6fc <_fflush_r>
 800987e:	2800      	cmp	r0, #0
 8009880:	bf18      	it	ne
 8009882:	f04f 35ff 	movne.w	r5, #4294967295
 8009886:	f8bd 300c 	ldrh.w	r3, [sp, #12]
 800988a:	9816      	ldr	r0, [sp, #88]	; 0x58
 800988c:	065b      	lsls	r3, r3, #25
 800988e:	bf42      	ittt	mi
 8009890:	89a3      	ldrhmi	r3, [r4, #12]
 8009892:	f043 0340 	orrmi.w	r3, r3, #64	; 0x40
 8009896:	81a3      	strhmi	r3, [r4, #12]
 8009898:	f001 fd9d 	bl	800b3d6 <__retarget_lock_close_recursive>
 800989c:	4628      	mov	r0, r5
 800989e:	f20d 4d6c 	addw	sp, sp, #1132	; 0x46c
 80098a2:	bdf0      	pop	{r4, r5, r6, r7, pc}

080098a4 <__swsetup_r>:
 80098a4:	b538      	push	{r3, r4, r5, lr}
 80098a6:	4b2a      	ldr	r3, [pc, #168]	; (8009950 <__swsetup_r+0xac>)
 80098a8:	4605      	mov	r5, r0
 80098aa:	6818      	ldr	r0, [r3, #0]
 80098ac:	460c      	mov	r4, r1
 80098ae:	b118      	cbz	r0, 80098b8 <__swsetup_r+0x14>
 80098b0:	6b83      	ldr	r3, [r0, #56]	; 0x38
 80098b2:	b90b      	cbnz	r3, 80098b8 <__swsetup_r+0x14>
 80098b4:	f000 ff8e 	bl	800a7d4 <__sinit>
 80098b8:	f9b4 300c 	ldrsh.w	r3, [r4, #12]
 80098bc:	b29a      	uxth	r2, r3
 80098be:	0711      	lsls	r1, r2, #28
 80098c0:	d422      	bmi.n	8009908 <__swsetup_r+0x64>
 80098c2:	06d0      	lsls	r0, r2, #27
 80098c4:	d407      	bmi.n	80098d6 <__swsetup_r+0x32>
 80098c6:	2209      	movs	r2, #9
 80098c8:	602a      	str	r2, [r5, #0]
 80098ca:	f043 0340 	orr.w	r3, r3, #64	; 0x40
 80098ce:	81a3      	strh	r3, [r4, #12]
 80098d0:	f04f 30ff 	mov.w	r0, #4294967295
 80098d4:	e034      	b.n	8009940 <__swsetup_r+0x9c>
 80098d6:	0751      	lsls	r1, r2, #29
 80098d8:	d512      	bpl.n	8009900 <__swsetup_r+0x5c>
 80098da:	6b21      	ldr	r1, [r4, #48]	; 0x30
 80098dc:	b141      	cbz	r1, 80098f0 <__swsetup_r+0x4c>
 80098de:	f104 0340 	add.w	r3, r4, #64	; 0x40
 80098e2:	4299      	cmp	r1, r3
 80098e4:	d002      	beq.n	80098ec <__swsetup_r+0x48>
 80098e6:	4628      	mov	r0, r5
 80098e8:	f001 f804 	bl	800a8f4 <_free_r>
 80098ec:	2300      	movs	r3, #0
 80098ee:	6323      	str	r3, [r4, #48]	; 0x30
 80098f0:	89a3      	ldrh	r3, [r4, #12]
 80098f2:	f023 0324 	bic.w	r3, r3, #36	; 0x24
 80098f6:	81a3      	strh	r3, [r4, #12]
 80098f8:	2300      	movs	r3, #0
 80098fa:	6063      	str	r3, [r4, #4]
 80098fc:	6923      	ldr	r3, [r4, #16]
 80098fe:	6023      	str	r3, [r4, #0]
 8009900:	89a3      	ldrh	r3, [r4, #12]
 8009902:	f043 0308 	orr.w	r3, r3, #8
 8009906:	81a3      	strh	r3, [r4, #12]
 8009908:	6923      	ldr	r3, [r4, #16]
 800990a:	b94b      	cbnz	r3, 8009920 <__swsetup_r+0x7c>
 800990c:	89a3      	ldrh	r3, [r4, #12]
 800990e:	f403 7320 	and.w	r3, r3, #640	; 0x280
 8009912:	f5b3 7f00 	cmp.w	r3, #512	; 0x200
 8009916:	d003      	beq.n	8009920 <__swsetup_r+0x7c>
 8009918:	4621      	mov	r1, r4
 800991a:	4628      	mov	r0, r5
 800991c:	f001 fd8a 	bl	800b434 <__smakebuf_r>
 8009920:	89a2      	ldrh	r2, [r4, #12]
 8009922:	f012 0301 	ands.w	r3, r2, #1
 8009926:	d00c      	beq.n	8009942 <__swsetup_r+0x9e>
 8009928:	2300      	movs	r3, #0
 800992a:	60a3      	str	r3, [r4, #8]
 800992c:	6963      	ldr	r3, [r4, #20]
 800992e:	425b      	negs	r3, r3
 8009930:	61a3      	str	r3, [r4, #24]
 8009932:	6923      	ldr	r3, [r4, #16]
 8009934:	b953      	cbnz	r3, 800994c <__swsetup_r+0xa8>
 8009936:	f9b4 300c 	ldrsh.w	r3, [r4, #12]
 800993a:	f013 0080 	ands.w	r0, r3, #128	; 0x80
 800993e:	d1c4      	bne.n	80098ca <__swsetup_r+0x26>
 8009940:	bd38      	pop	{r3, r4, r5, pc}
 8009942:	0792      	lsls	r2, r2, #30
 8009944:	bf58      	it	pl
 8009946:	6963      	ldrpl	r3, [r4, #20]
 8009948:	60a3      	str	r3, [r4, #8]
 800994a:	e7f2      	b.n	8009932 <__swsetup_r+0x8e>
 800994c:	2000      	movs	r0, #0
 800994e:	e7f7      	b.n	8009940 <__swsetup_r+0x9c>
 8009950:	20000010 	.word	0x20000010

08009954 <register_fini>:
 8009954:	4b02      	ldr	r3, [pc, #8]	; (8009960 <register_fini+0xc>)
 8009956:	b113      	cbz	r3, 800995e <register_fini+0xa>
 8009958:	4802      	ldr	r0, [pc, #8]	; (8009964 <register_fini+0x10>)
 800995a:	f000 b805 	b.w	8009968 <atexit>
 800995e:	4770      	bx	lr
 8009960:	00000000 	.word	0x00000000
 8009964:	0800a825 	.word	0x0800a825

08009968 <atexit>:
 8009968:	2300      	movs	r3, #0
 800996a:	4601      	mov	r1, r0
 800996c:	461a      	mov	r2, r3
 800996e:	4618      	mov	r0, r3
 8009970:	f002 be98 	b.w	800c6a4 <__register_exitproc>

08009974 <quorem>:
 8009974:	e92d 4ff7 	stmdb	sp!, {r0, r1, r2, r4, r5, r6, r7, r8, r9, sl, fp, lr}
 8009978:	6903      	ldr	r3, [r0, #16]
 800997a:	690c      	ldr	r4, [r1, #16]
 800997c:	42a3      	cmp	r3, r4
 800997e:	4680      	mov	r8, r0
 8009980:	f2c0 8082 	blt.w	8009a88 <quorem+0x114>
 8009984:	3c01      	subs	r4, #1
 8009986:	f101 0714 	add.w	r7, r1, #20
 800998a:	ea4f 0c84 	mov.w	ip, r4, lsl #2
 800998e:	f100 0614 	add.w	r6, r0, #20
 8009992:	f857 5024 	ldr.w	r5, [r7, r4, lsl #2]
 8009996:	f856 0024 	ldr.w	r0, [r6, r4, lsl #2]
 800999a:	eb06 030c 	add.w	r3, r6, ip
 800999e:	3501      	adds	r5, #1
 80099a0:	eb07 090c 	add.w	r9, r7, ip
 80099a4:	9301      	str	r3, [sp, #4]
 80099a6:	fbb0 f5f5 	udiv	r5, r0, r5
 80099aa:	b395      	cbz	r5, 8009a12 <quorem+0x9e>
 80099ac:	f04f 0a00 	mov.w	sl, #0
 80099b0:	4638      	mov	r0, r7
 80099b2:	46b6      	mov	lr, r6
 80099b4:	46d3      	mov	fp, sl
 80099b6:	f850 2b04 	ldr.w	r2, [r0], #4
 80099ba:	b293      	uxth	r3, r2
 80099bc:	fb05 a303 	mla	r3, r5, r3, sl
 80099c0:	ea4f 4a13 	mov.w	sl, r3, lsr #16
 80099c4:	b29b      	uxth	r3, r3
 80099c6:	ebab 0303 	sub.w	r3, fp, r3
 80099ca:	0c12      	lsrs	r2, r2, #16
 80099cc:	f8de b000 	ldr.w	fp, [lr]
 80099d0:	fb05 a202 	mla	r2, r5, r2, sl
 80099d4:	fa13 f38b 	uxtah	r3, r3, fp
 80099d8:	ea4f 4a12 	mov.w	sl, r2, lsr #16
 80099dc:	fa1f fb82 	uxth.w	fp, r2
 80099e0:	f8de 2000 	ldr.w	r2, [lr]
 80099e4:	ebcb 4212 	rsb	r2, fp, r2, lsr #16
 80099e8:	eb02 4223 	add.w	r2, r2, r3, asr #16
 80099ec:	b29b      	uxth	r3, r3
 80099ee:	ea43 4302 	orr.w	r3, r3, r2, lsl #16
 80099f2:	4581      	cmp	r9, r0
 80099f4:	ea4f 4b22 	mov.w	fp, r2, asr #16
 80099f8:	f84e 3b04 	str.w	r3, [lr], #4
 80099fc:	d2db      	bcs.n	80099b6 <quorem+0x42>
 80099fe:	f856 300c 	ldr.w	r3, [r6, ip]
 8009a02:	b933      	cbnz	r3, 8009a12 <quorem+0x9e>
 8009a04:	9b01      	ldr	r3, [sp, #4]
 8009a06:	3b04      	subs	r3, #4
 8009a08:	429e      	cmp	r6, r3
 8009a0a:	461a      	mov	r2, r3
 8009a0c:	d330      	bcc.n	8009a70 <quorem+0xfc>
 8009a0e:	f8c8 4010 	str.w	r4, [r8, #16]
 8009a12:	4640      	mov	r0, r8
 8009a14:	f002 f9e4 	bl	800bde0 <__mcmp>
 8009a18:	2800      	cmp	r0, #0
 8009a1a:	db25      	blt.n	8009a68 <quorem+0xf4>
 8009a1c:	3501      	adds	r5, #1
 8009a1e:	4630      	mov	r0, r6
 8009a20:	f04f 0c00 	mov.w	ip, #0
 8009a24:	f857 2b04 	ldr.w	r2, [r7], #4
 8009a28:	f8d0 e000 	ldr.w	lr, [r0]
 8009a2c:	b293      	uxth	r3, r2
 8009a2e:	ebac 0303 	sub.w	r3, ip, r3
 8009a32:	0c12      	lsrs	r2, r2, #16
 8009a34:	fa13 f38e 	uxtah	r3, r3, lr
 8009a38:	ebc2 421e 	rsb	r2, r2, lr, lsr #16
 8009a3c:	eb02 4223 	add.w	r2, r2, r3, asr #16
 8009a40:	b29b      	uxth	r3, r3
 8009a42:	ea43 4302 	orr.w	r3, r3, r2, lsl #16
 8009a46:	45b9      	cmp	r9, r7
 8009a48:	ea4f 4c22 	mov.w	ip, r2, asr #16
 8009a4c:	f840 3b04 	str.w	r3, [r0], #4
 8009a50:	d2e8      	bcs.n	8009a24 <quorem+0xb0>
 8009a52:	f856 2024 	ldr.w	r2, [r6, r4, lsl #2]
 8009a56:	eb06 0384 	add.w	r3, r6, r4, lsl #2
 8009a5a:	b92a      	cbnz	r2, 8009a68 <quorem+0xf4>
 8009a5c:	3b04      	subs	r3, #4
 8009a5e:	429e      	cmp	r6, r3
 8009a60:	461a      	mov	r2, r3
 8009a62:	d30b      	bcc.n	8009a7c <quorem+0x108>
 8009a64:	f8c8 4010 	str.w	r4, [r8, #16]
 8009a68:	4628      	mov	r0, r5
 8009a6a:	b003      	add	sp, #12
 8009a6c:	e8bd 8ff0 	ldmia.w	sp!, {r4, r5, r6, r7, r8, r9, sl, fp, pc}
 8009a70:	6812      	ldr	r2, [r2, #0]
 8009a72:	3b04      	subs	r3, #4
 8009a74:	2a00      	cmp	r2, #0
 8009a76:	d1ca      	bne.n	8009a0e <quorem+0x9a>
 8009a78:	3c01      	subs	r4, #1
 8009a7a:	e7c5      	b.n	8009a08 <quorem+0x94>
 8009a7c:	6812      	ldr	r2, [r2, #0]
 8009a7e:	3b04      	subs	r3, #4
 8009a80:	2a00      	cmp	r2, #0
 8009a82:	d1ef      	bne.n	8009a64 <quorem+0xf0>
 8009a84:	3c01      	subs	r4, #1
 8009a86:	e7ea      	b.n	8009a5e <quorem+0xea>
 8009a88:	2000      	movs	r0, #0
 8009a8a:	e7ee      	b.n	8009a6a <quorem+0xf6>
 8009a8c:	0000      	movs	r0, r0
	...

08009a90 <_dtoa_r>:
 8009a90:	e92d 4ff0 	stmdb	sp!, {r4, r5, r6, r7, r8, r9, sl, fp, lr}
 8009a94:	b097      	sub	sp, #92	; 0x5c
 8009a96:	ec57 6b10 	vmov	r6, r7, d0
 8009a9a:	9106      	str	r1, [sp, #24]
 8009a9c:	6c01      	ldr	r1, [r0, #64]	; 0x40
 8009a9e:	920b      	str	r2, [sp, #44]	; 0x2c
 8009aa0:	4604      	mov	r4, r0
 8009aa2:	9312      	str	r3, [sp, #72]	; 0x48
 8009aa4:	9d20      	ldr	r5, [sp, #128]	; 0x80
 8009aa6:	e9cd 6700 	strd	r6, r7, [sp]
 8009aaa:	b141      	cbz	r1, 8009abe <_dtoa_r+0x2e>
 8009aac:	6c42      	ldr	r2, [r0, #68]	; 0x44
 8009aae:	604a      	str	r2, [r1, #4]
 8009ab0:	2301      	movs	r3, #1
 8009ab2:	4093      	lsls	r3, r2
 8009ab4:	608b      	str	r3, [r1, #8]
 8009ab6:	f001 ff90 	bl	800b9da <_Bfree>
 8009aba:	2300      	movs	r3, #0
 8009abc:	6423      	str	r3, [r4, #64]	; 0x40
 8009abe:	1e3b      	subs	r3, r7, #0
 8009ac0:	bfb9      	ittee	lt
 8009ac2:	f023 4300 	biclt.w	r3, r3, #2147483648	; 0x80000000
 8009ac6:	9301      	strlt	r3, [sp, #4]
 8009ac8:	2300      	movge	r3, #0
 8009aca:	602b      	strge	r3, [r5, #0]
 8009acc:	f8dd 8004 	ldr.w	r8, [sp, #4]
 8009ad0:	4baf      	ldr	r3, [pc, #700]	; (8009d90 <_dtoa_r+0x300>)
 8009ad2:	bfbc      	itt	lt
 8009ad4:	2201      	movlt	r2, #1
 8009ad6:	602a      	strlt	r2, [r5, #0]
 8009ad8:	ea33 0308 	bics.w	r3, r3, r8
 8009adc:	d116      	bne.n	8009b0c <_dtoa_r+0x7c>
 8009ade:	9a12      	ldr	r2, [sp, #72]	; 0x48
 8009ae0:	f242 730f 	movw	r3, #9999	; 0x270f
 8009ae4:	6013      	str	r3, [r2, #0]
 8009ae6:	9b00      	ldr	r3, [sp, #0]
 8009ae8:	b923      	cbnz	r3, 8009af4 <_dtoa_r+0x64>
 8009aea:	f3c8 0013 	ubfx	r0, r8, #0, #20
 8009aee:	2800      	cmp	r0, #0
 8009af0:	f000 8543 	beq.w	800a57a <_dtoa_r+0xaea>
 8009af4:	9b21      	ldr	r3, [sp, #132]	; 0x84
 8009af6:	f8df b2ac 	ldr.w	fp, [pc, #684]	; 8009da4 <_dtoa_r+0x314>
 8009afa:	b11b      	cbz	r3, 8009b04 <_dtoa_r+0x74>
 8009afc:	f10b 0303 	add.w	r3, fp, #3
 8009b00:	9a21      	ldr	r2, [sp, #132]	; 0x84
 8009b02:	6013      	str	r3, [r2, #0]
 8009b04:	4658      	mov	r0, fp
 8009b06:	b017      	add	sp, #92	; 0x5c
 8009b08:	e8bd 8ff0 	ldmia.w	sp!, {r4, r5, r6, r7, r8, r9, sl, fp, pc}
 8009b0c:	e9dd 6700 	ldrd	r6, r7, [sp]
 8009b10:	2200      	movs	r2, #0
 8009b12:	2300      	movs	r3, #0
 8009b14:	4630      	mov	r0, r6
 8009b16:	4639      	mov	r1, r7
 8009b18:	f7f6 fff6 	bl	8000b08 <__aeabi_dcmpeq>
 8009b1c:	4681      	mov	r9, r0
 8009b1e:	b160      	cbz	r0, 8009b3a <_dtoa_r+0xaa>
 8009b20:	9a12      	ldr	r2, [sp, #72]	; 0x48
 8009b22:	2301      	movs	r3, #1
 8009b24:	6013      	str	r3, [r2, #0]
 8009b26:	9b21      	ldr	r3, [sp, #132]	; 0x84
 8009b28:	2b00      	cmp	r3, #0
 8009b2a:	f000 8522 	beq.w	800a572 <_dtoa_r+0xae2>
 8009b2e:	4b99      	ldr	r3, [pc, #612]	; (8009d94 <_dtoa_r+0x304>)
 8009b30:	9a21      	ldr	r2, [sp, #132]	; 0x84
 8009b32:	f103 3bff 	add.w	fp, r3, #4294967295
 8009b36:	6013      	str	r3, [r2, #0]
 8009b38:	e7e4      	b.n	8009b04 <_dtoa_r+0x74>
 8009b3a:	aa14      	add	r2, sp, #80	; 0x50
 8009b3c:	a915      	add	r1, sp, #84	; 0x54
 8009b3e:	ec47 6b10 	vmov	d0, r6, r7
 8009b42:	4620      	mov	r0, r4
 8009b44:	f002 fa3a 	bl	800bfbc <__d2b>
 8009b48:	f3c8 550a 	ubfx	r5, r8, #20, #11
 8009b4c:	9004      	str	r0, [sp, #16]
 8009b4e:	2d00      	cmp	r5, #0
 8009b50:	d07c      	beq.n	8009c4c <_dtoa_r+0x1bc>
 8009b52:	f3c7 0313 	ubfx	r3, r7, #0, #20
 8009b56:	f043 5b7f 	orr.w	fp, r3, #1069547520	; 0x3fc00000
 8009b5a:	46b2      	mov	sl, r6
 8009b5c:	f44b 1b40 	orr.w	fp, fp, #3145728	; 0x300000
 8009b60:	f2a5 35ff 	subw	r5, r5, #1023	; 0x3ff
 8009b64:	f8cd 904c 	str.w	r9, [sp, #76]	; 0x4c
 8009b68:	2200      	movs	r2, #0
 8009b6a:	4b8b      	ldr	r3, [pc, #556]	; (8009d98 <_dtoa_r+0x308>)
 8009b6c:	4650      	mov	r0, sl
 8009b6e:	4659      	mov	r1, fp
 8009b70:	f7f6 fbaa 	bl	80002c8 <__aeabi_dsub>
 8009b74:	a380      	add	r3, pc, #512	; (adr r3, 8009d78 <_dtoa_r+0x2e8>)
 8009b76:	e9d3 2300 	ldrd	r2, r3, [r3]
 8009b7a:	f7f6 fd5d 	bl	8000638 <__aeabi_dmul>
 8009b7e:	a380      	add	r3, pc, #512	; (adr r3, 8009d80 <_dtoa_r+0x2f0>)
 8009b80:	e9d3 2300 	ldrd	r2, r3, [r3]
 8009b84:	f7f6 fba2 	bl	80002cc <__adddf3>
 8009b88:	4606      	mov	r6, r0
 8009b8a:	4628      	mov	r0, r5
 8009b8c:	460f      	mov	r7, r1
 8009b8e:	f7f6 fce9 	bl	8000564 <__aeabi_i2d>
 8009b92:	a37d      	add	r3, pc, #500	; (adr r3, 8009d88 <_dtoa_r+0x2f8>)
 8009b94:	e9d3 2300 	ldrd	r2, r3, [r3]
 8009b98:	f7f6 fd4e 	bl	8000638 <__aeabi_dmul>
 8009b9c:	4602      	mov	r2, r0
 8009b9e:	460b      	mov	r3, r1
 8009ba0:	4630      	mov	r0, r6
 8009ba2:	4639      	mov	r1, r7
 8009ba4:	f7f6 fb92 	bl	80002cc <__adddf3>
 8009ba8:	4606      	mov	r6, r0
 8009baa:	460f      	mov	r7, r1
 8009bac:	f7f6 fff4 	bl	8000b98 <__aeabi_d2iz>
 8009bb0:	2200      	movs	r2, #0
 8009bb2:	4682      	mov	sl, r0
 8009bb4:	2300      	movs	r3, #0
 8009bb6:	4630      	mov	r0, r6
 8009bb8:	4639      	mov	r1, r7
 8009bba:	f7f6 ffaf 	bl	8000b1c <__aeabi_dcmplt>
 8009bbe:	b148      	cbz	r0, 8009bd4 <_dtoa_r+0x144>
 8009bc0:	4650      	mov	r0, sl
 8009bc2:	f7f6 fccf 	bl	8000564 <__aeabi_i2d>
 8009bc6:	4632      	mov	r2, r6
 8009bc8:	463b      	mov	r3, r7
 8009bca:	f7f6 ff9d 	bl	8000b08 <__aeabi_dcmpeq>
 8009bce:	b908      	cbnz	r0, 8009bd4 <_dtoa_r+0x144>
 8009bd0:	f10a 3aff 	add.w	sl, sl, #4294967295
 8009bd4:	f1ba 0f16 	cmp.w	sl, #22
 8009bd8:	d859      	bhi.n	8009c8e <_dtoa_r+0x1fe>
 8009bda:	4970      	ldr	r1, [pc, #448]	; (8009d9c <_dtoa_r+0x30c>)
 8009bdc:	eb01 01ca 	add.w	r1, r1, sl, lsl #3
 8009be0:	e9dd 2300 	ldrd	r2, r3, [sp]
 8009be4:	e9d1 0100 	ldrd	r0, r1, [r1]
 8009be8:	f7f6 ffb6 	bl	8000b58 <__aeabi_dcmpgt>
 8009bec:	2800      	cmp	r0, #0
 8009bee:	d050      	beq.n	8009c92 <_dtoa_r+0x202>
 8009bf0:	f10a 3aff 	add.w	sl, sl, #4294967295
 8009bf4:	2300      	movs	r3, #0
 8009bf6:	930f      	str	r3, [sp, #60]	; 0x3c
 8009bf8:	9b14      	ldr	r3, [sp, #80]	; 0x50
 8009bfa:	1b5d      	subs	r5, r3, r5
 8009bfc:	f1b5 0801 	subs.w	r8, r5, #1
 8009c00:	bf49      	itett	mi
 8009c02:	f1c5 0301 	rsbmi	r3, r5, #1
 8009c06:	2300      	movpl	r3, #0
 8009c08:	9305      	strmi	r3, [sp, #20]
 8009c0a:	f04f 0800 	movmi.w	r8, #0
 8009c0e:	bf58      	it	pl
 8009c10:	9305      	strpl	r3, [sp, #20]
 8009c12:	f1ba 0f00 	cmp.w	sl, #0
 8009c16:	db3e      	blt.n	8009c96 <_dtoa_r+0x206>
 8009c18:	2300      	movs	r3, #0
 8009c1a:	44d0      	add	r8, sl
 8009c1c:	f8cd a038 	str.w	sl, [sp, #56]	; 0x38
 8009c20:	9307      	str	r3, [sp, #28]
 8009c22:	9b06      	ldr	r3, [sp, #24]
 8009c24:	2b09      	cmp	r3, #9
 8009c26:	f200 808d 	bhi.w	8009d44 <_dtoa_r+0x2b4>
 8009c2a:	2b05      	cmp	r3, #5
 8009c2c:	bfc4      	itt	gt
 8009c2e:	3b04      	subgt	r3, #4
 8009c30:	9306      	strgt	r3, [sp, #24]
 8009c32:	9b06      	ldr	r3, [sp, #24]
 8009c34:	f1a3 0302 	sub.w	r3, r3, #2
 8009c38:	bfcc      	ite	gt
 8009c3a:	2500      	movgt	r5, #0
 8009c3c:	2501      	movle	r5, #1
 8009c3e:	2b03      	cmp	r3, #3
 8009c40:	f200 808c 	bhi.w	8009d5c <_dtoa_r+0x2cc>
 8009c44:	e8df f003 	tbb	[pc, r3]
 8009c48:	6e317c7a 	.word	0x6e317c7a
 8009c4c:	e9dd 5314 	ldrd	r5, r3, [sp, #80]	; 0x50
 8009c50:	441d      	add	r5, r3
 8009c52:	f205 4032 	addw	r0, r5, #1074	; 0x432
 8009c56:	2820      	cmp	r0, #32
 8009c58:	dd13      	ble.n	8009c82 <_dtoa_r+0x1f2>
 8009c5a:	f1c0 0040 	rsb	r0, r0, #64	; 0x40
 8009c5e:	9b00      	ldr	r3, [sp, #0]
 8009c60:	fa08 f800 	lsl.w	r8, r8, r0
 8009c64:	f205 4012 	addw	r0, r5, #1042	; 0x412
 8009c68:	fa23 f000 	lsr.w	r0, r3, r0
 8009c6c:	ea48 0000 	orr.w	r0, r8, r0
 8009c70:	f7f6 fc68 	bl	8000544 <__aeabi_ui2d>
 8009c74:	2301      	movs	r3, #1
 8009c76:	4682      	mov	sl, r0
 8009c78:	f1a1 7bf8 	sub.w	fp, r1, #32505856	; 0x1f00000
 8009c7c:	3d01      	subs	r5, #1
 8009c7e:	9313      	str	r3, [sp, #76]	; 0x4c
 8009c80:	e772      	b.n	8009b68 <_dtoa_r+0xd8>
 8009c82:	9b00      	ldr	r3, [sp, #0]
 8009c84:	f1c0 0020 	rsb	r0, r0, #32
 8009c88:	fa03 f000 	lsl.w	r0, r3, r0
 8009c8c:	e7f0      	b.n	8009c70 <_dtoa_r+0x1e0>
 8009c8e:	2301      	movs	r3, #1
 8009c90:	e7b1      	b.n	8009bf6 <_dtoa_r+0x166>
 8009c92:	900f      	str	r0, [sp, #60]	; 0x3c
 8009c94:	e7b0      	b.n	8009bf8 <_dtoa_r+0x168>
 8009c96:	9b05      	ldr	r3, [sp, #20]
 8009c98:	eba3 030a 	sub.w	r3, r3, sl
 8009c9c:	9305      	str	r3, [sp, #20]
 8009c9e:	f1ca 0300 	rsb	r3, sl, #0
 8009ca2:	9307      	str	r3, [sp, #28]
 8009ca4:	2300      	movs	r3, #0
 8009ca6:	930e      	str	r3, [sp, #56]	; 0x38
 8009ca8:	e7bb      	b.n	8009c22 <_dtoa_r+0x192>
 8009caa:	2301      	movs	r3, #1
 8009cac:	930a      	str	r3, [sp, #40]	; 0x28
 8009cae:	9b0b      	ldr	r3, [sp, #44]	; 0x2c
 8009cb0:	2b00      	cmp	r3, #0
 8009cb2:	dd56      	ble.n	8009d62 <_dtoa_r+0x2d2>
 8009cb4:	9302      	str	r3, [sp, #8]
 8009cb6:	4699      	mov	r9, r3
 8009cb8:	2200      	movs	r2, #0
 8009cba:	6462      	str	r2, [r4, #68]	; 0x44
 8009cbc:	2204      	movs	r2, #4
 8009cbe:	f102 0014 	add.w	r0, r2, #20
 8009cc2:	4298      	cmp	r0, r3
 8009cc4:	6c61      	ldr	r1, [r4, #68]	; 0x44
 8009cc6:	d951      	bls.n	8009d6c <_dtoa_r+0x2dc>
 8009cc8:	4620      	mov	r0, r4
 8009cca:	f001 fe61 	bl	800b990 <_Balloc>
 8009cce:	f1b9 0f0e 	cmp.w	r9, #14
 8009cd2:	4683      	mov	fp, r0
 8009cd4:	6420      	str	r0, [r4, #64]	; 0x40
 8009cd6:	f200 80e8 	bhi.w	8009eaa <_dtoa_r+0x41a>
 8009cda:	2d00      	cmp	r5, #0
 8009cdc:	f000 80e5 	beq.w	8009eaa <_dtoa_r+0x41a>
 8009ce0:	ed9d 7b00 	vldr	d7, [sp]
 8009ce4:	f1ba 0f00 	cmp.w	sl, #0
 8009ce8:	ed8d 7b10 	vstr	d7, [sp, #64]	; 0x40
 8009cec:	dd76      	ble.n	8009ddc <_dtoa_r+0x34c>
 8009cee:	4a2b      	ldr	r2, [pc, #172]	; (8009d9c <_dtoa_r+0x30c>)
 8009cf0:	f00a 030f 	and.w	r3, sl, #15
 8009cf4:	eb02 03c3 	add.w	r3, r2, r3, lsl #3
 8009cf8:	ed93 7b00 	vldr	d7, [r3]
 8009cfc:	ea4f 162a 	mov.w	r6, sl, asr #4
 8009d00:	06f0      	lsls	r0, r6, #27
 8009d02:	ed8d 7b08 	vstr	d7, [sp, #32]
 8009d06:	d567      	bpl.n	8009dd8 <_dtoa_r+0x348>
 8009d08:	4b25      	ldr	r3, [pc, #148]	; (8009da0 <_dtoa_r+0x310>)
 8009d0a:	e9dd 0110 	ldrd	r0, r1, [sp, #64]	; 0x40
 8009d0e:	e9d3 2308 	ldrd	r2, r3, [r3, #32]
 8009d12:	f7f6 fdbb 	bl	800088c <__aeabi_ddiv>
 8009d16:	e9cd 0100 	strd	r0, r1, [sp]
 8009d1a:	f006 060f 	and.w	r6, r6, #15
 8009d1e:	2503      	movs	r5, #3
 8009d20:	4f1f      	ldr	r7, [pc, #124]	; (8009da0 <_dtoa_r+0x310>)
 8009d22:	e04e      	b.n	8009dc2 <_dtoa_r+0x332>
 8009d24:	2301      	movs	r3, #1
 8009d26:	930a      	str	r3, [sp, #40]	; 0x28
 8009d28:	9b0b      	ldr	r3, [sp, #44]	; 0x2c
 8009d2a:	4453      	add	r3, sl
 8009d2c:	f103 0901 	add.w	r9, r3, #1
 8009d30:	9302      	str	r3, [sp, #8]
 8009d32:	464b      	mov	r3, r9
 8009d34:	2b01      	cmp	r3, #1
 8009d36:	bfb8      	it	lt
 8009d38:	2301      	movlt	r3, #1
 8009d3a:	e7bd      	b.n	8009cb8 <_dtoa_r+0x228>
 8009d3c:	2300      	movs	r3, #0
 8009d3e:	e7b5      	b.n	8009cac <_dtoa_r+0x21c>
 8009d40:	2300      	movs	r3, #0
 8009d42:	e7f0      	b.n	8009d26 <_dtoa_r+0x296>
 8009d44:	2501      	movs	r5, #1
 8009d46:	2300      	movs	r3, #0
 8009d48:	9306      	str	r3, [sp, #24]
 8009d4a:	950a      	str	r5, [sp, #40]	; 0x28
 8009d4c:	f04f 33ff 	mov.w	r3, #4294967295
 8009d50:	9302      	str	r3, [sp, #8]
 8009d52:	4699      	mov	r9, r3
 8009d54:	2200      	movs	r2, #0
 8009d56:	2312      	movs	r3, #18
 8009d58:	920b      	str	r2, [sp, #44]	; 0x2c
 8009d5a:	e7ad      	b.n	8009cb8 <_dtoa_r+0x228>
 8009d5c:	2301      	movs	r3, #1
 8009d5e:	930a      	str	r3, [sp, #40]	; 0x28
 8009d60:	e7f4      	b.n	8009d4c <_dtoa_r+0x2bc>
 8009d62:	2301      	movs	r3, #1
 8009d64:	9302      	str	r3, [sp, #8]
 8009d66:	4699      	mov	r9, r3
 8009d68:	461a      	mov	r2, r3
 8009d6a:	e7f5      	b.n	8009d58 <_dtoa_r+0x2c8>
 8009d6c:	3101      	adds	r1, #1
 8009d6e:	6461      	str	r1, [r4, #68]	; 0x44
 8009d70:	0052      	lsls	r2, r2, #1
 8009d72:	e7a4      	b.n	8009cbe <_dtoa_r+0x22e>
 8009d74:	f3af 8000 	nop.w
 8009d78:	636f4361 	.word	0x636f4361
 8009d7c:	3fd287a7 	.word	0x3fd287a7
 8009d80:	8b60c8b3 	.word	0x8b60c8b3
 8009d84:	3fc68a28 	.word	0x3fc68a28
 8009d88:	509f79fb 	.word	0x509f79fb
 8009d8c:	3fd34413 	.word	0x3fd34413
 8009d90:	7ff00000 	.word	0x7ff00000
 8009d94:	0800cde6 	.word	0x0800cde6
 8009d98:	3ff80000 	.word	0x3ff80000
 8009d9c:	0800d5f0 	.word	0x0800d5f0
 8009da0:	0800d5c8 	.word	0x0800d5c8
 8009da4:	0800d5b3 	.word	0x0800d5b3
 8009da8:	07f1      	lsls	r1, r6, #31
 8009daa:	d508      	bpl.n	8009dbe <_dtoa_r+0x32e>
 8009dac:	e9dd 0108 	ldrd	r0, r1, [sp, #32]
 8009db0:	e9d7 2300 	ldrd	r2, r3, [r7]
 8009db4:	f7f6 fc40 	bl	8000638 <__aeabi_dmul>
 8009db8:	e9cd 0108 	strd	r0, r1, [sp, #32]
 8009dbc:	3501      	adds	r5, #1
 8009dbe:	1076      	asrs	r6, r6, #1
 8009dc0:	3708      	adds	r7, #8
 8009dc2:	2e00      	cmp	r6, #0
 8009dc4:	d1f0      	bne.n	8009da8 <_dtoa_r+0x318>
 8009dc6:	e9dd 2308 	ldrd	r2, r3, [sp, #32]
 8009dca:	e9dd 0100 	ldrd	r0, r1, [sp]
 8009dce:	f7f6 fd5d 	bl	800088c <__aeabi_ddiv>
 8009dd2:	e9cd 0100 	strd	r0, r1, [sp]
 8009dd6:	e01a      	b.n	8009e0e <_dtoa_r+0x37e>
 8009dd8:	2502      	movs	r5, #2
 8009dda:	e7a1      	b.n	8009d20 <_dtoa_r+0x290>
 8009ddc:	f000 80a0 	beq.w	8009f20 <_dtoa_r+0x490>
 8009de0:	f1ca 0600 	rsb	r6, sl, #0
 8009de4:	4b9f      	ldr	r3, [pc, #636]	; (800a064 <_dtoa_r+0x5d4>)
 8009de6:	4fa0      	ldr	r7, [pc, #640]	; (800a068 <_dtoa_r+0x5d8>)
 8009de8:	f006 020f 	and.w	r2, r6, #15
 8009dec:	eb03 03c2 	add.w	r3, r3, r2, lsl #3
 8009df0:	e9d3 2300 	ldrd	r2, r3, [r3]
 8009df4:	e9dd 0110 	ldrd	r0, r1, [sp, #64]	; 0x40
 8009df8:	f7f6 fc1e 	bl	8000638 <__aeabi_dmul>
 8009dfc:	e9cd 0100 	strd	r0, r1, [sp]
 8009e00:	1136      	asrs	r6, r6, #4
 8009e02:	2300      	movs	r3, #0
 8009e04:	2502      	movs	r5, #2
 8009e06:	2e00      	cmp	r6, #0
 8009e08:	d17f      	bne.n	8009f0a <_dtoa_r+0x47a>
 8009e0a:	2b00      	cmp	r3, #0
 8009e0c:	d1e1      	bne.n	8009dd2 <_dtoa_r+0x342>
 8009e0e:	9b0f      	ldr	r3, [sp, #60]	; 0x3c
 8009e10:	2b00      	cmp	r3, #0
 8009e12:	f000 8087 	beq.w	8009f24 <_dtoa_r+0x494>
 8009e16:	e9dd 6700 	ldrd	r6, r7, [sp]
 8009e1a:	2200      	movs	r2, #0
 8009e1c:	4b93      	ldr	r3, [pc, #588]	; (800a06c <_dtoa_r+0x5dc>)
 8009e1e:	4630      	mov	r0, r6
 8009e20:	4639      	mov	r1, r7
 8009e22:	f7f6 fe7b 	bl	8000b1c <__aeabi_dcmplt>
 8009e26:	2800      	cmp	r0, #0
 8009e28:	d07c      	beq.n	8009f24 <_dtoa_r+0x494>
 8009e2a:	f1b9 0f00 	cmp.w	r9, #0
 8009e2e:	d079      	beq.n	8009f24 <_dtoa_r+0x494>
 8009e30:	9b02      	ldr	r3, [sp, #8]
 8009e32:	2b00      	cmp	r3, #0
 8009e34:	dd35      	ble.n	8009ea2 <_dtoa_r+0x412>
 8009e36:	f10a 33ff 	add.w	r3, sl, #4294967295
 8009e3a:	9308      	str	r3, [sp, #32]
 8009e3c:	4639      	mov	r1, r7
 8009e3e:	2200      	movs	r2, #0
 8009e40:	4b8b      	ldr	r3, [pc, #556]	; (800a070 <_dtoa_r+0x5e0>)
 8009e42:	4630      	mov	r0, r6
 8009e44:	f7f6 fbf8 	bl	8000638 <__aeabi_dmul>
 8009e48:	e9cd 0100 	strd	r0, r1, [sp]
 8009e4c:	9f02      	ldr	r7, [sp, #8]
 8009e4e:	3501      	adds	r5, #1
 8009e50:	4628      	mov	r0, r5
 8009e52:	f7f6 fb87 	bl	8000564 <__aeabi_i2d>
 8009e56:	e9dd 2300 	ldrd	r2, r3, [sp]
 8009e5a:	f7f6 fbed 	bl	8000638 <__aeabi_dmul>
 8009e5e:	2200      	movs	r2, #0
 8009e60:	4b84      	ldr	r3, [pc, #528]	; (800a074 <_dtoa_r+0x5e4>)
 8009e62:	f7f6 fa33 	bl	80002cc <__adddf3>
 8009e66:	4605      	mov	r5, r0
 8009e68:	f1a1 7650 	sub.w	r6, r1, #54525952	; 0x3400000
 8009e6c:	2f00      	cmp	r7, #0
 8009e6e:	d15d      	bne.n	8009f2c <_dtoa_r+0x49c>
 8009e70:	2200      	movs	r2, #0
 8009e72:	4b81      	ldr	r3, [pc, #516]	; (800a078 <_dtoa_r+0x5e8>)
 8009e74:	e9dd 0100 	ldrd	r0, r1, [sp]
 8009e78:	f7f6 fa26 	bl	80002c8 <__aeabi_dsub>
 8009e7c:	462a      	mov	r2, r5
 8009e7e:	4633      	mov	r3, r6
 8009e80:	e9cd 0100 	strd	r0, r1, [sp]
 8009e84:	f7f6 fe68 	bl	8000b58 <__aeabi_dcmpgt>
 8009e88:	2800      	cmp	r0, #0
 8009e8a:	f040 8288 	bne.w	800a39e <_dtoa_r+0x90e>
 8009e8e:	462a      	mov	r2, r5
 8009e90:	f106 4300 	add.w	r3, r6, #2147483648	; 0x80000000
 8009e94:	e9dd 0100 	ldrd	r0, r1, [sp]
 8009e98:	f7f6 fe40 	bl	8000b1c <__aeabi_dcmplt>
 8009e9c:	2800      	cmp	r0, #0
 8009e9e:	f040 827c 	bne.w	800a39a <_dtoa_r+0x90a>
 8009ea2:	e9dd 2310 	ldrd	r2, r3, [sp, #64]	; 0x40
 8009ea6:	e9cd 2300 	strd	r2, r3, [sp]
 8009eaa:	9b15      	ldr	r3, [sp, #84]	; 0x54
 8009eac:	2b00      	cmp	r3, #0
 8009eae:	f2c0 8150 	blt.w	800a152 <_dtoa_r+0x6c2>
 8009eb2:	f1ba 0f0e 	cmp.w	sl, #14
 8009eb6:	f300 814c 	bgt.w	800a152 <_dtoa_r+0x6c2>
 8009eba:	4b6a      	ldr	r3, [pc, #424]	; (800a064 <_dtoa_r+0x5d4>)
 8009ebc:	eb03 03ca 	add.w	r3, r3, sl, lsl #3
 8009ec0:	ed93 7b00 	vldr	d7, [r3]
 8009ec4:	9b0b      	ldr	r3, [sp, #44]	; 0x2c
 8009ec6:	2b00      	cmp	r3, #0
 8009ec8:	ed8d 7b02 	vstr	d7, [sp, #8]
 8009ecc:	f280 80d8 	bge.w	800a080 <_dtoa_r+0x5f0>
 8009ed0:	f1b9 0f00 	cmp.w	r9, #0
 8009ed4:	f300 80d4 	bgt.w	800a080 <_dtoa_r+0x5f0>
 8009ed8:	f040 825e 	bne.w	800a398 <_dtoa_r+0x908>
 8009edc:	2200      	movs	r2, #0
 8009ede:	4b66      	ldr	r3, [pc, #408]	; (800a078 <_dtoa_r+0x5e8>)
 8009ee0:	ec51 0b17 	vmov	r0, r1, d7
 8009ee4:	f7f6 fba8 	bl	8000638 <__aeabi_dmul>
 8009ee8:	e9dd 2300 	ldrd	r2, r3, [sp]
 8009eec:	f7f6 fe2a 	bl	8000b44 <__aeabi_dcmpge>
 8009ef0:	464f      	mov	r7, r9
 8009ef2:	464e      	mov	r6, r9
 8009ef4:	2800      	cmp	r0, #0
 8009ef6:	f040 8234 	bne.w	800a362 <_dtoa_r+0x8d2>
 8009efa:	2331      	movs	r3, #49	; 0x31
 8009efc:	f10b 0501 	add.w	r5, fp, #1
 8009f00:	f88b 3000 	strb.w	r3, [fp]
 8009f04:	f10a 0a01 	add.w	sl, sl, #1
 8009f08:	e22f      	b.n	800a36a <_dtoa_r+0x8da>
 8009f0a:	07f2      	lsls	r2, r6, #31
 8009f0c:	d505      	bpl.n	8009f1a <_dtoa_r+0x48a>
 8009f0e:	e9d7 2300 	ldrd	r2, r3, [r7]
 8009f12:	f7f6 fb91 	bl	8000638 <__aeabi_dmul>
 8009f16:	3501      	adds	r5, #1
 8009f18:	2301      	movs	r3, #1
 8009f1a:	1076      	asrs	r6, r6, #1
 8009f1c:	3708      	adds	r7, #8
 8009f1e:	e772      	b.n	8009e06 <_dtoa_r+0x376>
 8009f20:	2502      	movs	r5, #2
 8009f22:	e774      	b.n	8009e0e <_dtoa_r+0x37e>
 8009f24:	f8cd a020 	str.w	sl, [sp, #32]
 8009f28:	464f      	mov	r7, r9
 8009f2a:	e791      	b.n	8009e50 <_dtoa_r+0x3c0>
 8009f2c:	4b4d      	ldr	r3, [pc, #308]	; (800a064 <_dtoa_r+0x5d4>)
 8009f2e:	eb03 03c7 	add.w	r3, r3, r7, lsl #3
 8009f32:	e953 0102 	ldrd	r0, r1, [r3, #-8]
 8009f36:	9b0a      	ldr	r3, [sp, #40]	; 0x28
 8009f38:	2b00      	cmp	r3, #0
 8009f3a:	d047      	beq.n	8009fcc <_dtoa_r+0x53c>
 8009f3c:	4602      	mov	r2, r0
 8009f3e:	460b      	mov	r3, r1
 8009f40:	2000      	movs	r0, #0
 8009f42:	494e      	ldr	r1, [pc, #312]	; (800a07c <_dtoa_r+0x5ec>)
 8009f44:	f7f6 fca2 	bl	800088c <__aeabi_ddiv>
 8009f48:	462a      	mov	r2, r5
 8009f4a:	4633      	mov	r3, r6
 8009f4c:	f7f6 f9bc 	bl	80002c8 <__aeabi_dsub>
 8009f50:	e9cd 010c 	strd	r0, r1, [sp, #48]	; 0x30
 8009f54:	465d      	mov	r5, fp
 8009f56:	e9dd 0100 	ldrd	r0, r1, [sp]
 8009f5a:	f7f6 fe1d 	bl	8000b98 <__aeabi_d2iz>
 8009f5e:	4606      	mov	r6, r0
 8009f60:	f7f6 fb00 	bl	8000564 <__aeabi_i2d>
 8009f64:	4602      	mov	r2, r0
 8009f66:	460b      	mov	r3, r1
 8009f68:	e9dd 0100 	ldrd	r0, r1, [sp]
 8009f6c:	f7f6 f9ac 	bl	80002c8 <__aeabi_dsub>
 8009f70:	3630      	adds	r6, #48	; 0x30
 8009f72:	f805 6b01 	strb.w	r6, [r5], #1
 8009f76:	e9dd 230c 	ldrd	r2, r3, [sp, #48]	; 0x30
 8009f7a:	e9cd 0100 	strd	r0, r1, [sp]
 8009f7e:	f7f6 fdcd 	bl	8000b1c <__aeabi_dcmplt>
 8009f82:	2800      	cmp	r0, #0
 8009f84:	d163      	bne.n	800a04e <_dtoa_r+0x5be>
 8009f86:	e9dd 2300 	ldrd	r2, r3, [sp]
 8009f8a:	2000      	movs	r0, #0
 8009f8c:	4937      	ldr	r1, [pc, #220]	; (800a06c <_dtoa_r+0x5dc>)
 8009f8e:	f7f6 f99b 	bl	80002c8 <__aeabi_dsub>
 8009f92:	e9dd 230c 	ldrd	r2, r3, [sp, #48]	; 0x30
 8009f96:	f7f6 fdc1 	bl	8000b1c <__aeabi_dcmplt>
 8009f9a:	2800      	cmp	r0, #0
 8009f9c:	f040 80b7 	bne.w	800a10e <_dtoa_r+0x67e>
 8009fa0:	eba5 030b 	sub.w	r3, r5, fp
 8009fa4:	429f      	cmp	r7, r3
 8009fa6:	f77f af7c 	ble.w	8009ea2 <_dtoa_r+0x412>
 8009faa:	2200      	movs	r2, #0
 8009fac:	4b30      	ldr	r3, [pc, #192]	; (800a070 <_dtoa_r+0x5e0>)
 8009fae:	e9dd 010c 	ldrd	r0, r1, [sp, #48]	; 0x30
 8009fb2:	f7f6 fb41 	bl	8000638 <__aeabi_dmul>
 8009fb6:	2200      	movs	r2, #0
 8009fb8:	e9cd 010c 	strd	r0, r1, [sp, #48]	; 0x30
 8009fbc:	4b2c      	ldr	r3, [pc, #176]	; (800a070 <_dtoa_r+0x5e0>)
 8009fbe:	e9dd 0100 	ldrd	r0, r1, [sp]
 8009fc2:	f7f6 fb39 	bl	8000638 <__aeabi_dmul>
 8009fc6:	e9cd 0100 	strd	r0, r1, [sp]
 8009fca:	e7c4      	b.n	8009f56 <_dtoa_r+0x4c6>
 8009fcc:	462a      	mov	r2, r5
 8009fce:	4633      	mov	r3, r6
 8009fd0:	f7f6 fb32 	bl	8000638 <__aeabi_dmul>
 8009fd4:	e9cd 010c 	strd	r0, r1, [sp, #48]	; 0x30
 8009fd8:	eb0b 0507 	add.w	r5, fp, r7
 8009fdc:	465e      	mov	r6, fp
 8009fde:	e9dd 0100 	ldrd	r0, r1, [sp]
 8009fe2:	f7f6 fdd9 	bl	8000b98 <__aeabi_d2iz>
 8009fe6:	4607      	mov	r7, r0
 8009fe8:	f7f6 fabc 	bl	8000564 <__aeabi_i2d>
 8009fec:	3730      	adds	r7, #48	; 0x30
 8009fee:	4602      	mov	r2, r0
 8009ff0:	460b      	mov	r3, r1
 8009ff2:	e9dd 0100 	ldrd	r0, r1, [sp]
 8009ff6:	f7f6 f967 	bl	80002c8 <__aeabi_dsub>
 8009ffa:	f806 7b01 	strb.w	r7, [r6], #1
 8009ffe:	42ae      	cmp	r6, r5
 800a000:	e9cd 0100 	strd	r0, r1, [sp]
 800a004:	f04f 0200 	mov.w	r2, #0
 800a008:	d126      	bne.n	800a058 <_dtoa_r+0x5c8>
 800a00a:	4b1c      	ldr	r3, [pc, #112]	; (800a07c <_dtoa_r+0x5ec>)
 800a00c:	e9dd 010c 	ldrd	r0, r1, [sp, #48]	; 0x30
 800a010:	f7f6 f95c 	bl	80002cc <__adddf3>
 800a014:	4602      	mov	r2, r0
 800a016:	460b      	mov	r3, r1
 800a018:	e9dd 0100 	ldrd	r0, r1, [sp]
 800a01c:	f7f6 fd9c 	bl	8000b58 <__aeabi_dcmpgt>
 800a020:	2800      	cmp	r0, #0
 800a022:	d174      	bne.n	800a10e <_dtoa_r+0x67e>
 800a024:	e9dd 230c 	ldrd	r2, r3, [sp, #48]	; 0x30
 800a028:	2000      	movs	r0, #0
 800a02a:	4914      	ldr	r1, [pc, #80]	; (800a07c <_dtoa_r+0x5ec>)
 800a02c:	f7f6 f94c 	bl	80002c8 <__aeabi_dsub>
 800a030:	4602      	mov	r2, r0
 800a032:	460b      	mov	r3, r1
 800a034:	e9dd 0100 	ldrd	r0, r1, [sp]
 800a038:	f7f6 fd70 	bl	8000b1c <__aeabi_dcmplt>
 800a03c:	2800      	cmp	r0, #0
 800a03e:	f43f af30 	beq.w	8009ea2 <_dtoa_r+0x412>
 800a042:	f815 3c01 	ldrb.w	r3, [r5, #-1]
 800a046:	2b30      	cmp	r3, #48	; 0x30
 800a048:	f105 32ff 	add.w	r2, r5, #4294967295
 800a04c:	d002      	beq.n	800a054 <_dtoa_r+0x5c4>
 800a04e:	f8dd a020 	ldr.w	sl, [sp, #32]
 800a052:	e04a      	b.n	800a0ea <_dtoa_r+0x65a>
 800a054:	4615      	mov	r5, r2
 800a056:	e7f4      	b.n	800a042 <_dtoa_r+0x5b2>
 800a058:	4b05      	ldr	r3, [pc, #20]	; (800a070 <_dtoa_r+0x5e0>)
 800a05a:	f7f6 faed 	bl	8000638 <__aeabi_dmul>
 800a05e:	e9cd 0100 	strd	r0, r1, [sp]
 800a062:	e7bc      	b.n	8009fde <_dtoa_r+0x54e>
 800a064:	0800d5f0 	.word	0x0800d5f0
 800a068:	0800d5c8 	.word	0x0800d5c8
 800a06c:	3ff00000 	.word	0x3ff00000
 800a070:	40240000 	.word	0x40240000
 800a074:	401c0000 	.word	0x401c0000
 800a078:	40140000 	.word	0x40140000
 800a07c:	3fe00000 	.word	0x3fe00000
 800a080:	e9dd 6700 	ldrd	r6, r7, [sp]
 800a084:	465d      	mov	r5, fp
 800a086:	e9dd 2302 	ldrd	r2, r3, [sp, #8]
 800a08a:	4630      	mov	r0, r6
 800a08c:	4639      	mov	r1, r7
 800a08e:	f7f6 fbfd 	bl	800088c <__aeabi_ddiv>
 800a092:	f7f6 fd81 	bl	8000b98 <__aeabi_d2iz>
 800a096:	4680      	mov	r8, r0
 800a098:	f7f6 fa64 	bl	8000564 <__aeabi_i2d>
 800a09c:	e9dd 2302 	ldrd	r2, r3, [sp, #8]
 800a0a0:	f7f6 faca 	bl	8000638 <__aeabi_dmul>
 800a0a4:	4602      	mov	r2, r0
 800a0a6:	460b      	mov	r3, r1
 800a0a8:	4630      	mov	r0, r6
 800a0aa:	4639      	mov	r1, r7
 800a0ac:	f108 0630 	add.w	r6, r8, #48	; 0x30
 800a0b0:	f7f6 f90a 	bl	80002c8 <__aeabi_dsub>
 800a0b4:	f805 6b01 	strb.w	r6, [r5], #1
 800a0b8:	eba5 060b 	sub.w	r6, r5, fp
 800a0bc:	45b1      	cmp	r9, r6
 800a0be:	4602      	mov	r2, r0
 800a0c0:	460b      	mov	r3, r1
 800a0c2:	d139      	bne.n	800a138 <_dtoa_r+0x6a8>
 800a0c4:	f7f6 f902 	bl	80002cc <__adddf3>
 800a0c8:	e9dd 2302 	ldrd	r2, r3, [sp, #8]
 800a0cc:	4606      	mov	r6, r0
 800a0ce:	460f      	mov	r7, r1
 800a0d0:	f7f6 fd42 	bl	8000b58 <__aeabi_dcmpgt>
 800a0d4:	b9c8      	cbnz	r0, 800a10a <_dtoa_r+0x67a>
 800a0d6:	e9dd 2302 	ldrd	r2, r3, [sp, #8]
 800a0da:	4630      	mov	r0, r6
 800a0dc:	4639      	mov	r1, r7
 800a0de:	f7f6 fd13 	bl	8000b08 <__aeabi_dcmpeq>
 800a0e2:	b110      	cbz	r0, 800a0ea <_dtoa_r+0x65a>
 800a0e4:	f018 0f01 	tst.w	r8, #1
 800a0e8:	d10f      	bne.n	800a10a <_dtoa_r+0x67a>
 800a0ea:	9904      	ldr	r1, [sp, #16]
 800a0ec:	4620      	mov	r0, r4
 800a0ee:	f001 fc74 	bl	800b9da <_Bfree>
 800a0f2:	2300      	movs	r3, #0
 800a0f4:	9a12      	ldr	r2, [sp, #72]	; 0x48
 800a0f6:	702b      	strb	r3, [r5, #0]
 800a0f8:	f10a 0301 	add.w	r3, sl, #1
 800a0fc:	6013      	str	r3, [r2, #0]
 800a0fe:	9b21      	ldr	r3, [sp, #132]	; 0x84
 800a100:	2b00      	cmp	r3, #0
 800a102:	f43f acff 	beq.w	8009b04 <_dtoa_r+0x74>
 800a106:	601d      	str	r5, [r3, #0]
 800a108:	e4fc      	b.n	8009b04 <_dtoa_r+0x74>
 800a10a:	f8cd a020 	str.w	sl, [sp, #32]
 800a10e:	f815 2c01 	ldrb.w	r2, [r5, #-1]
 800a112:	2a39      	cmp	r2, #57	; 0x39
 800a114:	f105 33ff 	add.w	r3, r5, #4294967295
 800a118:	d108      	bne.n	800a12c <_dtoa_r+0x69c>
 800a11a:	459b      	cmp	fp, r3
 800a11c:	d10a      	bne.n	800a134 <_dtoa_r+0x6a4>
 800a11e:	9b08      	ldr	r3, [sp, #32]
 800a120:	3301      	adds	r3, #1
 800a122:	9308      	str	r3, [sp, #32]
 800a124:	2330      	movs	r3, #48	; 0x30
 800a126:	f88b 3000 	strb.w	r3, [fp]
 800a12a:	465b      	mov	r3, fp
 800a12c:	781a      	ldrb	r2, [r3, #0]
 800a12e:	3201      	adds	r2, #1
 800a130:	701a      	strb	r2, [r3, #0]
 800a132:	e78c      	b.n	800a04e <_dtoa_r+0x5be>
 800a134:	461d      	mov	r5, r3
 800a136:	e7ea      	b.n	800a10e <_dtoa_r+0x67e>
 800a138:	2200      	movs	r2, #0
 800a13a:	4b9b      	ldr	r3, [pc, #620]	; (800a3a8 <_dtoa_r+0x918>)
 800a13c:	f7f6 fa7c 	bl	8000638 <__aeabi_dmul>
 800a140:	2200      	movs	r2, #0
 800a142:	2300      	movs	r3, #0
 800a144:	4606      	mov	r6, r0
 800a146:	460f      	mov	r7, r1
 800a148:	f7f6 fcde 	bl	8000b08 <__aeabi_dcmpeq>
 800a14c:	2800      	cmp	r0, #0
 800a14e:	d09a      	beq.n	800a086 <_dtoa_r+0x5f6>
 800a150:	e7cb      	b.n	800a0ea <_dtoa_r+0x65a>
 800a152:	9a0a      	ldr	r2, [sp, #40]	; 0x28
 800a154:	2a00      	cmp	r2, #0
 800a156:	f000 808b 	beq.w	800a270 <_dtoa_r+0x7e0>
 800a15a:	9a06      	ldr	r2, [sp, #24]
 800a15c:	2a01      	cmp	r2, #1
 800a15e:	dc6e      	bgt.n	800a23e <_dtoa_r+0x7ae>
 800a160:	9a13      	ldr	r2, [sp, #76]	; 0x4c
 800a162:	2a00      	cmp	r2, #0
 800a164:	d067      	beq.n	800a236 <_dtoa_r+0x7a6>
 800a166:	f203 4333 	addw	r3, r3, #1075	; 0x433
 800a16a:	9f07      	ldr	r7, [sp, #28]
 800a16c:	9d05      	ldr	r5, [sp, #20]
 800a16e:	9a05      	ldr	r2, [sp, #20]
 800a170:	2101      	movs	r1, #1
 800a172:	441a      	add	r2, r3
 800a174:	4620      	mov	r0, r4
 800a176:	9205      	str	r2, [sp, #20]
 800a178:	4498      	add	r8, r3
 800a17a:	f001 fcfe 	bl	800bb7a <__i2b>
 800a17e:	4606      	mov	r6, r0
 800a180:	2d00      	cmp	r5, #0
 800a182:	dd0c      	ble.n	800a19e <_dtoa_r+0x70e>
 800a184:	f1b8 0f00 	cmp.w	r8, #0
 800a188:	dd09      	ble.n	800a19e <_dtoa_r+0x70e>
 800a18a:	4545      	cmp	r5, r8
 800a18c:	9a05      	ldr	r2, [sp, #20]
 800a18e:	462b      	mov	r3, r5
 800a190:	bfa8      	it	ge
 800a192:	4643      	movge	r3, r8
 800a194:	1ad2      	subs	r2, r2, r3
 800a196:	9205      	str	r2, [sp, #20]
 800a198:	1aed      	subs	r5, r5, r3
 800a19a:	eba8 0803 	sub.w	r8, r8, r3
 800a19e:	9b07      	ldr	r3, [sp, #28]
 800a1a0:	b1eb      	cbz	r3, 800a1de <_dtoa_r+0x74e>
 800a1a2:	9b0a      	ldr	r3, [sp, #40]	; 0x28
 800a1a4:	2b00      	cmp	r3, #0
 800a1a6:	d067      	beq.n	800a278 <_dtoa_r+0x7e8>
 800a1a8:	b18f      	cbz	r7, 800a1ce <_dtoa_r+0x73e>
 800a1aa:	4631      	mov	r1, r6
 800a1ac:	463a      	mov	r2, r7
 800a1ae:	4620      	mov	r0, r4
 800a1b0:	f001 fd82 	bl	800bcb8 <__pow5mult>
 800a1b4:	9a04      	ldr	r2, [sp, #16]
 800a1b6:	4601      	mov	r1, r0
 800a1b8:	4606      	mov	r6, r0
 800a1ba:	4620      	mov	r0, r4
 800a1bc:	f001 fce6 	bl	800bb8c <__multiply>
 800a1c0:	9904      	ldr	r1, [sp, #16]
 800a1c2:	9008      	str	r0, [sp, #32]
 800a1c4:	4620      	mov	r0, r4
 800a1c6:	f001 fc08 	bl	800b9da <_Bfree>
 800a1ca:	9b08      	ldr	r3, [sp, #32]
 800a1cc:	9304      	str	r3, [sp, #16]
 800a1ce:	9b07      	ldr	r3, [sp, #28]
 800a1d0:	1bda      	subs	r2, r3, r7
 800a1d2:	d004      	beq.n	800a1de <_dtoa_r+0x74e>
 800a1d4:	9904      	ldr	r1, [sp, #16]
 800a1d6:	4620      	mov	r0, r4
 800a1d8:	f001 fd6e 	bl	800bcb8 <__pow5mult>
 800a1dc:	9004      	str	r0, [sp, #16]
 800a1de:	2101      	movs	r1, #1
 800a1e0:	4620      	mov	r0, r4
 800a1e2:	f001 fcca 	bl	800bb7a <__i2b>
 800a1e6:	9b0e      	ldr	r3, [sp, #56]	; 0x38
 800a1e8:	4607      	mov	r7, r0
 800a1ea:	2b00      	cmp	r3, #0
 800a1ec:	f000 81cf 	beq.w	800a58e <_dtoa_r+0xafe>
 800a1f0:	461a      	mov	r2, r3
 800a1f2:	4601      	mov	r1, r0
 800a1f4:	4620      	mov	r0, r4
 800a1f6:	f001 fd5f 	bl	800bcb8 <__pow5mult>
 800a1fa:	9b06      	ldr	r3, [sp, #24]
 800a1fc:	2b01      	cmp	r3, #1
 800a1fe:	4607      	mov	r7, r0
 800a200:	dc40      	bgt.n	800a284 <_dtoa_r+0x7f4>
 800a202:	9b00      	ldr	r3, [sp, #0]
 800a204:	2b00      	cmp	r3, #0
 800a206:	d139      	bne.n	800a27c <_dtoa_r+0x7ec>
 800a208:	9b01      	ldr	r3, [sp, #4]
 800a20a:	f3c3 0313 	ubfx	r3, r3, #0, #20
 800a20e:	2b00      	cmp	r3, #0
 800a210:	d136      	bne.n	800a280 <_dtoa_r+0x7f0>
 800a212:	9b01      	ldr	r3, [sp, #4]
 800a214:	f023 4300 	bic.w	r3, r3, #2147483648	; 0x80000000
 800a218:	0d1b      	lsrs	r3, r3, #20
 800a21a:	051b      	lsls	r3, r3, #20
 800a21c:	b12b      	cbz	r3, 800a22a <_dtoa_r+0x79a>
 800a21e:	9b05      	ldr	r3, [sp, #20]
 800a220:	3301      	adds	r3, #1
 800a222:	9305      	str	r3, [sp, #20]
 800a224:	f108 0801 	add.w	r8, r8, #1
 800a228:	2301      	movs	r3, #1
 800a22a:	9307      	str	r3, [sp, #28]
 800a22c:	9b0e      	ldr	r3, [sp, #56]	; 0x38
 800a22e:	2b00      	cmp	r3, #0
 800a230:	d12a      	bne.n	800a288 <_dtoa_r+0x7f8>
 800a232:	2001      	movs	r0, #1
 800a234:	e030      	b.n	800a298 <_dtoa_r+0x808>
 800a236:	9b14      	ldr	r3, [sp, #80]	; 0x50
 800a238:	f1c3 0336 	rsb	r3, r3, #54	; 0x36
 800a23c:	e795      	b.n	800a16a <_dtoa_r+0x6da>
 800a23e:	9b07      	ldr	r3, [sp, #28]
 800a240:	f109 37ff 	add.w	r7, r9, #4294967295
 800a244:	42bb      	cmp	r3, r7
 800a246:	bfbf      	itttt	lt
 800a248:	9b07      	ldrlt	r3, [sp, #28]
 800a24a:	9707      	strlt	r7, [sp, #28]
 800a24c:	1afa      	sublt	r2, r7, r3
 800a24e:	9b0e      	ldrlt	r3, [sp, #56]	; 0x38
 800a250:	bfbb      	ittet	lt
 800a252:	189b      	addlt	r3, r3, r2
 800a254:	930e      	strlt	r3, [sp, #56]	; 0x38
 800a256:	1bdf      	subge	r7, r3, r7
 800a258:	2700      	movlt	r7, #0
 800a25a:	f1b9 0f00 	cmp.w	r9, #0
 800a25e:	bfb5      	itete	lt
 800a260:	9b05      	ldrlt	r3, [sp, #20]
 800a262:	9d05      	ldrge	r5, [sp, #20]
 800a264:	eba3 0509 	sublt.w	r5, r3, r9
 800a268:	464b      	movge	r3, r9
 800a26a:	bfb8      	it	lt
 800a26c:	2300      	movlt	r3, #0
 800a26e:	e77e      	b.n	800a16e <_dtoa_r+0x6de>
 800a270:	9f07      	ldr	r7, [sp, #28]
 800a272:	9d05      	ldr	r5, [sp, #20]
 800a274:	9e0a      	ldr	r6, [sp, #40]	; 0x28
 800a276:	e783      	b.n	800a180 <_dtoa_r+0x6f0>
 800a278:	9a07      	ldr	r2, [sp, #28]
 800a27a:	e7ab      	b.n	800a1d4 <_dtoa_r+0x744>
 800a27c:	2300      	movs	r3, #0
 800a27e:	e7d4      	b.n	800a22a <_dtoa_r+0x79a>
 800a280:	9b00      	ldr	r3, [sp, #0]
 800a282:	e7d2      	b.n	800a22a <_dtoa_r+0x79a>
 800a284:	2300      	movs	r3, #0
 800a286:	9307      	str	r3, [sp, #28]
 800a288:	693b      	ldr	r3, [r7, #16]
 800a28a:	eb07 0383 	add.w	r3, r7, r3, lsl #2
 800a28e:	6918      	ldr	r0, [r3, #16]
 800a290:	f001 fc25 	bl	800bade <__hi0bits>
 800a294:	f1c0 0020 	rsb	r0, r0, #32
 800a298:	4440      	add	r0, r8
 800a29a:	f010 001f 	ands.w	r0, r0, #31
 800a29e:	d047      	beq.n	800a330 <_dtoa_r+0x8a0>
 800a2a0:	f1c0 0320 	rsb	r3, r0, #32
 800a2a4:	2b04      	cmp	r3, #4
 800a2a6:	dd3b      	ble.n	800a320 <_dtoa_r+0x890>
 800a2a8:	9b05      	ldr	r3, [sp, #20]
 800a2aa:	f1c0 001c 	rsb	r0, r0, #28
 800a2ae:	4403      	add	r3, r0
 800a2b0:	9305      	str	r3, [sp, #20]
 800a2b2:	4405      	add	r5, r0
 800a2b4:	4480      	add	r8, r0
 800a2b6:	9b05      	ldr	r3, [sp, #20]
 800a2b8:	2b00      	cmp	r3, #0
 800a2ba:	dd05      	ble.n	800a2c8 <_dtoa_r+0x838>
 800a2bc:	461a      	mov	r2, r3
 800a2be:	9904      	ldr	r1, [sp, #16]
 800a2c0:	4620      	mov	r0, r4
 800a2c2:	f001 fd39 	bl	800bd38 <__lshift>
 800a2c6:	9004      	str	r0, [sp, #16]
 800a2c8:	f1b8 0f00 	cmp.w	r8, #0
 800a2cc:	dd05      	ble.n	800a2da <_dtoa_r+0x84a>
 800a2ce:	4639      	mov	r1, r7
 800a2d0:	4642      	mov	r2, r8
 800a2d2:	4620      	mov	r0, r4
 800a2d4:	f001 fd30 	bl	800bd38 <__lshift>
 800a2d8:	4607      	mov	r7, r0
 800a2da:	9b0f      	ldr	r3, [sp, #60]	; 0x3c
 800a2dc:	b353      	cbz	r3, 800a334 <_dtoa_r+0x8a4>
 800a2de:	4639      	mov	r1, r7
 800a2e0:	9804      	ldr	r0, [sp, #16]
 800a2e2:	f001 fd7d 	bl	800bde0 <__mcmp>
 800a2e6:	2800      	cmp	r0, #0
 800a2e8:	da24      	bge.n	800a334 <_dtoa_r+0x8a4>
 800a2ea:	2300      	movs	r3, #0
 800a2ec:	220a      	movs	r2, #10
 800a2ee:	9904      	ldr	r1, [sp, #16]
 800a2f0:	4620      	mov	r0, r4
 800a2f2:	f001 fb7b 	bl	800b9ec <__multadd>
 800a2f6:	9b0a      	ldr	r3, [sp, #40]	; 0x28
 800a2f8:	9004      	str	r0, [sp, #16]
 800a2fa:	f10a 3aff 	add.w	sl, sl, #4294967295
 800a2fe:	2b00      	cmp	r3, #0
 800a300:	f000 814c 	beq.w	800a59c <_dtoa_r+0xb0c>
 800a304:	2300      	movs	r3, #0
 800a306:	4631      	mov	r1, r6
 800a308:	220a      	movs	r2, #10
 800a30a:	4620      	mov	r0, r4
 800a30c:	f001 fb6e 	bl	800b9ec <__multadd>
 800a310:	9b02      	ldr	r3, [sp, #8]
 800a312:	2b00      	cmp	r3, #0
 800a314:	4606      	mov	r6, r0
 800a316:	dc4f      	bgt.n	800a3b8 <_dtoa_r+0x928>
 800a318:	9b06      	ldr	r3, [sp, #24]
 800a31a:	2b02      	cmp	r3, #2
 800a31c:	dd4c      	ble.n	800a3b8 <_dtoa_r+0x928>
 800a31e:	e011      	b.n	800a344 <_dtoa_r+0x8b4>
 800a320:	d0c9      	beq.n	800a2b6 <_dtoa_r+0x826>
 800a322:	9a05      	ldr	r2, [sp, #20]
 800a324:	331c      	adds	r3, #28
 800a326:	441a      	add	r2, r3
 800a328:	9205      	str	r2, [sp, #20]
 800a32a:	441d      	add	r5, r3
 800a32c:	4498      	add	r8, r3
 800a32e:	e7c2      	b.n	800a2b6 <_dtoa_r+0x826>
 800a330:	4603      	mov	r3, r0
 800a332:	e7f6      	b.n	800a322 <_dtoa_r+0x892>
 800a334:	f1b9 0f00 	cmp.w	r9, #0
 800a338:	dc38      	bgt.n	800a3ac <_dtoa_r+0x91c>
 800a33a:	9b06      	ldr	r3, [sp, #24]
 800a33c:	2b02      	cmp	r3, #2
 800a33e:	dd35      	ble.n	800a3ac <_dtoa_r+0x91c>
 800a340:	f8cd 9008 	str.w	r9, [sp, #8]
 800a344:	9b02      	ldr	r3, [sp, #8]
 800a346:	b963      	cbnz	r3, 800a362 <_dtoa_r+0x8d2>
 800a348:	4639      	mov	r1, r7
 800a34a:	2205      	movs	r2, #5
 800a34c:	4620      	mov	r0, r4
 800a34e:	f001 fb4d 	bl	800b9ec <__multadd>
 800a352:	4601      	mov	r1, r0
 800a354:	4607      	mov	r7, r0
 800a356:	9804      	ldr	r0, [sp, #16]
 800a358:	f001 fd42 	bl	800bde0 <__mcmp>
 800a35c:	2800      	cmp	r0, #0
 800a35e:	f73f adcc 	bgt.w	8009efa <_dtoa_r+0x46a>
 800a362:	9b0b      	ldr	r3, [sp, #44]	; 0x2c
 800a364:	465d      	mov	r5, fp
 800a366:	ea6f 0a03 	mvn.w	sl, r3
 800a36a:	f04f 0900 	mov.w	r9, #0
 800a36e:	4639      	mov	r1, r7
 800a370:	4620      	mov	r0, r4
 800a372:	f001 fb32 	bl	800b9da <_Bfree>
 800a376:	2e00      	cmp	r6, #0
 800a378:	f43f aeb7 	beq.w	800a0ea <_dtoa_r+0x65a>
 800a37c:	f1b9 0f00 	cmp.w	r9, #0
 800a380:	d005      	beq.n	800a38e <_dtoa_r+0x8fe>
 800a382:	45b1      	cmp	r9, r6
 800a384:	d003      	beq.n	800a38e <_dtoa_r+0x8fe>
 800a386:	4649      	mov	r1, r9
 800a388:	4620      	mov	r0, r4
 800a38a:	f001 fb26 	bl	800b9da <_Bfree>
 800a38e:	4631      	mov	r1, r6
 800a390:	4620      	mov	r0, r4
 800a392:	f001 fb22 	bl	800b9da <_Bfree>
 800a396:	e6a8      	b.n	800a0ea <_dtoa_r+0x65a>
 800a398:	2700      	movs	r7, #0
 800a39a:	463e      	mov	r6, r7
 800a39c:	e7e1      	b.n	800a362 <_dtoa_r+0x8d2>
 800a39e:	f8dd a020 	ldr.w	sl, [sp, #32]
 800a3a2:	463e      	mov	r6, r7
 800a3a4:	e5a9      	b.n	8009efa <_dtoa_r+0x46a>
 800a3a6:	bf00      	nop
 800a3a8:	40240000 	.word	0x40240000
 800a3ac:	9b0a      	ldr	r3, [sp, #40]	; 0x28
 800a3ae:	f8cd 9008 	str.w	r9, [sp, #8]
 800a3b2:	2b00      	cmp	r3, #0
 800a3b4:	f000 80f9 	beq.w	800a5aa <_dtoa_r+0xb1a>
 800a3b8:	2d00      	cmp	r5, #0
 800a3ba:	dd05      	ble.n	800a3c8 <_dtoa_r+0x938>
 800a3bc:	4631      	mov	r1, r6
 800a3be:	462a      	mov	r2, r5
 800a3c0:	4620      	mov	r0, r4
 800a3c2:	f001 fcb9 	bl	800bd38 <__lshift>
 800a3c6:	4606      	mov	r6, r0
 800a3c8:	9b07      	ldr	r3, [sp, #28]
 800a3ca:	2b00      	cmp	r3, #0
 800a3cc:	d04c      	beq.n	800a468 <_dtoa_r+0x9d8>
 800a3ce:	6871      	ldr	r1, [r6, #4]
 800a3d0:	4620      	mov	r0, r4
 800a3d2:	f001 fadd 	bl	800b990 <_Balloc>
 800a3d6:	6932      	ldr	r2, [r6, #16]
 800a3d8:	3202      	adds	r2, #2
 800a3da:	4605      	mov	r5, r0
 800a3dc:	0092      	lsls	r2, r2, #2
 800a3de:	f106 010c 	add.w	r1, r6, #12
 800a3e2:	300c      	adds	r0, #12
 800a3e4:	f7fd f880 	bl	80074e8 <memcpy>
 800a3e8:	2201      	movs	r2, #1
 800a3ea:	4629      	mov	r1, r5
 800a3ec:	4620      	mov	r0, r4
 800a3ee:	f001 fca3 	bl	800bd38 <__lshift>
 800a3f2:	9b00      	ldr	r3, [sp, #0]
 800a3f4:	f8cd b014 	str.w	fp, [sp, #20]
 800a3f8:	f003 0301 	and.w	r3, r3, #1
 800a3fc:	46b1      	mov	r9, r6
 800a3fe:	9307      	str	r3, [sp, #28]
 800a400:	4606      	mov	r6, r0
 800a402:	4639      	mov	r1, r7
 800a404:	9804      	ldr	r0, [sp, #16]
 800a406:	f7ff fab5 	bl	8009974 <quorem>
 800a40a:	4649      	mov	r1, r9
 800a40c:	4605      	mov	r5, r0
 800a40e:	f100 0830 	add.w	r8, r0, #48	; 0x30
 800a412:	9804      	ldr	r0, [sp, #16]
 800a414:	f001 fce4 	bl	800bde0 <__mcmp>
 800a418:	4632      	mov	r2, r6
 800a41a:	9000      	str	r0, [sp, #0]
 800a41c:	4639      	mov	r1, r7
 800a41e:	4620      	mov	r0, r4
 800a420:	f001 fcf8 	bl	800be14 <__mdiff>
 800a424:	68c3      	ldr	r3, [r0, #12]
 800a426:	4602      	mov	r2, r0
 800a428:	bb03      	cbnz	r3, 800a46c <_dtoa_r+0x9dc>
 800a42a:	4601      	mov	r1, r0
 800a42c:	9008      	str	r0, [sp, #32]
 800a42e:	9804      	ldr	r0, [sp, #16]
 800a430:	f001 fcd6 	bl	800bde0 <__mcmp>
 800a434:	9a08      	ldr	r2, [sp, #32]
 800a436:	4603      	mov	r3, r0
 800a438:	4611      	mov	r1, r2
 800a43a:	4620      	mov	r0, r4
 800a43c:	9308      	str	r3, [sp, #32]
 800a43e:	f001 facc 	bl	800b9da <_Bfree>
 800a442:	9b08      	ldr	r3, [sp, #32]
 800a444:	b9a3      	cbnz	r3, 800a470 <_dtoa_r+0x9e0>
 800a446:	9a06      	ldr	r2, [sp, #24]
 800a448:	b992      	cbnz	r2, 800a470 <_dtoa_r+0x9e0>
 800a44a:	9a07      	ldr	r2, [sp, #28]
 800a44c:	b982      	cbnz	r2, 800a470 <_dtoa_r+0x9e0>
 800a44e:	f1b8 0f39 	cmp.w	r8, #57	; 0x39
 800a452:	d029      	beq.n	800a4a8 <_dtoa_r+0xa18>
 800a454:	9b00      	ldr	r3, [sp, #0]
 800a456:	2b00      	cmp	r3, #0
 800a458:	dd01      	ble.n	800a45e <_dtoa_r+0x9ce>
 800a45a:	f105 0831 	add.w	r8, r5, #49	; 0x31
 800a45e:	9b05      	ldr	r3, [sp, #20]
 800a460:	1c5d      	adds	r5, r3, #1
 800a462:	f883 8000 	strb.w	r8, [r3]
 800a466:	e782      	b.n	800a36e <_dtoa_r+0x8de>
 800a468:	4630      	mov	r0, r6
 800a46a:	e7c2      	b.n	800a3f2 <_dtoa_r+0x962>
 800a46c:	2301      	movs	r3, #1
 800a46e:	e7e3      	b.n	800a438 <_dtoa_r+0x9a8>
 800a470:	9a00      	ldr	r2, [sp, #0]
 800a472:	2a00      	cmp	r2, #0
 800a474:	db04      	blt.n	800a480 <_dtoa_r+0x9f0>
 800a476:	d125      	bne.n	800a4c4 <_dtoa_r+0xa34>
 800a478:	9a06      	ldr	r2, [sp, #24]
 800a47a:	bb1a      	cbnz	r2, 800a4c4 <_dtoa_r+0xa34>
 800a47c:	9a07      	ldr	r2, [sp, #28]
 800a47e:	bb0a      	cbnz	r2, 800a4c4 <_dtoa_r+0xa34>
 800a480:	2b00      	cmp	r3, #0
 800a482:	ddec      	ble.n	800a45e <_dtoa_r+0x9ce>
 800a484:	2201      	movs	r2, #1
 800a486:	9904      	ldr	r1, [sp, #16]
 800a488:	4620      	mov	r0, r4
 800a48a:	f001 fc55 	bl	800bd38 <__lshift>
 800a48e:	4639      	mov	r1, r7
 800a490:	9004      	str	r0, [sp, #16]
 800a492:	f001 fca5 	bl	800bde0 <__mcmp>
 800a496:	2800      	cmp	r0, #0
 800a498:	dc03      	bgt.n	800a4a2 <_dtoa_r+0xa12>
 800a49a:	d1e0      	bne.n	800a45e <_dtoa_r+0x9ce>
 800a49c:	f018 0f01 	tst.w	r8, #1
 800a4a0:	d0dd      	beq.n	800a45e <_dtoa_r+0x9ce>
 800a4a2:	f1b8 0f39 	cmp.w	r8, #57	; 0x39
 800a4a6:	d1d8      	bne.n	800a45a <_dtoa_r+0x9ca>
 800a4a8:	9b05      	ldr	r3, [sp, #20]
 800a4aa:	9a05      	ldr	r2, [sp, #20]
 800a4ac:	1c5d      	adds	r5, r3, #1
 800a4ae:	2339      	movs	r3, #57	; 0x39
 800a4b0:	7013      	strb	r3, [r2, #0]
 800a4b2:	f815 3c01 	ldrb.w	r3, [r5, #-1]
 800a4b6:	2b39      	cmp	r3, #57	; 0x39
 800a4b8:	f105 32ff 	add.w	r2, r5, #4294967295
 800a4bc:	d04f      	beq.n	800a55e <_dtoa_r+0xace>
 800a4be:	3301      	adds	r3, #1
 800a4c0:	7013      	strb	r3, [r2, #0]
 800a4c2:	e754      	b.n	800a36e <_dtoa_r+0x8de>
 800a4c4:	9a05      	ldr	r2, [sp, #20]
 800a4c6:	2b00      	cmp	r3, #0
 800a4c8:	f102 0501 	add.w	r5, r2, #1
 800a4cc:	dd06      	ble.n	800a4dc <_dtoa_r+0xa4c>
 800a4ce:	f1b8 0f39 	cmp.w	r8, #57	; 0x39
 800a4d2:	d0e9      	beq.n	800a4a8 <_dtoa_r+0xa18>
 800a4d4:	f108 0801 	add.w	r8, r8, #1
 800a4d8:	9b05      	ldr	r3, [sp, #20]
 800a4da:	e7c2      	b.n	800a462 <_dtoa_r+0x9d2>
 800a4dc:	9a02      	ldr	r2, [sp, #8]
 800a4de:	f805 8c01 	strb.w	r8, [r5, #-1]
 800a4e2:	eba5 030b 	sub.w	r3, r5, fp
 800a4e6:	4293      	cmp	r3, r2
 800a4e8:	d021      	beq.n	800a52e <_dtoa_r+0xa9e>
 800a4ea:	2300      	movs	r3, #0
 800a4ec:	220a      	movs	r2, #10
 800a4ee:	9904      	ldr	r1, [sp, #16]
 800a4f0:	4620      	mov	r0, r4
 800a4f2:	f001 fa7b 	bl	800b9ec <__multadd>
 800a4f6:	45b1      	cmp	r9, r6
 800a4f8:	9004      	str	r0, [sp, #16]
 800a4fa:	f04f 0300 	mov.w	r3, #0
 800a4fe:	f04f 020a 	mov.w	r2, #10
 800a502:	4649      	mov	r1, r9
 800a504:	4620      	mov	r0, r4
 800a506:	d105      	bne.n	800a514 <_dtoa_r+0xa84>
 800a508:	f001 fa70 	bl	800b9ec <__multadd>
 800a50c:	4681      	mov	r9, r0
 800a50e:	4606      	mov	r6, r0
 800a510:	9505      	str	r5, [sp, #20]
 800a512:	e776      	b.n	800a402 <_dtoa_r+0x972>
 800a514:	f001 fa6a 	bl	800b9ec <__multadd>
 800a518:	4631      	mov	r1, r6
 800a51a:	4681      	mov	r9, r0
 800a51c:	2300      	movs	r3, #0
 800a51e:	220a      	movs	r2, #10
 800a520:	4620      	mov	r0, r4
 800a522:	f001 fa63 	bl	800b9ec <__multadd>
 800a526:	4606      	mov	r6, r0
 800a528:	e7f2      	b.n	800a510 <_dtoa_r+0xa80>
 800a52a:	f04f 0900 	mov.w	r9, #0
 800a52e:	2201      	movs	r2, #1
 800a530:	9904      	ldr	r1, [sp, #16]
 800a532:	4620      	mov	r0, r4
 800a534:	f001 fc00 	bl	800bd38 <__lshift>
 800a538:	4639      	mov	r1, r7
 800a53a:	9004      	str	r0, [sp, #16]
 800a53c:	f001 fc50 	bl	800bde0 <__mcmp>
 800a540:	2800      	cmp	r0, #0
 800a542:	dcb6      	bgt.n	800a4b2 <_dtoa_r+0xa22>
 800a544:	d102      	bne.n	800a54c <_dtoa_r+0xabc>
 800a546:	f018 0f01 	tst.w	r8, #1
 800a54a:	d1b2      	bne.n	800a4b2 <_dtoa_r+0xa22>
 800a54c:	f815 3c01 	ldrb.w	r3, [r5, #-1]
 800a550:	2b30      	cmp	r3, #48	; 0x30
 800a552:	f105 32ff 	add.w	r2, r5, #4294967295
 800a556:	f47f af0a 	bne.w	800a36e <_dtoa_r+0x8de>
 800a55a:	4615      	mov	r5, r2
 800a55c:	e7f6      	b.n	800a54c <_dtoa_r+0xabc>
 800a55e:	4593      	cmp	fp, r2
 800a560:	d105      	bne.n	800a56e <_dtoa_r+0xade>
 800a562:	2331      	movs	r3, #49	; 0x31
 800a564:	f10a 0a01 	add.w	sl, sl, #1
 800a568:	f88b 3000 	strb.w	r3, [fp]
 800a56c:	e6ff      	b.n	800a36e <_dtoa_r+0x8de>
 800a56e:	4615      	mov	r5, r2
 800a570:	e79f      	b.n	800a4b2 <_dtoa_r+0xa22>
 800a572:	f8df b064 	ldr.w	fp, [pc, #100]	; 800a5d8 <_dtoa_r+0xb48>
 800a576:	f7ff bac5 	b.w	8009b04 <_dtoa_r+0x74>
 800a57a:	9b21      	ldr	r3, [sp, #132]	; 0x84
 800a57c:	f8df b05c 	ldr.w	fp, [pc, #92]	; 800a5dc <_dtoa_r+0xb4c>
 800a580:	2b00      	cmp	r3, #0
 800a582:	f43f aabf 	beq.w	8009b04 <_dtoa_r+0x74>
 800a586:	f10b 0308 	add.w	r3, fp, #8
 800a58a:	f7ff bab9 	b.w	8009b00 <_dtoa_r+0x70>
 800a58e:	9b06      	ldr	r3, [sp, #24]
 800a590:	2b01      	cmp	r3, #1
 800a592:	f77f ae36 	ble.w	800a202 <_dtoa_r+0x772>
 800a596:	9b0e      	ldr	r3, [sp, #56]	; 0x38
 800a598:	9307      	str	r3, [sp, #28]
 800a59a:	e64a      	b.n	800a232 <_dtoa_r+0x7a2>
 800a59c:	9b02      	ldr	r3, [sp, #8]
 800a59e:	2b00      	cmp	r3, #0
 800a5a0:	dc03      	bgt.n	800a5aa <_dtoa_r+0xb1a>
 800a5a2:	9b06      	ldr	r3, [sp, #24]
 800a5a4:	2b02      	cmp	r3, #2
 800a5a6:	f73f aecd 	bgt.w	800a344 <_dtoa_r+0x8b4>
 800a5aa:	465d      	mov	r5, fp
 800a5ac:	4639      	mov	r1, r7
 800a5ae:	9804      	ldr	r0, [sp, #16]
 800a5b0:	f7ff f9e0 	bl	8009974 <quorem>
 800a5b4:	f100 0830 	add.w	r8, r0, #48	; 0x30
 800a5b8:	f805 8b01 	strb.w	r8, [r5], #1
 800a5bc:	9a02      	ldr	r2, [sp, #8]
 800a5be:	eba5 030b 	sub.w	r3, r5, fp
 800a5c2:	429a      	cmp	r2, r3
 800a5c4:	ddb1      	ble.n	800a52a <_dtoa_r+0xa9a>
 800a5c6:	2300      	movs	r3, #0
 800a5c8:	220a      	movs	r2, #10
 800a5ca:	9904      	ldr	r1, [sp, #16]
 800a5cc:	4620      	mov	r0, r4
 800a5ce:	f001 fa0d 	bl	800b9ec <__multadd>
 800a5d2:	9004      	str	r0, [sp, #16]
 800a5d4:	e7ea      	b.n	800a5ac <_dtoa_r+0xb1c>
 800a5d6:	bf00      	nop
 800a5d8:	0800cde5 	.word	0x0800cde5
 800a5dc:	0800d5aa 	.word	0x0800d5aa

0800a5e0 <__sflush_r>:
 800a5e0:	f9b1 200c 	ldrsh.w	r2, [r1, #12]
 800a5e4:	b293      	uxth	r3, r2
 800a5e6:	e92d 41f0 	stmdb	sp!, {r4, r5, r6, r7, r8, lr}
 800a5ea:	4605      	mov	r5, r0
 800a5ec:	0718      	lsls	r0, r3, #28
 800a5ee:	460c      	mov	r4, r1
 800a5f0:	d45f      	bmi.n	800a6b2 <__sflush_r+0xd2>
 800a5f2:	684b      	ldr	r3, [r1, #4]
 800a5f4:	f442 6200 	orr.w	r2, r2, #2048	; 0x800
 800a5f8:	2b00      	cmp	r3, #0
 800a5fa:	818a      	strh	r2, [r1, #12]
 800a5fc:	dc05      	bgt.n	800a60a <__sflush_r+0x2a>
 800a5fe:	6bcb      	ldr	r3, [r1, #60]	; 0x3c
 800a600:	2b00      	cmp	r3, #0
 800a602:	dc02      	bgt.n	800a60a <__sflush_r+0x2a>
 800a604:	2000      	movs	r0, #0
 800a606:	e8bd 81f0 	ldmia.w	sp!, {r4, r5, r6, r7, r8, pc}
 800a60a:	6aa6      	ldr	r6, [r4, #40]	; 0x28
 800a60c:	2e00      	cmp	r6, #0
 800a60e:	d0f9      	beq.n	800a604 <__sflush_r+0x24>
 800a610:	2300      	movs	r3, #0
 800a612:	f412 5280 	ands.w	r2, r2, #4096	; 0x1000
 800a616:	682f      	ldr	r7, [r5, #0]
 800a618:	69e1      	ldr	r1, [r4, #28]
 800a61a:	602b      	str	r3, [r5, #0]
 800a61c:	d036      	beq.n	800a68c <__sflush_r+0xac>
 800a61e:	6d20      	ldr	r0, [r4, #80]	; 0x50
 800a620:	89a3      	ldrh	r3, [r4, #12]
 800a622:	075a      	lsls	r2, r3, #29
 800a624:	d505      	bpl.n	800a632 <__sflush_r+0x52>
 800a626:	6863      	ldr	r3, [r4, #4]
 800a628:	1ac0      	subs	r0, r0, r3
 800a62a:	6b23      	ldr	r3, [r4, #48]	; 0x30
 800a62c:	b10b      	cbz	r3, 800a632 <__sflush_r+0x52>
 800a62e:	6be3      	ldr	r3, [r4, #60]	; 0x3c
 800a630:	1ac0      	subs	r0, r0, r3
 800a632:	2300      	movs	r3, #0
 800a634:	4602      	mov	r2, r0
 800a636:	6aa6      	ldr	r6, [r4, #40]	; 0x28
 800a638:	69e1      	ldr	r1, [r4, #28]
 800a63a:	4628      	mov	r0, r5
 800a63c:	47b0      	blx	r6
 800a63e:	1c43      	adds	r3, r0, #1
 800a640:	89a3      	ldrh	r3, [r4, #12]
 800a642:	d106      	bne.n	800a652 <__sflush_r+0x72>
 800a644:	6829      	ldr	r1, [r5, #0]
 800a646:	291d      	cmp	r1, #29
 800a648:	d84c      	bhi.n	800a6e4 <__sflush_r+0x104>
 800a64a:	4a2b      	ldr	r2, [pc, #172]	; (800a6f8 <__sflush_r+0x118>)
 800a64c:	40ca      	lsrs	r2, r1
 800a64e:	07d6      	lsls	r6, r2, #31
 800a650:	d548      	bpl.n	800a6e4 <__sflush_r+0x104>
 800a652:	f423 6300 	bic.w	r3, r3, #2048	; 0x800
 800a656:	b21b      	sxth	r3, r3
 800a658:	2200      	movs	r2, #0
 800a65a:	6062      	str	r2, [r4, #4]
 800a65c:	04d9      	lsls	r1, r3, #19
 800a65e:	6922      	ldr	r2, [r4, #16]
 800a660:	81a3      	strh	r3, [r4, #12]
 800a662:	6022      	str	r2, [r4, #0]
 800a664:	d504      	bpl.n	800a670 <__sflush_r+0x90>
 800a666:	1c42      	adds	r2, r0, #1
 800a668:	d101      	bne.n	800a66e <__sflush_r+0x8e>
 800a66a:	682b      	ldr	r3, [r5, #0]
 800a66c:	b903      	cbnz	r3, 800a670 <__sflush_r+0x90>
 800a66e:	6520      	str	r0, [r4, #80]	; 0x50
 800a670:	6b21      	ldr	r1, [r4, #48]	; 0x30
 800a672:	602f      	str	r7, [r5, #0]
 800a674:	2900      	cmp	r1, #0
 800a676:	d0c5      	beq.n	800a604 <__sflush_r+0x24>
 800a678:	f104 0340 	add.w	r3, r4, #64	; 0x40
 800a67c:	4299      	cmp	r1, r3
 800a67e:	d002      	beq.n	800a686 <__sflush_r+0xa6>
 800a680:	4628      	mov	r0, r5
 800a682:	f000 f937 	bl	800a8f4 <_free_r>
 800a686:	2000      	movs	r0, #0
 800a688:	6320      	str	r0, [r4, #48]	; 0x30
 800a68a:	e7bc      	b.n	800a606 <__sflush_r+0x26>
 800a68c:	2301      	movs	r3, #1
 800a68e:	4628      	mov	r0, r5
 800a690:	47b0      	blx	r6
 800a692:	1c41      	adds	r1, r0, #1
 800a694:	d1c4      	bne.n	800a620 <__sflush_r+0x40>
 800a696:	682b      	ldr	r3, [r5, #0]
 800a698:	2b00      	cmp	r3, #0
 800a69a:	d0c1      	beq.n	800a620 <__sflush_r+0x40>
 800a69c:	2b1d      	cmp	r3, #29
 800a69e:	d001      	beq.n	800a6a4 <__sflush_r+0xc4>
 800a6a0:	2b16      	cmp	r3, #22
 800a6a2:	d101      	bne.n	800a6a8 <__sflush_r+0xc8>
 800a6a4:	602f      	str	r7, [r5, #0]
 800a6a6:	e7ad      	b.n	800a604 <__sflush_r+0x24>
 800a6a8:	89a3      	ldrh	r3, [r4, #12]
 800a6aa:	f043 0340 	orr.w	r3, r3, #64	; 0x40
 800a6ae:	81a3      	strh	r3, [r4, #12]
 800a6b0:	e7a9      	b.n	800a606 <__sflush_r+0x26>
 800a6b2:	690f      	ldr	r7, [r1, #16]
 800a6b4:	2f00      	cmp	r7, #0
 800a6b6:	d0a5      	beq.n	800a604 <__sflush_r+0x24>
 800a6b8:	079b      	lsls	r3, r3, #30
 800a6ba:	680e      	ldr	r6, [r1, #0]
 800a6bc:	bf08      	it	eq
 800a6be:	694b      	ldreq	r3, [r1, #20]
 800a6c0:	600f      	str	r7, [r1, #0]
 800a6c2:	bf18      	it	ne
 800a6c4:	2300      	movne	r3, #0
 800a6c6:	eba6 0807 	sub.w	r8, r6, r7
 800a6ca:	608b      	str	r3, [r1, #8]
 800a6cc:	f1b8 0f00 	cmp.w	r8, #0
 800a6d0:	dd98      	ble.n	800a604 <__sflush_r+0x24>
 800a6d2:	4643      	mov	r3, r8
 800a6d4:	463a      	mov	r2, r7
 800a6d6:	69e1      	ldr	r1, [r4, #28]
 800a6d8:	6a66      	ldr	r6, [r4, #36]	; 0x24
 800a6da:	4628      	mov	r0, r5
 800a6dc:	47b0      	blx	r6
 800a6de:	2800      	cmp	r0, #0
 800a6e0:	dc06      	bgt.n	800a6f0 <__sflush_r+0x110>
 800a6e2:	89a3      	ldrh	r3, [r4, #12]
 800a6e4:	f043 0340 	orr.w	r3, r3, #64	; 0x40
 800a6e8:	81a3      	strh	r3, [r4, #12]
 800a6ea:	f04f 30ff 	mov.w	r0, #4294967295
 800a6ee:	e78a      	b.n	800a606 <__sflush_r+0x26>
 800a6f0:	4407      	add	r7, r0
 800a6f2:	eba8 0800 	sub.w	r8, r8, r0
 800a6f6:	e7e9      	b.n	800a6cc <__sflush_r+0xec>
 800a6f8:	20400001 	.word	0x20400001

0800a6fc <_fflush_r>:
 800a6fc:	b538      	push	{r3, r4, r5, lr}
 800a6fe:	460c      	mov	r4, r1
 800a700:	4605      	mov	r5, r0
 800a702:	b118      	cbz	r0, 800a70c <_fflush_r+0x10>
 800a704:	6b83      	ldr	r3, [r0, #56]	; 0x38
 800a706:	b90b      	cbnz	r3, 800a70c <_fflush_r+0x10>
 800a708:	f000 f864 	bl	800a7d4 <__sinit>
 800a70c:	f9b4 000c 	ldrsh.w	r0, [r4, #12]
 800a710:	b1b8      	cbz	r0, 800a742 <_fflush_r+0x46>
 800a712:	6e63      	ldr	r3, [r4, #100]	; 0x64
 800a714:	07db      	lsls	r3, r3, #31
 800a716:	d404      	bmi.n	800a722 <_fflush_r+0x26>
 800a718:	0581      	lsls	r1, r0, #22
 800a71a:	d402      	bmi.n	800a722 <_fflush_r+0x26>
 800a71c:	6da0      	ldr	r0, [r4, #88]	; 0x58
 800a71e:	f000 fe5b 	bl	800b3d8 <__retarget_lock_acquire_recursive>
 800a722:	4628      	mov	r0, r5
 800a724:	4621      	mov	r1, r4
 800a726:	f7ff ff5b 	bl	800a5e0 <__sflush_r>
 800a72a:	6e63      	ldr	r3, [r4, #100]	; 0x64
 800a72c:	07da      	lsls	r2, r3, #31
 800a72e:	4605      	mov	r5, r0
 800a730:	d405      	bmi.n	800a73e <_fflush_r+0x42>
 800a732:	89a3      	ldrh	r3, [r4, #12]
 800a734:	059b      	lsls	r3, r3, #22
 800a736:	d402      	bmi.n	800a73e <_fflush_r+0x42>
 800a738:	6da0      	ldr	r0, [r4, #88]	; 0x58
 800a73a:	f000 fe4e 	bl	800b3da <__retarget_lock_release_recursive>
 800a73e:	4628      	mov	r0, r5
 800a740:	bd38      	pop	{r3, r4, r5, pc}
 800a742:	4605      	mov	r5, r0
 800a744:	e7fb      	b.n	800a73e <_fflush_r+0x42>
	...

0800a748 <std>:
 800a748:	2300      	movs	r3, #0
 800a74a:	b510      	push	{r4, lr}
 800a74c:	4604      	mov	r4, r0
 800a74e:	e9c0 3300 	strd	r3, r3, [r0]
 800a752:	6083      	str	r3, [r0, #8]
 800a754:	8181      	strh	r1, [r0, #12]
 800a756:	6643      	str	r3, [r0, #100]	; 0x64
 800a758:	81c2      	strh	r2, [r0, #14]
 800a75a:	e9c0 3304 	strd	r3, r3, [r0, #16]
 800a75e:	6183      	str	r3, [r0, #24]
 800a760:	4619      	mov	r1, r3
 800a762:	2208      	movs	r2, #8
 800a764:	305c      	adds	r0, #92	; 0x5c
 800a766:	f7fc feca 	bl	80074fe <memset>
 800a76a:	4b07      	ldr	r3, [pc, #28]	; (800a788 <std+0x40>)
 800a76c:	6223      	str	r3, [r4, #32]
 800a76e:	4b07      	ldr	r3, [pc, #28]	; (800a78c <std+0x44>)
 800a770:	6263      	str	r3, [r4, #36]	; 0x24
 800a772:	4b07      	ldr	r3, [pc, #28]	; (800a790 <std+0x48>)
 800a774:	62a3      	str	r3, [r4, #40]	; 0x28
 800a776:	4b07      	ldr	r3, [pc, #28]	; (800a794 <std+0x4c>)
 800a778:	61e4      	str	r4, [r4, #28]
 800a77a:	62e3      	str	r3, [r4, #44]	; 0x2c
 800a77c:	f104 0058 	add.w	r0, r4, #88	; 0x58
 800a780:	e8bd 4010 	ldmia.w	sp!, {r4, lr}
 800a784:	f000 be26 	b.w	800b3d4 <__retarget_lock_init_recursive>
 800a788:	0800c515 	.word	0x0800c515
 800a78c:	0800c537 	.word	0x0800c537
 800a790:	0800c56f 	.word	0x0800c56f
 800a794:	0800c593 	.word	0x0800c593

0800a798 <_cleanup_r>:
 800a798:	4901      	ldr	r1, [pc, #4]	; (800a7a0 <_cleanup_r+0x8>)
 800a79a:	f000 bab5 	b.w	800ad08 <_fwalk_reent>
 800a79e:	bf00      	nop
 800a7a0:	0800c7cd 	.word	0x0800c7cd

0800a7a4 <__sfp_lock_acquire>:
 800a7a4:	4801      	ldr	r0, [pc, #4]	; (800a7ac <__sfp_lock_acquire+0x8>)
 800a7a6:	f000 be17 	b.w	800b3d8 <__retarget_lock_acquire_recursive>
 800a7aa:	bf00      	nop
 800a7ac:	20009c44 	.word	0x20009c44

0800a7b0 <__sfp_lock_release>:
 800a7b0:	4801      	ldr	r0, [pc, #4]	; (800a7b8 <__sfp_lock_release+0x8>)
 800a7b2:	f000 be12 	b.w	800b3da <__retarget_lock_release_recursive>
 800a7b6:	bf00      	nop
 800a7b8:	20009c44 	.word	0x20009c44

0800a7bc <__sinit_lock_acquire>:
 800a7bc:	4801      	ldr	r0, [pc, #4]	; (800a7c4 <__sinit_lock_acquire+0x8>)
 800a7be:	f000 be0b 	b.w	800b3d8 <__retarget_lock_acquire_recursive>
 800a7c2:	bf00      	nop
 800a7c4:	20009c3f 	.word	0x20009c3f

0800a7c8 <__sinit_lock_release>:
 800a7c8:	4801      	ldr	r0, [pc, #4]	; (800a7d0 <__sinit_lock_release+0x8>)
 800a7ca:	f000 be06 	b.w	800b3da <__retarget_lock_release_recursive>
 800a7ce:	bf00      	nop
 800a7d0:	20009c3f 	.word	0x20009c3f

0800a7d4 <__sinit>:
 800a7d4:	b510      	push	{r4, lr}
 800a7d6:	4604      	mov	r4, r0
 800a7d8:	f7ff fff0 	bl	800a7bc <__sinit_lock_acquire>
 800a7dc:	6ba2      	ldr	r2, [r4, #56]	; 0x38
 800a7de:	b11a      	cbz	r2, 800a7e8 <__sinit+0x14>
 800a7e0:	e8bd 4010 	ldmia.w	sp!, {r4, lr}
 800a7e4:	f7ff bff0 	b.w	800a7c8 <__sinit_lock_release>
 800a7e8:	4b0d      	ldr	r3, [pc, #52]	; (800a820 <__sinit+0x4c>)
 800a7ea:	63e3      	str	r3, [r4, #60]	; 0x3c
 800a7ec:	2303      	movs	r3, #3
 800a7ee:	f8c4 32e4 	str.w	r3, [r4, #740]	; 0x2e4
 800a7f2:	f504 733b 	add.w	r3, r4, #748	; 0x2ec
 800a7f6:	f8c4 32e8 	str.w	r3, [r4, #744]	; 0x2e8
 800a7fa:	f8c4 22e0 	str.w	r2, [r4, #736]	; 0x2e0
 800a7fe:	2104      	movs	r1, #4
 800a800:	6860      	ldr	r0, [r4, #4]
 800a802:	f7ff ffa1 	bl	800a748 <std>
 800a806:	2201      	movs	r2, #1
 800a808:	2109      	movs	r1, #9
 800a80a:	68a0      	ldr	r0, [r4, #8]
 800a80c:	f7ff ff9c 	bl	800a748 <std>
 800a810:	2202      	movs	r2, #2
 800a812:	2112      	movs	r1, #18
 800a814:	68e0      	ldr	r0, [r4, #12]
 800a816:	f7ff ff97 	bl	800a748 <std>
 800a81a:	2301      	movs	r3, #1
 800a81c:	63a3      	str	r3, [r4, #56]	; 0x38
 800a81e:	e7df      	b.n	800a7e0 <__sinit+0xc>
 800a820:	0800a799 	.word	0x0800a799

0800a824 <__libc_fini_array>:
 800a824:	b538      	push	{r3, r4, r5, lr}
 800a826:	4d07      	ldr	r5, [pc, #28]	; (800a844 <__libc_fini_array+0x20>)
 800a828:	4c07      	ldr	r4, [pc, #28]	; (800a848 <__libc_fini_array+0x24>)
 800a82a:	1b64      	subs	r4, r4, r5
 800a82c:	10a4      	asrs	r4, r4, #2
 800a82e:	b91c      	cbnz	r4, 800a838 <__libc_fini_array+0x14>
 800a830:	e8bd 4038 	ldmia.w	sp!, {r3, r4, r5, lr}
 800a834:	f002 b946 	b.w	800cac4 <_fini>
 800a838:	3c01      	subs	r4, #1
 800a83a:	f855 3024 	ldr.w	r3, [r5, r4, lsl #2]
 800a83e:	4798      	blx	r3
 800a840:	e7f5      	b.n	800a82e <__libc_fini_array+0xa>
 800a842:	bf00      	nop
 800a844:	0800d7d8 	.word	0x0800d7d8
 800a848:	0800d7dc 	.word	0x0800d7dc

0800a84c <_malloc_trim_r>:
 800a84c:	e92d 41f0 	stmdb	sp!, {r4, r5, r6, r7, r8, lr}
 800a850:	4605      	mov	r5, r0
 800a852:	2008      	movs	r0, #8
 800a854:	460c      	mov	r4, r1
 800a856:	f001 fec7 	bl	800c5e8 <sysconf>
 800a85a:	4f23      	ldr	r7, [pc, #140]	; (800a8e8 <_malloc_trim_r+0x9c>)
 800a85c:	4680      	mov	r8, r0
 800a85e:	4628      	mov	r0, r5
 800a860:	f001 f88a 	bl	800b978 <__malloc_lock>
 800a864:	68bb      	ldr	r3, [r7, #8]
 800a866:	685e      	ldr	r6, [r3, #4]
 800a868:	f026 0603 	bic.w	r6, r6, #3
 800a86c:	1b34      	subs	r4, r6, r4
 800a86e:	3c11      	subs	r4, #17
 800a870:	4444      	add	r4, r8
 800a872:	fbb4 f4f8 	udiv	r4, r4, r8
 800a876:	3c01      	subs	r4, #1
 800a878:	fb08 f404 	mul.w	r4, r8, r4
 800a87c:	45a0      	cmp	r8, r4
 800a87e:	dd05      	ble.n	800a88c <_malloc_trim_r+0x40>
 800a880:	4628      	mov	r0, r5
 800a882:	f001 f87f 	bl	800b984 <__malloc_unlock>
 800a886:	2000      	movs	r0, #0
 800a888:	e8bd 81f0 	ldmia.w	sp!, {r4, r5, r6, r7, r8, pc}
 800a88c:	2100      	movs	r1, #0
 800a88e:	4628      	mov	r0, r5
 800a890:	f001 fe30 	bl	800c4f4 <_sbrk_r>
 800a894:	68bb      	ldr	r3, [r7, #8]
 800a896:	4433      	add	r3, r6
 800a898:	4298      	cmp	r0, r3
 800a89a:	d1f1      	bne.n	800a880 <_malloc_trim_r+0x34>
 800a89c:	4261      	negs	r1, r4
 800a89e:	4628      	mov	r0, r5
 800a8a0:	f001 fe28 	bl	800c4f4 <_sbrk_r>
 800a8a4:	3001      	adds	r0, #1
 800a8a6:	d110      	bne.n	800a8ca <_malloc_trim_r+0x7e>
 800a8a8:	2100      	movs	r1, #0
 800a8aa:	4628      	mov	r0, r5
 800a8ac:	f001 fe22 	bl	800c4f4 <_sbrk_r>
 800a8b0:	68ba      	ldr	r2, [r7, #8]
 800a8b2:	1a83      	subs	r3, r0, r2
 800a8b4:	2b0f      	cmp	r3, #15
 800a8b6:	dde3      	ble.n	800a880 <_malloc_trim_r+0x34>
 800a8b8:	490c      	ldr	r1, [pc, #48]	; (800a8ec <_malloc_trim_r+0xa0>)
 800a8ba:	6809      	ldr	r1, [r1, #0]
 800a8bc:	1a40      	subs	r0, r0, r1
 800a8be:	490c      	ldr	r1, [pc, #48]	; (800a8f0 <_malloc_trim_r+0xa4>)
 800a8c0:	f043 0301 	orr.w	r3, r3, #1
 800a8c4:	6008      	str	r0, [r1, #0]
 800a8c6:	6053      	str	r3, [r2, #4]
 800a8c8:	e7da      	b.n	800a880 <_malloc_trim_r+0x34>
 800a8ca:	68bb      	ldr	r3, [r7, #8]
 800a8cc:	4a08      	ldr	r2, [pc, #32]	; (800a8f0 <_malloc_trim_r+0xa4>)
 800a8ce:	1b36      	subs	r6, r6, r4
 800a8d0:	f046 0601 	orr.w	r6, r6, #1
 800a8d4:	605e      	str	r6, [r3, #4]
 800a8d6:	6813      	ldr	r3, [r2, #0]
 800a8d8:	4628      	mov	r0, r5
 800a8da:	1b1c      	subs	r4, r3, r4
 800a8dc:	6014      	str	r4, [r2, #0]
 800a8de:	f001 f851 	bl	800b984 <__malloc_unlock>
 800a8e2:	2001      	movs	r0, #1
 800a8e4:	e7d0      	b.n	800a888 <_malloc_trim_r+0x3c>
 800a8e6:	bf00      	nop
 800a8e8:	200005b0 	.word	0x200005b0
 800a8ec:	200009b8 	.word	0x200009b8
 800a8f0:	200009e0 	.word	0x200009e0

0800a8f4 <_free_r>:
 800a8f4:	e92d 41f0 	stmdb	sp!, {r4, r5, r6, r7, r8, lr}
 800a8f8:	4604      	mov	r4, r0
 800a8fa:	4688      	mov	r8, r1
 800a8fc:	2900      	cmp	r1, #0
 800a8fe:	f000 80ab 	beq.w	800aa58 <_free_r+0x164>
 800a902:	f001 f839 	bl	800b978 <__malloc_lock>
 800a906:	f858 2c04 	ldr.w	r2, [r8, #-4]
 800a90a:	4d54      	ldr	r5, [pc, #336]	; (800aa5c <_free_r+0x168>)
 800a90c:	f022 0001 	bic.w	r0, r2, #1
 800a910:	f1a8 0308 	sub.w	r3, r8, #8
 800a914:	181f      	adds	r7, r3, r0
 800a916:	68a9      	ldr	r1, [r5, #8]
 800a918:	687e      	ldr	r6, [r7, #4]
 800a91a:	42b9      	cmp	r1, r7
 800a91c:	f026 0603 	bic.w	r6, r6, #3
 800a920:	f002 0201 	and.w	r2, r2, #1
 800a924:	d11b      	bne.n	800a95e <_free_r+0x6a>
 800a926:	4430      	add	r0, r6
 800a928:	b93a      	cbnz	r2, 800a93a <_free_r+0x46>
 800a92a:	f858 2c08 	ldr.w	r2, [r8, #-8]
 800a92e:	1a9b      	subs	r3, r3, r2
 800a930:	4410      	add	r0, r2
 800a932:	e9d3 1202 	ldrd	r1, r2, [r3, #8]
 800a936:	60ca      	str	r2, [r1, #12]
 800a938:	6091      	str	r1, [r2, #8]
 800a93a:	f040 0201 	orr.w	r2, r0, #1
 800a93e:	605a      	str	r2, [r3, #4]
 800a940:	60ab      	str	r3, [r5, #8]
 800a942:	4b47      	ldr	r3, [pc, #284]	; (800aa60 <_free_r+0x16c>)
 800a944:	681b      	ldr	r3, [r3, #0]
 800a946:	4283      	cmp	r3, r0
 800a948:	d804      	bhi.n	800a954 <_free_r+0x60>
 800a94a:	4b46      	ldr	r3, [pc, #280]	; (800aa64 <_free_r+0x170>)
 800a94c:	4620      	mov	r0, r4
 800a94e:	6819      	ldr	r1, [r3, #0]
 800a950:	f7ff ff7c 	bl	800a84c <_malloc_trim_r>
 800a954:	4620      	mov	r0, r4
 800a956:	e8bd 41f0 	ldmia.w	sp!, {r4, r5, r6, r7, r8, lr}
 800a95a:	f001 b813 	b.w	800b984 <__malloc_unlock>
 800a95e:	607e      	str	r6, [r7, #4]
 800a960:	2a00      	cmp	r2, #0
 800a962:	d139      	bne.n	800a9d8 <_free_r+0xe4>
 800a964:	f858 1c08 	ldr.w	r1, [r8, #-8]
 800a968:	1a5b      	subs	r3, r3, r1
 800a96a:	4408      	add	r0, r1
 800a96c:	6899      	ldr	r1, [r3, #8]
 800a96e:	f105 0c08 	add.w	ip, r5, #8
 800a972:	4561      	cmp	r1, ip
 800a974:	d032      	beq.n	800a9dc <_free_r+0xe8>
 800a976:	f8d3 c00c 	ldr.w	ip, [r3, #12]
 800a97a:	f8c1 c00c 	str.w	ip, [r1, #12]
 800a97e:	f8cc 1008 	str.w	r1, [ip, #8]
 800a982:	19b9      	adds	r1, r7, r6
 800a984:	6849      	ldr	r1, [r1, #4]
 800a986:	07c9      	lsls	r1, r1, #31
 800a988:	d40a      	bmi.n	800a9a0 <_free_r+0xac>
 800a98a:	4430      	add	r0, r6
 800a98c:	68b9      	ldr	r1, [r7, #8]
 800a98e:	bb3a      	cbnz	r2, 800a9e0 <_free_r+0xec>
 800a990:	4e35      	ldr	r6, [pc, #212]	; (800aa68 <_free_r+0x174>)
 800a992:	42b1      	cmp	r1, r6
 800a994:	d124      	bne.n	800a9e0 <_free_r+0xec>
 800a996:	e9c5 3304 	strd	r3, r3, [r5, #16]
 800a99a:	e9c3 1102 	strd	r1, r1, [r3, #8]
 800a99e:	2201      	movs	r2, #1
 800a9a0:	f040 0101 	orr.w	r1, r0, #1
 800a9a4:	6059      	str	r1, [r3, #4]
 800a9a6:	5018      	str	r0, [r3, r0]
 800a9a8:	2a00      	cmp	r2, #0
 800a9aa:	d1d3      	bne.n	800a954 <_free_r+0x60>
 800a9ac:	f5b0 7f00 	cmp.w	r0, #512	; 0x200
 800a9b0:	d21a      	bcs.n	800a9e8 <_free_r+0xf4>
 800a9b2:	08c0      	lsrs	r0, r0, #3
 800a9b4:	1081      	asrs	r1, r0, #2
 800a9b6:	2201      	movs	r2, #1
 800a9b8:	408a      	lsls	r2, r1
 800a9ba:	6869      	ldr	r1, [r5, #4]
 800a9bc:	3001      	adds	r0, #1
 800a9be:	430a      	orrs	r2, r1
 800a9c0:	606a      	str	r2, [r5, #4]
 800a9c2:	f855 1030 	ldr.w	r1, [r5, r0, lsl #3]
 800a9c6:	eb05 02c0 	add.w	r2, r5, r0, lsl #3
 800a9ca:	3a08      	subs	r2, #8
 800a9cc:	e9c3 1202 	strd	r1, r2, [r3, #8]
 800a9d0:	f845 3030 	str.w	r3, [r5, r0, lsl #3]
 800a9d4:	60cb      	str	r3, [r1, #12]
 800a9d6:	e7bd      	b.n	800a954 <_free_r+0x60>
 800a9d8:	2200      	movs	r2, #0
 800a9da:	e7d2      	b.n	800a982 <_free_r+0x8e>
 800a9dc:	2201      	movs	r2, #1
 800a9de:	e7d0      	b.n	800a982 <_free_r+0x8e>
 800a9e0:	68fe      	ldr	r6, [r7, #12]
 800a9e2:	60ce      	str	r6, [r1, #12]
 800a9e4:	60b1      	str	r1, [r6, #8]
 800a9e6:	e7db      	b.n	800a9a0 <_free_r+0xac>
 800a9e8:	0a42      	lsrs	r2, r0, #9
 800a9ea:	2a04      	cmp	r2, #4
 800a9ec:	d813      	bhi.n	800aa16 <_free_r+0x122>
 800a9ee:	0982      	lsrs	r2, r0, #6
 800a9f0:	3238      	adds	r2, #56	; 0x38
 800a9f2:	1c51      	adds	r1, r2, #1
 800a9f4:	eb05 06c2 	add.w	r6, r5, r2, lsl #3
 800a9f8:	f855 1031 	ldr.w	r1, [r5, r1, lsl #3]
 800a9fc:	428e      	cmp	r6, r1
 800a9fe:	d124      	bne.n	800aa4a <_free_r+0x156>
 800aa00:	2001      	movs	r0, #1
 800aa02:	1092      	asrs	r2, r2, #2
 800aa04:	fa00 f202 	lsl.w	r2, r0, r2
 800aa08:	6868      	ldr	r0, [r5, #4]
 800aa0a:	4302      	orrs	r2, r0
 800aa0c:	606a      	str	r2, [r5, #4]
 800aa0e:	e9c3 1602 	strd	r1, r6, [r3, #8]
 800aa12:	60b3      	str	r3, [r6, #8]
 800aa14:	e7de      	b.n	800a9d4 <_free_r+0xe0>
 800aa16:	2a14      	cmp	r2, #20
 800aa18:	d801      	bhi.n	800aa1e <_free_r+0x12a>
 800aa1a:	325b      	adds	r2, #91	; 0x5b
 800aa1c:	e7e9      	b.n	800a9f2 <_free_r+0xfe>
 800aa1e:	2a54      	cmp	r2, #84	; 0x54
 800aa20:	d802      	bhi.n	800aa28 <_free_r+0x134>
 800aa22:	0b02      	lsrs	r2, r0, #12
 800aa24:	326e      	adds	r2, #110	; 0x6e
 800aa26:	e7e4      	b.n	800a9f2 <_free_r+0xfe>
 800aa28:	f5b2 7faa 	cmp.w	r2, #340	; 0x154
 800aa2c:	d802      	bhi.n	800aa34 <_free_r+0x140>
 800aa2e:	0bc2      	lsrs	r2, r0, #15
 800aa30:	3277      	adds	r2, #119	; 0x77
 800aa32:	e7de      	b.n	800a9f2 <_free_r+0xfe>
 800aa34:	f240 5154 	movw	r1, #1364	; 0x554
 800aa38:	428a      	cmp	r2, r1
 800aa3a:	bf9a      	itte	ls
 800aa3c:	0c82      	lsrls	r2, r0, #18
 800aa3e:	327c      	addls	r2, #124	; 0x7c
 800aa40:	227e      	movhi	r2, #126	; 0x7e
 800aa42:	e7d6      	b.n	800a9f2 <_free_r+0xfe>
 800aa44:	6889      	ldr	r1, [r1, #8]
 800aa46:	428e      	cmp	r6, r1
 800aa48:	d004      	beq.n	800aa54 <_free_r+0x160>
 800aa4a:	684a      	ldr	r2, [r1, #4]
 800aa4c:	f022 0203 	bic.w	r2, r2, #3
 800aa50:	4282      	cmp	r2, r0
 800aa52:	d8f7      	bhi.n	800aa44 <_free_r+0x150>
 800aa54:	68ce      	ldr	r6, [r1, #12]
 800aa56:	e7da      	b.n	800aa0e <_free_r+0x11a>
 800aa58:	e8bd 81f0 	ldmia.w	sp!, {r4, r5, r6, r7, r8, pc}
 800aa5c:	200005b0 	.word	0x200005b0
 800aa60:	200009bc 	.word	0x200009bc
 800aa64:	20000a10 	.word	0x20000a10
 800aa68:	200005b8 	.word	0x200005b8

0800aa6c <__sfvwrite_r>:
 800aa6c:	6893      	ldr	r3, [r2, #8]
 800aa6e:	e92d 4ff7 	stmdb	sp!, {r0, r1, r2, r4, r5, r6, r7, r8, r9, sl, fp, lr}
 800aa72:	4680      	mov	r8, r0
 800aa74:	460c      	mov	r4, r1
 800aa76:	4691      	mov	r9, r2
 800aa78:	b91b      	cbnz	r3, 800aa82 <__sfvwrite_r+0x16>
 800aa7a:	2000      	movs	r0, #0
 800aa7c:	b003      	add	sp, #12
 800aa7e:	e8bd 8ff0 	ldmia.w	sp!, {r4, r5, r6, r7, r8, r9, sl, fp, pc}
 800aa82:	898b      	ldrh	r3, [r1, #12]
 800aa84:	0718      	lsls	r0, r3, #28
 800aa86:	d54f      	bpl.n	800ab28 <__sfvwrite_r+0xbc>
 800aa88:	690b      	ldr	r3, [r1, #16]
 800aa8a:	2b00      	cmp	r3, #0
 800aa8c:	d04c      	beq.n	800ab28 <__sfvwrite_r+0xbc>
 800aa8e:	89a5      	ldrh	r5, [r4, #12]
 800aa90:	f8d9 6000 	ldr.w	r6, [r9]
 800aa94:	f015 0702 	ands.w	r7, r5, #2
 800aa98:	d169      	bne.n	800ab6e <__sfvwrite_r+0x102>
 800aa9a:	f015 0501 	ands.w	r5, r5, #1
 800aa9e:	f000 809a 	beq.w	800abd6 <__sfvwrite_r+0x16a>
 800aaa2:	4638      	mov	r0, r7
 800aaa4:	46ba      	mov	sl, r7
 800aaa6:	46bb      	mov	fp, r7
 800aaa8:	f1bb 0f00 	cmp.w	fp, #0
 800aaac:	f000 8103 	beq.w	800acb6 <__sfvwrite_r+0x24a>
 800aab0:	b950      	cbnz	r0, 800aac8 <__sfvwrite_r+0x5c>
 800aab2:	465a      	mov	r2, fp
 800aab4:	210a      	movs	r1, #10
 800aab6:	4650      	mov	r0, sl
 800aab8:	f7f5 fbb2 	bl	8000220 <memchr>
 800aabc:	2800      	cmp	r0, #0
 800aabe:	f000 80ff 	beq.w	800acc0 <__sfvwrite_r+0x254>
 800aac2:	3001      	adds	r0, #1
 800aac4:	eba0 070a 	sub.w	r7, r0, sl
 800aac8:	6820      	ldr	r0, [r4, #0]
 800aaca:	6921      	ldr	r1, [r4, #16]
 800aacc:	6962      	ldr	r2, [r4, #20]
 800aace:	455f      	cmp	r7, fp
 800aad0:	463b      	mov	r3, r7
 800aad2:	bf28      	it	cs
 800aad4:	465b      	movcs	r3, fp
 800aad6:	4288      	cmp	r0, r1
 800aad8:	f240 80f5 	bls.w	800acc6 <__sfvwrite_r+0x25a>
 800aadc:	68a5      	ldr	r5, [r4, #8]
 800aade:	4415      	add	r5, r2
 800aae0:	42ab      	cmp	r3, r5
 800aae2:	f340 80f0 	ble.w	800acc6 <__sfvwrite_r+0x25a>
 800aae6:	4651      	mov	r1, sl
 800aae8:	462a      	mov	r2, r5
 800aaea:	f000 ff2b 	bl	800b944 <memmove>
 800aaee:	6823      	ldr	r3, [r4, #0]
 800aaf0:	442b      	add	r3, r5
 800aaf2:	6023      	str	r3, [r4, #0]
 800aaf4:	4621      	mov	r1, r4
 800aaf6:	4640      	mov	r0, r8
 800aaf8:	f7ff fe00 	bl	800a6fc <_fflush_r>
 800aafc:	2800      	cmp	r0, #0
 800aafe:	d165      	bne.n	800abcc <__sfvwrite_r+0x160>
 800ab00:	1b7f      	subs	r7, r7, r5
 800ab02:	f040 80fa 	bne.w	800acfa <__sfvwrite_r+0x28e>
 800ab06:	4621      	mov	r1, r4
 800ab08:	4640      	mov	r0, r8
 800ab0a:	f7ff fdf7 	bl	800a6fc <_fflush_r>
 800ab0e:	2800      	cmp	r0, #0
 800ab10:	d15c      	bne.n	800abcc <__sfvwrite_r+0x160>
 800ab12:	f8d9 3008 	ldr.w	r3, [r9, #8]
 800ab16:	44aa      	add	sl, r5
 800ab18:	ebab 0b05 	sub.w	fp, fp, r5
 800ab1c:	1b5d      	subs	r5, r3, r5
 800ab1e:	f8c9 5008 	str.w	r5, [r9, #8]
 800ab22:	2d00      	cmp	r5, #0
 800ab24:	d1c0      	bne.n	800aaa8 <__sfvwrite_r+0x3c>
 800ab26:	e7a8      	b.n	800aa7a <__sfvwrite_r+0xe>
 800ab28:	4621      	mov	r1, r4
 800ab2a:	4640      	mov	r0, r8
 800ab2c:	f7fe feba 	bl	80098a4 <__swsetup_r>
 800ab30:	2800      	cmp	r0, #0
 800ab32:	d0ac      	beq.n	800aa8e <__sfvwrite_r+0x22>
 800ab34:	f04f 30ff 	mov.w	r0, #4294967295
 800ab38:	e7a0      	b.n	800aa7c <__sfvwrite_r+0x10>
 800ab3a:	e9d6 a700 	ldrd	sl, r7, [r6]
 800ab3e:	3608      	adds	r6, #8
 800ab40:	2f00      	cmp	r7, #0
 800ab42:	d0fa      	beq.n	800ab3a <__sfvwrite_r+0xce>
 800ab44:	455f      	cmp	r7, fp
 800ab46:	463b      	mov	r3, r7
 800ab48:	4652      	mov	r2, sl
 800ab4a:	bf28      	it	cs
 800ab4c:	465b      	movcs	r3, fp
 800ab4e:	69e1      	ldr	r1, [r4, #28]
 800ab50:	6a65      	ldr	r5, [r4, #36]	; 0x24
 800ab52:	4640      	mov	r0, r8
 800ab54:	47a8      	blx	r5
 800ab56:	2800      	cmp	r0, #0
 800ab58:	dd38      	ble.n	800abcc <__sfvwrite_r+0x160>
 800ab5a:	f8d9 3008 	ldr.w	r3, [r9, #8]
 800ab5e:	4482      	add	sl, r0
 800ab60:	1a3f      	subs	r7, r7, r0
 800ab62:	1a18      	subs	r0, r3, r0
 800ab64:	f8c9 0008 	str.w	r0, [r9, #8]
 800ab68:	2800      	cmp	r0, #0
 800ab6a:	d1e9      	bne.n	800ab40 <__sfvwrite_r+0xd4>
 800ab6c:	e785      	b.n	800aa7a <__sfvwrite_r+0xe>
 800ab6e:	f04f 0a00 	mov.w	sl, #0
 800ab72:	4657      	mov	r7, sl
 800ab74:	f8df b18c 	ldr.w	fp, [pc, #396]	; 800ad04 <__sfvwrite_r+0x298>
 800ab78:	e7e2      	b.n	800ab40 <__sfvwrite_r+0xd4>
 800ab7a:	e9d6 5a00 	ldrd	r5, sl, [r6]
 800ab7e:	3608      	adds	r6, #8
 800ab80:	f1ba 0f00 	cmp.w	sl, #0
 800ab84:	d0f9      	beq.n	800ab7a <__sfvwrite_r+0x10e>
 800ab86:	89a2      	ldrh	r2, [r4, #12]
 800ab88:	68a3      	ldr	r3, [r4, #8]
 800ab8a:	6820      	ldr	r0, [r4, #0]
 800ab8c:	0591      	lsls	r1, r2, #22
 800ab8e:	d564      	bpl.n	800ac5a <__sfvwrite_r+0x1ee>
 800ab90:	4553      	cmp	r3, sl
 800ab92:	d836      	bhi.n	800ac02 <__sfvwrite_r+0x196>
 800ab94:	f412 6f90 	tst.w	r2, #1152	; 0x480
 800ab98:	d033      	beq.n	800ac02 <__sfvwrite_r+0x196>
 800ab9a:	6921      	ldr	r1, [r4, #16]
 800ab9c:	6967      	ldr	r7, [r4, #20]
 800ab9e:	eba0 0b01 	sub.w	fp, r0, r1
 800aba2:	2302      	movs	r3, #2
 800aba4:	eb07 0747 	add.w	r7, r7, r7, lsl #1
 800aba8:	fb97 f7f3 	sdiv	r7, r7, r3
 800abac:	f10b 0301 	add.w	r3, fp, #1
 800abb0:	4453      	add	r3, sl
 800abb2:	429f      	cmp	r7, r3
 800abb4:	bf38      	it	cc
 800abb6:	461f      	movcc	r7, r3
 800abb8:	0553      	lsls	r3, r2, #21
 800abba:	d53e      	bpl.n	800ac3a <__sfvwrite_r+0x1ce>
 800abbc:	4639      	mov	r1, r7
 800abbe:	4640      	mov	r0, r8
 800abc0:	f000 fc78 	bl	800b4b4 <_malloc_r>
 800abc4:	b948      	cbnz	r0, 800abda <__sfvwrite_r+0x16e>
 800abc6:	230c      	movs	r3, #12
 800abc8:	f8c8 3000 	str.w	r3, [r8]
 800abcc:	89a3      	ldrh	r3, [r4, #12]
 800abce:	f043 0340 	orr.w	r3, r3, #64	; 0x40
 800abd2:	81a3      	strh	r3, [r4, #12]
 800abd4:	e7ae      	b.n	800ab34 <__sfvwrite_r+0xc8>
 800abd6:	46aa      	mov	sl, r5
 800abd8:	e7d2      	b.n	800ab80 <__sfvwrite_r+0x114>
 800abda:	465a      	mov	r2, fp
 800abdc:	6921      	ldr	r1, [r4, #16]
 800abde:	9001      	str	r0, [sp, #4]
 800abe0:	f7fc fc82 	bl	80074e8 <memcpy>
 800abe4:	89a2      	ldrh	r2, [r4, #12]
 800abe6:	9b01      	ldr	r3, [sp, #4]
 800abe8:	f422 6290 	bic.w	r2, r2, #1152	; 0x480
 800abec:	f042 0280 	orr.w	r2, r2, #128	; 0x80
 800abf0:	81a2      	strh	r2, [r4, #12]
 800abf2:	6123      	str	r3, [r4, #16]
 800abf4:	6167      	str	r7, [r4, #20]
 800abf6:	445b      	add	r3, fp
 800abf8:	eba7 070b 	sub.w	r7, r7, fp
 800abfc:	6023      	str	r3, [r4, #0]
 800abfe:	60a7      	str	r7, [r4, #8]
 800ac00:	4653      	mov	r3, sl
 800ac02:	4553      	cmp	r3, sl
 800ac04:	bf28      	it	cs
 800ac06:	4653      	movcs	r3, sl
 800ac08:	461a      	mov	r2, r3
 800ac0a:	4629      	mov	r1, r5
 800ac0c:	6820      	ldr	r0, [r4, #0]
 800ac0e:	9301      	str	r3, [sp, #4]
 800ac10:	f000 fe98 	bl	800b944 <memmove>
 800ac14:	68a2      	ldr	r2, [r4, #8]
 800ac16:	9b01      	ldr	r3, [sp, #4]
 800ac18:	1ad2      	subs	r2, r2, r3
 800ac1a:	60a2      	str	r2, [r4, #8]
 800ac1c:	6822      	ldr	r2, [r4, #0]
 800ac1e:	4413      	add	r3, r2
 800ac20:	4657      	mov	r7, sl
 800ac22:	6023      	str	r3, [r4, #0]
 800ac24:	f8d9 3008 	ldr.w	r3, [r9, #8]
 800ac28:	443d      	add	r5, r7
 800ac2a:	ebaa 0a07 	sub.w	sl, sl, r7
 800ac2e:	1bdf      	subs	r7, r3, r7
 800ac30:	f8c9 7008 	str.w	r7, [r9, #8]
 800ac34:	2f00      	cmp	r7, #0
 800ac36:	d1a3      	bne.n	800ab80 <__sfvwrite_r+0x114>
 800ac38:	e71f      	b.n	800aa7a <__sfvwrite_r+0xe>
 800ac3a:	463a      	mov	r2, r7
 800ac3c:	4640      	mov	r0, r8
 800ac3e:	f001 fa7b 	bl	800c138 <_realloc_r>
 800ac42:	4603      	mov	r3, r0
 800ac44:	2800      	cmp	r0, #0
 800ac46:	d1d4      	bne.n	800abf2 <__sfvwrite_r+0x186>
 800ac48:	6921      	ldr	r1, [r4, #16]
 800ac4a:	4640      	mov	r0, r8
 800ac4c:	f7ff fe52 	bl	800a8f4 <_free_r>
 800ac50:	89a3      	ldrh	r3, [r4, #12]
 800ac52:	f023 0380 	bic.w	r3, r3, #128	; 0x80
 800ac56:	81a3      	strh	r3, [r4, #12]
 800ac58:	e7b5      	b.n	800abc6 <__sfvwrite_r+0x15a>
 800ac5a:	6922      	ldr	r2, [r4, #16]
 800ac5c:	4282      	cmp	r2, r0
 800ac5e:	d302      	bcc.n	800ac66 <__sfvwrite_r+0x1fa>
 800ac60:	6962      	ldr	r2, [r4, #20]
 800ac62:	4552      	cmp	r2, sl
 800ac64:	d916      	bls.n	800ac94 <__sfvwrite_r+0x228>
 800ac66:	4553      	cmp	r3, sl
 800ac68:	bf28      	it	cs
 800ac6a:	4653      	movcs	r3, sl
 800ac6c:	461a      	mov	r2, r3
 800ac6e:	4629      	mov	r1, r5
 800ac70:	461f      	mov	r7, r3
 800ac72:	f000 fe67 	bl	800b944 <memmove>
 800ac76:	68a3      	ldr	r3, [r4, #8]
 800ac78:	6822      	ldr	r2, [r4, #0]
 800ac7a:	1bdb      	subs	r3, r3, r7
 800ac7c:	443a      	add	r2, r7
 800ac7e:	60a3      	str	r3, [r4, #8]
 800ac80:	6022      	str	r2, [r4, #0]
 800ac82:	2b00      	cmp	r3, #0
 800ac84:	d1ce      	bne.n	800ac24 <__sfvwrite_r+0x1b8>
 800ac86:	4621      	mov	r1, r4
 800ac88:	4640      	mov	r0, r8
 800ac8a:	f7ff fd37 	bl	800a6fc <_fflush_r>
 800ac8e:	2800      	cmp	r0, #0
 800ac90:	d0c8      	beq.n	800ac24 <__sfvwrite_r+0x1b8>
 800ac92:	e79b      	b.n	800abcc <__sfvwrite_r+0x160>
 800ac94:	4b1a      	ldr	r3, [pc, #104]	; (800ad00 <__sfvwrite_r+0x294>)
 800ac96:	6a67      	ldr	r7, [r4, #36]	; 0x24
 800ac98:	69e1      	ldr	r1, [r4, #28]
 800ac9a:	459a      	cmp	sl, r3
 800ac9c:	bf94      	ite	ls
 800ac9e:	4653      	movls	r3, sl
 800aca0:	f06f 4300 	mvnhi.w	r3, #2147483648	; 0x80000000
 800aca4:	4640      	mov	r0, r8
 800aca6:	fb93 f3f2 	sdiv	r3, r3, r2
 800acaa:	4353      	muls	r3, r2
 800acac:	462a      	mov	r2, r5
 800acae:	47b8      	blx	r7
 800acb0:	1e07      	subs	r7, r0, #0
 800acb2:	dcb7      	bgt.n	800ac24 <__sfvwrite_r+0x1b8>
 800acb4:	e78a      	b.n	800abcc <__sfvwrite_r+0x160>
 800acb6:	e9d6 ab00 	ldrd	sl, fp, [r6]
 800acba:	2000      	movs	r0, #0
 800acbc:	3608      	adds	r6, #8
 800acbe:	e6f3      	b.n	800aaa8 <__sfvwrite_r+0x3c>
 800acc0:	f10b 0701 	add.w	r7, fp, #1
 800acc4:	e700      	b.n	800aac8 <__sfvwrite_r+0x5c>
 800acc6:	429a      	cmp	r2, r3
 800acc8:	dc09      	bgt.n	800acde <__sfvwrite_r+0x272>
 800acca:	6a65      	ldr	r5, [r4, #36]	; 0x24
 800accc:	69e1      	ldr	r1, [r4, #28]
 800acce:	4613      	mov	r3, r2
 800acd0:	4640      	mov	r0, r8
 800acd2:	4652      	mov	r2, sl
 800acd4:	47a8      	blx	r5
 800acd6:	1e05      	subs	r5, r0, #0
 800acd8:	f73f af12 	bgt.w	800ab00 <__sfvwrite_r+0x94>
 800acdc:	e776      	b.n	800abcc <__sfvwrite_r+0x160>
 800acde:	461a      	mov	r2, r3
 800ace0:	4651      	mov	r1, sl
 800ace2:	9301      	str	r3, [sp, #4]
 800ace4:	f000 fe2e 	bl	800b944 <memmove>
 800ace8:	9b01      	ldr	r3, [sp, #4]
 800acea:	68a2      	ldr	r2, [r4, #8]
 800acec:	1ad2      	subs	r2, r2, r3
 800acee:	60a2      	str	r2, [r4, #8]
 800acf0:	6822      	ldr	r2, [r4, #0]
 800acf2:	441a      	add	r2, r3
 800acf4:	6022      	str	r2, [r4, #0]
 800acf6:	461d      	mov	r5, r3
 800acf8:	e702      	b.n	800ab00 <__sfvwrite_r+0x94>
 800acfa:	2001      	movs	r0, #1
 800acfc:	e709      	b.n	800ab12 <__sfvwrite_r+0xa6>
 800acfe:	bf00      	nop
 800ad00:	7ffffffe 	.word	0x7ffffffe
 800ad04:	7ffffc00 	.word	0x7ffffc00

0800ad08 <_fwalk_reent>:
 800ad08:	e92d 43f8 	stmdb	sp!, {r3, r4, r5, r6, r7, r8, r9, lr}
 800ad0c:	4680      	mov	r8, r0
 800ad0e:	4689      	mov	r9, r1
 800ad10:	f500 7438 	add.w	r4, r0, #736	; 0x2e0
 800ad14:	2600      	movs	r6, #0
 800ad16:	b914      	cbnz	r4, 800ad1e <_fwalk_reent+0x16>
 800ad18:	4630      	mov	r0, r6
 800ad1a:	e8bd 83f8 	ldmia.w	sp!, {r3, r4, r5, r6, r7, r8, r9, pc}
 800ad1e:	e9d4 7501 	ldrd	r7, r5, [r4, #4]
 800ad22:	3f01      	subs	r7, #1
 800ad24:	d501      	bpl.n	800ad2a <_fwalk_reent+0x22>
 800ad26:	6824      	ldr	r4, [r4, #0]
 800ad28:	e7f5      	b.n	800ad16 <_fwalk_reent+0xe>
 800ad2a:	89ab      	ldrh	r3, [r5, #12]
 800ad2c:	2b01      	cmp	r3, #1
 800ad2e:	d907      	bls.n	800ad40 <_fwalk_reent+0x38>
 800ad30:	f9b5 300e 	ldrsh.w	r3, [r5, #14]
 800ad34:	3301      	adds	r3, #1
 800ad36:	d003      	beq.n	800ad40 <_fwalk_reent+0x38>
 800ad38:	4629      	mov	r1, r5
 800ad3a:	4640      	mov	r0, r8
 800ad3c:	47c8      	blx	r9
 800ad3e:	4306      	orrs	r6, r0
 800ad40:	3568      	adds	r5, #104	; 0x68
 800ad42:	e7ee      	b.n	800ad22 <_fwalk_reent+0x1a>

0800ad44 <rshift>:
 800ad44:	b5f0      	push	{r4, r5, r6, r7, lr}
 800ad46:	6906      	ldr	r6, [r0, #16]
 800ad48:	114b      	asrs	r3, r1, #5
 800ad4a:	429e      	cmp	r6, r3
 800ad4c:	f100 0414 	add.w	r4, r0, #20
 800ad50:	dd30      	ble.n	800adb4 <rshift+0x70>
 800ad52:	f011 011f 	ands.w	r1, r1, #31
 800ad56:	eb04 0686 	add.w	r6, r4, r6, lsl #2
 800ad5a:	eb04 0283 	add.w	r2, r4, r3, lsl #2
 800ad5e:	d108      	bne.n	800ad72 <rshift+0x2e>
 800ad60:	4621      	mov	r1, r4
 800ad62:	42b2      	cmp	r2, r6
 800ad64:	460b      	mov	r3, r1
 800ad66:	d211      	bcs.n	800ad8c <rshift+0x48>
 800ad68:	f852 3b04 	ldr.w	r3, [r2], #4
 800ad6c:	f841 3b04 	str.w	r3, [r1], #4
 800ad70:	e7f7      	b.n	800ad62 <rshift+0x1e>
 800ad72:	f854 5023 	ldr.w	r5, [r4, r3, lsl #2]
 800ad76:	f1c1 0c20 	rsb	ip, r1, #32
 800ad7a:	40cd      	lsrs	r5, r1
 800ad7c:	3204      	adds	r2, #4
 800ad7e:	4623      	mov	r3, r4
 800ad80:	42b2      	cmp	r2, r6
 800ad82:	4617      	mov	r7, r2
 800ad84:	d30c      	bcc.n	800ada0 <rshift+0x5c>
 800ad86:	601d      	str	r5, [r3, #0]
 800ad88:	b105      	cbz	r5, 800ad8c <rshift+0x48>
 800ad8a:	3304      	adds	r3, #4
 800ad8c:	1b1a      	subs	r2, r3, r4
 800ad8e:	42a3      	cmp	r3, r4
 800ad90:	ea4f 02a2 	mov.w	r2, r2, asr #2
 800ad94:	bf08      	it	eq
 800ad96:	2300      	moveq	r3, #0
 800ad98:	6102      	str	r2, [r0, #16]
 800ad9a:	bf08      	it	eq
 800ad9c:	6143      	streq	r3, [r0, #20]
 800ad9e:	bdf0      	pop	{r4, r5, r6, r7, pc}
 800ada0:	683f      	ldr	r7, [r7, #0]
 800ada2:	fa07 f70c 	lsl.w	r7, r7, ip
 800ada6:	433d      	orrs	r5, r7
 800ada8:	f843 5b04 	str.w	r5, [r3], #4
 800adac:	f852 5b04 	ldr.w	r5, [r2], #4
 800adb0:	40cd      	lsrs	r5, r1
 800adb2:	e7e5      	b.n	800ad80 <rshift+0x3c>
 800adb4:	4623      	mov	r3, r4
 800adb6:	e7e9      	b.n	800ad8c <rshift+0x48>

0800adb8 <__hexdig_fun>:
 800adb8:	f1a0 0330 	sub.w	r3, r0, #48	; 0x30
 800adbc:	2b09      	cmp	r3, #9
 800adbe:	d802      	bhi.n	800adc6 <__hexdig_fun+0xe>
 800adc0:	3820      	subs	r0, #32
 800adc2:	b2c0      	uxtb	r0, r0
 800adc4:	4770      	bx	lr
 800adc6:	f1a0 0361 	sub.w	r3, r0, #97	; 0x61
 800adca:	2b05      	cmp	r3, #5
 800adcc:	d801      	bhi.n	800add2 <__hexdig_fun+0x1a>
 800adce:	3847      	subs	r0, #71	; 0x47
 800add0:	e7f7      	b.n	800adc2 <__hexdig_fun+0xa>
 800add2:	f1a0 0341 	sub.w	r3, r0, #65	; 0x41
 800add6:	2b05      	cmp	r3, #5
 800add8:	d801      	bhi.n	800adde <__hexdig_fun+0x26>
 800adda:	3827      	subs	r0, #39	; 0x27
 800addc:	e7f1      	b.n	800adc2 <__hexdig_fun+0xa>
 800adde:	2000      	movs	r0, #0
 800ade0:	4770      	bx	lr

0800ade2 <__gethex>:
 800ade2:	e92d 4ff0 	stmdb	sp!, {r4, r5, r6, r7, r8, r9, sl, fp, lr}
 800ade6:	b08b      	sub	sp, #44	; 0x2c
 800ade8:	468a      	mov	sl, r1
 800adea:	9002      	str	r0, [sp, #8]
 800adec:	9816      	ldr	r0, [sp, #88]	; 0x58
 800adee:	9306      	str	r3, [sp, #24]
 800adf0:	4690      	mov	r8, r2
 800adf2:	f000 fade 	bl	800b3b2 <__localeconv_l>
 800adf6:	6803      	ldr	r3, [r0, #0]
 800adf8:	9303      	str	r3, [sp, #12]
 800adfa:	4618      	mov	r0, r3
 800adfc:	f7f5 fa08 	bl	8000210 <strlen>
 800ae00:	9b03      	ldr	r3, [sp, #12]
 800ae02:	9001      	str	r0, [sp, #4]
 800ae04:	4403      	add	r3, r0
 800ae06:	f04f 0b00 	mov.w	fp, #0
 800ae0a:	f813 3c01 	ldrb.w	r3, [r3, #-1]
 800ae0e:	9307      	str	r3, [sp, #28]
 800ae10:	f8da 3000 	ldr.w	r3, [sl]
 800ae14:	3302      	adds	r3, #2
 800ae16:	461f      	mov	r7, r3
 800ae18:	f813 0b01 	ldrb.w	r0, [r3], #1
 800ae1c:	2830      	cmp	r0, #48	; 0x30
 800ae1e:	d06c      	beq.n	800aefa <__gethex+0x118>
 800ae20:	f7ff ffca 	bl	800adb8 <__hexdig_fun>
 800ae24:	4604      	mov	r4, r0
 800ae26:	2800      	cmp	r0, #0
 800ae28:	d16a      	bne.n	800af00 <__gethex+0x11e>
 800ae2a:	9a01      	ldr	r2, [sp, #4]
 800ae2c:	9903      	ldr	r1, [sp, #12]
 800ae2e:	4638      	mov	r0, r7
 800ae30:	f001 fbb3 	bl	800c59a <strncmp>
 800ae34:	2800      	cmp	r0, #0
 800ae36:	d166      	bne.n	800af06 <__gethex+0x124>
 800ae38:	9b01      	ldr	r3, [sp, #4]
 800ae3a:	5cf8      	ldrb	r0, [r7, r3]
 800ae3c:	18fe      	adds	r6, r7, r3
 800ae3e:	f7ff ffbb 	bl	800adb8 <__hexdig_fun>
 800ae42:	2800      	cmp	r0, #0
 800ae44:	d062      	beq.n	800af0c <__gethex+0x12a>
 800ae46:	4633      	mov	r3, r6
 800ae48:	7818      	ldrb	r0, [r3, #0]
 800ae4a:	2830      	cmp	r0, #48	; 0x30
 800ae4c:	461f      	mov	r7, r3
 800ae4e:	f103 0301 	add.w	r3, r3, #1
 800ae52:	d0f9      	beq.n	800ae48 <__gethex+0x66>
 800ae54:	f7ff ffb0 	bl	800adb8 <__hexdig_fun>
 800ae58:	fab0 f580 	clz	r5, r0
 800ae5c:	096d      	lsrs	r5, r5, #5
 800ae5e:	4634      	mov	r4, r6
 800ae60:	f04f 0b01 	mov.w	fp, #1
 800ae64:	463a      	mov	r2, r7
 800ae66:	4616      	mov	r6, r2
 800ae68:	3201      	adds	r2, #1
 800ae6a:	7830      	ldrb	r0, [r6, #0]
 800ae6c:	f7ff ffa4 	bl	800adb8 <__hexdig_fun>
 800ae70:	2800      	cmp	r0, #0
 800ae72:	d1f8      	bne.n	800ae66 <__gethex+0x84>
 800ae74:	9a01      	ldr	r2, [sp, #4]
 800ae76:	9903      	ldr	r1, [sp, #12]
 800ae78:	4630      	mov	r0, r6
 800ae7a:	f001 fb8e 	bl	800c59a <strncmp>
 800ae7e:	b950      	cbnz	r0, 800ae96 <__gethex+0xb4>
 800ae80:	b954      	cbnz	r4, 800ae98 <__gethex+0xb6>
 800ae82:	9b01      	ldr	r3, [sp, #4]
 800ae84:	18f4      	adds	r4, r6, r3
 800ae86:	4622      	mov	r2, r4
 800ae88:	4616      	mov	r6, r2
 800ae8a:	3201      	adds	r2, #1
 800ae8c:	7830      	ldrb	r0, [r6, #0]
 800ae8e:	f7ff ff93 	bl	800adb8 <__hexdig_fun>
 800ae92:	2800      	cmp	r0, #0
 800ae94:	d1f8      	bne.n	800ae88 <__gethex+0xa6>
 800ae96:	b10c      	cbz	r4, 800ae9c <__gethex+0xba>
 800ae98:	1ba4      	subs	r4, r4, r6
 800ae9a:	00a4      	lsls	r4, r4, #2
 800ae9c:	7833      	ldrb	r3, [r6, #0]
 800ae9e:	2b50      	cmp	r3, #80	; 0x50
 800aea0:	d001      	beq.n	800aea6 <__gethex+0xc4>
 800aea2:	2b70      	cmp	r3, #112	; 0x70
 800aea4:	d140      	bne.n	800af28 <__gethex+0x146>
 800aea6:	7873      	ldrb	r3, [r6, #1]
 800aea8:	2b2b      	cmp	r3, #43	; 0x2b
 800aeaa:	d031      	beq.n	800af10 <__gethex+0x12e>
 800aeac:	2b2d      	cmp	r3, #45	; 0x2d
 800aeae:	d033      	beq.n	800af18 <__gethex+0x136>
 800aeb0:	1c71      	adds	r1, r6, #1
 800aeb2:	f04f 0900 	mov.w	r9, #0
 800aeb6:	7808      	ldrb	r0, [r1, #0]
 800aeb8:	f7ff ff7e 	bl	800adb8 <__hexdig_fun>
 800aebc:	1e43      	subs	r3, r0, #1
 800aebe:	b2db      	uxtb	r3, r3
 800aec0:	2b18      	cmp	r3, #24
 800aec2:	d831      	bhi.n	800af28 <__gethex+0x146>
 800aec4:	f1a0 0210 	sub.w	r2, r0, #16
 800aec8:	f811 0f01 	ldrb.w	r0, [r1, #1]!
 800aecc:	f7ff ff74 	bl	800adb8 <__hexdig_fun>
 800aed0:	1e43      	subs	r3, r0, #1
 800aed2:	b2db      	uxtb	r3, r3
 800aed4:	2b18      	cmp	r3, #24
 800aed6:	d922      	bls.n	800af1e <__gethex+0x13c>
 800aed8:	f1b9 0f00 	cmp.w	r9, #0
 800aedc:	d000      	beq.n	800aee0 <__gethex+0xfe>
 800aede:	4252      	negs	r2, r2
 800aee0:	4414      	add	r4, r2
 800aee2:	f8ca 1000 	str.w	r1, [sl]
 800aee6:	b30d      	cbz	r5, 800af2c <__gethex+0x14a>
 800aee8:	f1bb 0f00 	cmp.w	fp, #0
 800aeec:	bf0c      	ite	eq
 800aeee:	2706      	moveq	r7, #6
 800aef0:	2700      	movne	r7, #0
 800aef2:	4638      	mov	r0, r7
 800aef4:	b00b      	add	sp, #44	; 0x2c
 800aef6:	e8bd 8ff0 	ldmia.w	sp!, {r4, r5, r6, r7, r8, r9, sl, fp, pc}
 800aefa:	f10b 0b01 	add.w	fp, fp, #1
 800aefe:	e78a      	b.n	800ae16 <__gethex+0x34>
 800af00:	2500      	movs	r5, #0
 800af02:	462c      	mov	r4, r5
 800af04:	e7ae      	b.n	800ae64 <__gethex+0x82>
 800af06:	463e      	mov	r6, r7
 800af08:	2501      	movs	r5, #1
 800af0a:	e7c7      	b.n	800ae9c <__gethex+0xba>
 800af0c:	4604      	mov	r4, r0
 800af0e:	e7fb      	b.n	800af08 <__gethex+0x126>
 800af10:	f04f 0900 	mov.w	r9, #0
 800af14:	1cb1      	adds	r1, r6, #2
 800af16:	e7ce      	b.n	800aeb6 <__gethex+0xd4>
 800af18:	f04f 0901 	mov.w	r9, #1
 800af1c:	e7fa      	b.n	800af14 <__gethex+0x132>
 800af1e:	230a      	movs	r3, #10
 800af20:	fb03 0202 	mla	r2, r3, r2, r0
 800af24:	3a10      	subs	r2, #16
 800af26:	e7cf      	b.n	800aec8 <__gethex+0xe6>
 800af28:	4631      	mov	r1, r6
 800af2a:	e7da      	b.n	800aee2 <__gethex+0x100>
 800af2c:	1bf3      	subs	r3, r6, r7
 800af2e:	3b01      	subs	r3, #1
 800af30:	4629      	mov	r1, r5
 800af32:	2b07      	cmp	r3, #7
 800af34:	dc49      	bgt.n	800afca <__gethex+0x1e8>
 800af36:	9802      	ldr	r0, [sp, #8]
 800af38:	f000 fd2a 	bl	800b990 <_Balloc>
 800af3c:	9b01      	ldr	r3, [sp, #4]
 800af3e:	f100 0914 	add.w	r9, r0, #20
 800af42:	f04f 0b00 	mov.w	fp, #0
 800af46:	f1c3 0301 	rsb	r3, r3, #1
 800af4a:	4605      	mov	r5, r0
 800af4c:	f8cd 9010 	str.w	r9, [sp, #16]
 800af50:	46da      	mov	sl, fp
 800af52:	9308      	str	r3, [sp, #32]
 800af54:	42b7      	cmp	r7, r6
 800af56:	d33b      	bcc.n	800afd0 <__gethex+0x1ee>
 800af58:	9804      	ldr	r0, [sp, #16]
 800af5a:	f840 ab04 	str.w	sl, [r0], #4
 800af5e:	eba0 0009 	sub.w	r0, r0, r9
 800af62:	1080      	asrs	r0, r0, #2
 800af64:	6128      	str	r0, [r5, #16]
 800af66:	0147      	lsls	r7, r0, #5
 800af68:	4650      	mov	r0, sl
 800af6a:	f000 fdb8 	bl	800bade <__hi0bits>
 800af6e:	f8d8 6000 	ldr.w	r6, [r8]
 800af72:	1a3f      	subs	r7, r7, r0
 800af74:	42b7      	cmp	r7, r6
 800af76:	dd64      	ble.n	800b042 <__gethex+0x260>
 800af78:	1bbf      	subs	r7, r7, r6
 800af7a:	4639      	mov	r1, r7
 800af7c:	4628      	mov	r0, r5
 800af7e:	f001 f8b9 	bl	800c0f4 <__any_on>
 800af82:	4682      	mov	sl, r0
 800af84:	b178      	cbz	r0, 800afa6 <__gethex+0x1c4>
 800af86:	1e7b      	subs	r3, r7, #1
 800af88:	1159      	asrs	r1, r3, #5
 800af8a:	f003 021f 	and.w	r2, r3, #31
 800af8e:	f04f 0a01 	mov.w	sl, #1
 800af92:	f859 1021 	ldr.w	r1, [r9, r1, lsl #2]
 800af96:	fa0a f202 	lsl.w	r2, sl, r2
 800af9a:	420a      	tst	r2, r1
 800af9c:	d003      	beq.n	800afa6 <__gethex+0x1c4>
 800af9e:	4553      	cmp	r3, sl
 800afa0:	dc46      	bgt.n	800b030 <__gethex+0x24e>
 800afa2:	f04f 0a02 	mov.w	sl, #2
 800afa6:	4639      	mov	r1, r7
 800afa8:	4628      	mov	r0, r5
 800afaa:	f7ff fecb 	bl	800ad44 <rshift>
 800afae:	443c      	add	r4, r7
 800afb0:	f8d8 3008 	ldr.w	r3, [r8, #8]
 800afb4:	42a3      	cmp	r3, r4
 800afb6:	da52      	bge.n	800b05e <__gethex+0x27c>
 800afb8:	4629      	mov	r1, r5
 800afba:	9802      	ldr	r0, [sp, #8]
 800afbc:	f000 fd0d 	bl	800b9da <_Bfree>
 800afc0:	9a14      	ldr	r2, [sp, #80]	; 0x50
 800afc2:	2300      	movs	r3, #0
 800afc4:	6013      	str	r3, [r2, #0]
 800afc6:	27a3      	movs	r7, #163	; 0xa3
 800afc8:	e793      	b.n	800aef2 <__gethex+0x110>
 800afca:	3101      	adds	r1, #1
 800afcc:	105b      	asrs	r3, r3, #1
 800afce:	e7b0      	b.n	800af32 <__gethex+0x150>
 800afd0:	1e73      	subs	r3, r6, #1
 800afd2:	9305      	str	r3, [sp, #20]
 800afd4:	9a07      	ldr	r2, [sp, #28]
 800afd6:	f816 3c01 	ldrb.w	r3, [r6, #-1]
 800afda:	4293      	cmp	r3, r2
 800afdc:	d018      	beq.n	800b010 <__gethex+0x22e>
 800afde:	f1bb 0f20 	cmp.w	fp, #32
 800afe2:	d107      	bne.n	800aff4 <__gethex+0x212>
 800afe4:	9b04      	ldr	r3, [sp, #16]
 800afe6:	f8c3 a000 	str.w	sl, [r3]
 800afea:	3304      	adds	r3, #4
 800afec:	f04f 0a00 	mov.w	sl, #0
 800aff0:	9304      	str	r3, [sp, #16]
 800aff2:	46d3      	mov	fp, sl
 800aff4:	f816 0c01 	ldrb.w	r0, [r6, #-1]
 800aff8:	f7ff fede 	bl	800adb8 <__hexdig_fun>
 800affc:	f000 000f 	and.w	r0, r0, #15
 800b000:	fa00 f00b 	lsl.w	r0, r0, fp
 800b004:	ea4a 0a00 	orr.w	sl, sl, r0
 800b008:	f10b 0b04 	add.w	fp, fp, #4
 800b00c:	9b05      	ldr	r3, [sp, #20]
 800b00e:	e00d      	b.n	800b02c <__gethex+0x24a>
 800b010:	9b05      	ldr	r3, [sp, #20]
 800b012:	9a08      	ldr	r2, [sp, #32]
 800b014:	4413      	add	r3, r2
 800b016:	42bb      	cmp	r3, r7
 800b018:	d3e1      	bcc.n	800afde <__gethex+0x1fc>
 800b01a:	4618      	mov	r0, r3
 800b01c:	9a01      	ldr	r2, [sp, #4]
 800b01e:	9903      	ldr	r1, [sp, #12]
 800b020:	9309      	str	r3, [sp, #36]	; 0x24
 800b022:	f001 faba 	bl	800c59a <strncmp>
 800b026:	9b09      	ldr	r3, [sp, #36]	; 0x24
 800b028:	2800      	cmp	r0, #0
 800b02a:	d1d8      	bne.n	800afde <__gethex+0x1fc>
 800b02c:	461e      	mov	r6, r3
 800b02e:	e791      	b.n	800af54 <__gethex+0x172>
 800b030:	1eb9      	subs	r1, r7, #2
 800b032:	4628      	mov	r0, r5
 800b034:	f001 f85e 	bl	800c0f4 <__any_on>
 800b038:	2800      	cmp	r0, #0
 800b03a:	d0b2      	beq.n	800afa2 <__gethex+0x1c0>
 800b03c:	f04f 0a03 	mov.w	sl, #3
 800b040:	e7b1      	b.n	800afa6 <__gethex+0x1c4>
 800b042:	da09      	bge.n	800b058 <__gethex+0x276>
 800b044:	1bf7      	subs	r7, r6, r7
 800b046:	4629      	mov	r1, r5
 800b048:	463a      	mov	r2, r7
 800b04a:	9802      	ldr	r0, [sp, #8]
 800b04c:	f000 fe74 	bl	800bd38 <__lshift>
 800b050:	1be4      	subs	r4, r4, r7
 800b052:	4605      	mov	r5, r0
 800b054:	f100 0914 	add.w	r9, r0, #20
 800b058:	f04f 0a00 	mov.w	sl, #0
 800b05c:	e7a8      	b.n	800afb0 <__gethex+0x1ce>
 800b05e:	f8d8 0004 	ldr.w	r0, [r8, #4]
 800b062:	42a0      	cmp	r0, r4
 800b064:	dd6a      	ble.n	800b13c <__gethex+0x35a>
 800b066:	1b04      	subs	r4, r0, r4
 800b068:	42a6      	cmp	r6, r4
 800b06a:	dc2e      	bgt.n	800b0ca <__gethex+0x2e8>
 800b06c:	f8d8 300c 	ldr.w	r3, [r8, #12]
 800b070:	2b02      	cmp	r3, #2
 800b072:	d022      	beq.n	800b0ba <__gethex+0x2d8>
 800b074:	2b03      	cmp	r3, #3
 800b076:	d024      	beq.n	800b0c2 <__gethex+0x2e0>
 800b078:	2b01      	cmp	r3, #1
 800b07a:	d115      	bne.n	800b0a8 <__gethex+0x2c6>
 800b07c:	42a6      	cmp	r6, r4
 800b07e:	d113      	bne.n	800b0a8 <__gethex+0x2c6>
 800b080:	2e01      	cmp	r6, #1
 800b082:	dc0b      	bgt.n	800b09c <__gethex+0x2ba>
 800b084:	9a06      	ldr	r2, [sp, #24]
 800b086:	f8d8 3004 	ldr.w	r3, [r8, #4]
 800b08a:	6013      	str	r3, [r2, #0]
 800b08c:	2301      	movs	r3, #1
 800b08e:	612b      	str	r3, [r5, #16]
 800b090:	f8c9 3000 	str.w	r3, [r9]
 800b094:	9b14      	ldr	r3, [sp, #80]	; 0x50
 800b096:	2762      	movs	r7, #98	; 0x62
 800b098:	601d      	str	r5, [r3, #0]
 800b09a:	e72a      	b.n	800aef2 <__gethex+0x110>
 800b09c:	1e71      	subs	r1, r6, #1
 800b09e:	4628      	mov	r0, r5
 800b0a0:	f001 f828 	bl	800c0f4 <__any_on>
 800b0a4:	2800      	cmp	r0, #0
 800b0a6:	d1ed      	bne.n	800b084 <__gethex+0x2a2>
 800b0a8:	4629      	mov	r1, r5
 800b0aa:	9802      	ldr	r0, [sp, #8]
 800b0ac:	f000 fc95 	bl	800b9da <_Bfree>
 800b0b0:	9a14      	ldr	r2, [sp, #80]	; 0x50
 800b0b2:	2300      	movs	r3, #0
 800b0b4:	6013      	str	r3, [r2, #0]
 800b0b6:	2750      	movs	r7, #80	; 0x50
 800b0b8:	e71b      	b.n	800aef2 <__gethex+0x110>
 800b0ba:	9b15      	ldr	r3, [sp, #84]	; 0x54
 800b0bc:	2b00      	cmp	r3, #0
 800b0be:	d0e1      	beq.n	800b084 <__gethex+0x2a2>
 800b0c0:	e7f2      	b.n	800b0a8 <__gethex+0x2c6>
 800b0c2:	9b15      	ldr	r3, [sp, #84]	; 0x54
 800b0c4:	2b00      	cmp	r3, #0
 800b0c6:	d1dd      	bne.n	800b084 <__gethex+0x2a2>
 800b0c8:	e7ee      	b.n	800b0a8 <__gethex+0x2c6>
 800b0ca:	1e67      	subs	r7, r4, #1
 800b0cc:	f1ba 0f00 	cmp.w	sl, #0
 800b0d0:	d131      	bne.n	800b136 <__gethex+0x354>
 800b0d2:	b127      	cbz	r7, 800b0de <__gethex+0x2fc>
 800b0d4:	4639      	mov	r1, r7
 800b0d6:	4628      	mov	r0, r5
 800b0d8:	f001 f80c 	bl	800c0f4 <__any_on>
 800b0dc:	4682      	mov	sl, r0
 800b0de:	117a      	asrs	r2, r7, #5
 800b0e0:	2301      	movs	r3, #1
 800b0e2:	f007 071f 	and.w	r7, r7, #31
 800b0e6:	fa03 f707 	lsl.w	r7, r3, r7
 800b0ea:	f859 3022 	ldr.w	r3, [r9, r2, lsl #2]
 800b0ee:	4621      	mov	r1, r4
 800b0f0:	421f      	tst	r7, r3
 800b0f2:	4628      	mov	r0, r5
 800b0f4:	bf18      	it	ne
 800b0f6:	f04a 0a02 	orrne.w	sl, sl, #2
 800b0fa:	1b36      	subs	r6, r6, r4
 800b0fc:	f7ff fe22 	bl	800ad44 <rshift>
 800b100:	f8d8 4004 	ldr.w	r4, [r8, #4]
 800b104:	2702      	movs	r7, #2
 800b106:	f1ba 0f00 	cmp.w	sl, #0
 800b10a:	d048      	beq.n	800b19e <__gethex+0x3bc>
 800b10c:	f8d8 300c 	ldr.w	r3, [r8, #12]
 800b110:	2b02      	cmp	r3, #2
 800b112:	d015      	beq.n	800b140 <__gethex+0x35e>
 800b114:	2b03      	cmp	r3, #3
 800b116:	d017      	beq.n	800b148 <__gethex+0x366>
 800b118:	2b01      	cmp	r3, #1
 800b11a:	d109      	bne.n	800b130 <__gethex+0x34e>
 800b11c:	f01a 0f02 	tst.w	sl, #2
 800b120:	d006      	beq.n	800b130 <__gethex+0x34e>
 800b122:	f8d9 3000 	ldr.w	r3, [r9]
 800b126:	ea4a 0a03 	orr.w	sl, sl, r3
 800b12a:	f01a 0f01 	tst.w	sl, #1
 800b12e:	d10e      	bne.n	800b14e <__gethex+0x36c>
 800b130:	f047 0710 	orr.w	r7, r7, #16
 800b134:	e033      	b.n	800b19e <__gethex+0x3bc>
 800b136:	f04f 0a01 	mov.w	sl, #1
 800b13a:	e7d0      	b.n	800b0de <__gethex+0x2fc>
 800b13c:	2701      	movs	r7, #1
 800b13e:	e7e2      	b.n	800b106 <__gethex+0x324>
 800b140:	9b15      	ldr	r3, [sp, #84]	; 0x54
 800b142:	f1c3 0301 	rsb	r3, r3, #1
 800b146:	9315      	str	r3, [sp, #84]	; 0x54
 800b148:	9b15      	ldr	r3, [sp, #84]	; 0x54
 800b14a:	2b00      	cmp	r3, #0
 800b14c:	d0f0      	beq.n	800b130 <__gethex+0x34e>
 800b14e:	f8d5 9010 	ldr.w	r9, [r5, #16]
 800b152:	f105 0314 	add.w	r3, r5, #20
 800b156:	ea4f 0a89 	mov.w	sl, r9, lsl #2
 800b15a:	eb03 010a 	add.w	r1, r3, sl
 800b15e:	f04f 0c00 	mov.w	ip, #0
 800b162:	4618      	mov	r0, r3
 800b164:	f853 2b04 	ldr.w	r2, [r3], #4
 800b168:	f1b2 3fff 	cmp.w	r2, #4294967295
 800b16c:	d01c      	beq.n	800b1a8 <__gethex+0x3c6>
 800b16e:	3201      	adds	r2, #1
 800b170:	6002      	str	r2, [r0, #0]
 800b172:	2f02      	cmp	r7, #2
 800b174:	f105 0314 	add.w	r3, r5, #20
 800b178:	d138      	bne.n	800b1ec <__gethex+0x40a>
 800b17a:	f8d8 2000 	ldr.w	r2, [r8]
 800b17e:	3a01      	subs	r2, #1
 800b180:	42b2      	cmp	r2, r6
 800b182:	d10a      	bne.n	800b19a <__gethex+0x3b8>
 800b184:	1171      	asrs	r1, r6, #5
 800b186:	2201      	movs	r2, #1
 800b188:	f006 061f 	and.w	r6, r6, #31
 800b18c:	f853 3021 	ldr.w	r3, [r3, r1, lsl #2]
 800b190:	fa02 f606 	lsl.w	r6, r2, r6
 800b194:	421e      	tst	r6, r3
 800b196:	bf18      	it	ne
 800b198:	4617      	movne	r7, r2
 800b19a:	f047 0720 	orr.w	r7, r7, #32
 800b19e:	9b14      	ldr	r3, [sp, #80]	; 0x50
 800b1a0:	601d      	str	r5, [r3, #0]
 800b1a2:	9b06      	ldr	r3, [sp, #24]
 800b1a4:	601c      	str	r4, [r3, #0]
 800b1a6:	e6a4      	b.n	800aef2 <__gethex+0x110>
 800b1a8:	4299      	cmp	r1, r3
 800b1aa:	f843 cc04 	str.w	ip, [r3, #-4]
 800b1ae:	d8d8      	bhi.n	800b162 <__gethex+0x380>
 800b1b0:	68ab      	ldr	r3, [r5, #8]
 800b1b2:	4599      	cmp	r9, r3
 800b1b4:	db12      	blt.n	800b1dc <__gethex+0x3fa>
 800b1b6:	6869      	ldr	r1, [r5, #4]
 800b1b8:	9802      	ldr	r0, [sp, #8]
 800b1ba:	3101      	adds	r1, #1
 800b1bc:	f000 fbe8 	bl	800b990 <_Balloc>
 800b1c0:	692a      	ldr	r2, [r5, #16]
 800b1c2:	3202      	adds	r2, #2
 800b1c4:	f105 010c 	add.w	r1, r5, #12
 800b1c8:	4683      	mov	fp, r0
 800b1ca:	0092      	lsls	r2, r2, #2
 800b1cc:	300c      	adds	r0, #12
 800b1ce:	f7fc f98b 	bl	80074e8 <memcpy>
 800b1d2:	4629      	mov	r1, r5
 800b1d4:	9802      	ldr	r0, [sp, #8]
 800b1d6:	f000 fc00 	bl	800b9da <_Bfree>
 800b1da:	465d      	mov	r5, fp
 800b1dc:	692b      	ldr	r3, [r5, #16]
 800b1de:	1c5a      	adds	r2, r3, #1
 800b1e0:	eb05 0383 	add.w	r3, r5, r3, lsl #2
 800b1e4:	612a      	str	r2, [r5, #16]
 800b1e6:	2201      	movs	r2, #1
 800b1e8:	615a      	str	r2, [r3, #20]
 800b1ea:	e7c2      	b.n	800b172 <__gethex+0x390>
 800b1ec:	692a      	ldr	r2, [r5, #16]
 800b1ee:	454a      	cmp	r2, r9
 800b1f0:	dd0b      	ble.n	800b20a <__gethex+0x428>
 800b1f2:	2101      	movs	r1, #1
 800b1f4:	4628      	mov	r0, r5
 800b1f6:	f7ff fda5 	bl	800ad44 <rshift>
 800b1fa:	f8d8 3008 	ldr.w	r3, [r8, #8]
 800b1fe:	3401      	adds	r4, #1
 800b200:	42a3      	cmp	r3, r4
 800b202:	f6ff aed9 	blt.w	800afb8 <__gethex+0x1d6>
 800b206:	2701      	movs	r7, #1
 800b208:	e7c7      	b.n	800b19a <__gethex+0x3b8>
 800b20a:	f016 061f 	ands.w	r6, r6, #31
 800b20e:	d0fa      	beq.n	800b206 <__gethex+0x424>
 800b210:	449a      	add	sl, r3
 800b212:	f1c6 0620 	rsb	r6, r6, #32
 800b216:	f85a 0c04 	ldr.w	r0, [sl, #-4]
 800b21a:	f000 fc60 	bl	800bade <__hi0bits>
 800b21e:	42b0      	cmp	r0, r6
 800b220:	dbe7      	blt.n	800b1f2 <__gethex+0x410>
 800b222:	e7f0      	b.n	800b206 <__gethex+0x424>

0800b224 <L_shift>:
 800b224:	f1c2 0208 	rsb	r2, r2, #8
 800b228:	0092      	lsls	r2, r2, #2
 800b22a:	b570      	push	{r4, r5, r6, lr}
 800b22c:	f1c2 0620 	rsb	r6, r2, #32
 800b230:	6843      	ldr	r3, [r0, #4]
 800b232:	6804      	ldr	r4, [r0, #0]
 800b234:	fa03 f506 	lsl.w	r5, r3, r6
 800b238:	432c      	orrs	r4, r5
 800b23a:	40d3      	lsrs	r3, r2
 800b23c:	6004      	str	r4, [r0, #0]
 800b23e:	f840 3f04 	str.w	r3, [r0, #4]!
 800b242:	4288      	cmp	r0, r1
 800b244:	d3f4      	bcc.n	800b230 <L_shift+0xc>
 800b246:	bd70      	pop	{r4, r5, r6, pc}

0800b248 <__match>:
 800b248:	b530      	push	{r4, r5, lr}
 800b24a:	6803      	ldr	r3, [r0, #0]
 800b24c:	3301      	adds	r3, #1
 800b24e:	f811 4b01 	ldrb.w	r4, [r1], #1
 800b252:	b914      	cbnz	r4, 800b25a <__match+0x12>
 800b254:	6003      	str	r3, [r0, #0]
 800b256:	2001      	movs	r0, #1
 800b258:	bd30      	pop	{r4, r5, pc}
 800b25a:	f813 2b01 	ldrb.w	r2, [r3], #1
 800b25e:	f1a2 0541 	sub.w	r5, r2, #65	; 0x41
 800b262:	2d19      	cmp	r5, #25
 800b264:	bf98      	it	ls
 800b266:	3220      	addls	r2, #32
 800b268:	42a2      	cmp	r2, r4
 800b26a:	d0f0      	beq.n	800b24e <__match+0x6>
 800b26c:	2000      	movs	r0, #0
 800b26e:	e7f3      	b.n	800b258 <__match+0x10>

0800b270 <__hexnan>:
 800b270:	e92d 4ff0 	stmdb	sp!, {r4, r5, r6, r7, r8, r9, sl, fp, lr}
 800b274:	680b      	ldr	r3, [r1, #0]
 800b276:	6801      	ldr	r1, [r0, #0]
 800b278:	115f      	asrs	r7, r3, #5
 800b27a:	eb02 0787 	add.w	r7, r2, r7, lsl #2
 800b27e:	f013 031f 	ands.w	r3, r3, #31
 800b282:	b087      	sub	sp, #28
 800b284:	bf18      	it	ne
 800b286:	3704      	addne	r7, #4
 800b288:	2500      	movs	r5, #0
 800b28a:	1f3e      	subs	r6, r7, #4
 800b28c:	4682      	mov	sl, r0
 800b28e:	4690      	mov	r8, r2
 800b290:	9301      	str	r3, [sp, #4]
 800b292:	f847 5c04 	str.w	r5, [r7, #-4]
 800b296:	46b1      	mov	r9, r6
 800b298:	4634      	mov	r4, r6
 800b29a:	9502      	str	r5, [sp, #8]
 800b29c:	46ab      	mov	fp, r5
 800b29e:	784a      	ldrb	r2, [r1, #1]
 800b2a0:	1c4b      	adds	r3, r1, #1
 800b2a2:	9303      	str	r3, [sp, #12]
 800b2a4:	b342      	cbz	r2, 800b2f8 <__hexnan+0x88>
 800b2a6:	4610      	mov	r0, r2
 800b2a8:	9105      	str	r1, [sp, #20]
 800b2aa:	9204      	str	r2, [sp, #16]
 800b2ac:	f7ff fd84 	bl	800adb8 <__hexdig_fun>
 800b2b0:	2800      	cmp	r0, #0
 800b2b2:	d143      	bne.n	800b33c <__hexnan+0xcc>
 800b2b4:	9a04      	ldr	r2, [sp, #16]
 800b2b6:	9905      	ldr	r1, [sp, #20]
 800b2b8:	2a20      	cmp	r2, #32
 800b2ba:	d818      	bhi.n	800b2ee <__hexnan+0x7e>
 800b2bc:	9b02      	ldr	r3, [sp, #8]
 800b2be:	459b      	cmp	fp, r3
 800b2c0:	dd13      	ble.n	800b2ea <__hexnan+0x7a>
 800b2c2:	454c      	cmp	r4, r9
 800b2c4:	d206      	bcs.n	800b2d4 <__hexnan+0x64>
 800b2c6:	2d07      	cmp	r5, #7
 800b2c8:	dc04      	bgt.n	800b2d4 <__hexnan+0x64>
 800b2ca:	462a      	mov	r2, r5
 800b2cc:	4649      	mov	r1, r9
 800b2ce:	4620      	mov	r0, r4
 800b2d0:	f7ff ffa8 	bl	800b224 <L_shift>
 800b2d4:	4544      	cmp	r4, r8
 800b2d6:	d944      	bls.n	800b362 <__hexnan+0xf2>
 800b2d8:	2300      	movs	r3, #0
 800b2da:	f1a4 0904 	sub.w	r9, r4, #4
 800b2de:	f844 3c04 	str.w	r3, [r4, #-4]
 800b2e2:	f8cd b008 	str.w	fp, [sp, #8]
 800b2e6:	464c      	mov	r4, r9
 800b2e8:	461d      	mov	r5, r3
 800b2ea:	9903      	ldr	r1, [sp, #12]
 800b2ec:	e7d7      	b.n	800b29e <__hexnan+0x2e>
 800b2ee:	2a29      	cmp	r2, #41	; 0x29
 800b2f0:	d14a      	bne.n	800b388 <__hexnan+0x118>
 800b2f2:	3102      	adds	r1, #2
 800b2f4:	f8ca 1000 	str.w	r1, [sl]
 800b2f8:	f1bb 0f00 	cmp.w	fp, #0
 800b2fc:	d044      	beq.n	800b388 <__hexnan+0x118>
 800b2fe:	454c      	cmp	r4, r9
 800b300:	d206      	bcs.n	800b310 <__hexnan+0xa0>
 800b302:	2d07      	cmp	r5, #7
 800b304:	dc04      	bgt.n	800b310 <__hexnan+0xa0>
 800b306:	462a      	mov	r2, r5
 800b308:	4649      	mov	r1, r9
 800b30a:	4620      	mov	r0, r4
 800b30c:	f7ff ff8a 	bl	800b224 <L_shift>
 800b310:	4544      	cmp	r4, r8
 800b312:	d928      	bls.n	800b366 <__hexnan+0xf6>
 800b314:	4643      	mov	r3, r8
 800b316:	f854 2b04 	ldr.w	r2, [r4], #4
 800b31a:	f843 2b04 	str.w	r2, [r3], #4
 800b31e:	42a6      	cmp	r6, r4
 800b320:	d2f9      	bcs.n	800b316 <__hexnan+0xa6>
 800b322:	2200      	movs	r2, #0
 800b324:	f843 2b04 	str.w	r2, [r3], #4
 800b328:	429e      	cmp	r6, r3
 800b32a:	d2fb      	bcs.n	800b324 <__hexnan+0xb4>
 800b32c:	6833      	ldr	r3, [r6, #0]
 800b32e:	b91b      	cbnz	r3, 800b338 <__hexnan+0xc8>
 800b330:	4546      	cmp	r6, r8
 800b332:	d127      	bne.n	800b384 <__hexnan+0x114>
 800b334:	2301      	movs	r3, #1
 800b336:	6033      	str	r3, [r6, #0]
 800b338:	2005      	movs	r0, #5
 800b33a:	e026      	b.n	800b38a <__hexnan+0x11a>
 800b33c:	3501      	adds	r5, #1
 800b33e:	2d08      	cmp	r5, #8
 800b340:	f10b 0b01 	add.w	fp, fp, #1
 800b344:	dd06      	ble.n	800b354 <__hexnan+0xe4>
 800b346:	4544      	cmp	r4, r8
 800b348:	d9cf      	bls.n	800b2ea <__hexnan+0x7a>
 800b34a:	2300      	movs	r3, #0
 800b34c:	f844 3c04 	str.w	r3, [r4, #-4]
 800b350:	2501      	movs	r5, #1
 800b352:	3c04      	subs	r4, #4
 800b354:	6822      	ldr	r2, [r4, #0]
 800b356:	f000 000f 	and.w	r0, r0, #15
 800b35a:	ea40 1002 	orr.w	r0, r0, r2, lsl #4
 800b35e:	6020      	str	r0, [r4, #0]
 800b360:	e7c3      	b.n	800b2ea <__hexnan+0x7a>
 800b362:	2508      	movs	r5, #8
 800b364:	e7c1      	b.n	800b2ea <__hexnan+0x7a>
 800b366:	9b01      	ldr	r3, [sp, #4]
 800b368:	2b00      	cmp	r3, #0
 800b36a:	d0df      	beq.n	800b32c <__hexnan+0xbc>
 800b36c:	f04f 32ff 	mov.w	r2, #4294967295
 800b370:	f1c3 0320 	rsb	r3, r3, #32
 800b374:	fa22 f303 	lsr.w	r3, r2, r3
 800b378:	f857 2c04 	ldr.w	r2, [r7, #-4]
 800b37c:	401a      	ands	r2, r3
 800b37e:	f847 2c04 	str.w	r2, [r7, #-4]
 800b382:	e7d3      	b.n	800b32c <__hexnan+0xbc>
 800b384:	3e04      	subs	r6, #4
 800b386:	e7d1      	b.n	800b32c <__hexnan+0xbc>
 800b388:	2004      	movs	r0, #4
 800b38a:	b007      	add	sp, #28
 800b38c:	e8bd 8ff0 	ldmia.w	sp!, {r4, r5, r6, r7, r8, r9, sl, fp, pc}

0800b390 <__locale_mb_cur_max>:
 800b390:	4b04      	ldr	r3, [pc, #16]	; (800b3a4 <__locale_mb_cur_max+0x14>)
 800b392:	4a05      	ldr	r2, [pc, #20]	; (800b3a8 <__locale_mb_cur_max+0x18>)
 800b394:	681b      	ldr	r3, [r3, #0]
 800b396:	6b5b      	ldr	r3, [r3, #52]	; 0x34
 800b398:	2b00      	cmp	r3, #0
 800b39a:	bf08      	it	eq
 800b39c:	4613      	moveq	r3, r2
 800b39e:	f893 0128 	ldrb.w	r0, [r3, #296]	; 0x128
 800b3a2:	4770      	bx	lr
 800b3a4:	20000010 	.word	0x20000010
 800b3a8:	20000444 	.word	0x20000444

0800b3ac <__locale_ctype_ptr_l>:
 800b3ac:	f8d0 00ec 	ldr.w	r0, [r0, #236]	; 0xec
 800b3b0:	4770      	bx	lr

0800b3b2 <__localeconv_l>:
 800b3b2:	30f0      	adds	r0, #240	; 0xf0
 800b3b4:	4770      	bx	lr
	...

0800b3b8 <_localeconv_r>:
 800b3b8:	4b04      	ldr	r3, [pc, #16]	; (800b3cc <_localeconv_r+0x14>)
 800b3ba:	681b      	ldr	r3, [r3, #0]
 800b3bc:	6b58      	ldr	r0, [r3, #52]	; 0x34
 800b3be:	4b04      	ldr	r3, [pc, #16]	; (800b3d0 <_localeconv_r+0x18>)
 800b3c0:	2800      	cmp	r0, #0
 800b3c2:	bf08      	it	eq
 800b3c4:	4618      	moveq	r0, r3
 800b3c6:	30f0      	adds	r0, #240	; 0xf0
 800b3c8:	4770      	bx	lr
 800b3ca:	bf00      	nop
 800b3cc:	20000010 	.word	0x20000010
 800b3d0:	20000444 	.word	0x20000444

0800b3d4 <__retarget_lock_init_recursive>:
 800b3d4:	4770      	bx	lr

0800b3d6 <__retarget_lock_close_recursive>:
 800b3d6:	4770      	bx	lr

0800b3d8 <__retarget_lock_acquire_recursive>:
 800b3d8:	4770      	bx	lr

0800b3da <__retarget_lock_release_recursive>:
 800b3da:	4770      	bx	lr

0800b3dc <__swhatbuf_r>:
 800b3dc:	b570      	push	{r4, r5, r6, lr}
 800b3de:	460e      	mov	r6, r1
 800b3e0:	f9b1 100e 	ldrsh.w	r1, [r1, #14]
 800b3e4:	2900      	cmp	r1, #0
 800b3e6:	b096      	sub	sp, #88	; 0x58
 800b3e8:	4614      	mov	r4, r2
 800b3ea:	461d      	mov	r5, r3
 800b3ec:	da09      	bge.n	800b402 <__swhatbuf_r+0x26>
 800b3ee:	89b3      	ldrh	r3, [r6, #12]
 800b3f0:	2200      	movs	r2, #0
 800b3f2:	f013 0080 	ands.w	r0, r3, #128	; 0x80
 800b3f6:	602a      	str	r2, [r5, #0]
 800b3f8:	d116      	bne.n	800b428 <__swhatbuf_r+0x4c>
 800b3fa:	f44f 6380 	mov.w	r3, #1024	; 0x400
 800b3fe:	6023      	str	r3, [r4, #0]
 800b400:	e015      	b.n	800b42e <__swhatbuf_r+0x52>
 800b402:	466a      	mov	r2, sp
 800b404:	f001 faa4 	bl	800c950 <_fstat_r>
 800b408:	2800      	cmp	r0, #0
 800b40a:	dbf0      	blt.n	800b3ee <__swhatbuf_r+0x12>
 800b40c:	9a01      	ldr	r2, [sp, #4]
 800b40e:	f402 4270 	and.w	r2, r2, #61440	; 0xf000
 800b412:	f5a2 5300 	sub.w	r3, r2, #8192	; 0x2000
 800b416:	425a      	negs	r2, r3
 800b418:	415a      	adcs	r2, r3
 800b41a:	f44f 6380 	mov.w	r3, #1024	; 0x400
 800b41e:	602a      	str	r2, [r5, #0]
 800b420:	f44f 6000 	mov.w	r0, #2048	; 0x800
 800b424:	6023      	str	r3, [r4, #0]
 800b426:	e002      	b.n	800b42e <__swhatbuf_r+0x52>
 800b428:	2340      	movs	r3, #64	; 0x40
 800b42a:	6023      	str	r3, [r4, #0]
 800b42c:	4610      	mov	r0, r2
 800b42e:	b016      	add	sp, #88	; 0x58
 800b430:	bd70      	pop	{r4, r5, r6, pc}
	...

0800b434 <__smakebuf_r>:
 800b434:	898b      	ldrh	r3, [r1, #12]
 800b436:	b573      	push	{r0, r1, r4, r5, r6, lr}
 800b438:	079d      	lsls	r5, r3, #30
 800b43a:	4606      	mov	r6, r0
 800b43c:	460c      	mov	r4, r1
 800b43e:	d507      	bpl.n	800b450 <__smakebuf_r+0x1c>
 800b440:	f104 0343 	add.w	r3, r4, #67	; 0x43
 800b444:	6023      	str	r3, [r4, #0]
 800b446:	6123      	str	r3, [r4, #16]
 800b448:	2301      	movs	r3, #1
 800b44a:	6163      	str	r3, [r4, #20]
 800b44c:	b002      	add	sp, #8
 800b44e:	bd70      	pop	{r4, r5, r6, pc}
 800b450:	ab01      	add	r3, sp, #4
 800b452:	466a      	mov	r2, sp
 800b454:	f7ff ffc2 	bl	800b3dc <__swhatbuf_r>
 800b458:	9900      	ldr	r1, [sp, #0]
 800b45a:	4605      	mov	r5, r0
 800b45c:	4630      	mov	r0, r6
 800b45e:	f000 f829 	bl	800b4b4 <_malloc_r>
 800b462:	b948      	cbnz	r0, 800b478 <__smakebuf_r+0x44>
 800b464:	f9b4 300c 	ldrsh.w	r3, [r4, #12]
 800b468:	059a      	lsls	r2, r3, #22
 800b46a:	d4ef      	bmi.n	800b44c <__smakebuf_r+0x18>
 800b46c:	f023 0303 	bic.w	r3, r3, #3
 800b470:	f043 0302 	orr.w	r3, r3, #2
 800b474:	81a3      	strh	r3, [r4, #12]
 800b476:	e7e3      	b.n	800b440 <__smakebuf_r+0xc>
 800b478:	4b0d      	ldr	r3, [pc, #52]	; (800b4b0 <__smakebuf_r+0x7c>)
 800b47a:	63f3      	str	r3, [r6, #60]	; 0x3c
 800b47c:	89a3      	ldrh	r3, [r4, #12]
 800b47e:	6020      	str	r0, [r4, #0]
 800b480:	f043 0380 	orr.w	r3, r3, #128	; 0x80
 800b484:	81a3      	strh	r3, [r4, #12]
 800b486:	9b00      	ldr	r3, [sp, #0]
 800b488:	6163      	str	r3, [r4, #20]
 800b48a:	9b01      	ldr	r3, [sp, #4]
 800b48c:	6120      	str	r0, [r4, #16]
 800b48e:	b15b      	cbz	r3, 800b4a8 <__smakebuf_r+0x74>
 800b490:	f9b4 100e 	ldrsh.w	r1, [r4, #14]
 800b494:	4630      	mov	r0, r6
 800b496:	f001 fa6d 	bl	800c974 <_isatty_r>
 800b49a:	b128      	cbz	r0, 800b4a8 <__smakebuf_r+0x74>
 800b49c:	89a3      	ldrh	r3, [r4, #12]
 800b49e:	f023 0303 	bic.w	r3, r3, #3
 800b4a2:	f043 0301 	orr.w	r3, r3, #1
 800b4a6:	81a3      	strh	r3, [r4, #12]
 800b4a8:	89a3      	ldrh	r3, [r4, #12]
 800b4aa:	431d      	orrs	r5, r3
 800b4ac:	81a5      	strh	r5, [r4, #12]
 800b4ae:	e7cd      	b.n	800b44c <__smakebuf_r+0x18>
 800b4b0:	0800a799 	.word	0x0800a799

0800b4b4 <_malloc_r>:
 800b4b4:	e92d 4ff7 	stmdb	sp!, {r0, r1, r2, r4, r5, r6, r7, r8, r9, sl, fp, lr}
 800b4b8:	f101 050b 	add.w	r5, r1, #11
 800b4bc:	2d16      	cmp	r5, #22
 800b4be:	4606      	mov	r6, r0
 800b4c0:	d906      	bls.n	800b4d0 <_malloc_r+0x1c>
 800b4c2:	f035 0507 	bics.w	r5, r5, #7
 800b4c6:	d504      	bpl.n	800b4d2 <_malloc_r+0x1e>
 800b4c8:	230c      	movs	r3, #12
 800b4ca:	6033      	str	r3, [r6, #0]
 800b4cc:	2400      	movs	r4, #0
 800b4ce:	e1a8      	b.n	800b822 <_malloc_r+0x36e>
 800b4d0:	2510      	movs	r5, #16
 800b4d2:	428d      	cmp	r5, r1
 800b4d4:	d3f8      	bcc.n	800b4c8 <_malloc_r+0x14>
 800b4d6:	4630      	mov	r0, r6
 800b4d8:	f000 fa4e 	bl	800b978 <__malloc_lock>
 800b4dc:	f5b5 7ffc 	cmp.w	r5, #504	; 0x1f8
 800b4e0:	4fc0      	ldr	r7, [pc, #768]	; (800b7e4 <_malloc_r+0x330>)
 800b4e2:	d238      	bcs.n	800b556 <_malloc_r+0xa2>
 800b4e4:	f105 0208 	add.w	r2, r5, #8
 800b4e8:	443a      	add	r2, r7
 800b4ea:	f1a2 0108 	sub.w	r1, r2, #8
 800b4ee:	6854      	ldr	r4, [r2, #4]
 800b4f0:	428c      	cmp	r4, r1
 800b4f2:	ea4f 03d5 	mov.w	r3, r5, lsr #3
 800b4f6:	d102      	bne.n	800b4fe <_malloc_r+0x4a>
 800b4f8:	68d4      	ldr	r4, [r2, #12]
 800b4fa:	42a2      	cmp	r2, r4
 800b4fc:	d010      	beq.n	800b520 <_malloc_r+0x6c>
 800b4fe:	6863      	ldr	r3, [r4, #4]
 800b500:	e9d4 1202 	ldrd	r1, r2, [r4, #8]
 800b504:	f023 0303 	bic.w	r3, r3, #3
 800b508:	60ca      	str	r2, [r1, #12]
 800b50a:	4423      	add	r3, r4
 800b50c:	6091      	str	r1, [r2, #8]
 800b50e:	685a      	ldr	r2, [r3, #4]
 800b510:	f042 0201 	orr.w	r2, r2, #1
 800b514:	605a      	str	r2, [r3, #4]
 800b516:	4630      	mov	r0, r6
 800b518:	f000 fa34 	bl	800b984 <__malloc_unlock>
 800b51c:	3408      	adds	r4, #8
 800b51e:	e180      	b.n	800b822 <_malloc_r+0x36e>
 800b520:	3302      	adds	r3, #2
 800b522:	4ab1      	ldr	r2, [pc, #708]	; (800b7e8 <_malloc_r+0x334>)
 800b524:	693c      	ldr	r4, [r7, #16]
 800b526:	4294      	cmp	r4, r2
 800b528:	4611      	mov	r1, r2
 800b52a:	d075      	beq.n	800b618 <_malloc_r+0x164>
 800b52c:	6860      	ldr	r0, [r4, #4]
 800b52e:	f020 0c03 	bic.w	ip, r0, #3
 800b532:	ebac 0005 	sub.w	r0, ip, r5
 800b536:	280f      	cmp	r0, #15
 800b538:	dd48      	ble.n	800b5cc <_malloc_r+0x118>
 800b53a:	1963      	adds	r3, r4, r5
 800b53c:	f045 0501 	orr.w	r5, r5, #1
 800b540:	6065      	str	r5, [r4, #4]
 800b542:	e9c7 3304 	strd	r3, r3, [r7, #16]
 800b546:	e9c3 2202 	strd	r2, r2, [r3, #8]
 800b54a:	f040 0201 	orr.w	r2, r0, #1
 800b54e:	605a      	str	r2, [r3, #4]
 800b550:	f844 000c 	str.w	r0, [r4, ip]
 800b554:	e7df      	b.n	800b516 <_malloc_r+0x62>
 800b556:	0a6b      	lsrs	r3, r5, #9
 800b558:	d02a      	beq.n	800b5b0 <_malloc_r+0xfc>
 800b55a:	2b04      	cmp	r3, #4
 800b55c:	d812      	bhi.n	800b584 <_malloc_r+0xd0>
 800b55e:	09ab      	lsrs	r3, r5, #6
 800b560:	3338      	adds	r3, #56	; 0x38
 800b562:	1c5a      	adds	r2, r3, #1
 800b564:	eb07 02c2 	add.w	r2, r7, r2, lsl #3
 800b568:	f1a2 0c08 	sub.w	ip, r2, #8
 800b56c:	6854      	ldr	r4, [r2, #4]
 800b56e:	4564      	cmp	r4, ip
 800b570:	d006      	beq.n	800b580 <_malloc_r+0xcc>
 800b572:	6862      	ldr	r2, [r4, #4]
 800b574:	f022 0203 	bic.w	r2, r2, #3
 800b578:	1b50      	subs	r0, r2, r5
 800b57a:	280f      	cmp	r0, #15
 800b57c:	dd1c      	ble.n	800b5b8 <_malloc_r+0x104>
 800b57e:	3b01      	subs	r3, #1
 800b580:	3301      	adds	r3, #1
 800b582:	e7ce      	b.n	800b522 <_malloc_r+0x6e>
 800b584:	2b14      	cmp	r3, #20
 800b586:	d801      	bhi.n	800b58c <_malloc_r+0xd8>
 800b588:	335b      	adds	r3, #91	; 0x5b
 800b58a:	e7ea      	b.n	800b562 <_malloc_r+0xae>
 800b58c:	2b54      	cmp	r3, #84	; 0x54
 800b58e:	d802      	bhi.n	800b596 <_malloc_r+0xe2>
 800b590:	0b2b      	lsrs	r3, r5, #12
 800b592:	336e      	adds	r3, #110	; 0x6e
 800b594:	e7e5      	b.n	800b562 <_malloc_r+0xae>
 800b596:	f5b3 7faa 	cmp.w	r3, #340	; 0x154
 800b59a:	d802      	bhi.n	800b5a2 <_malloc_r+0xee>
 800b59c:	0beb      	lsrs	r3, r5, #15
 800b59e:	3377      	adds	r3, #119	; 0x77
 800b5a0:	e7df      	b.n	800b562 <_malloc_r+0xae>
 800b5a2:	f240 5254 	movw	r2, #1364	; 0x554
 800b5a6:	4293      	cmp	r3, r2
 800b5a8:	d804      	bhi.n	800b5b4 <_malloc_r+0x100>
 800b5aa:	0cab      	lsrs	r3, r5, #18
 800b5ac:	337c      	adds	r3, #124	; 0x7c
 800b5ae:	e7d8      	b.n	800b562 <_malloc_r+0xae>
 800b5b0:	233f      	movs	r3, #63	; 0x3f
 800b5b2:	e7d6      	b.n	800b562 <_malloc_r+0xae>
 800b5b4:	237e      	movs	r3, #126	; 0x7e
 800b5b6:	e7d4      	b.n	800b562 <_malloc_r+0xae>
 800b5b8:	2800      	cmp	r0, #0
 800b5ba:	68e1      	ldr	r1, [r4, #12]
 800b5bc:	db04      	blt.n	800b5c8 <_malloc_r+0x114>
 800b5be:	68a3      	ldr	r3, [r4, #8]
 800b5c0:	60d9      	str	r1, [r3, #12]
 800b5c2:	608b      	str	r3, [r1, #8]
 800b5c4:	18a3      	adds	r3, r4, r2
 800b5c6:	e7a2      	b.n	800b50e <_malloc_r+0x5a>
 800b5c8:	460c      	mov	r4, r1
 800b5ca:	e7d0      	b.n	800b56e <_malloc_r+0xba>
 800b5cc:	2800      	cmp	r0, #0
 800b5ce:	e9c7 2204 	strd	r2, r2, [r7, #16]
 800b5d2:	db07      	blt.n	800b5e4 <_malloc_r+0x130>
 800b5d4:	44a4      	add	ip, r4
 800b5d6:	f8dc 3004 	ldr.w	r3, [ip, #4]
 800b5da:	f043 0301 	orr.w	r3, r3, #1
 800b5de:	f8cc 3004 	str.w	r3, [ip, #4]
 800b5e2:	e798      	b.n	800b516 <_malloc_r+0x62>
 800b5e4:	f5bc 7f00 	cmp.w	ip, #512	; 0x200
 800b5e8:	6878      	ldr	r0, [r7, #4]
 800b5ea:	f080 8099 	bcs.w	800b720 <_malloc_r+0x26c>
 800b5ee:	ea4f 0cdc 	mov.w	ip, ip, lsr #3
 800b5f2:	ea4f 0eac 	mov.w	lr, ip, asr #2
 800b5f6:	2201      	movs	r2, #1
 800b5f8:	f10c 0c01 	add.w	ip, ip, #1
 800b5fc:	fa02 f20e 	lsl.w	r2, r2, lr
 800b600:	4310      	orrs	r0, r2
 800b602:	6078      	str	r0, [r7, #4]
 800b604:	eb07 02cc 	add.w	r2, r7, ip, lsl #3
 800b608:	f857 003c 	ldr.w	r0, [r7, ip, lsl #3]
 800b60c:	3a08      	subs	r2, #8
 800b60e:	e9c4 0202 	strd	r0, r2, [r4, #8]
 800b612:	f847 403c 	str.w	r4, [r7, ip, lsl #3]
 800b616:	60c4      	str	r4, [r0, #12]
 800b618:	2001      	movs	r0, #1
 800b61a:	109a      	asrs	r2, r3, #2
 800b61c:	fa00 f202 	lsl.w	r2, r0, r2
 800b620:	6878      	ldr	r0, [r7, #4]
 800b622:	4290      	cmp	r0, r2
 800b624:	d326      	bcc.n	800b674 <_malloc_r+0x1c0>
 800b626:	4210      	tst	r0, r2
 800b628:	d106      	bne.n	800b638 <_malloc_r+0x184>
 800b62a:	f023 0303 	bic.w	r3, r3, #3
 800b62e:	0052      	lsls	r2, r2, #1
 800b630:	4210      	tst	r0, r2
 800b632:	f103 0304 	add.w	r3, r3, #4
 800b636:	d0fa      	beq.n	800b62e <_malloc_r+0x17a>
 800b638:	eb07 0cc3 	add.w	ip, r7, r3, lsl #3
 800b63c:	46e1      	mov	r9, ip
 800b63e:	4698      	mov	r8, r3
 800b640:	f8d9 400c 	ldr.w	r4, [r9, #12]
 800b644:	454c      	cmp	r4, r9
 800b646:	f040 80af 	bne.w	800b7a8 <_malloc_r+0x2f4>
 800b64a:	f108 0801 	add.w	r8, r8, #1
 800b64e:	f018 0f03 	tst.w	r8, #3
 800b652:	f109 0908 	add.w	r9, r9, #8
 800b656:	d1f3      	bne.n	800b640 <_malloc_r+0x18c>
 800b658:	0798      	lsls	r0, r3, #30
 800b65a:	f040 80e8 	bne.w	800b82e <_malloc_r+0x37a>
 800b65e:	687b      	ldr	r3, [r7, #4]
 800b660:	ea23 0302 	bic.w	r3, r3, r2
 800b664:	607b      	str	r3, [r7, #4]
 800b666:	6878      	ldr	r0, [r7, #4]
 800b668:	0052      	lsls	r2, r2, #1
 800b66a:	4290      	cmp	r0, r2
 800b66c:	d302      	bcc.n	800b674 <_malloc_r+0x1c0>
 800b66e:	2a00      	cmp	r2, #0
 800b670:	f040 80ec 	bne.w	800b84c <_malloc_r+0x398>
 800b674:	f8d7 a008 	ldr.w	sl, [r7, #8]
 800b678:	f8da 4004 	ldr.w	r4, [sl, #4]
 800b67c:	f024 0203 	bic.w	r2, r4, #3
 800b680:	42aa      	cmp	r2, r5
 800b682:	d303      	bcc.n	800b68c <_malloc_r+0x1d8>
 800b684:	1b53      	subs	r3, r2, r5
 800b686:	2b0f      	cmp	r3, #15
 800b688:	f300 8140 	bgt.w	800b90c <_malloc_r+0x458>
 800b68c:	4b57      	ldr	r3, [pc, #348]	; (800b7ec <_malloc_r+0x338>)
 800b68e:	9200      	str	r2, [sp, #0]
 800b690:	2008      	movs	r0, #8
 800b692:	681c      	ldr	r4, [r3, #0]
 800b694:	f000 ffa8 	bl	800c5e8 <sysconf>
 800b698:	4b55      	ldr	r3, [pc, #340]	; (800b7f0 <_malloc_r+0x33c>)
 800b69a:	9a00      	ldr	r2, [sp, #0]
 800b69c:	6819      	ldr	r1, [r3, #0]
 800b69e:	3410      	adds	r4, #16
 800b6a0:	3101      	adds	r1, #1
 800b6a2:	442c      	add	r4, r5
 800b6a4:	bf1f      	itttt	ne
 800b6a6:	f104 34ff 	addne.w	r4, r4, #4294967295
 800b6aa:	1824      	addne	r4, r4, r0
 800b6ac:	4241      	negne	r1, r0
 800b6ae:	400c      	andne	r4, r1
 800b6b0:	4680      	mov	r8, r0
 800b6b2:	4621      	mov	r1, r4
 800b6b4:	4630      	mov	r0, r6
 800b6b6:	e9cd 2300 	strd	r2, r3, [sp]
 800b6ba:	f000 ff1b 	bl	800c4f4 <_sbrk_r>
 800b6be:	f1b0 3fff 	cmp.w	r0, #4294967295
 800b6c2:	4683      	mov	fp, r0
 800b6c4:	f000 80fb 	beq.w	800b8be <_malloc_r+0x40a>
 800b6c8:	9a00      	ldr	r2, [sp, #0]
 800b6ca:	9b01      	ldr	r3, [sp, #4]
 800b6cc:	eb0a 0102 	add.w	r1, sl, r2
 800b6d0:	4281      	cmp	r1, r0
 800b6d2:	d902      	bls.n	800b6da <_malloc_r+0x226>
 800b6d4:	45ba      	cmp	sl, r7
 800b6d6:	f040 80f2 	bne.w	800b8be <_malloc_r+0x40a>
 800b6da:	f8df 9120 	ldr.w	r9, [pc, #288]	; 800b7fc <_malloc_r+0x348>
 800b6de:	f8d9 0000 	ldr.w	r0, [r9]
 800b6e2:	4559      	cmp	r1, fp
 800b6e4:	eb00 0e04 	add.w	lr, r0, r4
 800b6e8:	f8c9 e000 	str.w	lr, [r9]
 800b6ec:	f108 3cff 	add.w	ip, r8, #4294967295
 800b6f0:	f040 80ae 	bne.w	800b850 <_malloc_r+0x39c>
 800b6f4:	ea11 0f0c 	tst.w	r1, ip
 800b6f8:	f040 80aa 	bne.w	800b850 <_malloc_r+0x39c>
 800b6fc:	68bb      	ldr	r3, [r7, #8]
 800b6fe:	4414      	add	r4, r2
 800b700:	f044 0401 	orr.w	r4, r4, #1
 800b704:	605c      	str	r4, [r3, #4]
 800b706:	4a3b      	ldr	r2, [pc, #236]	; (800b7f4 <_malloc_r+0x340>)
 800b708:	f8d9 3000 	ldr.w	r3, [r9]
 800b70c:	6811      	ldr	r1, [r2, #0]
 800b70e:	428b      	cmp	r3, r1
 800b710:	bf88      	it	hi
 800b712:	6013      	strhi	r3, [r2, #0]
 800b714:	4a38      	ldr	r2, [pc, #224]	; (800b7f8 <_malloc_r+0x344>)
 800b716:	6811      	ldr	r1, [r2, #0]
 800b718:	428b      	cmp	r3, r1
 800b71a:	bf88      	it	hi
 800b71c:	6013      	strhi	r3, [r2, #0]
 800b71e:	e0ce      	b.n	800b8be <_malloc_r+0x40a>
 800b720:	ea4f 225c 	mov.w	r2, ip, lsr #9
 800b724:	2a04      	cmp	r2, #4
 800b726:	d818      	bhi.n	800b75a <_malloc_r+0x2a6>
 800b728:	ea4f 129c 	mov.w	r2, ip, lsr #6
 800b72c:	3238      	adds	r2, #56	; 0x38
 800b72e:	f102 0e01 	add.w	lr, r2, #1
 800b732:	eb07 08c2 	add.w	r8, r7, r2, lsl #3
 800b736:	f857 e03e 	ldr.w	lr, [r7, lr, lsl #3]
 800b73a:	45f0      	cmp	r8, lr
 800b73c:	d12b      	bne.n	800b796 <_malloc_r+0x2e2>
 800b73e:	1092      	asrs	r2, r2, #2
 800b740:	f04f 0c01 	mov.w	ip, #1
 800b744:	fa0c f202 	lsl.w	r2, ip, r2
 800b748:	4310      	orrs	r0, r2
 800b74a:	6078      	str	r0, [r7, #4]
 800b74c:	e9c4 e802 	strd	lr, r8, [r4, #8]
 800b750:	f8c8 4008 	str.w	r4, [r8, #8]
 800b754:	f8ce 400c 	str.w	r4, [lr, #12]
 800b758:	e75e      	b.n	800b618 <_malloc_r+0x164>
 800b75a:	2a14      	cmp	r2, #20
 800b75c:	d801      	bhi.n	800b762 <_malloc_r+0x2ae>
 800b75e:	325b      	adds	r2, #91	; 0x5b
 800b760:	e7e5      	b.n	800b72e <_malloc_r+0x27a>
 800b762:	2a54      	cmp	r2, #84	; 0x54
 800b764:	d803      	bhi.n	800b76e <_malloc_r+0x2ba>
 800b766:	ea4f 321c 	mov.w	r2, ip, lsr #12
 800b76a:	326e      	adds	r2, #110	; 0x6e
 800b76c:	e7df      	b.n	800b72e <_malloc_r+0x27a>
 800b76e:	f5b2 7faa 	cmp.w	r2, #340	; 0x154
 800b772:	d803      	bhi.n	800b77c <_malloc_r+0x2c8>
 800b774:	ea4f 32dc 	mov.w	r2, ip, lsr #15
 800b778:	3277      	adds	r2, #119	; 0x77
 800b77a:	e7d8      	b.n	800b72e <_malloc_r+0x27a>
 800b77c:	f240 5e54 	movw	lr, #1364	; 0x554
 800b780:	4572      	cmp	r2, lr
 800b782:	bf9a      	itte	ls
 800b784:	ea4f 429c 	movls.w	r2, ip, lsr #18
 800b788:	327c      	addls	r2, #124	; 0x7c
 800b78a:	227e      	movhi	r2, #126	; 0x7e
 800b78c:	e7cf      	b.n	800b72e <_malloc_r+0x27a>
 800b78e:	f8de e008 	ldr.w	lr, [lr, #8]
 800b792:	45f0      	cmp	r8, lr
 800b794:	d005      	beq.n	800b7a2 <_malloc_r+0x2ee>
 800b796:	f8de 2004 	ldr.w	r2, [lr, #4]
 800b79a:	f022 0203 	bic.w	r2, r2, #3
 800b79e:	4562      	cmp	r2, ip
 800b7a0:	d8f5      	bhi.n	800b78e <_malloc_r+0x2da>
 800b7a2:	f8de 800c 	ldr.w	r8, [lr, #12]
 800b7a6:	e7d1      	b.n	800b74c <_malloc_r+0x298>
 800b7a8:	6860      	ldr	r0, [r4, #4]
 800b7aa:	f8d4 e00c 	ldr.w	lr, [r4, #12]
 800b7ae:	f020 0003 	bic.w	r0, r0, #3
 800b7b2:	eba0 0a05 	sub.w	sl, r0, r5
 800b7b6:	f1ba 0f0f 	cmp.w	sl, #15
 800b7ba:	dd21      	ble.n	800b800 <_malloc_r+0x34c>
 800b7bc:	68a2      	ldr	r2, [r4, #8]
 800b7be:	1963      	adds	r3, r4, r5
 800b7c0:	f045 0501 	orr.w	r5, r5, #1
 800b7c4:	6065      	str	r5, [r4, #4]
 800b7c6:	f8c2 e00c 	str.w	lr, [r2, #12]
 800b7ca:	f8ce 2008 	str.w	r2, [lr, #8]
 800b7ce:	f04a 0201 	orr.w	r2, sl, #1
 800b7d2:	e9c7 3304 	strd	r3, r3, [r7, #16]
 800b7d6:	e9c3 1102 	strd	r1, r1, [r3, #8]
 800b7da:	605a      	str	r2, [r3, #4]
 800b7dc:	f844 a000 	str.w	sl, [r4, r0]
 800b7e0:	e699      	b.n	800b516 <_malloc_r+0x62>
 800b7e2:	bf00      	nop
 800b7e4:	200005b0 	.word	0x200005b0
 800b7e8:	200005b8 	.word	0x200005b8
 800b7ec:	20000a10 	.word	0x20000a10
 800b7f0:	200009b8 	.word	0x200009b8
 800b7f4:	20000a08 	.word	0x20000a08
 800b7f8:	20000a0c 	.word	0x20000a0c
 800b7fc:	200009e0 	.word	0x200009e0
 800b800:	f1ba 0f00 	cmp.w	sl, #0
 800b804:	db11      	blt.n	800b82a <_malloc_r+0x376>
 800b806:	4420      	add	r0, r4
 800b808:	6843      	ldr	r3, [r0, #4]
 800b80a:	f043 0301 	orr.w	r3, r3, #1
 800b80e:	6043      	str	r3, [r0, #4]
 800b810:	f854 3f08 	ldr.w	r3, [r4, #8]!
 800b814:	4630      	mov	r0, r6
 800b816:	f8c3 e00c 	str.w	lr, [r3, #12]
 800b81a:	f8ce 3008 	str.w	r3, [lr, #8]
 800b81e:	f000 f8b1 	bl	800b984 <__malloc_unlock>
 800b822:	4620      	mov	r0, r4
 800b824:	b003      	add	sp, #12
 800b826:	e8bd 8ff0 	ldmia.w	sp!, {r4, r5, r6, r7, r8, r9, sl, fp, pc}
 800b82a:	4674      	mov	r4, lr
 800b82c:	e70a      	b.n	800b644 <_malloc_r+0x190>
 800b82e:	f1ac 0008 	sub.w	r0, ip, #8
 800b832:	f8dc c000 	ldr.w	ip, [ip]
 800b836:	4584      	cmp	ip, r0
 800b838:	f103 33ff 	add.w	r3, r3, #4294967295
 800b83c:	f43f af0c 	beq.w	800b658 <_malloc_r+0x1a4>
 800b840:	e711      	b.n	800b666 <_malloc_r+0x1b2>
 800b842:	3304      	adds	r3, #4
 800b844:	0052      	lsls	r2, r2, #1
 800b846:	4210      	tst	r0, r2
 800b848:	d0fb      	beq.n	800b842 <_malloc_r+0x38e>
 800b84a:	e6f5      	b.n	800b638 <_malloc_r+0x184>
 800b84c:	4643      	mov	r3, r8
 800b84e:	e7fa      	b.n	800b846 <_malloc_r+0x392>
 800b850:	6818      	ldr	r0, [r3, #0]
 800b852:	9200      	str	r2, [sp, #0]
 800b854:	3001      	adds	r0, #1
 800b856:	bf1b      	ittet	ne
 800b858:	ebab 0101 	subne.w	r1, fp, r1
 800b85c:	4471      	addne	r1, lr
 800b85e:	f8c3 b000 	streq.w	fp, [r3]
 800b862:	f8c9 1000 	strne.w	r1, [r9]
 800b866:	f01b 0307 	ands.w	r3, fp, #7
 800b86a:	bf1c      	itt	ne
 800b86c:	f1c3 0308 	rsbne	r3, r3, #8
 800b870:	449b      	addne	fp, r3
 800b872:	445c      	add	r4, fp
 800b874:	4498      	add	r8, r3
 800b876:	ea04 030c 	and.w	r3, r4, ip
 800b87a:	eba8 0803 	sub.w	r8, r8, r3
 800b87e:	4641      	mov	r1, r8
 800b880:	4630      	mov	r0, r6
 800b882:	f000 fe37 	bl	800c4f4 <_sbrk_r>
 800b886:	1c43      	adds	r3, r0, #1
 800b888:	bf04      	itt	eq
 800b88a:	4658      	moveq	r0, fp
 800b88c:	f04f 0800 	moveq.w	r8, #0
 800b890:	f8d9 3000 	ldr.w	r3, [r9]
 800b894:	f8c7 b008 	str.w	fp, [r7, #8]
 800b898:	eba0 000b 	sub.w	r0, r0, fp
 800b89c:	4440      	add	r0, r8
 800b89e:	4443      	add	r3, r8
 800b8a0:	f040 0001 	orr.w	r0, r0, #1
 800b8a4:	45ba      	cmp	sl, r7
 800b8a6:	9a00      	ldr	r2, [sp, #0]
 800b8a8:	f8c9 3000 	str.w	r3, [r9]
 800b8ac:	f8cb 0004 	str.w	r0, [fp, #4]
 800b8b0:	f43f af29 	beq.w	800b706 <_malloc_r+0x252>
 800b8b4:	2a0f      	cmp	r2, #15
 800b8b6:	d810      	bhi.n	800b8da <_malloc_r+0x426>
 800b8b8:	2301      	movs	r3, #1
 800b8ba:	f8cb 3004 	str.w	r3, [fp, #4]
 800b8be:	68bb      	ldr	r3, [r7, #8]
 800b8c0:	685a      	ldr	r2, [r3, #4]
 800b8c2:	f022 0203 	bic.w	r2, r2, #3
 800b8c6:	42aa      	cmp	r2, r5
 800b8c8:	eba2 0305 	sub.w	r3, r2, r5
 800b8cc:	d301      	bcc.n	800b8d2 <_malloc_r+0x41e>
 800b8ce:	2b0f      	cmp	r3, #15
 800b8d0:	dc1c      	bgt.n	800b90c <_malloc_r+0x458>
 800b8d2:	4630      	mov	r0, r6
 800b8d4:	f000 f856 	bl	800b984 <__malloc_unlock>
 800b8d8:	e5f8      	b.n	800b4cc <_malloc_r+0x18>
 800b8da:	f8da 3004 	ldr.w	r3, [sl, #4]
 800b8de:	f1a2 040c 	sub.w	r4, r2, #12
 800b8e2:	f024 0407 	bic.w	r4, r4, #7
 800b8e6:	f003 0301 	and.w	r3, r3, #1
 800b8ea:	4323      	orrs	r3, r4
 800b8ec:	f8ca 3004 	str.w	r3, [sl, #4]
 800b8f0:	2205      	movs	r2, #5
 800b8f2:	eb0a 0304 	add.w	r3, sl, r4
 800b8f6:	2c0f      	cmp	r4, #15
 800b8f8:	e9c3 2201 	strd	r2, r2, [r3, #4]
 800b8fc:	f67f af03 	bls.w	800b706 <_malloc_r+0x252>
 800b900:	f10a 0108 	add.w	r1, sl, #8
 800b904:	4630      	mov	r0, r6
 800b906:	f7fe fff5 	bl	800a8f4 <_free_r>
 800b90a:	e6fc      	b.n	800b706 <_malloc_r+0x252>
 800b90c:	68bc      	ldr	r4, [r7, #8]
 800b90e:	f045 0201 	orr.w	r2, r5, #1
 800b912:	4425      	add	r5, r4
 800b914:	f043 0301 	orr.w	r3, r3, #1
 800b918:	6062      	str	r2, [r4, #4]
 800b91a:	60bd      	str	r5, [r7, #8]
 800b91c:	606b      	str	r3, [r5, #4]
 800b91e:	e5fa      	b.n	800b516 <_malloc_r+0x62>

0800b920 <__ascii_mbtowc>:
 800b920:	b082      	sub	sp, #8
 800b922:	b901      	cbnz	r1, 800b926 <__ascii_mbtowc+0x6>
 800b924:	a901      	add	r1, sp, #4
 800b926:	b142      	cbz	r2, 800b93a <__ascii_mbtowc+0x1a>
 800b928:	b14b      	cbz	r3, 800b93e <__ascii_mbtowc+0x1e>
 800b92a:	7813      	ldrb	r3, [r2, #0]
 800b92c:	600b      	str	r3, [r1, #0]
 800b92e:	7812      	ldrb	r2, [r2, #0]
 800b930:	1c10      	adds	r0, r2, #0
 800b932:	bf18      	it	ne
 800b934:	2001      	movne	r0, #1
 800b936:	b002      	add	sp, #8
 800b938:	4770      	bx	lr
 800b93a:	4610      	mov	r0, r2
 800b93c:	e7fb      	b.n	800b936 <__ascii_mbtowc+0x16>
 800b93e:	f06f 0001 	mvn.w	r0, #1
 800b942:	e7f8      	b.n	800b936 <__ascii_mbtowc+0x16>

0800b944 <memmove>:
 800b944:	4288      	cmp	r0, r1
 800b946:	b510      	push	{r4, lr}
 800b948:	eb01 0302 	add.w	r3, r1, r2
 800b94c:	d807      	bhi.n	800b95e <memmove+0x1a>
 800b94e:	1e42      	subs	r2, r0, #1
 800b950:	4299      	cmp	r1, r3
 800b952:	d00a      	beq.n	800b96a <memmove+0x26>
 800b954:	f811 4b01 	ldrb.w	r4, [r1], #1
 800b958:	f802 4f01 	strb.w	r4, [r2, #1]!
 800b95c:	e7f8      	b.n	800b950 <memmove+0xc>
 800b95e:	4283      	cmp	r3, r0
 800b960:	d9f5      	bls.n	800b94e <memmove+0xa>
 800b962:	1881      	adds	r1, r0, r2
 800b964:	1ad2      	subs	r2, r2, r3
 800b966:	42d3      	cmn	r3, r2
 800b968:	d100      	bne.n	800b96c <memmove+0x28>
 800b96a:	bd10      	pop	{r4, pc}
 800b96c:	f813 4d01 	ldrb.w	r4, [r3, #-1]!
 800b970:	f801 4d01 	strb.w	r4, [r1, #-1]!
 800b974:	e7f7      	b.n	800b966 <memmove+0x22>
	...

0800b978 <__malloc_lock>:
 800b978:	4801      	ldr	r0, [pc, #4]	; (800b980 <__malloc_lock+0x8>)
 800b97a:	f7ff bd2d 	b.w	800b3d8 <__retarget_lock_acquire_recursive>
 800b97e:	bf00      	nop
 800b980:	20009c40 	.word	0x20009c40

0800b984 <__malloc_unlock>:
 800b984:	4801      	ldr	r0, [pc, #4]	; (800b98c <__malloc_unlock+0x8>)
 800b986:	f7ff bd28 	b.w	800b3da <__retarget_lock_release_recursive>
 800b98a:	bf00      	nop
 800b98c:	20009c40 	.word	0x20009c40

0800b990 <_Balloc>:
 800b990:	6cc3      	ldr	r3, [r0, #76]	; 0x4c
 800b992:	b570      	push	{r4, r5, r6, lr}
 800b994:	4605      	mov	r5, r0
 800b996:	460c      	mov	r4, r1
 800b998:	b17b      	cbz	r3, 800b9ba <_Balloc+0x2a>
 800b99a:	6ceb      	ldr	r3, [r5, #76]	; 0x4c
 800b99c:	f853 0024 	ldr.w	r0, [r3, r4, lsl #2]
 800b9a0:	b9a0      	cbnz	r0, 800b9cc <_Balloc+0x3c>
 800b9a2:	2101      	movs	r1, #1
 800b9a4:	fa01 f604 	lsl.w	r6, r1, r4
 800b9a8:	1d72      	adds	r2, r6, #5
 800b9aa:	0092      	lsls	r2, r2, #2
 800b9ac:	4628      	mov	r0, r5
 800b9ae:	f000 fecf 	bl	800c750 <_calloc_r>
 800b9b2:	b148      	cbz	r0, 800b9c8 <_Balloc+0x38>
 800b9b4:	e9c0 4601 	strd	r4, r6, [r0, #4]
 800b9b8:	e00b      	b.n	800b9d2 <_Balloc+0x42>
 800b9ba:	2221      	movs	r2, #33	; 0x21
 800b9bc:	2104      	movs	r1, #4
 800b9be:	f000 fec7 	bl	800c750 <_calloc_r>
 800b9c2:	64e8      	str	r0, [r5, #76]	; 0x4c
 800b9c4:	2800      	cmp	r0, #0
 800b9c6:	d1e8      	bne.n	800b99a <_Balloc+0xa>
 800b9c8:	2000      	movs	r0, #0
 800b9ca:	bd70      	pop	{r4, r5, r6, pc}
 800b9cc:	6802      	ldr	r2, [r0, #0]
 800b9ce:	f843 2024 	str.w	r2, [r3, r4, lsl #2]
 800b9d2:	2300      	movs	r3, #0
 800b9d4:	e9c0 3303 	strd	r3, r3, [r0, #12]
 800b9d8:	e7f7      	b.n	800b9ca <_Balloc+0x3a>

0800b9da <_Bfree>:
 800b9da:	b131      	cbz	r1, 800b9ea <_Bfree+0x10>
 800b9dc:	6cc3      	ldr	r3, [r0, #76]	; 0x4c
 800b9de:	684a      	ldr	r2, [r1, #4]
 800b9e0:	f853 0022 	ldr.w	r0, [r3, r2, lsl #2]
 800b9e4:	6008      	str	r0, [r1, #0]
 800b9e6:	f843 1022 	str.w	r1, [r3, r2, lsl #2]
 800b9ea:	4770      	bx	lr

0800b9ec <__multadd>:
 800b9ec:	e92d 41f0 	stmdb	sp!, {r4, r5, r6, r7, r8, lr}
 800b9f0:	690d      	ldr	r5, [r1, #16]
 800b9f2:	461f      	mov	r7, r3
 800b9f4:	4606      	mov	r6, r0
 800b9f6:	460c      	mov	r4, r1
 800b9f8:	f101 0c14 	add.w	ip, r1, #20
 800b9fc:	2300      	movs	r3, #0
 800b9fe:	f8dc 0000 	ldr.w	r0, [ip]
 800ba02:	b281      	uxth	r1, r0
 800ba04:	fb02 7101 	mla	r1, r2, r1, r7
 800ba08:	0c0f      	lsrs	r7, r1, #16
 800ba0a:	0c00      	lsrs	r0, r0, #16
 800ba0c:	fb02 7000 	mla	r0, r2, r0, r7
 800ba10:	b289      	uxth	r1, r1
 800ba12:	3301      	adds	r3, #1
 800ba14:	eb01 4100 	add.w	r1, r1, r0, lsl #16
 800ba18:	429d      	cmp	r5, r3
 800ba1a:	ea4f 4710 	mov.w	r7, r0, lsr #16
 800ba1e:	f84c 1b04 	str.w	r1, [ip], #4
 800ba22:	dcec      	bgt.n	800b9fe <__multadd+0x12>
 800ba24:	b1d7      	cbz	r7, 800ba5c <__multadd+0x70>
 800ba26:	68a3      	ldr	r3, [r4, #8]
 800ba28:	42ab      	cmp	r3, r5
 800ba2a:	dc12      	bgt.n	800ba52 <__multadd+0x66>
 800ba2c:	6861      	ldr	r1, [r4, #4]
 800ba2e:	4630      	mov	r0, r6
 800ba30:	3101      	adds	r1, #1
 800ba32:	f7ff ffad 	bl	800b990 <_Balloc>
 800ba36:	6922      	ldr	r2, [r4, #16]
 800ba38:	3202      	adds	r2, #2
 800ba3a:	f104 010c 	add.w	r1, r4, #12
 800ba3e:	4680      	mov	r8, r0
 800ba40:	0092      	lsls	r2, r2, #2
 800ba42:	300c      	adds	r0, #12
 800ba44:	f7fb fd50 	bl	80074e8 <memcpy>
 800ba48:	4621      	mov	r1, r4
 800ba4a:	4630      	mov	r0, r6
 800ba4c:	f7ff ffc5 	bl	800b9da <_Bfree>
 800ba50:	4644      	mov	r4, r8
 800ba52:	eb04 0385 	add.w	r3, r4, r5, lsl #2
 800ba56:	3501      	adds	r5, #1
 800ba58:	615f      	str	r7, [r3, #20]
 800ba5a:	6125      	str	r5, [r4, #16]
 800ba5c:	4620      	mov	r0, r4
 800ba5e:	e8bd 81f0 	ldmia.w	sp!, {r4, r5, r6, r7, r8, pc}

0800ba62 <__s2b>:
 800ba62:	e92d 43f8 	stmdb	sp!, {r3, r4, r5, r6, r7, r8, r9, lr}
 800ba66:	460c      	mov	r4, r1
 800ba68:	4615      	mov	r5, r2
 800ba6a:	461f      	mov	r7, r3
 800ba6c:	2209      	movs	r2, #9
 800ba6e:	3308      	adds	r3, #8
 800ba70:	4606      	mov	r6, r0
 800ba72:	fb93 f3f2 	sdiv	r3, r3, r2
 800ba76:	2100      	movs	r1, #0
 800ba78:	2201      	movs	r2, #1
 800ba7a:	429a      	cmp	r2, r3
 800ba7c:	db20      	blt.n	800bac0 <__s2b+0x5e>
 800ba7e:	4630      	mov	r0, r6
 800ba80:	f7ff ff86 	bl	800b990 <_Balloc>
 800ba84:	9b08      	ldr	r3, [sp, #32]
 800ba86:	6143      	str	r3, [r0, #20]
 800ba88:	2d09      	cmp	r5, #9
 800ba8a:	f04f 0301 	mov.w	r3, #1
 800ba8e:	6103      	str	r3, [r0, #16]
 800ba90:	dd19      	ble.n	800bac6 <__s2b+0x64>
 800ba92:	f104 0809 	add.w	r8, r4, #9
 800ba96:	46c1      	mov	r9, r8
 800ba98:	442c      	add	r4, r5
 800ba9a:	f819 3b01 	ldrb.w	r3, [r9], #1
 800ba9e:	4601      	mov	r1, r0
 800baa0:	3b30      	subs	r3, #48	; 0x30
 800baa2:	220a      	movs	r2, #10
 800baa4:	4630      	mov	r0, r6
 800baa6:	f7ff ffa1 	bl	800b9ec <__multadd>
 800baaa:	45a1      	cmp	r9, r4
 800baac:	d1f5      	bne.n	800ba9a <__s2b+0x38>
 800baae:	eb08 0405 	add.w	r4, r8, r5
 800bab2:	3c08      	subs	r4, #8
 800bab4:	1b2d      	subs	r5, r5, r4
 800bab6:	1963      	adds	r3, r4, r5
 800bab8:	42bb      	cmp	r3, r7
 800baba:	db07      	blt.n	800bacc <__s2b+0x6a>
 800babc:	e8bd 83f8 	ldmia.w	sp!, {r3, r4, r5, r6, r7, r8, r9, pc}
 800bac0:	0052      	lsls	r2, r2, #1
 800bac2:	3101      	adds	r1, #1
 800bac4:	e7d9      	b.n	800ba7a <__s2b+0x18>
 800bac6:	340a      	adds	r4, #10
 800bac8:	2509      	movs	r5, #9
 800baca:	e7f3      	b.n	800bab4 <__s2b+0x52>
 800bacc:	f814 3b01 	ldrb.w	r3, [r4], #1
 800bad0:	4601      	mov	r1, r0
 800bad2:	3b30      	subs	r3, #48	; 0x30
 800bad4:	220a      	movs	r2, #10
 800bad6:	4630      	mov	r0, r6
 800bad8:	f7ff ff88 	bl	800b9ec <__multadd>
 800badc:	e7eb      	b.n	800bab6 <__s2b+0x54>

0800bade <__hi0bits>:
 800bade:	0c02      	lsrs	r2, r0, #16
 800bae0:	0412      	lsls	r2, r2, #16
 800bae2:	4603      	mov	r3, r0
 800bae4:	b9b2      	cbnz	r2, 800bb14 <__hi0bits+0x36>
 800bae6:	0403      	lsls	r3, r0, #16
 800bae8:	2010      	movs	r0, #16
 800baea:	f013 4f7f 	tst.w	r3, #4278190080	; 0xff000000
 800baee:	bf04      	itt	eq
 800baf0:	021b      	lsleq	r3, r3, #8
 800baf2:	3008      	addeq	r0, #8
 800baf4:	f013 4f70 	tst.w	r3, #4026531840	; 0xf0000000
 800baf8:	bf04      	itt	eq
 800bafa:	011b      	lsleq	r3, r3, #4
 800bafc:	3004      	addeq	r0, #4
 800bafe:	f013 4f40 	tst.w	r3, #3221225472	; 0xc0000000
 800bb02:	bf04      	itt	eq
 800bb04:	009b      	lsleq	r3, r3, #2
 800bb06:	3002      	addeq	r0, #2
 800bb08:	2b00      	cmp	r3, #0
 800bb0a:	db06      	blt.n	800bb1a <__hi0bits+0x3c>
 800bb0c:	005b      	lsls	r3, r3, #1
 800bb0e:	d503      	bpl.n	800bb18 <__hi0bits+0x3a>
 800bb10:	3001      	adds	r0, #1
 800bb12:	4770      	bx	lr
 800bb14:	2000      	movs	r0, #0
 800bb16:	e7e8      	b.n	800baea <__hi0bits+0xc>
 800bb18:	2020      	movs	r0, #32
 800bb1a:	4770      	bx	lr

0800bb1c <__lo0bits>:
 800bb1c:	6803      	ldr	r3, [r0, #0]
 800bb1e:	f013 0207 	ands.w	r2, r3, #7
 800bb22:	4601      	mov	r1, r0
 800bb24:	d00b      	beq.n	800bb3e <__lo0bits+0x22>
 800bb26:	07da      	lsls	r2, r3, #31
 800bb28:	d423      	bmi.n	800bb72 <__lo0bits+0x56>
 800bb2a:	0798      	lsls	r0, r3, #30
 800bb2c:	bf49      	itett	mi
 800bb2e:	085b      	lsrmi	r3, r3, #1
 800bb30:	089b      	lsrpl	r3, r3, #2
 800bb32:	2001      	movmi	r0, #1
 800bb34:	600b      	strmi	r3, [r1, #0]
 800bb36:	bf5c      	itt	pl
 800bb38:	600b      	strpl	r3, [r1, #0]
 800bb3a:	2002      	movpl	r0, #2
 800bb3c:	4770      	bx	lr
 800bb3e:	b298      	uxth	r0, r3
 800bb40:	b9a8      	cbnz	r0, 800bb6e <__lo0bits+0x52>
 800bb42:	0c1b      	lsrs	r3, r3, #16
 800bb44:	2010      	movs	r0, #16
 800bb46:	f013 0fff 	tst.w	r3, #255	; 0xff
 800bb4a:	bf04      	itt	eq
 800bb4c:	0a1b      	lsreq	r3, r3, #8
 800bb4e:	3008      	addeq	r0, #8
 800bb50:	071a      	lsls	r2, r3, #28
 800bb52:	bf04      	itt	eq
 800bb54:	091b      	lsreq	r3, r3, #4
 800bb56:	3004      	addeq	r0, #4
 800bb58:	079a      	lsls	r2, r3, #30
 800bb5a:	bf04      	itt	eq
 800bb5c:	089b      	lsreq	r3, r3, #2
 800bb5e:	3002      	addeq	r0, #2
 800bb60:	07da      	lsls	r2, r3, #31
 800bb62:	d402      	bmi.n	800bb6a <__lo0bits+0x4e>
 800bb64:	085b      	lsrs	r3, r3, #1
 800bb66:	d006      	beq.n	800bb76 <__lo0bits+0x5a>
 800bb68:	3001      	adds	r0, #1
 800bb6a:	600b      	str	r3, [r1, #0]
 800bb6c:	4770      	bx	lr
 800bb6e:	4610      	mov	r0, r2
 800bb70:	e7e9      	b.n	800bb46 <__lo0bits+0x2a>
 800bb72:	2000      	movs	r0, #0
 800bb74:	4770      	bx	lr
 800bb76:	2020      	movs	r0, #32
 800bb78:	4770      	bx	lr

0800bb7a <__i2b>:
 800bb7a:	b510      	push	{r4, lr}
 800bb7c:	460c      	mov	r4, r1
 800bb7e:	2101      	movs	r1, #1
 800bb80:	f7ff ff06 	bl	800b990 <_Balloc>
 800bb84:	2201      	movs	r2, #1
 800bb86:	6144      	str	r4, [r0, #20]
 800bb88:	6102      	str	r2, [r0, #16]
 800bb8a:	bd10      	pop	{r4, pc}

0800bb8c <__multiply>:
 800bb8c:	e92d 4ff7 	stmdb	sp!, {r0, r1, r2, r4, r5, r6, r7, r8, r9, sl, fp, lr}
 800bb90:	4614      	mov	r4, r2
 800bb92:	690a      	ldr	r2, [r1, #16]
 800bb94:	6923      	ldr	r3, [r4, #16]
 800bb96:	429a      	cmp	r2, r3
 800bb98:	bfb8      	it	lt
 800bb9a:	460b      	movlt	r3, r1
 800bb9c:	4688      	mov	r8, r1
 800bb9e:	bfbc      	itt	lt
 800bba0:	46a0      	movlt	r8, r4
 800bba2:	461c      	movlt	r4, r3
 800bba4:	f8d8 7010 	ldr.w	r7, [r8, #16]
 800bba8:	f8d4 9010 	ldr.w	r9, [r4, #16]
 800bbac:	f8d8 3008 	ldr.w	r3, [r8, #8]
 800bbb0:	f8d8 1004 	ldr.w	r1, [r8, #4]
 800bbb4:	eb07 0609 	add.w	r6, r7, r9
 800bbb8:	42b3      	cmp	r3, r6
 800bbba:	bfb8      	it	lt
 800bbbc:	3101      	addlt	r1, #1
 800bbbe:	f7ff fee7 	bl	800b990 <_Balloc>
 800bbc2:	f100 0514 	add.w	r5, r0, #20
 800bbc6:	eb05 0e86 	add.w	lr, r5, r6, lsl #2
 800bbca:	462b      	mov	r3, r5
 800bbcc:	2200      	movs	r2, #0
 800bbce:	4573      	cmp	r3, lr
 800bbd0:	d316      	bcc.n	800bc00 <__multiply+0x74>
 800bbd2:	f104 0214 	add.w	r2, r4, #20
 800bbd6:	f108 0114 	add.w	r1, r8, #20
 800bbda:	eb02 0389 	add.w	r3, r2, r9, lsl #2
 800bbde:	eb01 0787 	add.w	r7, r1, r7, lsl #2
 800bbe2:	9300      	str	r3, [sp, #0]
 800bbe4:	9b00      	ldr	r3, [sp, #0]
 800bbe6:	9201      	str	r2, [sp, #4]
 800bbe8:	4293      	cmp	r3, r2
 800bbea:	d80c      	bhi.n	800bc06 <__multiply+0x7a>
 800bbec:	2e00      	cmp	r6, #0
 800bbee:	dd03      	ble.n	800bbf8 <__multiply+0x6c>
 800bbf0:	f85e 3d04 	ldr.w	r3, [lr, #-4]!
 800bbf4:	2b00      	cmp	r3, #0
 800bbf6:	d05d      	beq.n	800bcb4 <__multiply+0x128>
 800bbf8:	6106      	str	r6, [r0, #16]
 800bbfa:	b003      	add	sp, #12
 800bbfc:	e8bd 8ff0 	ldmia.w	sp!, {r4, r5, r6, r7, r8, r9, sl, fp, pc}
 800bc00:	f843 2b04 	str.w	r2, [r3], #4
 800bc04:	e7e3      	b.n	800bbce <__multiply+0x42>
 800bc06:	f8b2 b000 	ldrh.w	fp, [r2]
 800bc0a:	f1bb 0f00 	cmp.w	fp, #0
 800bc0e:	d023      	beq.n	800bc58 <__multiply+0xcc>
 800bc10:	4689      	mov	r9, r1
 800bc12:	46ac      	mov	ip, r5
 800bc14:	f04f 0800 	mov.w	r8, #0
 800bc18:	f859 4b04 	ldr.w	r4, [r9], #4
 800bc1c:	f8dc a000 	ldr.w	sl, [ip]
 800bc20:	b2a3      	uxth	r3, r4
 800bc22:	fa1f fa8a 	uxth.w	sl, sl
 800bc26:	fb0b a303 	mla	r3, fp, r3, sl
 800bc2a:	ea4f 4a14 	mov.w	sl, r4, lsr #16
 800bc2e:	f8dc 4000 	ldr.w	r4, [ip]
 800bc32:	4443      	add	r3, r8
 800bc34:	ea4f 4814 	mov.w	r8, r4, lsr #16
 800bc38:	fb0b 840a 	mla	r4, fp, sl, r8
 800bc3c:	eb04 4413 	add.w	r4, r4, r3, lsr #16
 800bc40:	46e2      	mov	sl, ip
 800bc42:	b29b      	uxth	r3, r3
 800bc44:	ea43 4304 	orr.w	r3, r3, r4, lsl #16
 800bc48:	454f      	cmp	r7, r9
 800bc4a:	ea4f 4814 	mov.w	r8, r4, lsr #16
 800bc4e:	f84a 3b04 	str.w	r3, [sl], #4
 800bc52:	d82b      	bhi.n	800bcac <__multiply+0x120>
 800bc54:	f8cc 8004 	str.w	r8, [ip, #4]
 800bc58:	9b01      	ldr	r3, [sp, #4]
 800bc5a:	f8b3 a002 	ldrh.w	sl, [r3, #2]
 800bc5e:	3204      	adds	r2, #4
 800bc60:	f1ba 0f00 	cmp.w	sl, #0
 800bc64:	d020      	beq.n	800bca8 <__multiply+0x11c>
 800bc66:	682b      	ldr	r3, [r5, #0]
 800bc68:	4689      	mov	r9, r1
 800bc6a:	46a8      	mov	r8, r5
 800bc6c:	f04f 0b00 	mov.w	fp, #0
 800bc70:	f8b9 c000 	ldrh.w	ip, [r9]
 800bc74:	f8b8 4002 	ldrh.w	r4, [r8, #2]
 800bc78:	fb0a 440c 	mla	r4, sl, ip, r4
 800bc7c:	445c      	add	r4, fp
 800bc7e:	46c4      	mov	ip, r8
 800bc80:	b29b      	uxth	r3, r3
 800bc82:	ea43 4304 	orr.w	r3, r3, r4, lsl #16
 800bc86:	f84c 3b04 	str.w	r3, [ip], #4
 800bc8a:	f859 3b04 	ldr.w	r3, [r9], #4
 800bc8e:	f8b8 b004 	ldrh.w	fp, [r8, #4]
 800bc92:	0c1b      	lsrs	r3, r3, #16
 800bc94:	fb0a b303 	mla	r3, sl, r3, fp
 800bc98:	eb03 4314 	add.w	r3, r3, r4, lsr #16
 800bc9c:	454f      	cmp	r7, r9
 800bc9e:	ea4f 4b13 	mov.w	fp, r3, lsr #16
 800bca2:	d805      	bhi.n	800bcb0 <__multiply+0x124>
 800bca4:	f8c8 3004 	str.w	r3, [r8, #4]
 800bca8:	3504      	adds	r5, #4
 800bcaa:	e79b      	b.n	800bbe4 <__multiply+0x58>
 800bcac:	46d4      	mov	ip, sl
 800bcae:	e7b3      	b.n	800bc18 <__multiply+0x8c>
 800bcb0:	46e0      	mov	r8, ip
 800bcb2:	e7dd      	b.n	800bc70 <__multiply+0xe4>
 800bcb4:	3e01      	subs	r6, #1
 800bcb6:	e799      	b.n	800bbec <__multiply+0x60>

0800bcb8 <__pow5mult>:
 800bcb8:	e92d 43f8 	stmdb	sp!, {r3, r4, r5, r6, r7, r8, r9, lr}
 800bcbc:	4615      	mov	r5, r2
 800bcbe:	f012 0203 	ands.w	r2, r2, #3
 800bcc2:	4606      	mov	r6, r0
 800bcc4:	460f      	mov	r7, r1
 800bcc6:	d007      	beq.n	800bcd8 <__pow5mult+0x20>
 800bcc8:	3a01      	subs	r2, #1
 800bcca:	4c1a      	ldr	r4, [pc, #104]	; (800bd34 <__pow5mult+0x7c>)
 800bccc:	2300      	movs	r3, #0
 800bcce:	f854 2022 	ldr.w	r2, [r4, r2, lsl #2]
 800bcd2:	f7ff fe8b 	bl	800b9ec <__multadd>
 800bcd6:	4607      	mov	r7, r0
 800bcd8:	10ad      	asrs	r5, r5, #2
 800bcda:	d027      	beq.n	800bd2c <__pow5mult+0x74>
 800bcdc:	6cb4      	ldr	r4, [r6, #72]	; 0x48
 800bcde:	b944      	cbnz	r4, 800bcf2 <__pow5mult+0x3a>
 800bce0:	f240 2171 	movw	r1, #625	; 0x271
 800bce4:	4630      	mov	r0, r6
 800bce6:	f7ff ff48 	bl	800bb7a <__i2b>
 800bcea:	2300      	movs	r3, #0
 800bcec:	64b0      	str	r0, [r6, #72]	; 0x48
 800bcee:	4604      	mov	r4, r0
 800bcf0:	6003      	str	r3, [r0, #0]
 800bcf2:	f04f 0800 	mov.w	r8, #0
 800bcf6:	07eb      	lsls	r3, r5, #31
 800bcf8:	d50a      	bpl.n	800bd10 <__pow5mult+0x58>
 800bcfa:	4639      	mov	r1, r7
 800bcfc:	4622      	mov	r2, r4
 800bcfe:	4630      	mov	r0, r6
 800bd00:	f7ff ff44 	bl	800bb8c <__multiply>
 800bd04:	4639      	mov	r1, r7
 800bd06:	4681      	mov	r9, r0
 800bd08:	4630      	mov	r0, r6
 800bd0a:	f7ff fe66 	bl	800b9da <_Bfree>
 800bd0e:	464f      	mov	r7, r9
 800bd10:	106d      	asrs	r5, r5, #1
 800bd12:	d00b      	beq.n	800bd2c <__pow5mult+0x74>
 800bd14:	6820      	ldr	r0, [r4, #0]
 800bd16:	b938      	cbnz	r0, 800bd28 <__pow5mult+0x70>
 800bd18:	4622      	mov	r2, r4
 800bd1a:	4621      	mov	r1, r4
 800bd1c:	4630      	mov	r0, r6
 800bd1e:	f7ff ff35 	bl	800bb8c <__multiply>
 800bd22:	6020      	str	r0, [r4, #0]
 800bd24:	f8c0 8000 	str.w	r8, [r0]
 800bd28:	4604      	mov	r4, r0
 800bd2a:	e7e4      	b.n	800bcf6 <__pow5mult+0x3e>
 800bd2c:	4638      	mov	r0, r7
 800bd2e:	e8bd 83f8 	ldmia.w	sp!, {r3, r4, r5, r6, r7, r8, r9, pc}
 800bd32:	bf00      	nop
 800bd34:	0800d6b8 	.word	0x0800d6b8

0800bd38 <__lshift>:
 800bd38:	e92d 47f0 	stmdb	sp!, {r4, r5, r6, r7, r8, r9, sl, lr}
 800bd3c:	460c      	mov	r4, r1
 800bd3e:	ea4f 1a62 	mov.w	sl, r2, asr #5
 800bd42:	6923      	ldr	r3, [r4, #16]
 800bd44:	6849      	ldr	r1, [r1, #4]
 800bd46:	eb0a 0903 	add.w	r9, sl, r3
 800bd4a:	68a3      	ldr	r3, [r4, #8]
 800bd4c:	4607      	mov	r7, r0
 800bd4e:	4616      	mov	r6, r2
 800bd50:	f109 0501 	add.w	r5, r9, #1
 800bd54:	42ab      	cmp	r3, r5
 800bd56:	db32      	blt.n	800bdbe <__lshift+0x86>
 800bd58:	4638      	mov	r0, r7
 800bd5a:	f7ff fe19 	bl	800b990 <_Balloc>
 800bd5e:	2300      	movs	r3, #0
 800bd60:	4680      	mov	r8, r0
 800bd62:	f100 0114 	add.w	r1, r0, #20
 800bd66:	461a      	mov	r2, r3
 800bd68:	4553      	cmp	r3, sl
 800bd6a:	db2b      	blt.n	800bdc4 <__lshift+0x8c>
 800bd6c:	6920      	ldr	r0, [r4, #16]
 800bd6e:	ea2a 7aea 	bic.w	sl, sl, sl, asr #31
 800bd72:	f104 0314 	add.w	r3, r4, #20
 800bd76:	f016 021f 	ands.w	r2, r6, #31
 800bd7a:	eb01 018a 	add.w	r1, r1, sl, lsl #2
 800bd7e:	eb03 0c80 	add.w	ip, r3, r0, lsl #2
 800bd82:	d025      	beq.n	800bdd0 <__lshift+0x98>
 800bd84:	f1c2 0e20 	rsb	lr, r2, #32
 800bd88:	2000      	movs	r0, #0
 800bd8a:	681e      	ldr	r6, [r3, #0]
 800bd8c:	468a      	mov	sl, r1
 800bd8e:	4096      	lsls	r6, r2
 800bd90:	4330      	orrs	r0, r6
 800bd92:	f84a 0b04 	str.w	r0, [sl], #4
 800bd96:	f853 0b04 	ldr.w	r0, [r3], #4
 800bd9a:	459c      	cmp	ip, r3
 800bd9c:	fa20 f00e 	lsr.w	r0, r0, lr
 800bda0:	d814      	bhi.n	800bdcc <__lshift+0x94>
 800bda2:	6048      	str	r0, [r1, #4]
 800bda4:	b108      	cbz	r0, 800bdaa <__lshift+0x72>
 800bda6:	f109 0502 	add.w	r5, r9, #2
 800bdaa:	3d01      	subs	r5, #1
 800bdac:	4638      	mov	r0, r7
 800bdae:	f8c8 5010 	str.w	r5, [r8, #16]
 800bdb2:	4621      	mov	r1, r4
 800bdb4:	f7ff fe11 	bl	800b9da <_Bfree>
 800bdb8:	4640      	mov	r0, r8
 800bdba:	e8bd 87f0 	ldmia.w	sp!, {r4, r5, r6, r7, r8, r9, sl, pc}
 800bdbe:	3101      	adds	r1, #1
 800bdc0:	005b      	lsls	r3, r3, #1
 800bdc2:	e7c7      	b.n	800bd54 <__lshift+0x1c>
 800bdc4:	f841 2023 	str.w	r2, [r1, r3, lsl #2]
 800bdc8:	3301      	adds	r3, #1
 800bdca:	e7cd      	b.n	800bd68 <__lshift+0x30>
 800bdcc:	4651      	mov	r1, sl
 800bdce:	e7dc      	b.n	800bd8a <__lshift+0x52>
 800bdd0:	3904      	subs	r1, #4
 800bdd2:	f853 2b04 	ldr.w	r2, [r3], #4
 800bdd6:	f841 2f04 	str.w	r2, [r1, #4]!
 800bdda:	459c      	cmp	ip, r3
 800bddc:	d8f9      	bhi.n	800bdd2 <__lshift+0x9a>
 800bdde:	e7e4      	b.n	800bdaa <__lshift+0x72>

0800bde0 <__mcmp>:
 800bde0:	6903      	ldr	r3, [r0, #16]
 800bde2:	690a      	ldr	r2, [r1, #16]
 800bde4:	1a9b      	subs	r3, r3, r2
 800bde6:	b530      	push	{r4, r5, lr}
 800bde8:	d10c      	bne.n	800be04 <__mcmp+0x24>
 800bdea:	0092      	lsls	r2, r2, #2
 800bdec:	3014      	adds	r0, #20
 800bdee:	3114      	adds	r1, #20
 800bdf0:	1884      	adds	r4, r0, r2
 800bdf2:	4411      	add	r1, r2
 800bdf4:	f854 5d04 	ldr.w	r5, [r4, #-4]!
 800bdf8:	f851 2d04 	ldr.w	r2, [r1, #-4]!
 800bdfc:	4295      	cmp	r5, r2
 800bdfe:	d003      	beq.n	800be08 <__mcmp+0x28>
 800be00:	d305      	bcc.n	800be0e <__mcmp+0x2e>
 800be02:	2301      	movs	r3, #1
 800be04:	4618      	mov	r0, r3
 800be06:	bd30      	pop	{r4, r5, pc}
 800be08:	42a0      	cmp	r0, r4
 800be0a:	d3f3      	bcc.n	800bdf4 <__mcmp+0x14>
 800be0c:	e7fa      	b.n	800be04 <__mcmp+0x24>
 800be0e:	f04f 33ff 	mov.w	r3, #4294967295
 800be12:	e7f7      	b.n	800be04 <__mcmp+0x24>

0800be14 <__mdiff>:
 800be14:	e92d 47f0 	stmdb	sp!, {r4, r5, r6, r7, r8, r9, sl, lr}
 800be18:	460d      	mov	r5, r1
 800be1a:	4607      	mov	r7, r0
 800be1c:	4611      	mov	r1, r2
 800be1e:	4628      	mov	r0, r5
 800be20:	4614      	mov	r4, r2
 800be22:	f7ff ffdd 	bl	800bde0 <__mcmp>
 800be26:	1e06      	subs	r6, r0, #0
 800be28:	d108      	bne.n	800be3c <__mdiff+0x28>
 800be2a:	4631      	mov	r1, r6
 800be2c:	4638      	mov	r0, r7
 800be2e:	f7ff fdaf 	bl	800b990 <_Balloc>
 800be32:	2301      	movs	r3, #1
 800be34:	e9c0 3604 	strd	r3, r6, [r0, #16]
 800be38:	e8bd 87f0 	ldmia.w	sp!, {r4, r5, r6, r7, r8, r9, sl, pc}
 800be3c:	bfa4      	itt	ge
 800be3e:	4623      	movge	r3, r4
 800be40:	462c      	movge	r4, r5
 800be42:	4638      	mov	r0, r7
 800be44:	6861      	ldr	r1, [r4, #4]
 800be46:	bfa6      	itte	ge
 800be48:	461d      	movge	r5, r3
 800be4a:	2600      	movge	r6, #0
 800be4c:	2601      	movlt	r6, #1
 800be4e:	f7ff fd9f 	bl	800b990 <_Balloc>
 800be52:	692b      	ldr	r3, [r5, #16]
 800be54:	60c6      	str	r6, [r0, #12]
 800be56:	6926      	ldr	r6, [r4, #16]
 800be58:	f105 0914 	add.w	r9, r5, #20
 800be5c:	f104 0214 	add.w	r2, r4, #20
 800be60:	eb02 0786 	add.w	r7, r2, r6, lsl #2
 800be64:	eb09 0883 	add.w	r8, r9, r3, lsl #2
 800be68:	f100 0514 	add.w	r5, r0, #20
 800be6c:	f04f 0e00 	mov.w	lr, #0
 800be70:	f852 ab04 	ldr.w	sl, [r2], #4
 800be74:	f859 4b04 	ldr.w	r4, [r9], #4
 800be78:	fa1e f18a 	uxtah	r1, lr, sl
 800be7c:	b2a3      	uxth	r3, r4
 800be7e:	1ac9      	subs	r1, r1, r3
 800be80:	0c23      	lsrs	r3, r4, #16
 800be82:	ebc3 431a 	rsb	r3, r3, sl, lsr #16
 800be86:	eb03 4321 	add.w	r3, r3, r1, asr #16
 800be8a:	b289      	uxth	r1, r1
 800be8c:	ea4f 4e23 	mov.w	lr, r3, asr #16
 800be90:	45c8      	cmp	r8, r9
 800be92:	ea41 4303 	orr.w	r3, r1, r3, lsl #16
 800be96:	4694      	mov	ip, r2
 800be98:	f845 3b04 	str.w	r3, [r5], #4
 800be9c:	d8e8      	bhi.n	800be70 <__mdiff+0x5c>
 800be9e:	45bc      	cmp	ip, r7
 800bea0:	d304      	bcc.n	800beac <__mdiff+0x98>
 800bea2:	f855 3d04 	ldr.w	r3, [r5, #-4]!
 800bea6:	b183      	cbz	r3, 800beca <__mdiff+0xb6>
 800bea8:	6106      	str	r6, [r0, #16]
 800beaa:	e7c5      	b.n	800be38 <__mdiff+0x24>
 800beac:	f85c 1b04 	ldr.w	r1, [ip], #4
 800beb0:	fa1e f381 	uxtah	r3, lr, r1
 800beb4:	141a      	asrs	r2, r3, #16
 800beb6:	eb02 4211 	add.w	r2, r2, r1, lsr #16
 800beba:	b29b      	uxth	r3, r3
 800bebc:	ea43 4302 	orr.w	r3, r3, r2, lsl #16
 800bec0:	ea4f 4e22 	mov.w	lr, r2, asr #16
 800bec4:	f845 3b04 	str.w	r3, [r5], #4
 800bec8:	e7e9      	b.n	800be9e <__mdiff+0x8a>
 800beca:	3e01      	subs	r6, #1
 800becc:	e7e9      	b.n	800bea2 <__mdiff+0x8e>
	...

0800bed0 <__ulp>:
 800bed0:	4b12      	ldr	r3, [pc, #72]	; (800bf1c <__ulp+0x4c>)
 800bed2:	ee10 2a90 	vmov	r2, s1
 800bed6:	401a      	ands	r2, r3
 800bed8:	f1a2 7350 	sub.w	r3, r2, #54525952	; 0x3400000
 800bedc:	2b00      	cmp	r3, #0
 800bede:	dd04      	ble.n	800beea <__ulp+0x1a>
 800bee0:	2000      	movs	r0, #0
 800bee2:	4619      	mov	r1, r3
 800bee4:	ec41 0b10 	vmov	d0, r0, r1
 800bee8:	4770      	bx	lr
 800beea:	425b      	negs	r3, r3
 800beec:	151b      	asrs	r3, r3, #20
 800beee:	2b13      	cmp	r3, #19
 800bef0:	f04f 0000 	mov.w	r0, #0
 800bef4:	f04f 0100 	mov.w	r1, #0
 800bef8:	dc04      	bgt.n	800bf04 <__ulp+0x34>
 800befa:	f44f 2200 	mov.w	r2, #524288	; 0x80000
 800befe:	fa42 f103 	asr.w	r1, r2, r3
 800bf02:	e7ef      	b.n	800bee4 <__ulp+0x14>
 800bf04:	3b14      	subs	r3, #20
 800bf06:	2b1e      	cmp	r3, #30
 800bf08:	f04f 0201 	mov.w	r2, #1
 800bf0c:	bfda      	itte	le
 800bf0e:	f1c3 031f 	rsble	r3, r3, #31
 800bf12:	fa02 f303 	lslle.w	r3, r2, r3
 800bf16:	4613      	movgt	r3, r2
 800bf18:	4618      	mov	r0, r3
 800bf1a:	e7e3      	b.n	800bee4 <__ulp+0x14>
 800bf1c:	7ff00000 	.word	0x7ff00000

0800bf20 <__b2d>:
 800bf20:	b5f8      	push	{r3, r4, r5, r6, r7, lr}
 800bf22:	6905      	ldr	r5, [r0, #16]
 800bf24:	f100 0714 	add.w	r7, r0, #20
 800bf28:	eb07 0585 	add.w	r5, r7, r5, lsl #2
 800bf2c:	1f2e      	subs	r6, r5, #4
 800bf2e:	f855 4c04 	ldr.w	r4, [r5, #-4]
 800bf32:	4620      	mov	r0, r4
 800bf34:	f7ff fdd3 	bl	800bade <__hi0bits>
 800bf38:	f1c0 0320 	rsb	r3, r0, #32
 800bf3c:	280a      	cmp	r0, #10
 800bf3e:	600b      	str	r3, [r1, #0]
 800bf40:	f8df c074 	ldr.w	ip, [pc, #116]	; 800bfb8 <__b2d+0x98>
 800bf44:	dc14      	bgt.n	800bf70 <__b2d+0x50>
 800bf46:	f1c0 0e0b 	rsb	lr, r0, #11
 800bf4a:	fa24 f10e 	lsr.w	r1, r4, lr
 800bf4e:	42b7      	cmp	r7, r6
 800bf50:	ea41 030c 	orr.w	r3, r1, ip
 800bf54:	bf34      	ite	cc
 800bf56:	f855 1c08 	ldrcc.w	r1, [r5, #-8]
 800bf5a:	2100      	movcs	r1, #0
 800bf5c:	3015      	adds	r0, #21
 800bf5e:	fa04 f000 	lsl.w	r0, r4, r0
 800bf62:	fa21 f10e 	lsr.w	r1, r1, lr
 800bf66:	ea40 0201 	orr.w	r2, r0, r1
 800bf6a:	ec43 2b10 	vmov	d0, r2, r3
 800bf6e:	bdf8      	pop	{r3, r4, r5, r6, r7, pc}
 800bf70:	42b7      	cmp	r7, r6
 800bf72:	bf3a      	itte	cc
 800bf74:	f1a5 0608 	subcc.w	r6, r5, #8
 800bf78:	f855 1c08 	ldrcc.w	r1, [r5, #-8]
 800bf7c:	2100      	movcs	r1, #0
 800bf7e:	380b      	subs	r0, #11
 800bf80:	d015      	beq.n	800bfae <__b2d+0x8e>
 800bf82:	4084      	lsls	r4, r0
 800bf84:	f1c0 0520 	rsb	r5, r0, #32
 800bf88:	f044 547f 	orr.w	r4, r4, #1069547520	; 0x3fc00000
 800bf8c:	f444 1440 	orr.w	r4, r4, #3145728	; 0x300000
 800bf90:	42be      	cmp	r6, r7
 800bf92:	fa21 fc05 	lsr.w	ip, r1, r5
 800bf96:	ea44 030c 	orr.w	r3, r4, ip
 800bf9a:	bf8c      	ite	hi
 800bf9c:	f856 4c04 	ldrhi.w	r4, [r6, #-4]
 800bfa0:	2400      	movls	r4, #0
 800bfa2:	fa01 f000 	lsl.w	r0, r1, r0
 800bfa6:	40ec      	lsrs	r4, r5
 800bfa8:	ea40 0204 	orr.w	r2, r0, r4
 800bfac:	e7dd      	b.n	800bf6a <__b2d+0x4a>
 800bfae:	ea44 030c 	orr.w	r3, r4, ip
 800bfb2:	460a      	mov	r2, r1
 800bfb4:	e7d9      	b.n	800bf6a <__b2d+0x4a>
 800bfb6:	bf00      	nop
 800bfb8:	3ff00000 	.word	0x3ff00000

0800bfbc <__d2b>:
 800bfbc:	e92d 43f7 	stmdb	sp!, {r0, r1, r2, r4, r5, r6, r7, r8, r9, lr}
 800bfc0:	460e      	mov	r6, r1
 800bfc2:	2101      	movs	r1, #1
 800bfc4:	ec59 8b10 	vmov	r8, r9, d0
 800bfc8:	4615      	mov	r5, r2
 800bfca:	f7ff fce1 	bl	800b990 <_Balloc>
 800bfce:	f3c9 540a 	ubfx	r4, r9, #20, #11
 800bfd2:	4607      	mov	r7, r0
 800bfd4:	f3c9 0313 	ubfx	r3, r9, #0, #20
 800bfd8:	bb34      	cbnz	r4, 800c028 <__d2b+0x6c>
 800bfda:	9301      	str	r3, [sp, #4]
 800bfdc:	f1b8 0300 	subs.w	r3, r8, #0
 800bfe0:	d027      	beq.n	800c032 <__d2b+0x76>
 800bfe2:	a802      	add	r0, sp, #8
 800bfe4:	f840 3d08 	str.w	r3, [r0, #-8]!
 800bfe8:	f7ff fd98 	bl	800bb1c <__lo0bits>
 800bfec:	9900      	ldr	r1, [sp, #0]
 800bfee:	b1f0      	cbz	r0, 800c02e <__d2b+0x72>
 800bff0:	9a01      	ldr	r2, [sp, #4]
 800bff2:	f1c0 0320 	rsb	r3, r0, #32
 800bff6:	fa02 f303 	lsl.w	r3, r2, r3
 800bffa:	430b      	orrs	r3, r1
 800bffc:	40c2      	lsrs	r2, r0
 800bffe:	617b      	str	r3, [r7, #20]
 800c000:	9201      	str	r2, [sp, #4]
 800c002:	9b01      	ldr	r3, [sp, #4]
 800c004:	61bb      	str	r3, [r7, #24]
 800c006:	2b00      	cmp	r3, #0
 800c008:	bf14      	ite	ne
 800c00a:	2102      	movne	r1, #2
 800c00c:	2101      	moveq	r1, #1
 800c00e:	6139      	str	r1, [r7, #16]
 800c010:	b1c4      	cbz	r4, 800c044 <__d2b+0x88>
 800c012:	f2a4 4433 	subw	r4, r4, #1075	; 0x433
 800c016:	4404      	add	r4, r0
 800c018:	6034      	str	r4, [r6, #0]
 800c01a:	f1c0 0035 	rsb	r0, r0, #53	; 0x35
 800c01e:	6028      	str	r0, [r5, #0]
 800c020:	4638      	mov	r0, r7
 800c022:	b003      	add	sp, #12
 800c024:	e8bd 83f0 	ldmia.w	sp!, {r4, r5, r6, r7, r8, r9, pc}
 800c028:	f443 1380 	orr.w	r3, r3, #1048576	; 0x100000
 800c02c:	e7d5      	b.n	800bfda <__d2b+0x1e>
 800c02e:	6179      	str	r1, [r7, #20]
 800c030:	e7e7      	b.n	800c002 <__d2b+0x46>
 800c032:	a801      	add	r0, sp, #4
 800c034:	f7ff fd72 	bl	800bb1c <__lo0bits>
 800c038:	9b01      	ldr	r3, [sp, #4]
 800c03a:	617b      	str	r3, [r7, #20]
 800c03c:	2101      	movs	r1, #1
 800c03e:	6139      	str	r1, [r7, #16]
 800c040:	3020      	adds	r0, #32
 800c042:	e7e5      	b.n	800c010 <__d2b+0x54>
 800c044:	eb07 0381 	add.w	r3, r7, r1, lsl #2
 800c048:	f2a0 4032 	subw	r0, r0, #1074	; 0x432
 800c04c:	6030      	str	r0, [r6, #0]
 800c04e:	6918      	ldr	r0, [r3, #16]
 800c050:	f7ff fd45 	bl	800bade <__hi0bits>
 800c054:	ebc0 1041 	rsb	r0, r0, r1, lsl #5
 800c058:	e7e1      	b.n	800c01e <__d2b+0x62>

0800c05a <__ratio>:
 800c05a:	e92d 4ff7 	stmdb	sp!, {r0, r1, r2, r4, r5, r6, r7, r8, r9, sl, fp, lr}
 800c05e:	4688      	mov	r8, r1
 800c060:	4669      	mov	r1, sp
 800c062:	4681      	mov	r9, r0
 800c064:	f7ff ff5c 	bl	800bf20 <__b2d>
 800c068:	a901      	add	r1, sp, #4
 800c06a:	4640      	mov	r0, r8
 800c06c:	ec57 6b10 	vmov	r6, r7, d0
 800c070:	f7ff ff56 	bl	800bf20 <__b2d>
 800c074:	f8d9 3010 	ldr.w	r3, [r9, #16]
 800c078:	f8d8 2010 	ldr.w	r2, [r8, #16]
 800c07c:	eba3 0c02 	sub.w	ip, r3, r2
 800c080:	e9dd 3200 	ldrd	r3, r2, [sp]
 800c084:	1a9b      	subs	r3, r3, r2
 800c086:	eb03 134c 	add.w	r3, r3, ip, lsl #5
 800c08a:	ec5b ab10 	vmov	sl, fp, d0
 800c08e:	2b00      	cmp	r3, #0
 800c090:	bfce      	itee	gt
 800c092:	463a      	movgt	r2, r7
 800c094:	ebc3 3303 	rsble	r3, r3, r3, lsl #12
 800c098:	465a      	movle	r2, fp
 800c09a:	4659      	mov	r1, fp
 800c09c:	463d      	mov	r5, r7
 800c09e:	bfd4      	ite	le
 800c0a0:	eb02 5103 	addle.w	r1, r2, r3, lsl #20
 800c0a4:	eb02 5503 	addgt.w	r5, r2, r3, lsl #20
 800c0a8:	4630      	mov	r0, r6
 800c0aa:	ee10 2a10 	vmov	r2, s0
 800c0ae:	460b      	mov	r3, r1
 800c0b0:	4629      	mov	r1, r5
 800c0b2:	f7f4 fbeb 	bl	800088c <__aeabi_ddiv>
 800c0b6:	ec41 0b10 	vmov	d0, r0, r1
 800c0ba:	b003      	add	sp, #12
 800c0bc:	e8bd 8ff0 	ldmia.w	sp!, {r4, r5, r6, r7, r8, r9, sl, fp, pc}

0800c0c0 <__copybits>:
 800c0c0:	3901      	subs	r1, #1
 800c0c2:	b510      	push	{r4, lr}
 800c0c4:	1149      	asrs	r1, r1, #5
 800c0c6:	6914      	ldr	r4, [r2, #16]
 800c0c8:	3101      	adds	r1, #1
 800c0ca:	f102 0314 	add.w	r3, r2, #20
 800c0ce:	eb00 0181 	add.w	r1, r0, r1, lsl #2
 800c0d2:	eb03 0484 	add.w	r4, r3, r4, lsl #2
 800c0d6:	42a3      	cmp	r3, r4
 800c0d8:	4602      	mov	r2, r0
 800c0da:	d303      	bcc.n	800c0e4 <__copybits+0x24>
 800c0dc:	2300      	movs	r3, #0
 800c0de:	428a      	cmp	r2, r1
 800c0e0:	d305      	bcc.n	800c0ee <__copybits+0x2e>
 800c0e2:	bd10      	pop	{r4, pc}
 800c0e4:	f853 2b04 	ldr.w	r2, [r3], #4
 800c0e8:	f840 2b04 	str.w	r2, [r0], #4
 800c0ec:	e7f3      	b.n	800c0d6 <__copybits+0x16>
 800c0ee:	f842 3b04 	str.w	r3, [r2], #4
 800c0f2:	e7f4      	b.n	800c0de <__copybits+0x1e>

0800c0f4 <__any_on>:
 800c0f4:	f100 0214 	add.w	r2, r0, #20
 800c0f8:	6900      	ldr	r0, [r0, #16]
 800c0fa:	114b      	asrs	r3, r1, #5
 800c0fc:	4298      	cmp	r0, r3
 800c0fe:	b510      	push	{r4, lr}
 800c100:	db11      	blt.n	800c126 <__any_on+0x32>
 800c102:	dd0a      	ble.n	800c11a <__any_on+0x26>
 800c104:	f011 011f 	ands.w	r1, r1, #31
 800c108:	d007      	beq.n	800c11a <__any_on+0x26>
 800c10a:	f852 4023 	ldr.w	r4, [r2, r3, lsl #2]
 800c10e:	fa24 f001 	lsr.w	r0, r4, r1
 800c112:	fa00 f101 	lsl.w	r1, r0, r1
 800c116:	428c      	cmp	r4, r1
 800c118:	d10b      	bne.n	800c132 <__any_on+0x3e>
 800c11a:	eb02 0383 	add.w	r3, r2, r3, lsl #2
 800c11e:	4293      	cmp	r3, r2
 800c120:	d803      	bhi.n	800c12a <__any_on+0x36>
 800c122:	2000      	movs	r0, #0
 800c124:	bd10      	pop	{r4, pc}
 800c126:	4603      	mov	r3, r0
 800c128:	e7f7      	b.n	800c11a <__any_on+0x26>
 800c12a:	f853 1d04 	ldr.w	r1, [r3, #-4]!
 800c12e:	2900      	cmp	r1, #0
 800c130:	d0f5      	beq.n	800c11e <__any_on+0x2a>
 800c132:	2001      	movs	r0, #1
 800c134:	e7f6      	b.n	800c124 <__any_on+0x30>
	...

0800c138 <_realloc_r>:
 800c138:	e92d 4ff7 	stmdb	sp!, {r0, r1, r2, r4, r5, r6, r7, r8, r9, sl, fp, lr}
 800c13c:	4682      	mov	sl, r0
 800c13e:	460c      	mov	r4, r1
 800c140:	b929      	cbnz	r1, 800c14e <_realloc_r+0x16>
 800c142:	4611      	mov	r1, r2
 800c144:	b003      	add	sp, #12
 800c146:	e8bd 4ff0 	ldmia.w	sp!, {r4, r5, r6, r7, r8, r9, sl, fp, lr}
 800c14a:	f7ff b9b3 	b.w	800b4b4 <_malloc_r>
 800c14e:	9201      	str	r2, [sp, #4]
 800c150:	f7ff fc12 	bl	800b978 <__malloc_lock>
 800c154:	9a01      	ldr	r2, [sp, #4]
 800c156:	f854 5c04 	ldr.w	r5, [r4, #-4]
 800c15a:	f102 080b 	add.w	r8, r2, #11
 800c15e:	f1b8 0f16 	cmp.w	r8, #22
 800c162:	f1a4 0908 	sub.w	r9, r4, #8
 800c166:	f025 0603 	bic.w	r6, r5, #3
 800c16a:	d90b      	bls.n	800c184 <_realloc_r+0x4c>
 800c16c:	f038 0807 	bics.w	r8, r8, #7
 800c170:	d50a      	bpl.n	800c188 <_realloc_r+0x50>
 800c172:	230c      	movs	r3, #12
 800c174:	f8ca 3000 	str.w	r3, [sl]
 800c178:	f04f 0b00 	mov.w	fp, #0
 800c17c:	4658      	mov	r0, fp
 800c17e:	b003      	add	sp, #12
 800c180:	e8bd 8ff0 	ldmia.w	sp!, {r4, r5, r6, r7, r8, r9, sl, fp, pc}
 800c184:	f04f 0810 	mov.w	r8, #16
 800c188:	4590      	cmp	r8, r2
 800c18a:	d3f2      	bcc.n	800c172 <_realloc_r+0x3a>
 800c18c:	45b0      	cmp	r8, r6
 800c18e:	f340 8170 	ble.w	800c472 <_realloc_r+0x33a>
 800c192:	49a9      	ldr	r1, [pc, #676]	; (800c438 <_realloc_r+0x300>)
 800c194:	9101      	str	r1, [sp, #4]
 800c196:	f8d1 c008 	ldr.w	ip, [r1, #8]
 800c19a:	eb09 0306 	add.w	r3, r9, r6
 800c19e:	459c      	cmp	ip, r3
 800c1a0:	6858      	ldr	r0, [r3, #4]
 800c1a2:	d005      	beq.n	800c1b0 <_realloc_r+0x78>
 800c1a4:	f020 0101 	bic.w	r1, r0, #1
 800c1a8:	4419      	add	r1, r3
 800c1aa:	6849      	ldr	r1, [r1, #4]
 800c1ac:	07cf      	lsls	r7, r1, #31
 800c1ae:	d447      	bmi.n	800c240 <_realloc_r+0x108>
 800c1b0:	f020 0003 	bic.w	r0, r0, #3
 800c1b4:	459c      	cmp	ip, r3
 800c1b6:	eb06 0700 	add.w	r7, r6, r0
 800c1ba:	d119      	bne.n	800c1f0 <_realloc_r+0xb8>
 800c1bc:	f108 0110 	add.w	r1, r8, #16
 800c1c0:	42b9      	cmp	r1, r7
 800c1c2:	dc3f      	bgt.n	800c244 <_realloc_r+0x10c>
 800c1c4:	eb09 0308 	add.w	r3, r9, r8
 800c1c8:	9a01      	ldr	r2, [sp, #4]
 800c1ca:	eba7 0708 	sub.w	r7, r7, r8
 800c1ce:	f047 0701 	orr.w	r7, r7, #1
 800c1d2:	6093      	str	r3, [r2, #8]
 800c1d4:	605f      	str	r7, [r3, #4]
 800c1d6:	f854 3c04 	ldr.w	r3, [r4, #-4]
 800c1da:	f003 0301 	and.w	r3, r3, #1
 800c1de:	ea43 0308 	orr.w	r3, r3, r8
 800c1e2:	f844 3c04 	str.w	r3, [r4, #-4]
 800c1e6:	4650      	mov	r0, sl
 800c1e8:	f7ff fbcc 	bl	800b984 <__malloc_unlock>
 800c1ec:	46a3      	mov	fp, r4
 800c1ee:	e7c5      	b.n	800c17c <_realloc_r+0x44>
 800c1f0:	45b8      	cmp	r8, r7
 800c1f2:	dc27      	bgt.n	800c244 <_realloc_r+0x10c>
 800c1f4:	e9d3 3202 	ldrd	r3, r2, [r3, #8]
 800c1f8:	60da      	str	r2, [r3, #12]
 800c1fa:	6093      	str	r3, [r2, #8]
 800c1fc:	eba7 0008 	sub.w	r0, r7, r8
 800c200:	f8d9 2004 	ldr.w	r2, [r9, #4]
 800c204:	280f      	cmp	r0, #15
 800c206:	f002 0201 	and.w	r2, r2, #1
 800c20a:	eb09 0307 	add.w	r3, r9, r7
 800c20e:	f240 8132 	bls.w	800c476 <_realloc_r+0x33e>
 800c212:	eb09 0108 	add.w	r1, r9, r8
 800c216:	ea48 0202 	orr.w	r2, r8, r2
 800c21a:	f040 0001 	orr.w	r0, r0, #1
 800c21e:	f8c9 2004 	str.w	r2, [r9, #4]
 800c222:	6048      	str	r0, [r1, #4]
 800c224:	685a      	ldr	r2, [r3, #4]
 800c226:	f042 0201 	orr.w	r2, r2, #1
 800c22a:	605a      	str	r2, [r3, #4]
 800c22c:	3108      	adds	r1, #8
 800c22e:	4650      	mov	r0, sl
 800c230:	f7fe fb60 	bl	800a8f4 <_free_r>
 800c234:	4650      	mov	r0, sl
 800c236:	f7ff fba5 	bl	800b984 <__malloc_unlock>
 800c23a:	f109 0b08 	add.w	fp, r9, #8
 800c23e:	e79d      	b.n	800c17c <_realloc_r+0x44>
 800c240:	2000      	movs	r0, #0
 800c242:	4603      	mov	r3, r0
 800c244:	07e9      	lsls	r1, r5, #31
 800c246:	f100 80c6 	bmi.w	800c3d6 <_realloc_r+0x29e>
 800c24a:	f854 5c08 	ldr.w	r5, [r4, #-8]
 800c24e:	eba9 0505 	sub.w	r5, r9, r5
 800c252:	6869      	ldr	r1, [r5, #4]
 800c254:	f021 0103 	bic.w	r1, r1, #3
 800c258:	eb01 0b06 	add.w	fp, r1, r6
 800c25c:	2b00      	cmp	r3, #0
 800c25e:	f000 8086 	beq.w	800c36e <_realloc_r+0x236>
 800c262:	459c      	cmp	ip, r3
 800c264:	eb00 070b 	add.w	r7, r0, fp
 800c268:	d149      	bne.n	800c2fe <_realloc_r+0x1c6>
 800c26a:	f108 0310 	add.w	r3, r8, #16
 800c26e:	42bb      	cmp	r3, r7
 800c270:	dc7d      	bgt.n	800c36e <_realloc_r+0x236>
 800c272:	46ab      	mov	fp, r5
 800c274:	68eb      	ldr	r3, [r5, #12]
 800c276:	f85b 2f08 	ldr.w	r2, [fp, #8]!
 800c27a:	60d3      	str	r3, [r2, #12]
 800c27c:	609a      	str	r2, [r3, #8]
 800c27e:	1f32      	subs	r2, r6, #4
 800c280:	2a24      	cmp	r2, #36	; 0x24
 800c282:	d837      	bhi.n	800c2f4 <_realloc_r+0x1bc>
 800c284:	2a13      	cmp	r2, #19
 800c286:	d933      	bls.n	800c2f0 <_realloc_r+0x1b8>
 800c288:	6823      	ldr	r3, [r4, #0]
 800c28a:	60ab      	str	r3, [r5, #8]
 800c28c:	6863      	ldr	r3, [r4, #4]
 800c28e:	60eb      	str	r3, [r5, #12]
 800c290:	2a1b      	cmp	r2, #27
 800c292:	d81b      	bhi.n	800c2cc <_realloc_r+0x194>
 800c294:	3408      	adds	r4, #8
 800c296:	f105 0310 	add.w	r3, r5, #16
 800c29a:	6822      	ldr	r2, [r4, #0]
 800c29c:	601a      	str	r2, [r3, #0]
 800c29e:	6862      	ldr	r2, [r4, #4]
 800c2a0:	605a      	str	r2, [r3, #4]
 800c2a2:	68a2      	ldr	r2, [r4, #8]
 800c2a4:	609a      	str	r2, [r3, #8]
 800c2a6:	eb05 0308 	add.w	r3, r5, r8
 800c2aa:	9a01      	ldr	r2, [sp, #4]
 800c2ac:	eba7 0708 	sub.w	r7, r7, r8
 800c2b0:	f047 0701 	orr.w	r7, r7, #1
 800c2b4:	6093      	str	r3, [r2, #8]
 800c2b6:	605f      	str	r7, [r3, #4]
 800c2b8:	686b      	ldr	r3, [r5, #4]
 800c2ba:	f003 0301 	and.w	r3, r3, #1
 800c2be:	ea43 0308 	orr.w	r3, r3, r8
 800c2c2:	606b      	str	r3, [r5, #4]
 800c2c4:	4650      	mov	r0, sl
 800c2c6:	f7ff fb5d 	bl	800b984 <__malloc_unlock>
 800c2ca:	e757      	b.n	800c17c <_realloc_r+0x44>
 800c2cc:	68a3      	ldr	r3, [r4, #8]
 800c2ce:	612b      	str	r3, [r5, #16]
 800c2d0:	68e3      	ldr	r3, [r4, #12]
 800c2d2:	616b      	str	r3, [r5, #20]
 800c2d4:	2a24      	cmp	r2, #36	; 0x24
 800c2d6:	bf01      	itttt	eq
 800c2d8:	6923      	ldreq	r3, [r4, #16]
 800c2da:	61ab      	streq	r3, [r5, #24]
 800c2dc:	6962      	ldreq	r2, [r4, #20]
 800c2de:	61ea      	streq	r2, [r5, #28]
 800c2e0:	bf19      	ittee	ne
 800c2e2:	3410      	addne	r4, #16
 800c2e4:	f105 0318 	addne.w	r3, r5, #24
 800c2e8:	f105 0320 	addeq.w	r3, r5, #32
 800c2ec:	3418      	addeq	r4, #24
 800c2ee:	e7d4      	b.n	800c29a <_realloc_r+0x162>
 800c2f0:	465b      	mov	r3, fp
 800c2f2:	e7d2      	b.n	800c29a <_realloc_r+0x162>
 800c2f4:	4621      	mov	r1, r4
 800c2f6:	4658      	mov	r0, fp
 800c2f8:	f7ff fb24 	bl	800b944 <memmove>
 800c2fc:	e7d3      	b.n	800c2a6 <_realloc_r+0x16e>
 800c2fe:	45b8      	cmp	r8, r7
 800c300:	dc35      	bgt.n	800c36e <_realloc_r+0x236>
 800c302:	e9d3 3202 	ldrd	r3, r2, [r3, #8]
 800c306:	4628      	mov	r0, r5
 800c308:	60da      	str	r2, [r3, #12]
 800c30a:	6093      	str	r3, [r2, #8]
 800c30c:	f850 2f08 	ldr.w	r2, [r0, #8]!
 800c310:	68eb      	ldr	r3, [r5, #12]
 800c312:	60d3      	str	r3, [r2, #12]
 800c314:	609a      	str	r2, [r3, #8]
 800c316:	1f32      	subs	r2, r6, #4
 800c318:	2a24      	cmp	r2, #36	; 0x24
 800c31a:	d824      	bhi.n	800c366 <_realloc_r+0x22e>
 800c31c:	2a13      	cmp	r2, #19
 800c31e:	d908      	bls.n	800c332 <_realloc_r+0x1fa>
 800c320:	6823      	ldr	r3, [r4, #0]
 800c322:	60ab      	str	r3, [r5, #8]
 800c324:	6863      	ldr	r3, [r4, #4]
 800c326:	60eb      	str	r3, [r5, #12]
 800c328:	2a1b      	cmp	r2, #27
 800c32a:	d80a      	bhi.n	800c342 <_realloc_r+0x20a>
 800c32c:	3408      	adds	r4, #8
 800c32e:	f105 0010 	add.w	r0, r5, #16
 800c332:	6823      	ldr	r3, [r4, #0]
 800c334:	6003      	str	r3, [r0, #0]
 800c336:	6863      	ldr	r3, [r4, #4]
 800c338:	6043      	str	r3, [r0, #4]
 800c33a:	68a3      	ldr	r3, [r4, #8]
 800c33c:	6083      	str	r3, [r0, #8]
 800c33e:	46a9      	mov	r9, r5
 800c340:	e75c      	b.n	800c1fc <_realloc_r+0xc4>
 800c342:	68a3      	ldr	r3, [r4, #8]
 800c344:	612b      	str	r3, [r5, #16]
 800c346:	68e3      	ldr	r3, [r4, #12]
 800c348:	616b      	str	r3, [r5, #20]
 800c34a:	2a24      	cmp	r2, #36	; 0x24
 800c34c:	bf01      	itttt	eq
 800c34e:	6923      	ldreq	r3, [r4, #16]
 800c350:	61ab      	streq	r3, [r5, #24]
 800c352:	6963      	ldreq	r3, [r4, #20]
 800c354:	61eb      	streq	r3, [r5, #28]
 800c356:	bf19      	ittee	ne
 800c358:	3410      	addne	r4, #16
 800c35a:	f105 0018 	addne.w	r0, r5, #24
 800c35e:	f105 0020 	addeq.w	r0, r5, #32
 800c362:	3418      	addeq	r4, #24
 800c364:	e7e5      	b.n	800c332 <_realloc_r+0x1fa>
 800c366:	4621      	mov	r1, r4
 800c368:	f7ff faec 	bl	800b944 <memmove>
 800c36c:	e7e7      	b.n	800c33e <_realloc_r+0x206>
 800c36e:	45d8      	cmp	r8, fp
 800c370:	dc31      	bgt.n	800c3d6 <_realloc_r+0x29e>
 800c372:	4628      	mov	r0, r5
 800c374:	68eb      	ldr	r3, [r5, #12]
 800c376:	f850 2f08 	ldr.w	r2, [r0, #8]!
 800c37a:	60d3      	str	r3, [r2, #12]
 800c37c:	609a      	str	r2, [r3, #8]
 800c37e:	1f32      	subs	r2, r6, #4
 800c380:	2a24      	cmp	r2, #36	; 0x24
 800c382:	d824      	bhi.n	800c3ce <_realloc_r+0x296>
 800c384:	2a13      	cmp	r2, #19
 800c386:	d908      	bls.n	800c39a <_realloc_r+0x262>
 800c388:	6823      	ldr	r3, [r4, #0]
 800c38a:	60ab      	str	r3, [r5, #8]
 800c38c:	6863      	ldr	r3, [r4, #4]
 800c38e:	60eb      	str	r3, [r5, #12]
 800c390:	2a1b      	cmp	r2, #27
 800c392:	d80a      	bhi.n	800c3aa <_realloc_r+0x272>
 800c394:	3408      	adds	r4, #8
 800c396:	f105 0010 	add.w	r0, r5, #16
 800c39a:	6823      	ldr	r3, [r4, #0]
 800c39c:	6003      	str	r3, [r0, #0]
 800c39e:	6863      	ldr	r3, [r4, #4]
 800c3a0:	6043      	str	r3, [r0, #4]
 800c3a2:	68a3      	ldr	r3, [r4, #8]
 800c3a4:	6083      	str	r3, [r0, #8]
 800c3a6:	465f      	mov	r7, fp
 800c3a8:	e7c9      	b.n	800c33e <_realloc_r+0x206>
 800c3aa:	68a3      	ldr	r3, [r4, #8]
 800c3ac:	612b      	str	r3, [r5, #16]
 800c3ae:	68e3      	ldr	r3, [r4, #12]
 800c3b0:	616b      	str	r3, [r5, #20]
 800c3b2:	2a24      	cmp	r2, #36	; 0x24
 800c3b4:	bf01      	itttt	eq
 800c3b6:	6923      	ldreq	r3, [r4, #16]
 800c3b8:	61ab      	streq	r3, [r5, #24]
 800c3ba:	6963      	ldreq	r3, [r4, #20]
 800c3bc:	61eb      	streq	r3, [r5, #28]
 800c3be:	bf19      	ittee	ne
 800c3c0:	3410      	addne	r4, #16
 800c3c2:	f105 0018 	addne.w	r0, r5, #24
 800c3c6:	f105 0020 	addeq.w	r0, r5, #32
 800c3ca:	3418      	addeq	r4, #24
 800c3cc:	e7e5      	b.n	800c39a <_realloc_r+0x262>
 800c3ce:	4621      	mov	r1, r4
 800c3d0:	f7ff fab8 	bl	800b944 <memmove>
 800c3d4:	e7e7      	b.n	800c3a6 <_realloc_r+0x26e>
 800c3d6:	4611      	mov	r1, r2
 800c3d8:	4650      	mov	r0, sl
 800c3da:	f7ff f86b 	bl	800b4b4 <_malloc_r>
 800c3de:	4683      	mov	fp, r0
 800c3e0:	2800      	cmp	r0, #0
 800c3e2:	f43f af6f 	beq.w	800c2c4 <_realloc_r+0x18c>
 800c3e6:	f854 3c04 	ldr.w	r3, [r4, #-4]
 800c3ea:	f023 0301 	bic.w	r3, r3, #1
 800c3ee:	444b      	add	r3, r9
 800c3f0:	f1a0 0208 	sub.w	r2, r0, #8
 800c3f4:	4293      	cmp	r3, r2
 800c3f6:	d105      	bne.n	800c404 <_realloc_r+0x2cc>
 800c3f8:	f850 7c04 	ldr.w	r7, [r0, #-4]
 800c3fc:	f027 0703 	bic.w	r7, r7, #3
 800c400:	4437      	add	r7, r6
 800c402:	e6fb      	b.n	800c1fc <_realloc_r+0xc4>
 800c404:	1f32      	subs	r2, r6, #4
 800c406:	2a24      	cmp	r2, #36	; 0x24
 800c408:	d82f      	bhi.n	800c46a <_realloc_r+0x332>
 800c40a:	2a13      	cmp	r2, #19
 800c40c:	d92a      	bls.n	800c464 <_realloc_r+0x32c>
 800c40e:	6823      	ldr	r3, [r4, #0]
 800c410:	6003      	str	r3, [r0, #0]
 800c412:	6863      	ldr	r3, [r4, #4]
 800c414:	6043      	str	r3, [r0, #4]
 800c416:	2a1b      	cmp	r2, #27
 800c418:	d810      	bhi.n	800c43c <_realloc_r+0x304>
 800c41a:	f104 0208 	add.w	r2, r4, #8
 800c41e:	f100 0308 	add.w	r3, r0, #8
 800c422:	6811      	ldr	r1, [r2, #0]
 800c424:	6019      	str	r1, [r3, #0]
 800c426:	6851      	ldr	r1, [r2, #4]
 800c428:	6059      	str	r1, [r3, #4]
 800c42a:	6892      	ldr	r2, [r2, #8]
 800c42c:	609a      	str	r2, [r3, #8]
 800c42e:	4621      	mov	r1, r4
 800c430:	4650      	mov	r0, sl
 800c432:	f7fe fa5f 	bl	800a8f4 <_free_r>
 800c436:	e745      	b.n	800c2c4 <_realloc_r+0x18c>
 800c438:	200005b0 	.word	0x200005b0
 800c43c:	68a3      	ldr	r3, [r4, #8]
 800c43e:	6083      	str	r3, [r0, #8]
 800c440:	68e3      	ldr	r3, [r4, #12]
 800c442:	60c3      	str	r3, [r0, #12]
 800c444:	2a24      	cmp	r2, #36	; 0x24
 800c446:	bf01      	itttt	eq
 800c448:	6923      	ldreq	r3, [r4, #16]
 800c44a:	6103      	streq	r3, [r0, #16]
 800c44c:	6961      	ldreq	r1, [r4, #20]
 800c44e:	6141      	streq	r1, [r0, #20]
 800c450:	bf19      	ittee	ne
 800c452:	f104 0210 	addne.w	r2, r4, #16
 800c456:	f100 0310 	addne.w	r3, r0, #16
 800c45a:	f104 0218 	addeq.w	r2, r4, #24
 800c45e:	f100 0318 	addeq.w	r3, r0, #24
 800c462:	e7de      	b.n	800c422 <_realloc_r+0x2ea>
 800c464:	4603      	mov	r3, r0
 800c466:	4622      	mov	r2, r4
 800c468:	e7db      	b.n	800c422 <_realloc_r+0x2ea>
 800c46a:	4621      	mov	r1, r4
 800c46c:	f7ff fa6a 	bl	800b944 <memmove>
 800c470:	e7dd      	b.n	800c42e <_realloc_r+0x2f6>
 800c472:	4637      	mov	r7, r6
 800c474:	e6c2      	b.n	800c1fc <_realloc_r+0xc4>
 800c476:	4317      	orrs	r7, r2
 800c478:	f8c9 7004 	str.w	r7, [r9, #4]
 800c47c:	685a      	ldr	r2, [r3, #4]
 800c47e:	f042 0201 	orr.w	r2, r2, #1
 800c482:	605a      	str	r2, [r3, #4]
 800c484:	e6d6      	b.n	800c234 <_realloc_r+0xfc>
 800c486:	bf00      	nop

0800c488 <frexp>:
 800c488:	b570      	push	{r4, r5, r6, lr}
 800c48a:	2100      	movs	r1, #0
 800c48c:	ec55 4b10 	vmov	r4, r5, d0
 800c490:	6001      	str	r1, [r0, #0]
 800c492:	4916      	ldr	r1, [pc, #88]	; (800c4ec <frexp+0x64>)
 800c494:	f025 4300 	bic.w	r3, r5, #2147483648	; 0x80000000
 800c498:	428b      	cmp	r3, r1
 800c49a:	4606      	mov	r6, r0
 800c49c:	462a      	mov	r2, r5
 800c49e:	dc22      	bgt.n	800c4e6 <frexp+0x5e>
 800c4a0:	ee10 1a10 	vmov	r1, s0
 800c4a4:	4319      	orrs	r1, r3
 800c4a6:	d01e      	beq.n	800c4e6 <frexp+0x5e>
 800c4a8:	f5b3 1f80 	cmp.w	r3, #1048576	; 0x100000
 800c4ac:	da0d      	bge.n	800c4ca <frexp+0x42>
 800c4ae:	2200      	movs	r2, #0
 800c4b0:	4b0f      	ldr	r3, [pc, #60]	; (800c4f0 <frexp+0x68>)
 800c4b2:	ee10 0a10 	vmov	r0, s0
 800c4b6:	4629      	mov	r1, r5
 800c4b8:	f7f4 f8be 	bl	8000638 <__aeabi_dmul>
 800c4bc:	460a      	mov	r2, r1
 800c4be:	f021 4300 	bic.w	r3, r1, #2147483648	; 0x80000000
 800c4c2:	f06f 0135 	mvn.w	r1, #53	; 0x35
 800c4c6:	4604      	mov	r4, r0
 800c4c8:	6031      	str	r1, [r6, #0]
 800c4ca:	6831      	ldr	r1, [r6, #0]
 800c4cc:	151b      	asrs	r3, r3, #20
 800c4ce:	f022 42ff 	bic.w	r2, r2, #2139095040	; 0x7f800000
 800c4d2:	f2a3 33fe 	subw	r3, r3, #1022	; 0x3fe
 800c4d6:	f422 02e0 	bic.w	r2, r2, #7340032	; 0x700000
 800c4da:	440b      	add	r3, r1
 800c4dc:	f042 557f 	orr.w	r5, r2, #1069547520	; 0x3fc00000
 800c4e0:	6033      	str	r3, [r6, #0]
 800c4e2:	f445 1500 	orr.w	r5, r5, #2097152	; 0x200000
 800c4e6:	ec45 4b10 	vmov	d0, r4, r5
 800c4ea:	bd70      	pop	{r4, r5, r6, pc}
 800c4ec:	7fefffff 	.word	0x7fefffff
 800c4f0:	43500000 	.word	0x43500000

0800c4f4 <_sbrk_r>:
 800c4f4:	b538      	push	{r3, r4, r5, lr}
 800c4f6:	4c06      	ldr	r4, [pc, #24]	; (800c510 <_sbrk_r+0x1c>)
 800c4f8:	2300      	movs	r3, #0
 800c4fa:	4605      	mov	r5, r0
 800c4fc:	4608      	mov	r0, r1
 800c4fe:	6023      	str	r3, [r4, #0]
 800c500:	f7f7 fa7e 	bl	8003a00 <_sbrk>
 800c504:	1c43      	adds	r3, r0, #1
 800c506:	d102      	bne.n	800c50e <_sbrk_r+0x1a>
 800c508:	6823      	ldr	r3, [r4, #0]
 800c50a:	b103      	cbz	r3, 800c50e <_sbrk_r+0x1a>
 800c50c:	602b      	str	r3, [r5, #0]
 800c50e:	bd38      	pop	{r3, r4, r5, pc}
 800c510:	20009c48 	.word	0x20009c48

0800c514 <__sread>:
 800c514:	b510      	push	{r4, lr}
 800c516:	460c      	mov	r4, r1
 800c518:	f9b1 100e 	ldrsh.w	r1, [r1, #14]
 800c51c:	f000 fa4c 	bl	800c9b8 <_read_r>
 800c520:	2800      	cmp	r0, #0
 800c522:	bfab      	itete	ge
 800c524:	6d23      	ldrge	r3, [r4, #80]	; 0x50
 800c526:	89a3      	ldrhlt	r3, [r4, #12]
 800c528:	181b      	addge	r3, r3, r0
 800c52a:	f423 5380 	biclt.w	r3, r3, #4096	; 0x1000
 800c52e:	bfac      	ite	ge
 800c530:	6523      	strge	r3, [r4, #80]	; 0x50
 800c532:	81a3      	strhlt	r3, [r4, #12]
 800c534:	bd10      	pop	{r4, pc}

0800c536 <__swrite>:
 800c536:	e92d 41f0 	stmdb	sp!, {r4, r5, r6, r7, r8, lr}
 800c53a:	461f      	mov	r7, r3
 800c53c:	898b      	ldrh	r3, [r1, #12]
 800c53e:	05db      	lsls	r3, r3, #23
 800c540:	4605      	mov	r5, r0
 800c542:	460c      	mov	r4, r1
 800c544:	4616      	mov	r6, r2
 800c546:	d505      	bpl.n	800c554 <__swrite+0x1e>
 800c548:	2302      	movs	r3, #2
 800c54a:	2200      	movs	r2, #0
 800c54c:	f9b1 100e 	ldrsh.w	r1, [r1, #14]
 800c550:	f000 fa20 	bl	800c994 <_lseek_r>
 800c554:	89a3      	ldrh	r3, [r4, #12]
 800c556:	f9b4 100e 	ldrsh.w	r1, [r4, #14]
 800c55a:	f423 5380 	bic.w	r3, r3, #4096	; 0x1000
 800c55e:	81a3      	strh	r3, [r4, #12]
 800c560:	4632      	mov	r2, r6
 800c562:	463b      	mov	r3, r7
 800c564:	4628      	mov	r0, r5
 800c566:	e8bd 41f0 	ldmia.w	sp!, {r4, r5, r6, r7, r8, lr}
 800c56a:	f000 b889 	b.w	800c680 <_write_r>

0800c56e <__sseek>:
 800c56e:	b510      	push	{r4, lr}
 800c570:	460c      	mov	r4, r1
 800c572:	f9b1 100e 	ldrsh.w	r1, [r1, #14]
 800c576:	f000 fa0d 	bl	800c994 <_lseek_r>
 800c57a:	1c43      	adds	r3, r0, #1
 800c57c:	89a3      	ldrh	r3, [r4, #12]
 800c57e:	bf15      	itete	ne
 800c580:	6520      	strne	r0, [r4, #80]	; 0x50
 800c582:	f423 5380 	biceq.w	r3, r3, #4096	; 0x1000
 800c586:	f443 5380 	orrne.w	r3, r3, #4096	; 0x1000
 800c58a:	81a3      	strheq	r3, [r4, #12]
 800c58c:	bf18      	it	ne
 800c58e:	81a3      	strhne	r3, [r4, #12]
 800c590:	bd10      	pop	{r4, pc}

0800c592 <__sclose>:
 800c592:	f9b1 100e 	ldrsh.w	r1, [r1, #14]
 800c596:	f000 b909 	b.w	800c7ac <_close_r>

0800c59a <strncmp>:
 800c59a:	b510      	push	{r4, lr}
 800c59c:	b16a      	cbz	r2, 800c5ba <strncmp+0x20>
 800c59e:	3901      	subs	r1, #1
 800c5a0:	1884      	adds	r4, r0, r2
 800c5a2:	f810 3b01 	ldrb.w	r3, [r0], #1
 800c5a6:	f811 2f01 	ldrb.w	r2, [r1, #1]!
 800c5aa:	4293      	cmp	r3, r2
 800c5ac:	d103      	bne.n	800c5b6 <strncmp+0x1c>
 800c5ae:	42a0      	cmp	r0, r4
 800c5b0:	d001      	beq.n	800c5b6 <strncmp+0x1c>
 800c5b2:	2b00      	cmp	r3, #0
 800c5b4:	d1f5      	bne.n	800c5a2 <strncmp+0x8>
 800c5b6:	1a98      	subs	r0, r3, r2
 800c5b8:	bd10      	pop	{r4, pc}
 800c5ba:	4610      	mov	r0, r2
 800c5bc:	e7fc      	b.n	800c5b8 <strncmp+0x1e>

0800c5be <strncpy>:
 800c5be:	b570      	push	{r4, r5, r6, lr}
 800c5c0:	3901      	subs	r1, #1
 800c5c2:	4604      	mov	r4, r0
 800c5c4:	b902      	cbnz	r2, 800c5c8 <strncpy+0xa>
 800c5c6:	bd70      	pop	{r4, r5, r6, pc}
 800c5c8:	4623      	mov	r3, r4
 800c5ca:	f811 5f01 	ldrb.w	r5, [r1, #1]!
 800c5ce:	f803 5b01 	strb.w	r5, [r3], #1
 800c5d2:	1e56      	subs	r6, r2, #1
 800c5d4:	b92d      	cbnz	r5, 800c5e2 <strncpy+0x24>
 800c5d6:	4414      	add	r4, r2
 800c5d8:	42a3      	cmp	r3, r4
 800c5da:	d0f4      	beq.n	800c5c6 <strncpy+0x8>
 800c5dc:	f803 5b01 	strb.w	r5, [r3], #1
 800c5e0:	e7fa      	b.n	800c5d8 <strncpy+0x1a>
 800c5e2:	461c      	mov	r4, r3
 800c5e4:	4632      	mov	r2, r6
 800c5e6:	e7ed      	b.n	800c5c4 <strncpy+0x6>

0800c5e8 <sysconf>:
 800c5e8:	2808      	cmp	r0, #8
 800c5ea:	b508      	push	{r3, lr}
 800c5ec:	d006      	beq.n	800c5fc <sysconf+0x14>
 800c5ee:	f7fa ff51 	bl	8007494 <__errno>
 800c5f2:	2316      	movs	r3, #22
 800c5f4:	6003      	str	r3, [r0, #0]
 800c5f6:	f04f 30ff 	mov.w	r0, #4294967295
 800c5fa:	bd08      	pop	{r3, pc}
 800c5fc:	f44f 5080 	mov.w	r0, #4096	; 0x1000
 800c600:	e7fb      	b.n	800c5fa <sysconf+0x12>

0800c602 <__sprint_r>:
 800c602:	e92d 4ff8 	stmdb	sp!, {r3, r4, r5, r6, r7, r8, r9, sl, fp, lr}
 800c606:	6893      	ldr	r3, [r2, #8]
 800c608:	4680      	mov	r8, r0
 800c60a:	460f      	mov	r7, r1
 800c60c:	4614      	mov	r4, r2
 800c60e:	b91b      	cbnz	r3, 800c618 <__sprint_r+0x16>
 800c610:	6053      	str	r3, [r2, #4]
 800c612:	4618      	mov	r0, r3
 800c614:	e8bd 8ff8 	ldmia.w	sp!, {r3, r4, r5, r6, r7, r8, r9, sl, fp, pc}
 800c618:	6e4b      	ldr	r3, [r1, #100]	; 0x64
 800c61a:	049d      	lsls	r5, r3, #18
 800c61c:	d520      	bpl.n	800c660 <__sprint_r+0x5e>
 800c61e:	6815      	ldr	r5, [r2, #0]
 800c620:	68a0      	ldr	r0, [r4, #8]
 800c622:	3508      	adds	r5, #8
 800c624:	b918      	cbnz	r0, 800c62e <__sprint_r+0x2c>
 800c626:	2300      	movs	r3, #0
 800c628:	e9c4 3301 	strd	r3, r3, [r4, #4]
 800c62c:	e7f2      	b.n	800c614 <__sprint_r+0x12>
 800c62e:	e955 b602 	ldrd	fp, r6, [r5, #-8]
 800c632:	f04f 0900 	mov.w	r9, #0
 800c636:	ea4f 0a96 	mov.w	sl, r6, lsr #2
 800c63a:	45ca      	cmp	sl, r9
 800c63c:	dc05      	bgt.n	800c64a <__sprint_r+0x48>
 800c63e:	68a3      	ldr	r3, [r4, #8]
 800c640:	f026 0603 	bic.w	r6, r6, #3
 800c644:	1b9e      	subs	r6, r3, r6
 800c646:	60a6      	str	r6, [r4, #8]
 800c648:	e7ea      	b.n	800c620 <__sprint_r+0x1e>
 800c64a:	463a      	mov	r2, r7
 800c64c:	f85b 1029 	ldr.w	r1, [fp, r9, lsl #2]
 800c650:	4640      	mov	r0, r8
 800c652:	f000 f953 	bl	800c8fc <_fputwc_r>
 800c656:	1c43      	adds	r3, r0, #1
 800c658:	d0e5      	beq.n	800c626 <__sprint_r+0x24>
 800c65a:	f109 0901 	add.w	r9, r9, #1
 800c65e:	e7ec      	b.n	800c63a <__sprint_r+0x38>
 800c660:	f7fe fa04 	bl	800aa6c <__sfvwrite_r>
 800c664:	e7df      	b.n	800c626 <__sprint_r+0x24>

0800c666 <__ascii_wctomb>:
 800c666:	b149      	cbz	r1, 800c67c <__ascii_wctomb+0x16>
 800c668:	2aff      	cmp	r2, #255	; 0xff
 800c66a:	bf85      	ittet	hi
 800c66c:	238a      	movhi	r3, #138	; 0x8a
 800c66e:	6003      	strhi	r3, [r0, #0]
 800c670:	700a      	strbls	r2, [r1, #0]
 800c672:	f04f 30ff 	movhi.w	r0, #4294967295
 800c676:	bf98      	it	ls
 800c678:	2001      	movls	r0, #1
 800c67a:	4770      	bx	lr
 800c67c:	4608      	mov	r0, r1
 800c67e:	4770      	bx	lr

0800c680 <_write_r>:
 800c680:	b538      	push	{r3, r4, r5, lr}
 800c682:	4c07      	ldr	r4, [pc, #28]	; (800c6a0 <_write_r+0x20>)
 800c684:	4605      	mov	r5, r0
 800c686:	4608      	mov	r0, r1
 800c688:	4611      	mov	r1, r2
 800c68a:	2200      	movs	r2, #0
 800c68c:	6022      	str	r2, [r4, #0]
 800c68e:	461a      	mov	r2, r3
 800c690:	f7f7 f99c 	bl	80039cc <_write>
 800c694:	1c43      	adds	r3, r0, #1
 800c696:	d102      	bne.n	800c69e <_write_r+0x1e>
 800c698:	6823      	ldr	r3, [r4, #0]
 800c69a:	b103      	cbz	r3, 800c69e <_write_r+0x1e>
 800c69c:	602b      	str	r3, [r5, #0]
 800c69e:	bd38      	pop	{r3, r4, r5, pc}
 800c6a0:	20009c48 	.word	0x20009c48

0800c6a4 <__register_exitproc>:
 800c6a4:	e92d 43f8 	stmdb	sp!, {r3, r4, r5, r6, r7, r8, r9, lr}
 800c6a8:	4c26      	ldr	r4, [pc, #152]	; (800c744 <__register_exitproc+0xa0>)
 800c6aa:	4606      	mov	r6, r0
 800c6ac:	6820      	ldr	r0, [r4, #0]
 800c6ae:	4698      	mov	r8, r3
 800c6b0:	460f      	mov	r7, r1
 800c6b2:	4691      	mov	r9, r2
 800c6b4:	f7fe fe90 	bl	800b3d8 <__retarget_lock_acquire_recursive>
 800c6b8:	4b23      	ldr	r3, [pc, #140]	; (800c748 <__register_exitproc+0xa4>)
 800c6ba:	681d      	ldr	r5, [r3, #0]
 800c6bc:	f8d5 0148 	ldr.w	r0, [r5, #328]	; 0x148
 800c6c0:	b918      	cbnz	r0, 800c6ca <__register_exitproc+0x26>
 800c6c2:	f505 70a6 	add.w	r0, r5, #332	; 0x14c
 800c6c6:	f8c5 0148 	str.w	r0, [r5, #328]	; 0x148
 800c6ca:	6843      	ldr	r3, [r0, #4]
 800c6cc:	2b1f      	cmp	r3, #31
 800c6ce:	dd19      	ble.n	800c704 <__register_exitproc+0x60>
 800c6d0:	4b1e      	ldr	r3, [pc, #120]	; (800c74c <__register_exitproc+0xa8>)
 800c6d2:	b933      	cbnz	r3, 800c6e2 <__register_exitproc+0x3e>
 800c6d4:	6820      	ldr	r0, [r4, #0]
 800c6d6:	f7fe fe80 	bl	800b3da <__retarget_lock_release_recursive>
 800c6da:	f04f 30ff 	mov.w	r0, #4294967295
 800c6de:	e8bd 83f8 	ldmia.w	sp!, {r3, r4, r5, r6, r7, r8, r9, pc}
 800c6e2:	f44f 70c8 	mov.w	r0, #400	; 0x190
 800c6e6:	f3af 8000 	nop.w
 800c6ea:	2800      	cmp	r0, #0
 800c6ec:	d0f2      	beq.n	800c6d4 <__register_exitproc+0x30>
 800c6ee:	f8d5 3148 	ldr.w	r3, [r5, #328]	; 0x148
 800c6f2:	6003      	str	r3, [r0, #0]
 800c6f4:	2200      	movs	r2, #0
 800c6f6:	6042      	str	r2, [r0, #4]
 800c6f8:	f8c5 0148 	str.w	r0, [r5, #328]	; 0x148
 800c6fc:	f8c0 2188 	str.w	r2, [r0, #392]	; 0x188
 800c700:	f8c0 218c 	str.w	r2, [r0, #396]	; 0x18c
 800c704:	6843      	ldr	r3, [r0, #4]
 800c706:	b19e      	cbz	r6, 800c730 <__register_exitproc+0x8c>
 800c708:	eb00 0583 	add.w	r5, r0, r3, lsl #2
 800c70c:	2201      	movs	r2, #1
 800c70e:	f8c5 9088 	str.w	r9, [r5, #136]	; 0x88
 800c712:	f8d0 1188 	ldr.w	r1, [r0, #392]	; 0x188
 800c716:	409a      	lsls	r2, r3
 800c718:	4311      	orrs	r1, r2
 800c71a:	2e02      	cmp	r6, #2
 800c71c:	f8c0 1188 	str.w	r1, [r0, #392]	; 0x188
 800c720:	f8c5 8108 	str.w	r8, [r5, #264]	; 0x108
 800c724:	bf02      	ittt	eq
 800c726:	f8d0 118c 	ldreq.w	r1, [r0, #396]	; 0x18c
 800c72a:	430a      	orreq	r2, r1
 800c72c:	f8c0 218c 	streq.w	r2, [r0, #396]	; 0x18c
 800c730:	1c5a      	adds	r2, r3, #1
 800c732:	3302      	adds	r3, #2
 800c734:	6042      	str	r2, [r0, #4]
 800c736:	f840 7023 	str.w	r7, [r0, r3, lsl #2]
 800c73a:	6820      	ldr	r0, [r4, #0]
 800c73c:	f7fe fe4d 	bl	800b3da <__retarget_lock_release_recursive>
 800c740:	2000      	movs	r0, #0
 800c742:	e7cc      	b.n	800c6de <__register_exitproc+0x3a>
 800c744:	20000440 	.word	0x20000440
 800c748:	0800d500 	.word	0x0800d500
 800c74c:	00000000 	.word	0x00000000

0800c750 <_calloc_r>:
 800c750:	b510      	push	{r4, lr}
 800c752:	4351      	muls	r1, r2
 800c754:	f7fe feae 	bl	800b4b4 <_malloc_r>
 800c758:	4604      	mov	r4, r0
 800c75a:	b198      	cbz	r0, 800c784 <_calloc_r+0x34>
 800c75c:	f850 2c04 	ldr.w	r2, [r0, #-4]
 800c760:	f022 0203 	bic.w	r2, r2, #3
 800c764:	3a04      	subs	r2, #4
 800c766:	2a24      	cmp	r2, #36	; 0x24
 800c768:	d81b      	bhi.n	800c7a2 <_calloc_r+0x52>
 800c76a:	2a13      	cmp	r2, #19
 800c76c:	d917      	bls.n	800c79e <_calloc_r+0x4e>
 800c76e:	2100      	movs	r1, #0
 800c770:	2a1b      	cmp	r2, #27
 800c772:	e9c0 1100 	strd	r1, r1, [r0]
 800c776:	d807      	bhi.n	800c788 <_calloc_r+0x38>
 800c778:	f100 0308 	add.w	r3, r0, #8
 800c77c:	2200      	movs	r2, #0
 800c77e:	e9c3 2200 	strd	r2, r2, [r3]
 800c782:	609a      	str	r2, [r3, #8]
 800c784:	4620      	mov	r0, r4
 800c786:	bd10      	pop	{r4, pc}
 800c788:	2a24      	cmp	r2, #36	; 0x24
 800c78a:	e9c0 1102 	strd	r1, r1, [r0, #8]
 800c78e:	bf11      	iteee	ne
 800c790:	f100 0310 	addne.w	r3, r0, #16
 800c794:	6101      	streq	r1, [r0, #16]
 800c796:	f100 0318 	addeq.w	r3, r0, #24
 800c79a:	6141      	streq	r1, [r0, #20]
 800c79c:	e7ee      	b.n	800c77c <_calloc_r+0x2c>
 800c79e:	4603      	mov	r3, r0
 800c7a0:	e7ec      	b.n	800c77c <_calloc_r+0x2c>
 800c7a2:	2100      	movs	r1, #0
 800c7a4:	f7fa feab 	bl	80074fe <memset>
 800c7a8:	e7ec      	b.n	800c784 <_calloc_r+0x34>
	...

0800c7ac <_close_r>:
 800c7ac:	b538      	push	{r3, r4, r5, lr}
 800c7ae:	4c06      	ldr	r4, [pc, #24]	; (800c7c8 <_close_r+0x1c>)
 800c7b0:	2300      	movs	r3, #0
 800c7b2:	4605      	mov	r5, r0
 800c7b4:	4608      	mov	r0, r1
 800c7b6:	6023      	str	r3, [r4, #0]
 800c7b8:	f7f7 f916 	bl	80039e8 <_close>
 800c7bc:	1c43      	adds	r3, r0, #1
 800c7be:	d102      	bne.n	800c7c6 <_close_r+0x1a>
 800c7c0:	6823      	ldr	r3, [r4, #0]
 800c7c2:	b103      	cbz	r3, 800c7c6 <_close_r+0x1a>
 800c7c4:	602b      	str	r3, [r5, #0]
 800c7c6:	bd38      	pop	{r3, r4, r5, pc}
 800c7c8:	20009c48 	.word	0x20009c48

0800c7cc <_fclose_r>:
 800c7cc:	b570      	push	{r4, r5, r6, lr}
 800c7ce:	4606      	mov	r6, r0
 800c7d0:	460c      	mov	r4, r1
 800c7d2:	b911      	cbnz	r1, 800c7da <_fclose_r+0xe>
 800c7d4:	2500      	movs	r5, #0
 800c7d6:	4628      	mov	r0, r5
 800c7d8:	bd70      	pop	{r4, r5, r6, pc}
 800c7da:	b118      	cbz	r0, 800c7e4 <_fclose_r+0x18>
 800c7dc:	6b83      	ldr	r3, [r0, #56]	; 0x38
 800c7de:	b90b      	cbnz	r3, 800c7e4 <_fclose_r+0x18>
 800c7e0:	f7fd fff8 	bl	800a7d4 <__sinit>
 800c7e4:	6e63      	ldr	r3, [r4, #100]	; 0x64
 800c7e6:	07d8      	lsls	r0, r3, #31
 800c7e8:	d405      	bmi.n	800c7f6 <_fclose_r+0x2a>
 800c7ea:	89a3      	ldrh	r3, [r4, #12]
 800c7ec:	0599      	lsls	r1, r3, #22
 800c7ee:	d402      	bmi.n	800c7f6 <_fclose_r+0x2a>
 800c7f0:	6da0      	ldr	r0, [r4, #88]	; 0x58
 800c7f2:	f7fe fdf1 	bl	800b3d8 <__retarget_lock_acquire_recursive>
 800c7f6:	f9b4 300c 	ldrsh.w	r3, [r4, #12]
 800c7fa:	b93b      	cbnz	r3, 800c80c <_fclose_r+0x40>
 800c7fc:	6e65      	ldr	r5, [r4, #100]	; 0x64
 800c7fe:	f015 0501 	ands.w	r5, r5, #1
 800c802:	d1e7      	bne.n	800c7d4 <_fclose_r+0x8>
 800c804:	6da0      	ldr	r0, [r4, #88]	; 0x58
 800c806:	f7fe fde8 	bl	800b3da <__retarget_lock_release_recursive>
 800c80a:	e7e4      	b.n	800c7d6 <_fclose_r+0xa>
 800c80c:	4621      	mov	r1, r4
 800c80e:	4630      	mov	r0, r6
 800c810:	f7fd fee6 	bl	800a5e0 <__sflush_r>
 800c814:	6ae3      	ldr	r3, [r4, #44]	; 0x2c
 800c816:	4605      	mov	r5, r0
 800c818:	b133      	cbz	r3, 800c828 <_fclose_r+0x5c>
 800c81a:	69e1      	ldr	r1, [r4, #28]
 800c81c:	4630      	mov	r0, r6
 800c81e:	4798      	blx	r3
 800c820:	2800      	cmp	r0, #0
 800c822:	bfb8      	it	lt
 800c824:	f04f 35ff 	movlt.w	r5, #4294967295
 800c828:	89a3      	ldrh	r3, [r4, #12]
 800c82a:	061a      	lsls	r2, r3, #24
 800c82c:	d503      	bpl.n	800c836 <_fclose_r+0x6a>
 800c82e:	6921      	ldr	r1, [r4, #16]
 800c830:	4630      	mov	r0, r6
 800c832:	f7fe f85f 	bl	800a8f4 <_free_r>
 800c836:	6b21      	ldr	r1, [r4, #48]	; 0x30
 800c838:	b141      	cbz	r1, 800c84c <_fclose_r+0x80>
 800c83a:	f104 0340 	add.w	r3, r4, #64	; 0x40
 800c83e:	4299      	cmp	r1, r3
 800c840:	d002      	beq.n	800c848 <_fclose_r+0x7c>
 800c842:	4630      	mov	r0, r6
 800c844:	f7fe f856 	bl	800a8f4 <_free_r>
 800c848:	2300      	movs	r3, #0
 800c84a:	6323      	str	r3, [r4, #48]	; 0x30
 800c84c:	6c61      	ldr	r1, [r4, #68]	; 0x44
 800c84e:	b121      	cbz	r1, 800c85a <_fclose_r+0x8e>
 800c850:	4630      	mov	r0, r6
 800c852:	f7fe f84f 	bl	800a8f4 <_free_r>
 800c856:	2300      	movs	r3, #0
 800c858:	6463      	str	r3, [r4, #68]	; 0x44
 800c85a:	f7fd ffa3 	bl	800a7a4 <__sfp_lock_acquire>
 800c85e:	2300      	movs	r3, #0
 800c860:	81a3      	strh	r3, [r4, #12]
 800c862:	6e63      	ldr	r3, [r4, #100]	; 0x64
 800c864:	07db      	lsls	r3, r3, #31
 800c866:	d402      	bmi.n	800c86e <_fclose_r+0xa2>
 800c868:	6da0      	ldr	r0, [r4, #88]	; 0x58
 800c86a:	f7fe fdb6 	bl	800b3da <__retarget_lock_release_recursive>
 800c86e:	6da0      	ldr	r0, [r4, #88]	; 0x58
 800c870:	f7fe fdb1 	bl	800b3d6 <__retarget_lock_close_recursive>
 800c874:	f7fd ff9c 	bl	800a7b0 <__sfp_lock_release>
 800c878:	e7ad      	b.n	800c7d6 <_fclose_r+0xa>

0800c87a <__fputwc>:
 800c87a:	e92d 43f7 	stmdb	sp!, {r0, r1, r2, r4, r5, r6, r7, r8, r9, lr}
 800c87e:	4680      	mov	r8, r0
 800c880:	460e      	mov	r6, r1
 800c882:	4614      	mov	r4, r2
 800c884:	f7fe fd84 	bl	800b390 <__locale_mb_cur_max>
 800c888:	2801      	cmp	r0, #1
 800c88a:	d11c      	bne.n	800c8c6 <__fputwc+0x4c>
 800c88c:	1e73      	subs	r3, r6, #1
 800c88e:	2bfe      	cmp	r3, #254	; 0xfe
 800c890:	d819      	bhi.n	800c8c6 <__fputwc+0x4c>
 800c892:	f88d 6004 	strb.w	r6, [sp, #4]
 800c896:	4605      	mov	r5, r0
 800c898:	2700      	movs	r7, #0
 800c89a:	f10d 0904 	add.w	r9, sp, #4
 800c89e:	42af      	cmp	r7, r5
 800c8a0:	d020      	beq.n	800c8e4 <__fputwc+0x6a>
 800c8a2:	68a3      	ldr	r3, [r4, #8]
 800c8a4:	f817 1009 	ldrb.w	r1, [r7, r9]
 800c8a8:	3b01      	subs	r3, #1
 800c8aa:	2b00      	cmp	r3, #0
 800c8ac:	60a3      	str	r3, [r4, #8]
 800c8ae:	da04      	bge.n	800c8ba <__fputwc+0x40>
 800c8b0:	69a2      	ldr	r2, [r4, #24]
 800c8b2:	4293      	cmp	r3, r2
 800c8b4:	db1a      	blt.n	800c8ec <__fputwc+0x72>
 800c8b6:	290a      	cmp	r1, #10
 800c8b8:	d018      	beq.n	800c8ec <__fputwc+0x72>
 800c8ba:	6823      	ldr	r3, [r4, #0]
 800c8bc:	1c5a      	adds	r2, r3, #1
 800c8be:	6022      	str	r2, [r4, #0]
 800c8c0:	7019      	strb	r1, [r3, #0]
 800c8c2:	3701      	adds	r7, #1
 800c8c4:	e7eb      	b.n	800c89e <__fputwc+0x24>
 800c8c6:	4632      	mov	r2, r6
 800c8c8:	f104 035c 	add.w	r3, r4, #92	; 0x5c
 800c8cc:	a901      	add	r1, sp, #4
 800c8ce:	4640      	mov	r0, r8
 800c8d0:	f000 f8ce 	bl	800ca70 <_wcrtomb_r>
 800c8d4:	1c42      	adds	r2, r0, #1
 800c8d6:	4605      	mov	r5, r0
 800c8d8:	d1de      	bne.n	800c898 <__fputwc+0x1e>
 800c8da:	89a3      	ldrh	r3, [r4, #12]
 800c8dc:	f043 0340 	orr.w	r3, r3, #64	; 0x40
 800c8e0:	81a3      	strh	r3, [r4, #12]
 800c8e2:	4606      	mov	r6, r0
 800c8e4:	4630      	mov	r0, r6
 800c8e6:	b003      	add	sp, #12
 800c8e8:	e8bd 83f0 	ldmia.w	sp!, {r4, r5, r6, r7, r8, r9, pc}
 800c8ec:	4622      	mov	r2, r4
 800c8ee:	4640      	mov	r0, r8
 800c8f0:	f000 f874 	bl	800c9dc <__swbuf_r>
 800c8f4:	1c43      	adds	r3, r0, #1
 800c8f6:	d1e4      	bne.n	800c8c2 <__fputwc+0x48>
 800c8f8:	4606      	mov	r6, r0
 800c8fa:	e7f3      	b.n	800c8e4 <__fputwc+0x6a>

0800c8fc <_fputwc_r>:
 800c8fc:	6e53      	ldr	r3, [r2, #100]	; 0x64
 800c8fe:	07db      	lsls	r3, r3, #31
 800c900:	b570      	push	{r4, r5, r6, lr}
 800c902:	4605      	mov	r5, r0
 800c904:	460e      	mov	r6, r1
 800c906:	4614      	mov	r4, r2
 800c908:	d405      	bmi.n	800c916 <_fputwc_r+0x1a>
 800c90a:	8993      	ldrh	r3, [r2, #12]
 800c90c:	0598      	lsls	r0, r3, #22
 800c90e:	d402      	bmi.n	800c916 <_fputwc_r+0x1a>
 800c910:	6d90      	ldr	r0, [r2, #88]	; 0x58
 800c912:	f7fe fd61 	bl	800b3d8 <__retarget_lock_acquire_recursive>
 800c916:	f9b4 300c 	ldrsh.w	r3, [r4, #12]
 800c91a:	0499      	lsls	r1, r3, #18
 800c91c:	d406      	bmi.n	800c92c <_fputwc_r+0x30>
 800c91e:	f443 5300 	orr.w	r3, r3, #8192	; 0x2000
 800c922:	81a3      	strh	r3, [r4, #12]
 800c924:	6e63      	ldr	r3, [r4, #100]	; 0x64
 800c926:	f443 5300 	orr.w	r3, r3, #8192	; 0x2000
 800c92a:	6663      	str	r3, [r4, #100]	; 0x64
 800c92c:	4622      	mov	r2, r4
 800c92e:	4628      	mov	r0, r5
 800c930:	4631      	mov	r1, r6
 800c932:	f7ff ffa2 	bl	800c87a <__fputwc>
 800c936:	6e63      	ldr	r3, [r4, #100]	; 0x64
 800c938:	07da      	lsls	r2, r3, #31
 800c93a:	4605      	mov	r5, r0
 800c93c:	d405      	bmi.n	800c94a <_fputwc_r+0x4e>
 800c93e:	89a3      	ldrh	r3, [r4, #12]
 800c940:	059b      	lsls	r3, r3, #22
 800c942:	d402      	bmi.n	800c94a <_fputwc_r+0x4e>
 800c944:	6da0      	ldr	r0, [r4, #88]	; 0x58
 800c946:	f7fe fd48 	bl	800b3da <__retarget_lock_release_recursive>
 800c94a:	4628      	mov	r0, r5
 800c94c:	bd70      	pop	{r4, r5, r6, pc}
	...

0800c950 <_fstat_r>:
 800c950:	b538      	push	{r3, r4, r5, lr}
 800c952:	4c07      	ldr	r4, [pc, #28]	; (800c970 <_fstat_r+0x20>)
 800c954:	2300      	movs	r3, #0
 800c956:	4605      	mov	r5, r0
 800c958:	4608      	mov	r0, r1
 800c95a:	4611      	mov	r1, r2
 800c95c:	6023      	str	r3, [r4, #0]
 800c95e:	f7f7 f846 	bl	80039ee <_fstat>
 800c962:	1c43      	adds	r3, r0, #1
 800c964:	d102      	bne.n	800c96c <_fstat_r+0x1c>
 800c966:	6823      	ldr	r3, [r4, #0]
 800c968:	b103      	cbz	r3, 800c96c <_fstat_r+0x1c>
 800c96a:	602b      	str	r3, [r5, #0]
 800c96c:	bd38      	pop	{r3, r4, r5, pc}
 800c96e:	bf00      	nop
 800c970:	20009c48 	.word	0x20009c48

0800c974 <_isatty_r>:
 800c974:	b538      	push	{r3, r4, r5, lr}
 800c976:	4c06      	ldr	r4, [pc, #24]	; (800c990 <_isatty_r+0x1c>)
 800c978:	2300      	movs	r3, #0
 800c97a:	4605      	mov	r5, r0
 800c97c:	4608      	mov	r0, r1
 800c97e:	6023      	str	r3, [r4, #0]
 800c980:	f7f7 f83a 	bl	80039f8 <_isatty>
 800c984:	1c43      	adds	r3, r0, #1
 800c986:	d102      	bne.n	800c98e <_isatty_r+0x1a>
 800c988:	6823      	ldr	r3, [r4, #0]
 800c98a:	b103      	cbz	r3, 800c98e <_isatty_r+0x1a>
 800c98c:	602b      	str	r3, [r5, #0]
 800c98e:	bd38      	pop	{r3, r4, r5, pc}
 800c990:	20009c48 	.word	0x20009c48

0800c994 <_lseek_r>:
 800c994:	b538      	push	{r3, r4, r5, lr}
 800c996:	4c07      	ldr	r4, [pc, #28]	; (800c9b4 <_lseek_r+0x20>)
 800c998:	4605      	mov	r5, r0
 800c99a:	4608      	mov	r0, r1
 800c99c:	4611      	mov	r1, r2
 800c99e:	2200      	movs	r2, #0
 800c9a0:	6022      	str	r2, [r4, #0]
 800c9a2:	461a      	mov	r2, r3
 800c9a4:	f7f7 f82a 	bl	80039fc <_lseek>
 800c9a8:	1c43      	adds	r3, r0, #1
 800c9aa:	d102      	bne.n	800c9b2 <_lseek_r+0x1e>
 800c9ac:	6823      	ldr	r3, [r4, #0]
 800c9ae:	b103      	cbz	r3, 800c9b2 <_lseek_r+0x1e>
 800c9b0:	602b      	str	r3, [r5, #0]
 800c9b2:	bd38      	pop	{r3, r4, r5, pc}
 800c9b4:	20009c48 	.word	0x20009c48

0800c9b8 <_read_r>:
 800c9b8:	b538      	push	{r3, r4, r5, lr}
 800c9ba:	4c07      	ldr	r4, [pc, #28]	; (800c9d8 <_read_r+0x20>)
 800c9bc:	4605      	mov	r5, r0
 800c9be:	4608      	mov	r0, r1
 800c9c0:	4611      	mov	r1, r2
 800c9c2:	2200      	movs	r2, #0
 800c9c4:	6022      	str	r2, [r4, #0]
 800c9c6:	461a      	mov	r2, r3
 800c9c8:	f7f6 fff2 	bl	80039b0 <_read>
 800c9cc:	1c43      	adds	r3, r0, #1
 800c9ce:	d102      	bne.n	800c9d6 <_read_r+0x1e>
 800c9d0:	6823      	ldr	r3, [r4, #0]
 800c9d2:	b103      	cbz	r3, 800c9d6 <_read_r+0x1e>
 800c9d4:	602b      	str	r3, [r5, #0]
 800c9d6:	bd38      	pop	{r3, r4, r5, pc}
 800c9d8:	20009c48 	.word	0x20009c48

0800c9dc <__swbuf_r>:
 800c9dc:	b5f8      	push	{r3, r4, r5, r6, r7, lr}
 800c9de:	460d      	mov	r5, r1
 800c9e0:	4614      	mov	r4, r2
 800c9e2:	4606      	mov	r6, r0
 800c9e4:	b118      	cbz	r0, 800c9ee <__swbuf_r+0x12>
 800c9e6:	6b83      	ldr	r3, [r0, #56]	; 0x38
 800c9e8:	b90b      	cbnz	r3, 800c9ee <__swbuf_r+0x12>
 800c9ea:	f7fd fef3 	bl	800a7d4 <__sinit>
 800c9ee:	69a3      	ldr	r3, [r4, #24]
 800c9f0:	60a3      	str	r3, [r4, #8]
 800c9f2:	89a3      	ldrh	r3, [r4, #12]
 800c9f4:	0719      	lsls	r1, r3, #28
 800c9f6:	d528      	bpl.n	800ca4a <__swbuf_r+0x6e>
 800c9f8:	6923      	ldr	r3, [r4, #16]
 800c9fa:	b333      	cbz	r3, 800ca4a <__swbuf_r+0x6e>
 800c9fc:	f9b4 300c 	ldrsh.w	r3, [r4, #12]
 800ca00:	b2ed      	uxtb	r5, r5
 800ca02:	049a      	lsls	r2, r3, #18
 800ca04:	462f      	mov	r7, r5
 800ca06:	d52a      	bpl.n	800ca5e <__swbuf_r+0x82>
 800ca08:	6923      	ldr	r3, [r4, #16]
 800ca0a:	6820      	ldr	r0, [r4, #0]
 800ca0c:	1ac0      	subs	r0, r0, r3
 800ca0e:	6963      	ldr	r3, [r4, #20]
 800ca10:	4283      	cmp	r3, r0
 800ca12:	dc04      	bgt.n	800ca1e <__swbuf_r+0x42>
 800ca14:	4621      	mov	r1, r4
 800ca16:	4630      	mov	r0, r6
 800ca18:	f7fd fe70 	bl	800a6fc <_fflush_r>
 800ca1c:	b9d8      	cbnz	r0, 800ca56 <__swbuf_r+0x7a>
 800ca1e:	68a3      	ldr	r3, [r4, #8]
 800ca20:	3b01      	subs	r3, #1
 800ca22:	60a3      	str	r3, [r4, #8]
 800ca24:	6823      	ldr	r3, [r4, #0]
 800ca26:	1c5a      	adds	r2, r3, #1
 800ca28:	6022      	str	r2, [r4, #0]
 800ca2a:	701d      	strb	r5, [r3, #0]
 800ca2c:	6963      	ldr	r3, [r4, #20]
 800ca2e:	3001      	adds	r0, #1
 800ca30:	4283      	cmp	r3, r0
 800ca32:	d004      	beq.n	800ca3e <__swbuf_r+0x62>
 800ca34:	89a3      	ldrh	r3, [r4, #12]
 800ca36:	07db      	lsls	r3, r3, #31
 800ca38:	d50f      	bpl.n	800ca5a <__swbuf_r+0x7e>
 800ca3a:	2d0a      	cmp	r5, #10
 800ca3c:	d10d      	bne.n	800ca5a <__swbuf_r+0x7e>
 800ca3e:	4621      	mov	r1, r4
 800ca40:	4630      	mov	r0, r6
 800ca42:	f7fd fe5b 	bl	800a6fc <_fflush_r>
 800ca46:	b140      	cbz	r0, 800ca5a <__swbuf_r+0x7e>
 800ca48:	e005      	b.n	800ca56 <__swbuf_r+0x7a>
 800ca4a:	4621      	mov	r1, r4
 800ca4c:	4630      	mov	r0, r6
 800ca4e:	f7fc ff29 	bl	80098a4 <__swsetup_r>
 800ca52:	2800      	cmp	r0, #0
 800ca54:	d0d2      	beq.n	800c9fc <__swbuf_r+0x20>
 800ca56:	f04f 37ff 	mov.w	r7, #4294967295
 800ca5a:	4638      	mov	r0, r7
 800ca5c:	bdf8      	pop	{r3, r4, r5, r6, r7, pc}
 800ca5e:	f443 5300 	orr.w	r3, r3, #8192	; 0x2000
 800ca62:	81a3      	strh	r3, [r4, #12]
 800ca64:	6e63      	ldr	r3, [r4, #100]	; 0x64
 800ca66:	f423 5300 	bic.w	r3, r3, #8192	; 0x2000
 800ca6a:	6663      	str	r3, [r4, #100]	; 0x64
 800ca6c:	e7cc      	b.n	800ca08 <__swbuf_r+0x2c>
	...

0800ca70 <_wcrtomb_r>:
 800ca70:	b5f0      	push	{r4, r5, r6, r7, lr}
 800ca72:	4c0f      	ldr	r4, [pc, #60]	; (800cab0 <_wcrtomb_r+0x40>)
 800ca74:	6824      	ldr	r4, [r4, #0]
 800ca76:	b085      	sub	sp, #20
 800ca78:	4605      	mov	r5, r0
 800ca7a:	461e      	mov	r6, r3
 800ca7c:	6b64      	ldr	r4, [r4, #52]	; 0x34
 800ca7e:	b981      	cbnz	r1, 800caa2 <_wcrtomb_r+0x32>
 800ca80:	4a0c      	ldr	r2, [pc, #48]	; (800cab4 <_wcrtomb_r+0x44>)
 800ca82:	2c00      	cmp	r4, #0
 800ca84:	bf08      	it	eq
 800ca86:	4614      	moveq	r4, r2
 800ca88:	460a      	mov	r2, r1
 800ca8a:	f8d4 40e0 	ldr.w	r4, [r4, #224]	; 0xe0
 800ca8e:	a901      	add	r1, sp, #4
 800ca90:	47a0      	blx	r4
 800ca92:	1c43      	adds	r3, r0, #1
 800ca94:	bf01      	itttt	eq
 800ca96:	2300      	moveq	r3, #0
 800ca98:	6033      	streq	r3, [r6, #0]
 800ca9a:	238a      	moveq	r3, #138	; 0x8a
 800ca9c:	602b      	streq	r3, [r5, #0]
 800ca9e:	b005      	add	sp, #20
 800caa0:	bdf0      	pop	{r4, r5, r6, r7, pc}
 800caa2:	4f04      	ldr	r7, [pc, #16]	; (800cab4 <_wcrtomb_r+0x44>)
 800caa4:	2c00      	cmp	r4, #0
 800caa6:	bf08      	it	eq
 800caa8:	463c      	moveq	r4, r7
 800caaa:	f8d4 40e0 	ldr.w	r4, [r4, #224]	; 0xe0
 800caae:	e7ef      	b.n	800ca90 <_wcrtomb_r+0x20>
 800cab0:	20000010 	.word	0x20000010
 800cab4:	20000444 	.word	0x20000444

0800cab8 <_init>:
 800cab8:	b5f8      	push	{r3, r4, r5, r6, r7, lr}
 800caba:	bf00      	nop
 800cabc:	bcf8      	pop	{r3, r4, r5, r6, r7}
 800cabe:	bc08      	pop	{r3}
 800cac0:	469e      	mov	lr, r3
 800cac2:	4770      	bx	lr

0800cac4 <_fini>:
 800cac4:	b5f8      	push	{r3, r4, r5, r6, r7, lr}
 800cac6:	bf00      	nop
 800cac8:	bcf8      	pop	{r3, r4, r5, r6, r7}
 800caca:	bc08      	pop	{r3}
 800cacc:	469e      	mov	lr, r3
 800cace:	4770      	bx	lr
