
motorcontrol.elf:     file format elf32-littlearm

Sections:
Idx Name          Size      VMA       LMA       File off  Algn
  0 .isr_vector   000001c4  08000000  08000000  00010000  2**0
                  CONTENTS, ALLOC, LOAD, READONLY, DATA
  1 .text         000084d4  080001d0  080001d0  000101d0  2**4
                  CONTENTS, ALLOC, LOAD, READONLY, CODE
  2 .rodata       00000630  080086a8  080086a8  000186a8  2**3
                  CONTENTS, ALLOC, LOAD, READONLY, DATA
  3 .ARM.extab    00000000  08008cd8  08008cd8  000209c0  2**0
                  CONTENTS
  4 .ARM          00000008  08008cd8  08008cd8  00018cd8  2**2
                  CONTENTS, ALLOC, LOAD, READONLY, DATA
  5 .preinit_array 00000000  08008ce0  08008ce0  000209c0  2**0
                  CONTENTS, ALLOC, LOAD, DATA
  6 .init_array   00000008  08008ce0  08008ce0  00018ce0  2**2
                  CONTENTS, ALLOC, LOAD, DATA
  7 .fini_array   00000004  08008ce8  08008ce8  00018ce8  2**2
                  CONTENTS, ALLOC, LOAD, DATA
  8 .data         000009c0  20000000  08008cec  00020000  2**3
                  CONTENTS, ALLOC, LOAD, DATA
  9 .bss          00000e04  200009c0  080096ac  000209c0  2**3
                  ALLOC
 10 ._user_heap_stack 00000604  200017c4  080096ac  000217c4  2**0
                  ALLOC
 11 .ARM.attributes 00000030  00000000  00000000  000209c0  2**0
                  CONTENTS, READONLY
 12 .comment      0000007b  00000000  00000000  000209f0  2**0
                  CONTENTS, READONLY
 13 .debug_frame  000012dc  00000000  00000000  00020a6c  2**2
                  CONTENTS, READONLY, DEBUGGING

Disassembly of section .text:

080001d0 <__do_global_dtors_aux>:
 80001d0:	b510      	push	{r4, lr}
 80001d2:	4c05      	ldr	r4, [pc, #20]	; (80001e8 <__do_global_dtors_aux+0x18>)
 80001d4:	7823      	ldrb	r3, [r4, #0]
 80001d6:	b933      	cbnz	r3, 80001e6 <__do_global_dtors_aux+0x16>
 80001d8:	4b04      	ldr	r3, [pc, #16]	; (80001ec <__do_global_dtors_aux+0x1c>)
 80001da:	b113      	cbz	r3, 80001e2 <__do_global_dtors_aux+0x12>
 80001dc:	4804      	ldr	r0, [pc, #16]	; (80001f0 <__do_global_dtors_aux+0x20>)
 80001de:	f3af 8000 	nop.w
 80001e2:	2301      	movs	r3, #1
 80001e4:	7023      	strb	r3, [r4, #0]
 80001e6:	bd10      	pop	{r4, pc}
 80001e8:	200009c0 	.word	0x200009c0
 80001ec:	00000000 	.word	0x00000000
 80001f0:	0800868c 	.word	0x0800868c

080001f4 <frame_dummy>:
 80001f4:	b508      	push	{r3, lr}
 80001f6:	4b03      	ldr	r3, [pc, #12]	; (8000204 <frame_dummy+0x10>)
 80001f8:	b11b      	cbz	r3, 8000202 <frame_dummy+0xe>
 80001fa:	4903      	ldr	r1, [pc, #12]	; (8000208 <frame_dummy+0x14>)
 80001fc:	4803      	ldr	r0, [pc, #12]	; (800020c <frame_dummy+0x18>)
 80001fe:	f3af 8000 	nop.w
 8000202:	bd08      	pop	{r3, pc}
 8000204:	00000000 	.word	0x00000000
 8000208:	200009c4 	.word	0x200009c4
 800020c:	0800868c 	.word	0x0800868c

08000210 <strlen>:
 8000210:	4603      	mov	r3, r0
 8000212:	f813 2b01 	ldrb.w	r2, [r3], #1
 8000216:	2a00      	cmp	r2, #0
 8000218:	d1fb      	bne.n	8000212 <strlen+0x2>
 800021a:	1a18      	subs	r0, r3, r0
 800021c:	3801      	subs	r0, #1
 800021e:	4770      	bx	lr

08000220 <memchr>:
 8000220:	f001 01ff 	and.w	r1, r1, #255	; 0xff
 8000224:	2a10      	cmp	r2, #16
 8000226:	db2b      	blt.n	8000280 <memchr+0x60>
 8000228:	f010 0f07 	tst.w	r0, #7
 800022c:	d008      	beq.n	8000240 <memchr+0x20>
 800022e:	f810 3b01 	ldrb.w	r3, [r0], #1
 8000232:	3a01      	subs	r2, #1
 8000234:	428b      	cmp	r3, r1
 8000236:	d02d      	beq.n	8000294 <memchr+0x74>
 8000238:	f010 0f07 	tst.w	r0, #7
 800023c:	b342      	cbz	r2, 8000290 <memchr+0x70>
 800023e:	d1f6      	bne.n	800022e <memchr+0xe>
 8000240:	b4f0      	push	{r4, r5, r6, r7}
 8000242:	ea41 2101 	orr.w	r1, r1, r1, lsl #8
 8000246:	ea41 4101 	orr.w	r1, r1, r1, lsl #16
 800024a:	f022 0407 	bic.w	r4, r2, #7
 800024e:	f07f 0700 	mvns.w	r7, #0
 8000252:	2300      	movs	r3, #0
 8000254:	e8f0 5602 	ldrd	r5, r6, [r0], #8
 8000258:	3c08      	subs	r4, #8
 800025a:	ea85 0501 	eor.w	r5, r5, r1
 800025e:	ea86 0601 	eor.w	r6, r6, r1
 8000262:	fa85 f547 	uadd8	r5, r5, r7
 8000266:	faa3 f587 	sel	r5, r3, r7
 800026a:	fa86 f647 	uadd8	r6, r6, r7
 800026e:	faa5 f687 	sel	r6, r5, r7
 8000272:	b98e      	cbnz	r6, 8000298 <memchr+0x78>
 8000274:	d1ee      	bne.n	8000254 <memchr+0x34>
 8000276:	bcf0      	pop	{r4, r5, r6, r7}
 8000278:	f001 01ff 	and.w	r1, r1, #255	; 0xff
 800027c:	f002 0207 	and.w	r2, r2, #7
 8000280:	b132      	cbz	r2, 8000290 <memchr+0x70>
 8000282:	f810 3b01 	ldrb.w	r3, [r0], #1
 8000286:	3a01      	subs	r2, #1
 8000288:	ea83 0301 	eor.w	r3, r3, r1
 800028c:	b113      	cbz	r3, 8000294 <memchr+0x74>
 800028e:	d1f8      	bne.n	8000282 <memchr+0x62>
 8000290:	2000      	movs	r0, #0
 8000292:	4770      	bx	lr
 8000294:	3801      	subs	r0, #1
 8000296:	4770      	bx	lr
 8000298:	2d00      	cmp	r5, #0
 800029a:	bf06      	itte	eq
 800029c:	4635      	moveq	r5, r6
 800029e:	3803      	subeq	r0, #3
 80002a0:	3807      	subne	r0, #7
 80002a2:	f015 0f01 	tst.w	r5, #1
 80002a6:	d107      	bne.n	80002b8 <memchr+0x98>
 80002a8:	3001      	adds	r0, #1
 80002aa:	f415 7f80 	tst.w	r5, #256	; 0x100
 80002ae:	bf02      	ittt	eq
 80002b0:	3001      	addeq	r0, #1
 80002b2:	f415 3fc0 	tsteq.w	r5, #98304	; 0x18000
 80002b6:	3001      	addeq	r0, #1
 80002b8:	bcf0      	pop	{r4, r5, r6, r7}
 80002ba:	3801      	subs	r0, #1
 80002bc:	4770      	bx	lr
 80002be:	bf00      	nop

080002c0 <__aeabi_drsub>:
 80002c0:	f081 4100 	eor.w	r1, r1, #2147483648	; 0x80000000
 80002c4:	e002      	b.n	80002cc <__adddf3>
 80002c6:	bf00      	nop

080002c8 <__aeabi_dsub>:
 80002c8:	f083 4300 	eor.w	r3, r3, #2147483648	; 0x80000000

080002cc <__adddf3>:
 80002cc:	b530      	push	{r4, r5, lr}
 80002ce:	ea4f 0441 	mov.w	r4, r1, lsl #1
 80002d2:	ea4f 0543 	mov.w	r5, r3, lsl #1
 80002d6:	ea94 0f05 	teq	r4, r5
 80002da:	bf08      	it	eq
 80002dc:	ea90 0f02 	teqeq	r0, r2
 80002e0:	bf1f      	itttt	ne
 80002e2:	ea54 0c00 	orrsne.w	ip, r4, r0
 80002e6:	ea55 0c02 	orrsne.w	ip, r5, r2
 80002ea:	ea7f 5c64 	mvnsne.w	ip, r4, asr #21
 80002ee:	ea7f 5c65 	mvnsne.w	ip, r5, asr #21
 80002f2:	f000 80e2 	beq.w	80004ba <__adddf3+0x1ee>
 80002f6:	ea4f 5454 	mov.w	r4, r4, lsr #21
 80002fa:	ebd4 5555 	rsbs	r5, r4, r5, lsr #21
 80002fe:	bfb8      	it	lt
 8000300:	426d      	neglt	r5, r5
 8000302:	dd0c      	ble.n	800031e <__adddf3+0x52>
 8000304:	442c      	add	r4, r5
 8000306:	ea80 0202 	eor.w	r2, r0, r2
 800030a:	ea81 0303 	eor.w	r3, r1, r3
 800030e:	ea82 0000 	eor.w	r0, r2, r0
 8000312:	ea83 0101 	eor.w	r1, r3, r1
 8000316:	ea80 0202 	eor.w	r2, r0, r2
 800031a:	ea81 0303 	eor.w	r3, r1, r3
 800031e:	2d36      	cmp	r5, #54	; 0x36
 8000320:	bf88      	it	hi
 8000322:	bd30      	pophi	{r4, r5, pc}
 8000324:	f011 4f00 	tst.w	r1, #2147483648	; 0x80000000
 8000328:	ea4f 3101 	mov.w	r1, r1, lsl #12
 800032c:	f44f 1c80 	mov.w	ip, #1048576	; 0x100000
 8000330:	ea4c 3111 	orr.w	r1, ip, r1, lsr #12
 8000334:	d002      	beq.n	800033c <__adddf3+0x70>
 8000336:	4240      	negs	r0, r0
 8000338:	eb61 0141 	sbc.w	r1, r1, r1, lsl #1
 800033c:	f013 4f00 	tst.w	r3, #2147483648	; 0x80000000
 8000340:	ea4f 3303 	mov.w	r3, r3, lsl #12
 8000344:	ea4c 3313 	orr.w	r3, ip, r3, lsr #12
 8000348:	d002      	beq.n	8000350 <__adddf3+0x84>
 800034a:	4252      	negs	r2, r2
 800034c:	eb63 0343 	sbc.w	r3, r3, r3, lsl #1
 8000350:	ea94 0f05 	teq	r4, r5
 8000354:	f000 80a7 	beq.w	80004a6 <__adddf3+0x1da>
 8000358:	f1a4 0401 	sub.w	r4, r4, #1
 800035c:	f1d5 0e20 	rsbs	lr, r5, #32
 8000360:	db0d      	blt.n	800037e <__adddf3+0xb2>
 8000362:	fa02 fc0e 	lsl.w	ip, r2, lr
 8000366:	fa22 f205 	lsr.w	r2, r2, r5
 800036a:	1880      	adds	r0, r0, r2
 800036c:	f141 0100 	adc.w	r1, r1, #0
 8000370:	fa03 f20e 	lsl.w	r2, r3, lr
 8000374:	1880      	adds	r0, r0, r2
 8000376:	fa43 f305 	asr.w	r3, r3, r5
 800037a:	4159      	adcs	r1, r3
 800037c:	e00e      	b.n	800039c <__adddf3+0xd0>
 800037e:	f1a5 0520 	sub.w	r5, r5, #32
 8000382:	f10e 0e20 	add.w	lr, lr, #32
 8000386:	2a01      	cmp	r2, #1
 8000388:	fa03 fc0e 	lsl.w	ip, r3, lr
 800038c:	bf28      	it	cs
 800038e:	f04c 0c02 	orrcs.w	ip, ip, #2
 8000392:	fa43 f305 	asr.w	r3, r3, r5
 8000396:	18c0      	adds	r0, r0, r3
 8000398:	eb51 71e3 	adcs.w	r1, r1, r3, asr #31
 800039c:	f001 4500 	and.w	r5, r1, #2147483648	; 0x80000000
 80003a0:	d507      	bpl.n	80003b2 <__adddf3+0xe6>
 80003a2:	f04f 0e00 	mov.w	lr, #0
 80003a6:	f1dc 0c00 	rsbs	ip, ip, #0
 80003aa:	eb7e 0000 	sbcs.w	r0, lr, r0
 80003ae:	eb6e 0101 	sbc.w	r1, lr, r1
 80003b2:	f5b1 1f80 	cmp.w	r1, #1048576	; 0x100000
 80003b6:	d31b      	bcc.n	80003f0 <__adddf3+0x124>
 80003b8:	f5b1 1f00 	cmp.w	r1, #2097152	; 0x200000
 80003bc:	d30c      	bcc.n	80003d8 <__adddf3+0x10c>
 80003be:	0849      	lsrs	r1, r1, #1
 80003c0:	ea5f 0030 	movs.w	r0, r0, rrx
 80003c4:	ea4f 0c3c 	mov.w	ip, ip, rrx
 80003c8:	f104 0401 	add.w	r4, r4, #1
 80003cc:	ea4f 5244 	mov.w	r2, r4, lsl #21
 80003d0:	f512 0f80 	cmn.w	r2, #4194304	; 0x400000
 80003d4:	f080 809a 	bcs.w	800050c <__adddf3+0x240>
 80003d8:	f1bc 4f00 	cmp.w	ip, #2147483648	; 0x80000000
 80003dc:	bf08      	it	eq
 80003de:	ea5f 0c50 	movseq.w	ip, r0, lsr #1
 80003e2:	f150 0000 	adcs.w	r0, r0, #0
 80003e6:	eb41 5104 	adc.w	r1, r1, r4, lsl #20
 80003ea:	ea41 0105 	orr.w	r1, r1, r5
 80003ee:	bd30      	pop	{r4, r5, pc}
 80003f0:	ea5f 0c4c 	movs.w	ip, ip, lsl #1
 80003f4:	4140      	adcs	r0, r0
 80003f6:	eb41 0101 	adc.w	r1, r1, r1
 80003fa:	f411 1f80 	tst.w	r1, #1048576	; 0x100000
 80003fe:	f1a4 0401 	sub.w	r4, r4, #1
 8000402:	d1e9      	bne.n	80003d8 <__adddf3+0x10c>
 8000404:	f091 0f00 	teq	r1, #0
 8000408:	bf04      	itt	eq
 800040a:	4601      	moveq	r1, r0
 800040c:	2000      	moveq	r0, #0
 800040e:	fab1 f381 	clz	r3, r1
 8000412:	bf08      	it	eq
 8000414:	3320      	addeq	r3, #32
 8000416:	f1a3 030b 	sub.w	r3, r3, #11
 800041a:	f1b3 0220 	subs.w	r2, r3, #32
 800041e:	da0c      	bge.n	800043a <__adddf3+0x16e>
 8000420:	320c      	adds	r2, #12
 8000422:	dd08      	ble.n	8000436 <__adddf3+0x16a>
 8000424:	f102 0c14 	add.w	ip, r2, #20
 8000428:	f1c2 020c 	rsb	r2, r2, #12
 800042c:	fa01 f00c 	lsl.w	r0, r1, ip
 8000430:	fa21 f102 	lsr.w	r1, r1, r2
 8000434:	e00c      	b.n	8000450 <__adddf3+0x184>
 8000436:	f102 0214 	add.w	r2, r2, #20
 800043a:	bfd8      	it	le
 800043c:	f1c2 0c20 	rsble	ip, r2, #32
 8000440:	fa01 f102 	lsl.w	r1, r1, r2
 8000444:	fa20 fc0c 	lsr.w	ip, r0, ip
 8000448:	bfdc      	itt	le
 800044a:	ea41 010c 	orrle.w	r1, r1, ip
 800044e:	4090      	lslle	r0, r2
 8000450:	1ae4      	subs	r4, r4, r3
 8000452:	bfa2      	ittt	ge
 8000454:	eb01 5104 	addge.w	r1, r1, r4, lsl #20
 8000458:	4329      	orrge	r1, r5
 800045a:	bd30      	popge	{r4, r5, pc}
 800045c:	ea6f 0404 	mvn.w	r4, r4
 8000460:	3c1f      	subs	r4, #31
 8000462:	da1c      	bge.n	800049e <__adddf3+0x1d2>
 8000464:	340c      	adds	r4, #12
 8000466:	dc0e      	bgt.n	8000486 <__adddf3+0x1ba>
 8000468:	f104 0414 	add.w	r4, r4, #20
 800046c:	f1c4 0220 	rsb	r2, r4, #32
 8000470:	fa20 f004 	lsr.w	r0, r0, r4
 8000474:	fa01 f302 	lsl.w	r3, r1, r2
 8000478:	ea40 0003 	orr.w	r0, r0, r3
 800047c:	fa21 f304 	lsr.w	r3, r1, r4
 8000480:	ea45 0103 	orr.w	r1, r5, r3
 8000484:	bd30      	pop	{r4, r5, pc}
 8000486:	f1c4 040c 	rsb	r4, r4, #12
 800048a:	f1c4 0220 	rsb	r2, r4, #32
 800048e:	fa20 f002 	lsr.w	r0, r0, r2
 8000492:	fa01 f304 	lsl.w	r3, r1, r4
 8000496:	ea40 0003 	orr.w	r0, r0, r3
 800049a:	4629      	mov	r1, r5
 800049c:	bd30      	pop	{r4, r5, pc}
 800049e:	fa21 f004 	lsr.w	r0, r1, r4
 80004a2:	4629      	mov	r1, r5
 80004a4:	bd30      	pop	{r4, r5, pc}
 80004a6:	f094 0f00 	teq	r4, #0
 80004aa:	f483 1380 	eor.w	r3, r3, #1048576	; 0x100000
 80004ae:	bf06      	itte	eq
 80004b0:	f481 1180 	eoreq.w	r1, r1, #1048576	; 0x100000
 80004b4:	3401      	addeq	r4, #1
 80004b6:	3d01      	subne	r5, #1
 80004b8:	e74e      	b.n	8000358 <__adddf3+0x8c>
 80004ba:	ea7f 5c64 	mvns.w	ip, r4, asr #21
 80004be:	bf18      	it	ne
 80004c0:	ea7f 5c65 	mvnsne.w	ip, r5, asr #21
 80004c4:	d029      	beq.n	800051a <__adddf3+0x24e>
 80004c6:	ea94 0f05 	teq	r4, r5
 80004ca:	bf08      	it	eq
 80004cc:	ea90 0f02 	teqeq	r0, r2
 80004d0:	d005      	beq.n	80004de <__adddf3+0x212>
 80004d2:	ea54 0c00 	orrs.w	ip, r4, r0
 80004d6:	bf04      	itt	eq
 80004d8:	4619      	moveq	r1, r3
 80004da:	4610      	moveq	r0, r2
 80004dc:	bd30      	pop	{r4, r5, pc}
 80004de:	ea91 0f03 	teq	r1, r3
 80004e2:	bf1e      	ittt	ne
 80004e4:	2100      	movne	r1, #0
 80004e6:	2000      	movne	r0, #0
 80004e8:	bd30      	popne	{r4, r5, pc}
 80004ea:	ea5f 5c54 	movs.w	ip, r4, lsr #21
 80004ee:	d105      	bne.n	80004fc <__adddf3+0x230>
 80004f0:	0040      	lsls	r0, r0, #1
 80004f2:	4149      	adcs	r1, r1
 80004f4:	bf28      	it	cs
 80004f6:	f041 4100 	orrcs.w	r1, r1, #2147483648	; 0x80000000
 80004fa:	bd30      	pop	{r4, r5, pc}
 80004fc:	f514 0480 	adds.w	r4, r4, #4194304	; 0x400000
 8000500:	bf3c      	itt	cc
 8000502:	f501 1180 	addcc.w	r1, r1, #1048576	; 0x100000
 8000506:	bd30      	popcc	{r4, r5, pc}
 8000508:	f001 4500 	and.w	r5, r1, #2147483648	; 0x80000000
 800050c:	f045 41fe 	orr.w	r1, r5, #2130706432	; 0x7f000000
 8000510:	f441 0170 	orr.w	r1, r1, #15728640	; 0xf00000
 8000514:	f04f 0000 	mov.w	r0, #0
 8000518:	bd30      	pop	{r4, r5, pc}
 800051a:	ea7f 5c64 	mvns.w	ip, r4, asr #21
 800051e:	bf1a      	itte	ne
 8000520:	4619      	movne	r1, r3
 8000522:	4610      	movne	r0, r2
 8000524:	ea7f 5c65 	mvnseq.w	ip, r5, asr #21
 8000528:	bf1c      	itt	ne
 800052a:	460b      	movne	r3, r1
 800052c:	4602      	movne	r2, r0
 800052e:	ea50 3401 	orrs.w	r4, r0, r1, lsl #12
 8000532:	bf06      	itte	eq
 8000534:	ea52 3503 	orrseq.w	r5, r2, r3, lsl #12
 8000538:	ea91 0f03 	teqeq	r1, r3
 800053c:	f441 2100 	orrne.w	r1, r1, #524288	; 0x80000
 8000540:	bd30      	pop	{r4, r5, pc}
 8000542:	bf00      	nop

08000544 <__aeabi_ui2d>:
 8000544:	f090 0f00 	teq	r0, #0
 8000548:	bf04      	itt	eq
 800054a:	2100      	moveq	r1, #0
 800054c:	4770      	bxeq	lr
 800054e:	b530      	push	{r4, r5, lr}
 8000550:	f44f 6480 	mov.w	r4, #1024	; 0x400
 8000554:	f104 0432 	add.w	r4, r4, #50	; 0x32
 8000558:	f04f 0500 	mov.w	r5, #0
 800055c:	f04f 0100 	mov.w	r1, #0
 8000560:	e750      	b.n	8000404 <__adddf3+0x138>
 8000562:	bf00      	nop

08000564 <__aeabi_i2d>:
 8000564:	f090 0f00 	teq	r0, #0
 8000568:	bf04      	itt	eq
 800056a:	2100      	moveq	r1, #0
 800056c:	4770      	bxeq	lr
 800056e:	b530      	push	{r4, r5, lr}
 8000570:	f44f 6480 	mov.w	r4, #1024	; 0x400
 8000574:	f104 0432 	add.w	r4, r4, #50	; 0x32
 8000578:	f010 4500 	ands.w	r5, r0, #2147483648	; 0x80000000
 800057c:	bf48      	it	mi
 800057e:	4240      	negmi	r0, r0
 8000580:	f04f 0100 	mov.w	r1, #0
 8000584:	e73e      	b.n	8000404 <__adddf3+0x138>
 8000586:	bf00      	nop

08000588 <__aeabi_f2d>:
 8000588:	0042      	lsls	r2, r0, #1
 800058a:	ea4f 01e2 	mov.w	r1, r2, asr #3
 800058e:	ea4f 0131 	mov.w	r1, r1, rrx
 8000592:	ea4f 7002 	mov.w	r0, r2, lsl #28
 8000596:	bf1f      	itttt	ne
 8000598:	f012 437f 	andsne.w	r3, r2, #4278190080	; 0xff000000
 800059c:	f093 4f7f 	teqne	r3, #4278190080	; 0xff000000
 80005a0:	f081 5160 	eorne.w	r1, r1, #939524096	; 0x38000000
 80005a4:	4770      	bxne	lr
 80005a6:	f032 427f 	bics.w	r2, r2, #4278190080	; 0xff000000
 80005aa:	bf08      	it	eq
 80005ac:	4770      	bxeq	lr
 80005ae:	f093 4f7f 	teq	r3, #4278190080	; 0xff000000
 80005b2:	bf04      	itt	eq
 80005b4:	f441 2100 	orreq.w	r1, r1, #524288	; 0x80000
 80005b8:	4770      	bxeq	lr
 80005ba:	b530      	push	{r4, r5, lr}
 80005bc:	f44f 7460 	mov.w	r4, #896	; 0x380
 80005c0:	f001 4500 	and.w	r5, r1, #2147483648	; 0x80000000
 80005c4:	f021 4100 	bic.w	r1, r1, #2147483648	; 0x80000000
 80005c8:	e71c      	b.n	8000404 <__adddf3+0x138>
 80005ca:	bf00      	nop

080005cc <__aeabi_ul2d>:
 80005cc:	ea50 0201 	orrs.w	r2, r0, r1
 80005d0:	bf08      	it	eq
 80005d2:	4770      	bxeq	lr
 80005d4:	b530      	push	{r4, r5, lr}
 80005d6:	f04f 0500 	mov.w	r5, #0
 80005da:	e00a      	b.n	80005f2 <__aeabi_l2d+0x16>

080005dc <__aeabi_l2d>:
 80005dc:	ea50 0201 	orrs.w	r2, r0, r1
 80005e0:	bf08      	it	eq
 80005e2:	4770      	bxeq	lr
 80005e4:	b530      	push	{r4, r5, lr}
 80005e6:	f011 4500 	ands.w	r5, r1, #2147483648	; 0x80000000
 80005ea:	d502      	bpl.n	80005f2 <__aeabi_l2d+0x16>
 80005ec:	4240      	negs	r0, r0
 80005ee:	eb61 0141 	sbc.w	r1, r1, r1, lsl #1
 80005f2:	f44f 6480 	mov.w	r4, #1024	; 0x400
 80005f6:	f104 0432 	add.w	r4, r4, #50	; 0x32
 80005fa:	ea5f 5c91 	movs.w	ip, r1, lsr #22
 80005fe:	f43f aed8 	beq.w	80003b2 <__adddf3+0xe6>
 8000602:	f04f 0203 	mov.w	r2, #3
 8000606:	ea5f 0cdc 	movs.w	ip, ip, lsr #3
 800060a:	bf18      	it	ne
 800060c:	3203      	addne	r2, #3
 800060e:	ea5f 0cdc 	movs.w	ip, ip, lsr #3
 8000612:	bf18      	it	ne
 8000614:	3203      	addne	r2, #3
 8000616:	eb02 02dc 	add.w	r2, r2, ip, lsr #3
 800061a:	f1c2 0320 	rsb	r3, r2, #32
 800061e:	fa00 fc03 	lsl.w	ip, r0, r3
 8000622:	fa20 f002 	lsr.w	r0, r0, r2
 8000626:	fa01 fe03 	lsl.w	lr, r1, r3
 800062a:	ea40 000e 	orr.w	r0, r0, lr
 800062e:	fa21 f102 	lsr.w	r1, r1, r2
 8000632:	4414      	add	r4, r2
 8000634:	e6bd      	b.n	80003b2 <__adddf3+0xe6>
 8000636:	bf00      	nop

08000638 <__aeabi_dmul>:
 8000638:	b570      	push	{r4, r5, r6, lr}
 800063a:	f04f 0cff 	mov.w	ip, #255	; 0xff
 800063e:	f44c 6ce0 	orr.w	ip, ip, #1792	; 0x700
 8000642:	ea1c 5411 	ands.w	r4, ip, r1, lsr #20
 8000646:	bf1d      	ittte	ne
 8000648:	ea1c 5513 	andsne.w	r5, ip, r3, lsr #20
 800064c:	ea94 0f0c 	teqne	r4, ip
 8000650:	ea95 0f0c 	teqne	r5, ip
 8000654:	f000 f8de 	bleq	8000814 <__aeabi_dmul+0x1dc>
 8000658:	442c      	add	r4, r5
 800065a:	ea81 0603 	eor.w	r6, r1, r3
 800065e:	ea21 514c 	bic.w	r1, r1, ip, lsl #21
 8000662:	ea23 534c 	bic.w	r3, r3, ip, lsl #21
 8000666:	ea50 3501 	orrs.w	r5, r0, r1, lsl #12
 800066a:	bf18      	it	ne
 800066c:	ea52 3503 	orrsne.w	r5, r2, r3, lsl #12
 8000670:	f441 1180 	orr.w	r1, r1, #1048576	; 0x100000
 8000674:	f443 1380 	orr.w	r3, r3, #1048576	; 0x100000
 8000678:	d038      	beq.n	80006ec <__aeabi_dmul+0xb4>
 800067a:	fba0 ce02 	umull	ip, lr, r0, r2
 800067e:	f04f 0500 	mov.w	r5, #0
 8000682:	fbe1 e502 	umlal	lr, r5, r1, r2
 8000686:	f006 4200 	and.w	r2, r6, #2147483648	; 0x80000000
 800068a:	fbe0 e503 	umlal	lr, r5, r0, r3
 800068e:	f04f 0600 	mov.w	r6, #0
 8000692:	fbe1 5603 	umlal	r5, r6, r1, r3
 8000696:	f09c 0f00 	teq	ip, #0
 800069a:	bf18      	it	ne
 800069c:	f04e 0e01 	orrne.w	lr, lr, #1
 80006a0:	f1a4 04ff 	sub.w	r4, r4, #255	; 0xff
 80006a4:	f5b6 7f00 	cmp.w	r6, #512	; 0x200
 80006a8:	f564 7440 	sbc.w	r4, r4, #768	; 0x300
 80006ac:	d204      	bcs.n	80006b8 <__aeabi_dmul+0x80>
 80006ae:	ea5f 0e4e 	movs.w	lr, lr, lsl #1
 80006b2:	416d      	adcs	r5, r5
 80006b4:	eb46 0606 	adc.w	r6, r6, r6
 80006b8:	ea42 21c6 	orr.w	r1, r2, r6, lsl #11
 80006bc:	ea41 5155 	orr.w	r1, r1, r5, lsr #21
 80006c0:	ea4f 20c5 	mov.w	r0, r5, lsl #11
 80006c4:	ea40 505e 	orr.w	r0, r0, lr, lsr #21
 80006c8:	ea4f 2ece 	mov.w	lr, lr, lsl #11
 80006cc:	f1b4 0cfd 	subs.w	ip, r4, #253	; 0xfd
 80006d0:	bf88      	it	hi
 80006d2:	f5bc 6fe0 	cmphi.w	ip, #1792	; 0x700
 80006d6:	d81e      	bhi.n	8000716 <__aeabi_dmul+0xde>
 80006d8:	f1be 4f00 	cmp.w	lr, #2147483648	; 0x80000000
 80006dc:	bf08      	it	eq
 80006de:	ea5f 0e50 	movseq.w	lr, r0, lsr #1
 80006e2:	f150 0000 	adcs.w	r0, r0, #0
 80006e6:	eb41 5104 	adc.w	r1, r1, r4, lsl #20
 80006ea:	bd70      	pop	{r4, r5, r6, pc}
 80006ec:	f006 4600 	and.w	r6, r6, #2147483648	; 0x80000000
 80006f0:	ea46 0101 	orr.w	r1, r6, r1
 80006f4:	ea40 0002 	orr.w	r0, r0, r2
 80006f8:	ea81 0103 	eor.w	r1, r1, r3
 80006fc:	ebb4 045c 	subs.w	r4, r4, ip, lsr #1
 8000700:	bfc2      	ittt	gt
 8000702:	ebd4 050c 	rsbsgt	r5, r4, ip
 8000706:	ea41 5104 	orrgt.w	r1, r1, r4, lsl #20
 800070a:	bd70      	popgt	{r4, r5, r6, pc}
 800070c:	f441 1180 	orr.w	r1, r1, #1048576	; 0x100000
 8000710:	f04f 0e00 	mov.w	lr, #0
 8000714:	3c01      	subs	r4, #1
 8000716:	f300 80ab 	bgt.w	8000870 <__aeabi_dmul+0x238>
 800071a:	f114 0f36 	cmn.w	r4, #54	; 0x36
 800071e:	bfde      	ittt	le
 8000720:	2000      	movle	r0, #0
 8000722:	f001 4100 	andle.w	r1, r1, #2147483648	; 0x80000000
 8000726:	bd70      	pople	{r4, r5, r6, pc}
 8000728:	f1c4 0400 	rsb	r4, r4, #0
 800072c:	3c20      	subs	r4, #32
 800072e:	da35      	bge.n	800079c <__aeabi_dmul+0x164>
 8000730:	340c      	adds	r4, #12
 8000732:	dc1b      	bgt.n	800076c <__aeabi_dmul+0x134>
 8000734:	f104 0414 	add.w	r4, r4, #20
 8000738:	f1c4 0520 	rsb	r5, r4, #32
 800073c:	fa00 f305 	lsl.w	r3, r0, r5
 8000740:	fa20 f004 	lsr.w	r0, r0, r4
 8000744:	fa01 f205 	lsl.w	r2, r1, r5
 8000748:	ea40 0002 	orr.w	r0, r0, r2
 800074c:	f001 4200 	and.w	r2, r1, #2147483648	; 0x80000000
 8000750:	f021 4100 	bic.w	r1, r1, #2147483648	; 0x80000000
 8000754:	eb10 70d3 	adds.w	r0, r0, r3, lsr #31
 8000758:	fa21 f604 	lsr.w	r6, r1, r4
 800075c:	eb42 0106 	adc.w	r1, r2, r6
 8000760:	ea5e 0e43 	orrs.w	lr, lr, r3, lsl #1
 8000764:	bf08      	it	eq
 8000766:	ea20 70d3 	biceq.w	r0, r0, r3, lsr #31
 800076a:	bd70      	pop	{r4, r5, r6, pc}
 800076c:	f1c4 040c 	rsb	r4, r4, #12
 8000770:	f1c4 0520 	rsb	r5, r4, #32
 8000774:	fa00 f304 	lsl.w	r3, r0, r4
 8000778:	fa20 f005 	lsr.w	r0, r0, r5
 800077c:	fa01 f204 	lsl.w	r2, r1, r4
 8000780:	ea40 0002 	orr.w	r0, r0, r2
 8000784:	f001 4100 	and.w	r1, r1, #2147483648	; 0x80000000
 8000788:	eb10 70d3 	adds.w	r0, r0, r3, lsr #31
 800078c:	f141 0100 	adc.w	r1, r1, #0
 8000790:	ea5e 0e43 	orrs.w	lr, lr, r3, lsl #1
 8000794:	bf08      	it	eq
 8000796:	ea20 70d3 	biceq.w	r0, r0, r3, lsr #31
 800079a:	bd70      	pop	{r4, r5, r6, pc}
 800079c:	f1c4 0520 	rsb	r5, r4, #32
 80007a0:	fa00 f205 	lsl.w	r2, r0, r5
 80007a4:	ea4e 0e02 	orr.w	lr, lr, r2
 80007a8:	fa20 f304 	lsr.w	r3, r0, r4
 80007ac:	fa01 f205 	lsl.w	r2, r1, r5
 80007b0:	ea43 0302 	orr.w	r3, r3, r2
 80007b4:	fa21 f004 	lsr.w	r0, r1, r4
 80007b8:	f001 4100 	and.w	r1, r1, #2147483648	; 0x80000000
 80007bc:	fa21 f204 	lsr.w	r2, r1, r4
 80007c0:	ea20 0002 	bic.w	r0, r0, r2
 80007c4:	eb00 70d3 	add.w	r0, r0, r3, lsr #31
 80007c8:	ea5e 0e43 	orrs.w	lr, lr, r3, lsl #1
 80007cc:	bf08      	it	eq
 80007ce:	ea20 70d3 	biceq.w	r0, r0, r3, lsr #31
 80007d2:	bd70      	pop	{r4, r5, r6, pc}
 80007d4:	f094 0f00 	teq	r4, #0
 80007d8:	d10f      	bne.n	80007fa <__aeabi_dmul+0x1c2>
 80007da:	f001 4600 	and.w	r6, r1, #2147483648	; 0x80000000
 80007de:	0040      	lsls	r0, r0, #1
 80007e0:	eb41 0101 	adc.w	r1, r1, r1
 80007e4:	f411 1f80 	tst.w	r1, #1048576	; 0x100000
 80007e8:	bf08      	it	eq
 80007ea:	3c01      	subeq	r4, #1
 80007ec:	d0f7      	beq.n	80007de <__aeabi_dmul+0x1a6>
 80007ee:	ea41 0106 	orr.w	r1, r1, r6
 80007f2:	f095 0f00 	teq	r5, #0
 80007f6:	bf18      	it	ne
 80007f8:	4770      	bxne	lr
 80007fa:	f003 4600 	and.w	r6, r3, #2147483648	; 0x80000000
 80007fe:	0052      	lsls	r2, r2, #1
 8000800:	eb43 0303 	adc.w	r3, r3, r3
 8000804:	f413 1f80 	tst.w	r3, #1048576	; 0x100000
 8000808:	bf08      	it	eq
 800080a:	3d01      	subeq	r5, #1
 800080c:	d0f7      	beq.n	80007fe <__aeabi_dmul+0x1c6>
 800080e:	ea43 0306 	orr.w	r3, r3, r6
 8000812:	4770      	bx	lr
 8000814:	ea94 0f0c 	teq	r4, ip
 8000818:	ea0c 5513 	and.w	r5, ip, r3, lsr #20
 800081c:	bf18      	it	ne
 800081e:	ea95 0f0c 	teqne	r5, ip
 8000822:	d00c      	beq.n	800083e <__aeabi_dmul+0x206>
 8000824:	ea50 0641 	orrs.w	r6, r0, r1, lsl #1
 8000828:	bf18      	it	ne
 800082a:	ea52 0643 	orrsne.w	r6, r2, r3, lsl #1
 800082e:	d1d1      	bne.n	80007d4 <__aeabi_dmul+0x19c>
 8000830:	ea81 0103 	eor.w	r1, r1, r3
 8000834:	f001 4100 	and.w	r1, r1, #2147483648	; 0x80000000
 8000838:	f04f 0000 	mov.w	r0, #0
 800083c:	bd70      	pop	{r4, r5, r6, pc}
 800083e:	ea50 0641 	orrs.w	r6, r0, r1, lsl #1
 8000842:	bf06      	itte	eq
 8000844:	4610      	moveq	r0, r2
 8000846:	4619      	moveq	r1, r3
 8000848:	ea52 0643 	orrsne.w	r6, r2, r3, lsl #1
 800084c:	d019      	beq.n	8000882 <__aeabi_dmul+0x24a>
 800084e:	ea94 0f0c 	teq	r4, ip
 8000852:	d102      	bne.n	800085a <__aeabi_dmul+0x222>
 8000854:	ea50 3601 	orrs.w	r6, r0, r1, lsl #12
 8000858:	d113      	bne.n	8000882 <__aeabi_dmul+0x24a>
 800085a:	ea95 0f0c 	teq	r5, ip
 800085e:	d105      	bne.n	800086c <__aeabi_dmul+0x234>
 8000860:	ea52 3603 	orrs.w	r6, r2, r3, lsl #12
 8000864:	bf1c      	itt	ne
 8000866:	4610      	movne	r0, r2
 8000868:	4619      	movne	r1, r3
 800086a:	d10a      	bne.n	8000882 <__aeabi_dmul+0x24a>
 800086c:	ea81 0103 	eor.w	r1, r1, r3
 8000870:	f001 4100 	and.w	r1, r1, #2147483648	; 0x80000000
 8000874:	f041 41fe 	orr.w	r1, r1, #2130706432	; 0x7f000000
 8000878:	f441 0170 	orr.w	r1, r1, #15728640	; 0xf00000
 800087c:	f04f 0000 	mov.w	r0, #0
 8000880:	bd70      	pop	{r4, r5, r6, pc}
 8000882:	f041 41fe 	orr.w	r1, r1, #2130706432	; 0x7f000000
 8000886:	f441 0178 	orr.w	r1, r1, #16252928	; 0xf80000
 800088a:	bd70      	pop	{r4, r5, r6, pc}

0800088c <__aeabi_ddiv>:
 800088c:	b570      	push	{r4, r5, r6, lr}
 800088e:	f04f 0cff 	mov.w	ip, #255	; 0xff
 8000892:	f44c 6ce0 	orr.w	ip, ip, #1792	; 0x700
 8000896:	ea1c 5411 	ands.w	r4, ip, r1, lsr #20
 800089a:	bf1d      	ittte	ne
 800089c:	ea1c 5513 	andsne.w	r5, ip, r3, lsr #20
 80008a0:	ea94 0f0c 	teqne	r4, ip
 80008a4:	ea95 0f0c 	teqne	r5, ip
 80008a8:	f000 f8a7 	bleq	80009fa <__aeabi_ddiv+0x16e>
 80008ac:	eba4 0405 	sub.w	r4, r4, r5
 80008b0:	ea81 0e03 	eor.w	lr, r1, r3
 80008b4:	ea52 3503 	orrs.w	r5, r2, r3, lsl #12
 80008b8:	ea4f 3101 	mov.w	r1, r1, lsl #12
 80008bc:	f000 8088 	beq.w	80009d0 <__aeabi_ddiv+0x144>
 80008c0:	ea4f 3303 	mov.w	r3, r3, lsl #12
 80008c4:	f04f 5580 	mov.w	r5, #268435456	; 0x10000000
 80008c8:	ea45 1313 	orr.w	r3, r5, r3, lsr #4
 80008cc:	ea43 6312 	orr.w	r3, r3, r2, lsr #24
 80008d0:	ea4f 2202 	mov.w	r2, r2, lsl #8
 80008d4:	ea45 1511 	orr.w	r5, r5, r1, lsr #4
 80008d8:	ea45 6510 	orr.w	r5, r5, r0, lsr #24
 80008dc:	ea4f 2600 	mov.w	r6, r0, lsl #8
 80008e0:	f00e 4100 	and.w	r1, lr, #2147483648	; 0x80000000
 80008e4:	429d      	cmp	r5, r3
 80008e6:	bf08      	it	eq
 80008e8:	4296      	cmpeq	r6, r2
 80008ea:	f144 04fd 	adc.w	r4, r4, #253	; 0xfd
 80008ee:	f504 7440 	add.w	r4, r4, #768	; 0x300
 80008f2:	d202      	bcs.n	80008fa <__aeabi_ddiv+0x6e>
 80008f4:	085b      	lsrs	r3, r3, #1
 80008f6:	ea4f 0232 	mov.w	r2, r2, rrx
 80008fa:	1ab6      	subs	r6, r6, r2
 80008fc:	eb65 0503 	sbc.w	r5, r5, r3
 8000900:	085b      	lsrs	r3, r3, #1
 8000902:	ea4f 0232 	mov.w	r2, r2, rrx
 8000906:	f44f 1080 	mov.w	r0, #1048576	; 0x100000
 800090a:	f44f 2c00 	mov.w	ip, #524288	; 0x80000
 800090e:	ebb6 0e02 	subs.w	lr, r6, r2
 8000912:	eb75 0e03 	sbcs.w	lr, r5, r3
 8000916:	bf22      	ittt	cs
 8000918:	1ab6      	subcs	r6, r6, r2
 800091a:	4675      	movcs	r5, lr
 800091c:	ea40 000c 	orrcs.w	r0, r0, ip
 8000920:	085b      	lsrs	r3, r3, #1
 8000922:	ea4f 0232 	mov.w	r2, r2, rrx
 8000926:	ebb6 0e02 	subs.w	lr, r6, r2
 800092a:	eb75 0e03 	sbcs.w	lr, r5, r3
 800092e:	bf22      	ittt	cs
 8000930:	1ab6      	subcs	r6, r6, r2
 8000932:	4675      	movcs	r5, lr
 8000934:	ea40 005c 	orrcs.w	r0, r0, ip, lsr #1
 8000938:	085b      	lsrs	r3, r3, #1
 800093a:	ea4f 0232 	mov.w	r2, r2, rrx
 800093e:	ebb6 0e02 	subs.w	lr, r6, r2
 8000942:	eb75 0e03 	sbcs.w	lr, r5, r3
 8000946:	bf22      	ittt	cs
 8000948:	1ab6      	subcs	r6, r6, r2
 800094a:	4675      	movcs	r5, lr
 800094c:	ea40 009c 	orrcs.w	r0, r0, ip, lsr #2
 8000950:	085b      	lsrs	r3, r3, #1
 8000952:	ea4f 0232 	mov.w	r2, r2, rrx
 8000956:	ebb6 0e02 	subs.w	lr, r6, r2
 800095a:	eb75 0e03 	sbcs.w	lr, r5, r3
 800095e:	bf22      	ittt	cs
 8000960:	1ab6      	subcs	r6, r6, r2
 8000962:	4675      	movcs	r5, lr
 8000964:	ea40 00dc 	orrcs.w	r0, r0, ip, lsr #3
 8000968:	ea55 0e06 	orrs.w	lr, r5, r6
 800096c:	d018      	beq.n	80009a0 <__aeabi_ddiv+0x114>
 800096e:	ea4f 1505 	mov.w	r5, r5, lsl #4
 8000972:	ea45 7516 	orr.w	r5, r5, r6, lsr #28
 8000976:	ea4f 1606 	mov.w	r6, r6, lsl #4
 800097a:	ea4f 03c3 	mov.w	r3, r3, lsl #3
 800097e:	ea43 7352 	orr.w	r3, r3, r2, lsr #29
 8000982:	ea4f 02c2 	mov.w	r2, r2, lsl #3
 8000986:	ea5f 1c1c 	movs.w	ip, ip, lsr #4
 800098a:	d1c0      	bne.n	800090e <__aeabi_ddiv+0x82>
 800098c:	f411 1f80 	tst.w	r1, #1048576	; 0x100000
 8000990:	d10b      	bne.n	80009aa <__aeabi_ddiv+0x11e>
 8000992:	ea41 0100 	orr.w	r1, r1, r0
 8000996:	f04f 0000 	mov.w	r0, #0
 800099a:	f04f 4c00 	mov.w	ip, #2147483648	; 0x80000000
 800099e:	e7b6      	b.n	800090e <__aeabi_ddiv+0x82>
 80009a0:	f411 1f80 	tst.w	r1, #1048576	; 0x100000
 80009a4:	bf04      	itt	eq
 80009a6:	4301      	orreq	r1, r0
 80009a8:	2000      	moveq	r0, #0
 80009aa:	f1b4 0cfd 	subs.w	ip, r4, #253	; 0xfd
 80009ae:	bf88      	it	hi
 80009b0:	f5bc 6fe0 	cmphi.w	ip, #1792	; 0x700
 80009b4:	f63f aeaf 	bhi.w	8000716 <__aeabi_dmul+0xde>
 80009b8:	ebb5 0c03 	subs.w	ip, r5, r3
 80009bc:	bf04      	itt	eq
 80009be:	ebb6 0c02 	subseq.w	ip, r6, r2
 80009c2:	ea5f 0c50 	movseq.w	ip, r0, lsr #1
 80009c6:	f150 0000 	adcs.w	r0, r0, #0
 80009ca:	eb41 5104 	adc.w	r1, r1, r4, lsl #20
 80009ce:	bd70      	pop	{r4, r5, r6, pc}
 80009d0:	f00e 4e00 	and.w	lr, lr, #2147483648	; 0x80000000
 80009d4:	ea4e 3111 	orr.w	r1, lr, r1, lsr #12
 80009d8:	eb14 045c 	adds.w	r4, r4, ip, lsr #1
 80009dc:	bfc2      	ittt	gt
 80009de:	ebd4 050c 	rsbsgt	r5, r4, ip
 80009e2:	ea41 5104 	orrgt.w	r1, r1, r4, lsl #20
 80009e6:	bd70      	popgt	{r4, r5, r6, pc}
 80009e8:	f441 1180 	orr.w	r1, r1, #1048576	; 0x100000
 80009ec:	f04f 0e00 	mov.w	lr, #0
 80009f0:	3c01      	subs	r4, #1
 80009f2:	e690      	b.n	8000716 <__aeabi_dmul+0xde>
 80009f4:	ea45 0e06 	orr.w	lr, r5, r6
 80009f8:	e68d      	b.n	8000716 <__aeabi_dmul+0xde>
 80009fa:	ea0c 5513 	and.w	r5, ip, r3, lsr #20
 80009fe:	ea94 0f0c 	teq	r4, ip
 8000a02:	bf08      	it	eq
 8000a04:	ea95 0f0c 	teqeq	r5, ip
 8000a08:	f43f af3b 	beq.w	8000882 <__aeabi_dmul+0x24a>
 8000a0c:	ea94 0f0c 	teq	r4, ip
 8000a10:	d10a      	bne.n	8000a28 <__aeabi_ddiv+0x19c>
 8000a12:	ea50 3401 	orrs.w	r4, r0, r1, lsl #12
 8000a16:	f47f af34 	bne.w	8000882 <__aeabi_dmul+0x24a>
 8000a1a:	ea95 0f0c 	teq	r5, ip
 8000a1e:	f47f af25 	bne.w	800086c <__aeabi_dmul+0x234>
 8000a22:	4610      	mov	r0, r2
 8000a24:	4619      	mov	r1, r3
 8000a26:	e72c      	b.n	8000882 <__aeabi_dmul+0x24a>
 8000a28:	ea95 0f0c 	teq	r5, ip
 8000a2c:	d106      	bne.n	8000a3c <__aeabi_ddiv+0x1b0>
 8000a2e:	ea52 3503 	orrs.w	r5, r2, r3, lsl #12
 8000a32:	f43f aefd 	beq.w	8000830 <__aeabi_dmul+0x1f8>
 8000a36:	4610      	mov	r0, r2
 8000a38:	4619      	mov	r1, r3
 8000a3a:	e722      	b.n	8000882 <__aeabi_dmul+0x24a>
 8000a3c:	ea50 0641 	orrs.w	r6, r0, r1, lsl #1
 8000a40:	bf18      	it	ne
 8000a42:	ea52 0643 	orrsne.w	r6, r2, r3, lsl #1
 8000a46:	f47f aec5 	bne.w	80007d4 <__aeabi_dmul+0x19c>
 8000a4a:	ea50 0441 	orrs.w	r4, r0, r1, lsl #1
 8000a4e:	f47f af0d 	bne.w	800086c <__aeabi_dmul+0x234>
 8000a52:	ea52 0543 	orrs.w	r5, r2, r3, lsl #1
 8000a56:	f47f aeeb 	bne.w	8000830 <__aeabi_dmul+0x1f8>
 8000a5a:	e712      	b.n	8000882 <__aeabi_dmul+0x24a>

08000a5c <__gedf2>:
 8000a5c:	f04f 3cff 	mov.w	ip, #4294967295
 8000a60:	e006      	b.n	8000a70 <__cmpdf2+0x4>
 8000a62:	bf00      	nop

08000a64 <__ledf2>:
 8000a64:	f04f 0c01 	mov.w	ip, #1
 8000a68:	e002      	b.n	8000a70 <__cmpdf2+0x4>
 8000a6a:	bf00      	nop

08000a6c <__cmpdf2>:
 8000a6c:	f04f 0c01 	mov.w	ip, #1
 8000a70:	f84d cd04 	str.w	ip, [sp, #-4]!
 8000a74:	ea4f 0c41 	mov.w	ip, r1, lsl #1
 8000a78:	ea7f 5c6c 	mvns.w	ip, ip, asr #21
 8000a7c:	ea4f 0c43 	mov.w	ip, r3, lsl #1
 8000a80:	bf18      	it	ne
 8000a82:	ea7f 5c6c 	mvnsne.w	ip, ip, asr #21
 8000a86:	d01b      	beq.n	8000ac0 <__cmpdf2+0x54>
 8000a88:	b001      	add	sp, #4
 8000a8a:	ea50 0c41 	orrs.w	ip, r0, r1, lsl #1
 8000a8e:	bf0c      	ite	eq
 8000a90:	ea52 0c43 	orrseq.w	ip, r2, r3, lsl #1
 8000a94:	ea91 0f03 	teqne	r1, r3
 8000a98:	bf02      	ittt	eq
 8000a9a:	ea90 0f02 	teqeq	r0, r2
 8000a9e:	2000      	moveq	r0, #0
 8000aa0:	4770      	bxeq	lr
 8000aa2:	f110 0f00 	cmn.w	r0, #0
 8000aa6:	ea91 0f03 	teq	r1, r3
 8000aaa:	bf58      	it	pl
 8000aac:	4299      	cmppl	r1, r3
 8000aae:	bf08      	it	eq
 8000ab0:	4290      	cmpeq	r0, r2
 8000ab2:	bf2c      	ite	cs
 8000ab4:	17d8      	asrcs	r0, r3, #31
 8000ab6:	ea6f 70e3 	mvncc.w	r0, r3, asr #31
 8000aba:	f040 0001 	orr.w	r0, r0, #1
 8000abe:	4770      	bx	lr
 8000ac0:	ea4f 0c41 	mov.w	ip, r1, lsl #1
 8000ac4:	ea7f 5c6c 	mvns.w	ip, ip, asr #21
 8000ac8:	d102      	bne.n	8000ad0 <__cmpdf2+0x64>
 8000aca:	ea50 3c01 	orrs.w	ip, r0, r1, lsl #12
 8000ace:	d107      	bne.n	8000ae0 <__cmpdf2+0x74>
 8000ad0:	ea4f 0c43 	mov.w	ip, r3, lsl #1
 8000ad4:	ea7f 5c6c 	mvns.w	ip, ip, asr #21
 8000ad8:	d1d6      	bne.n	8000a88 <__cmpdf2+0x1c>
 8000ada:	ea52 3c03 	orrs.w	ip, r2, r3, lsl #12
 8000ade:	d0d3      	beq.n	8000a88 <__cmpdf2+0x1c>
 8000ae0:	f85d 0b04 	ldr.w	r0, [sp], #4
 8000ae4:	4770      	bx	lr
 8000ae6:	bf00      	nop

08000ae8 <__aeabi_cdrcmple>:
 8000ae8:	4684      	mov	ip, r0
 8000aea:	4610      	mov	r0, r2
 8000aec:	4662      	mov	r2, ip
 8000aee:	468c      	mov	ip, r1
 8000af0:	4619      	mov	r1, r3
 8000af2:	4663      	mov	r3, ip
 8000af4:	e000      	b.n	8000af8 <__aeabi_cdcmpeq>
 8000af6:	bf00      	nop

08000af8 <__aeabi_cdcmpeq>:
 8000af8:	b501      	push	{r0, lr}
 8000afa:	f7ff ffb7 	bl	8000a6c <__cmpdf2>
 8000afe:	2800      	cmp	r0, #0
 8000b00:	bf48      	it	mi
 8000b02:	f110 0f00 	cmnmi.w	r0, #0
 8000b06:	bd01      	pop	{r0, pc}

08000b08 <__aeabi_dcmpeq>:
 8000b08:	f84d ed08 	str.w	lr, [sp, #-8]!
 8000b0c:	f7ff fff4 	bl	8000af8 <__aeabi_cdcmpeq>
 8000b10:	bf0c      	ite	eq
 8000b12:	2001      	moveq	r0, #1
 8000b14:	2000      	movne	r0, #0
 8000b16:	f85d fb08 	ldr.w	pc, [sp], #8
 8000b1a:	bf00      	nop

08000b1c <__aeabi_dcmplt>:
 8000b1c:	f84d ed08 	str.w	lr, [sp, #-8]!
 8000b20:	f7ff ffea 	bl	8000af8 <__aeabi_cdcmpeq>
 8000b24:	bf34      	ite	cc
 8000b26:	2001      	movcc	r0, #1
 8000b28:	2000      	movcs	r0, #0
 8000b2a:	f85d fb08 	ldr.w	pc, [sp], #8
 8000b2e:	bf00      	nop

08000b30 <__aeabi_dcmple>:
 8000b30:	f84d ed08 	str.w	lr, [sp, #-8]!
 8000b34:	f7ff ffe0 	bl	8000af8 <__aeabi_cdcmpeq>
 8000b38:	bf94      	ite	ls
 8000b3a:	2001      	movls	r0, #1
 8000b3c:	2000      	movhi	r0, #0
 8000b3e:	f85d fb08 	ldr.w	pc, [sp], #8
 8000b42:	bf00      	nop

08000b44 <__aeabi_dcmpge>:
 8000b44:	f84d ed08 	str.w	lr, [sp, #-8]!
 8000b48:	f7ff ffce 	bl	8000ae8 <__aeabi_cdrcmple>
 8000b4c:	bf94      	ite	ls
 8000b4e:	2001      	movls	r0, #1
 8000b50:	2000      	movhi	r0, #0
 8000b52:	f85d fb08 	ldr.w	pc, [sp], #8
 8000b56:	bf00      	nop

08000b58 <__aeabi_dcmpgt>:
 8000b58:	f84d ed08 	str.w	lr, [sp, #-8]!
 8000b5c:	f7ff ffc4 	bl	8000ae8 <__aeabi_cdrcmple>
 8000b60:	bf34      	ite	cc
 8000b62:	2001      	movcc	r0, #1
 8000b64:	2000      	movcs	r0, #0
 8000b66:	f85d fb08 	ldr.w	pc, [sp], #8
 8000b6a:	bf00      	nop

08000b6c <__aeabi_dcmpun>:
 8000b6c:	ea4f 0c41 	mov.w	ip, r1, lsl #1
 8000b70:	ea7f 5c6c 	mvns.w	ip, ip, asr #21
 8000b74:	d102      	bne.n	8000b7c <__aeabi_dcmpun+0x10>
 8000b76:	ea50 3c01 	orrs.w	ip, r0, r1, lsl #12
 8000b7a:	d10a      	bne.n	8000b92 <__aeabi_dcmpun+0x26>
 8000b7c:	ea4f 0c43 	mov.w	ip, r3, lsl #1
 8000b80:	ea7f 5c6c 	mvns.w	ip, ip, asr #21
 8000b84:	d102      	bne.n	8000b8c <__aeabi_dcmpun+0x20>
 8000b86:	ea52 3c03 	orrs.w	ip, r2, r3, lsl #12
 8000b8a:	d102      	bne.n	8000b92 <__aeabi_dcmpun+0x26>
 8000b8c:	f04f 0000 	mov.w	r0, #0
 8000b90:	4770      	bx	lr
 8000b92:	f04f 0001 	mov.w	r0, #1
 8000b96:	4770      	bx	lr

08000b98 <__aeabi_d2iz>:
 8000b98:	ea4f 0241 	mov.w	r2, r1, lsl #1
 8000b9c:	f512 1200 	adds.w	r2, r2, #2097152	; 0x200000
 8000ba0:	d215      	bcs.n	8000bce <__aeabi_d2iz+0x36>
 8000ba2:	d511      	bpl.n	8000bc8 <__aeabi_d2iz+0x30>
 8000ba4:	f46f 7378 	mvn.w	r3, #992	; 0x3e0
 8000ba8:	ebb3 5262 	subs.w	r2, r3, r2, asr #21
 8000bac:	d912      	bls.n	8000bd4 <__aeabi_d2iz+0x3c>
 8000bae:	ea4f 23c1 	mov.w	r3, r1, lsl #11
 8000bb2:	f043 4300 	orr.w	r3, r3, #2147483648	; 0x80000000
 8000bb6:	ea43 5350 	orr.w	r3, r3, r0, lsr #21
 8000bba:	f011 4f00 	tst.w	r1, #2147483648	; 0x80000000
 8000bbe:	fa23 f002 	lsr.w	r0, r3, r2
 8000bc2:	bf18      	it	ne
 8000bc4:	4240      	negne	r0, r0
 8000bc6:	4770      	bx	lr
 8000bc8:	f04f 0000 	mov.w	r0, #0
 8000bcc:	4770      	bx	lr
 8000bce:	ea50 3001 	orrs.w	r0, r0, r1, lsl #12
 8000bd2:	d105      	bne.n	8000be0 <__aeabi_d2iz+0x48>
 8000bd4:	f011 4000 	ands.w	r0, r1, #2147483648	; 0x80000000
 8000bd8:	bf08      	it	eq
 8000bda:	f06f 4000 	mvneq.w	r0, #2147483648	; 0x80000000
 8000bde:	4770      	bx	lr
 8000be0:	f04f 0000 	mov.w	r0, #0
 8000be4:	4770      	bx	lr
 8000be6:	bf00      	nop

08000be8 <__aeabi_d2f>:
 8000be8:	ea4f 0241 	mov.w	r2, r1, lsl #1
 8000bec:	f1b2 43e0 	subs.w	r3, r2, #1879048192	; 0x70000000
 8000bf0:	bf24      	itt	cs
 8000bf2:	f5b3 1c00 	subscs.w	ip, r3, #2097152	; 0x200000
 8000bf6:	f1dc 5cfe 	rsbscs	ip, ip, #532676608	; 0x1fc00000
 8000bfa:	d90d      	bls.n	8000c18 <__aeabi_d2f+0x30>
 8000bfc:	f001 4c00 	and.w	ip, r1, #2147483648	; 0x80000000
 8000c00:	ea4f 02c0 	mov.w	r2, r0, lsl #3
 8000c04:	ea4c 7050 	orr.w	r0, ip, r0, lsr #29
 8000c08:	f1b2 4f00 	cmp.w	r2, #2147483648	; 0x80000000
 8000c0c:	eb40 0083 	adc.w	r0, r0, r3, lsl #2
 8000c10:	bf08      	it	eq
 8000c12:	f020 0001 	biceq.w	r0, r0, #1
 8000c16:	4770      	bx	lr
 8000c18:	f011 4f80 	tst.w	r1, #1073741824	; 0x40000000
 8000c1c:	d121      	bne.n	8000c62 <__aeabi_d2f+0x7a>
 8000c1e:	f113 7238 	adds.w	r2, r3, #48234496	; 0x2e00000
 8000c22:	bfbc      	itt	lt
 8000c24:	f001 4000 	andlt.w	r0, r1, #2147483648	; 0x80000000
 8000c28:	4770      	bxlt	lr
 8000c2a:	f441 1180 	orr.w	r1, r1, #1048576	; 0x100000
 8000c2e:	ea4f 5252 	mov.w	r2, r2, lsr #21
 8000c32:	f1c2 0218 	rsb	r2, r2, #24
 8000c36:	f1c2 0c20 	rsb	ip, r2, #32
 8000c3a:	fa10 f30c 	lsls.w	r3, r0, ip
 8000c3e:	fa20 f002 	lsr.w	r0, r0, r2
 8000c42:	bf18      	it	ne
 8000c44:	f040 0001 	orrne.w	r0, r0, #1
 8000c48:	ea4f 23c1 	mov.w	r3, r1, lsl #11
 8000c4c:	ea4f 23d3 	mov.w	r3, r3, lsr #11
 8000c50:	fa03 fc0c 	lsl.w	ip, r3, ip
 8000c54:	ea40 000c 	orr.w	r0, r0, ip
 8000c58:	fa23 f302 	lsr.w	r3, r3, r2
 8000c5c:	ea4f 0343 	mov.w	r3, r3, lsl #1
 8000c60:	e7cc      	b.n	8000bfc <__aeabi_d2f+0x14>
 8000c62:	ea7f 5362 	mvns.w	r3, r2, asr #21
 8000c66:	d107      	bne.n	8000c78 <__aeabi_d2f+0x90>
 8000c68:	ea50 3301 	orrs.w	r3, r0, r1, lsl #12
 8000c6c:	bf1e      	ittt	ne
 8000c6e:	f04f 40fe 	movne.w	r0, #2130706432	; 0x7f000000
 8000c72:	f440 0040 	orrne.w	r0, r0, #12582912	; 0xc00000
 8000c76:	4770      	bxne	lr
 8000c78:	f001 4000 	and.w	r0, r1, #2147483648	; 0x80000000
 8000c7c:	f040 40fe 	orr.w	r0, r0, #2130706432	; 0x7f000000
 8000c80:	f440 0000 	orr.w	r0, r0, #8388608	; 0x800000
 8000c84:	4770      	bx	lr
 8000c86:	bf00      	nop

08000c88 <__aeabi_uldivmod>:
 8000c88:	b953      	cbnz	r3, 8000ca0 <__aeabi_uldivmod+0x18>
 8000c8a:	b94a      	cbnz	r2, 8000ca0 <__aeabi_uldivmod+0x18>
 8000c8c:	2900      	cmp	r1, #0
 8000c8e:	bf08      	it	eq
 8000c90:	2800      	cmpeq	r0, #0
 8000c92:	bf1c      	itt	ne
 8000c94:	f04f 31ff 	movne.w	r1, #4294967295
 8000c98:	f04f 30ff 	movne.w	r0, #4294967295
 8000c9c:	f000 b972 	b.w	8000f84 <__aeabi_idiv0>
 8000ca0:	f1ad 0c08 	sub.w	ip, sp, #8
 8000ca4:	e96d ce04 	strd	ip, lr, [sp, #-16]!
 8000ca8:	f000 f806 	bl	8000cb8 <__udivmoddi4>
 8000cac:	f8dd e004 	ldr.w	lr, [sp, #4]
 8000cb0:	e9dd 2302 	ldrd	r2, r3, [sp, #8]
 8000cb4:	b004      	add	sp, #16
 8000cb6:	4770      	bx	lr

08000cb8 <__udivmoddi4>:
 8000cb8:	e92d 47f0 	stmdb	sp!, {r4, r5, r6, r7, r8, r9, sl, lr}
 8000cbc:	9e08      	ldr	r6, [sp, #32]
 8000cbe:	4604      	mov	r4, r0
 8000cc0:	4688      	mov	r8, r1
 8000cc2:	2b00      	cmp	r3, #0
 8000cc4:	d14b      	bne.n	8000d5e <__udivmoddi4+0xa6>
 8000cc6:	428a      	cmp	r2, r1
 8000cc8:	4615      	mov	r5, r2
 8000cca:	d967      	bls.n	8000d9c <__udivmoddi4+0xe4>
 8000ccc:	fab2 f282 	clz	r2, r2
 8000cd0:	b14a      	cbz	r2, 8000ce6 <__udivmoddi4+0x2e>
 8000cd2:	f1c2 0720 	rsb	r7, r2, #32
 8000cd6:	fa01 f302 	lsl.w	r3, r1, r2
 8000cda:	fa20 f707 	lsr.w	r7, r0, r7
 8000cde:	4095      	lsls	r5, r2
 8000ce0:	ea47 0803 	orr.w	r8, r7, r3
 8000ce4:	4094      	lsls	r4, r2
 8000ce6:	ea4f 4e15 	mov.w	lr, r5, lsr #16
 8000cea:	0c23      	lsrs	r3, r4, #16
 8000cec:	fbb8 f7fe 	udiv	r7, r8, lr
 8000cf0:	fa1f fc85 	uxth.w	ip, r5
 8000cf4:	fb0e 8817 	mls	r8, lr, r7, r8
 8000cf8:	ea43 4308 	orr.w	r3, r3, r8, lsl #16
 8000cfc:	fb07 f10c 	mul.w	r1, r7, ip
 8000d00:	4299      	cmp	r1, r3
 8000d02:	d909      	bls.n	8000d18 <__udivmoddi4+0x60>
 8000d04:	18eb      	adds	r3, r5, r3
 8000d06:	f107 30ff 	add.w	r0, r7, #4294967295
 8000d0a:	f080 811b 	bcs.w	8000f44 <__udivmoddi4+0x28c>
 8000d0e:	4299      	cmp	r1, r3
 8000d10:	f240 8118 	bls.w	8000f44 <__udivmoddi4+0x28c>
 8000d14:	3f02      	subs	r7, #2
 8000d16:	442b      	add	r3, r5
 8000d18:	1a5b      	subs	r3, r3, r1
 8000d1a:	b2a4      	uxth	r4, r4
 8000d1c:	fbb3 f0fe 	udiv	r0, r3, lr
 8000d20:	fb0e 3310 	mls	r3, lr, r0, r3
 8000d24:	ea44 4403 	orr.w	r4, r4, r3, lsl #16
 8000d28:	fb00 fc0c 	mul.w	ip, r0, ip
 8000d2c:	45a4      	cmp	ip, r4
 8000d2e:	d909      	bls.n	8000d44 <__udivmoddi4+0x8c>
 8000d30:	192c      	adds	r4, r5, r4
 8000d32:	f100 33ff 	add.w	r3, r0, #4294967295
 8000d36:	f080 8107 	bcs.w	8000f48 <__udivmoddi4+0x290>
 8000d3a:	45a4      	cmp	ip, r4
 8000d3c:	f240 8104 	bls.w	8000f48 <__udivmoddi4+0x290>
 8000d40:	3802      	subs	r0, #2
 8000d42:	442c      	add	r4, r5
 8000d44:	ea40 4007 	orr.w	r0, r0, r7, lsl #16
 8000d48:	eba4 040c 	sub.w	r4, r4, ip
 8000d4c:	2700      	movs	r7, #0
 8000d4e:	b11e      	cbz	r6, 8000d58 <__udivmoddi4+0xa0>
 8000d50:	40d4      	lsrs	r4, r2
 8000d52:	2300      	movs	r3, #0
 8000d54:	e9c6 4300 	strd	r4, r3, [r6]
 8000d58:	4639      	mov	r1, r7
 8000d5a:	e8bd 87f0 	ldmia.w	sp!, {r4, r5, r6, r7, r8, r9, sl, pc}
 8000d5e:	428b      	cmp	r3, r1
 8000d60:	d909      	bls.n	8000d76 <__udivmoddi4+0xbe>
 8000d62:	2e00      	cmp	r6, #0
 8000d64:	f000 80eb 	beq.w	8000f3e <__udivmoddi4+0x286>
 8000d68:	2700      	movs	r7, #0
 8000d6a:	e9c6 0100 	strd	r0, r1, [r6]
 8000d6e:	4638      	mov	r0, r7
 8000d70:	4639      	mov	r1, r7
 8000d72:	e8bd 87f0 	ldmia.w	sp!, {r4, r5, r6, r7, r8, r9, sl, pc}
 8000d76:	fab3 f783 	clz	r7, r3
 8000d7a:	2f00      	cmp	r7, #0
 8000d7c:	d147      	bne.n	8000e0e <__udivmoddi4+0x156>
 8000d7e:	428b      	cmp	r3, r1
 8000d80:	d302      	bcc.n	8000d88 <__udivmoddi4+0xd0>
 8000d82:	4282      	cmp	r2, r0
 8000d84:	f200 80fa 	bhi.w	8000f7c <__udivmoddi4+0x2c4>
 8000d88:	1a84      	subs	r4, r0, r2
 8000d8a:	eb61 0303 	sbc.w	r3, r1, r3
 8000d8e:	2001      	movs	r0, #1
 8000d90:	4698      	mov	r8, r3
 8000d92:	2e00      	cmp	r6, #0
 8000d94:	d0e0      	beq.n	8000d58 <__udivmoddi4+0xa0>
 8000d96:	e9c6 4800 	strd	r4, r8, [r6]
 8000d9a:	e7dd      	b.n	8000d58 <__udivmoddi4+0xa0>
 8000d9c:	b902      	cbnz	r2, 8000da0 <__udivmoddi4+0xe8>
 8000d9e:	deff      	udf	#255	; 0xff
 8000da0:	fab2 f282 	clz	r2, r2
 8000da4:	2a00      	cmp	r2, #0
 8000da6:	f040 808f 	bne.w	8000ec8 <__udivmoddi4+0x210>
 8000daa:	1b49      	subs	r1, r1, r5
 8000dac:	ea4f 4e15 	mov.w	lr, r5, lsr #16
 8000db0:	fa1f f885 	uxth.w	r8, r5
 8000db4:	2701      	movs	r7, #1
 8000db6:	fbb1 fcfe 	udiv	ip, r1, lr
 8000dba:	0c23      	lsrs	r3, r4, #16
 8000dbc:	fb0e 111c 	mls	r1, lr, ip, r1
 8000dc0:	ea43 4301 	orr.w	r3, r3, r1, lsl #16
 8000dc4:	fb08 f10c 	mul.w	r1, r8, ip
 8000dc8:	4299      	cmp	r1, r3
 8000dca:	d907      	bls.n	8000ddc <__udivmoddi4+0x124>
 8000dcc:	18eb      	adds	r3, r5, r3
 8000dce:	f10c 30ff 	add.w	r0, ip, #4294967295
 8000dd2:	d202      	bcs.n	8000dda <__udivmoddi4+0x122>
 8000dd4:	4299      	cmp	r1, r3
 8000dd6:	f200 80cd 	bhi.w	8000f74 <__udivmoddi4+0x2bc>
 8000dda:	4684      	mov	ip, r0
 8000ddc:	1a59      	subs	r1, r3, r1
 8000dde:	b2a3      	uxth	r3, r4
 8000de0:	fbb1 f0fe 	udiv	r0, r1, lr
 8000de4:	fb0e 1410 	mls	r4, lr, r0, r1
 8000de8:	ea43 4404 	orr.w	r4, r3, r4, lsl #16
 8000dec:	fb08 f800 	mul.w	r8, r8, r0
 8000df0:	45a0      	cmp	r8, r4
 8000df2:	d907      	bls.n	8000e04 <__udivmoddi4+0x14c>
 8000df4:	192c      	adds	r4, r5, r4
 8000df6:	f100 33ff 	add.w	r3, r0, #4294967295
 8000dfa:	d202      	bcs.n	8000e02 <__udivmoddi4+0x14a>
 8000dfc:	45a0      	cmp	r8, r4
 8000dfe:	f200 80b6 	bhi.w	8000f6e <__udivmoddi4+0x2b6>
 8000e02:	4618      	mov	r0, r3
 8000e04:	eba4 0408 	sub.w	r4, r4, r8
 8000e08:	ea40 400c 	orr.w	r0, r0, ip, lsl #16
 8000e0c:	e79f      	b.n	8000d4e <__udivmoddi4+0x96>
 8000e0e:	f1c7 0c20 	rsb	ip, r7, #32
 8000e12:	40bb      	lsls	r3, r7
 8000e14:	fa22 fe0c 	lsr.w	lr, r2, ip
 8000e18:	ea4e 0e03 	orr.w	lr, lr, r3
 8000e1c:	fa01 f407 	lsl.w	r4, r1, r7
 8000e20:	fa20 f50c 	lsr.w	r5, r0, ip
 8000e24:	fa21 f30c 	lsr.w	r3, r1, ip
 8000e28:	ea4f 481e 	mov.w	r8, lr, lsr #16
 8000e2c:	4325      	orrs	r5, r4
 8000e2e:	fbb3 f9f8 	udiv	r9, r3, r8
 8000e32:	0c2c      	lsrs	r4, r5, #16
 8000e34:	fb08 3319 	mls	r3, r8, r9, r3
 8000e38:	fa1f fa8e 	uxth.w	sl, lr
 8000e3c:	ea44 4303 	orr.w	r3, r4, r3, lsl #16
 8000e40:	fb09 f40a 	mul.w	r4, r9, sl
 8000e44:	429c      	cmp	r4, r3
 8000e46:	fa02 f207 	lsl.w	r2, r2, r7
 8000e4a:	fa00 f107 	lsl.w	r1, r0, r7
 8000e4e:	d90b      	bls.n	8000e68 <__udivmoddi4+0x1b0>
 8000e50:	eb1e 0303 	adds.w	r3, lr, r3
 8000e54:	f109 30ff 	add.w	r0, r9, #4294967295
 8000e58:	f080 8087 	bcs.w	8000f6a <__udivmoddi4+0x2b2>
 8000e5c:	429c      	cmp	r4, r3
 8000e5e:	f240 8084 	bls.w	8000f6a <__udivmoddi4+0x2b2>
 8000e62:	f1a9 0902 	sub.w	r9, r9, #2
 8000e66:	4473      	add	r3, lr
 8000e68:	1b1b      	subs	r3, r3, r4
 8000e6a:	b2ad      	uxth	r5, r5
 8000e6c:	fbb3 f0f8 	udiv	r0, r3, r8
 8000e70:	fb08 3310 	mls	r3, r8, r0, r3
 8000e74:	ea45 4403 	orr.w	r4, r5, r3, lsl #16
 8000e78:	fb00 fa0a 	mul.w	sl, r0, sl
 8000e7c:	45a2      	cmp	sl, r4
 8000e7e:	d908      	bls.n	8000e92 <__udivmoddi4+0x1da>
 8000e80:	eb1e 0404 	adds.w	r4, lr, r4
 8000e84:	f100 33ff 	add.w	r3, r0, #4294967295
 8000e88:	d26b      	bcs.n	8000f62 <__udivmoddi4+0x2aa>
 8000e8a:	45a2      	cmp	sl, r4
 8000e8c:	d969      	bls.n	8000f62 <__udivmoddi4+0x2aa>
 8000e8e:	3802      	subs	r0, #2
 8000e90:	4474      	add	r4, lr
 8000e92:	ea40 4009 	orr.w	r0, r0, r9, lsl #16
 8000e96:	fba0 8902 	umull	r8, r9, r0, r2
 8000e9a:	eba4 040a 	sub.w	r4, r4, sl
 8000e9e:	454c      	cmp	r4, r9
 8000ea0:	46c2      	mov	sl, r8
 8000ea2:	464b      	mov	r3, r9
 8000ea4:	d354      	bcc.n	8000f50 <__udivmoddi4+0x298>
 8000ea6:	d051      	beq.n	8000f4c <__udivmoddi4+0x294>
 8000ea8:	2e00      	cmp	r6, #0
 8000eaa:	d069      	beq.n	8000f80 <__udivmoddi4+0x2c8>
 8000eac:	ebb1 050a 	subs.w	r5, r1, sl
 8000eb0:	eb64 0403 	sbc.w	r4, r4, r3
 8000eb4:	fa04 fc0c 	lsl.w	ip, r4, ip
 8000eb8:	40fd      	lsrs	r5, r7
 8000eba:	40fc      	lsrs	r4, r7
 8000ebc:	ea4c 0505 	orr.w	r5, ip, r5
 8000ec0:	e9c6 5400 	strd	r5, r4, [r6]
 8000ec4:	2700      	movs	r7, #0
 8000ec6:	e747      	b.n	8000d58 <__udivmoddi4+0xa0>
 8000ec8:	f1c2 0320 	rsb	r3, r2, #32
 8000ecc:	fa20 f703 	lsr.w	r7, r0, r3
 8000ed0:	4095      	lsls	r5, r2
 8000ed2:	fa01 f002 	lsl.w	r0, r1, r2
 8000ed6:	fa21 f303 	lsr.w	r3, r1, r3
 8000eda:	ea4f 4e15 	mov.w	lr, r5, lsr #16
 8000ede:	4338      	orrs	r0, r7
 8000ee0:	0c01      	lsrs	r1, r0, #16
 8000ee2:	fbb3 f7fe 	udiv	r7, r3, lr
 8000ee6:	fa1f f885 	uxth.w	r8, r5
 8000eea:	fb0e 3317 	mls	r3, lr, r7, r3
 8000eee:	ea41 4103 	orr.w	r1, r1, r3, lsl #16
 8000ef2:	fb07 f308 	mul.w	r3, r7, r8
 8000ef6:	428b      	cmp	r3, r1
 8000ef8:	fa04 f402 	lsl.w	r4, r4, r2
 8000efc:	d907      	bls.n	8000f0e <__udivmoddi4+0x256>
 8000efe:	1869      	adds	r1, r5, r1
 8000f00:	f107 3cff 	add.w	ip, r7, #4294967295
 8000f04:	d22f      	bcs.n	8000f66 <__udivmoddi4+0x2ae>
 8000f06:	428b      	cmp	r3, r1
 8000f08:	d92d      	bls.n	8000f66 <__udivmoddi4+0x2ae>
 8000f0a:	3f02      	subs	r7, #2
 8000f0c:	4429      	add	r1, r5
 8000f0e:	1acb      	subs	r3, r1, r3
 8000f10:	b281      	uxth	r1, r0
 8000f12:	fbb3 f0fe 	udiv	r0, r3, lr
 8000f16:	fb0e 3310 	mls	r3, lr, r0, r3
 8000f1a:	ea41 4103 	orr.w	r1, r1, r3, lsl #16
 8000f1e:	fb00 f308 	mul.w	r3, r0, r8
 8000f22:	428b      	cmp	r3, r1
 8000f24:	d907      	bls.n	8000f36 <__udivmoddi4+0x27e>
 8000f26:	1869      	adds	r1, r5, r1
 8000f28:	f100 3cff 	add.w	ip, r0, #4294967295
 8000f2c:	d217      	bcs.n	8000f5e <__udivmoddi4+0x2a6>
 8000f2e:	428b      	cmp	r3, r1
 8000f30:	d915      	bls.n	8000f5e <__udivmoddi4+0x2a6>
 8000f32:	3802      	subs	r0, #2
 8000f34:	4429      	add	r1, r5
 8000f36:	1ac9      	subs	r1, r1, r3
 8000f38:	ea40 4707 	orr.w	r7, r0, r7, lsl #16
 8000f3c:	e73b      	b.n	8000db6 <__udivmoddi4+0xfe>
 8000f3e:	4637      	mov	r7, r6
 8000f40:	4630      	mov	r0, r6
 8000f42:	e709      	b.n	8000d58 <__udivmoddi4+0xa0>
 8000f44:	4607      	mov	r7, r0
 8000f46:	e6e7      	b.n	8000d18 <__udivmoddi4+0x60>
 8000f48:	4618      	mov	r0, r3
 8000f4a:	e6fb      	b.n	8000d44 <__udivmoddi4+0x8c>
 8000f4c:	4541      	cmp	r1, r8
 8000f4e:	d2ab      	bcs.n	8000ea8 <__udivmoddi4+0x1f0>
 8000f50:	ebb8 0a02 	subs.w	sl, r8, r2
 8000f54:	eb69 020e 	sbc.w	r2, r9, lr
 8000f58:	3801      	subs	r0, #1
 8000f5a:	4613      	mov	r3, r2
 8000f5c:	e7a4      	b.n	8000ea8 <__udivmoddi4+0x1f0>
 8000f5e:	4660      	mov	r0, ip
 8000f60:	e7e9      	b.n	8000f36 <__udivmoddi4+0x27e>
 8000f62:	4618      	mov	r0, r3
 8000f64:	e795      	b.n	8000e92 <__udivmoddi4+0x1da>
 8000f66:	4667      	mov	r7, ip
 8000f68:	e7d1      	b.n	8000f0e <__udivmoddi4+0x256>
 8000f6a:	4681      	mov	r9, r0
 8000f6c:	e77c      	b.n	8000e68 <__udivmoddi4+0x1b0>
 8000f6e:	3802      	subs	r0, #2
 8000f70:	442c      	add	r4, r5
 8000f72:	e747      	b.n	8000e04 <__udivmoddi4+0x14c>
 8000f74:	f1ac 0c02 	sub.w	ip, ip, #2
 8000f78:	442b      	add	r3, r5
 8000f7a:	e72f      	b.n	8000ddc <__udivmoddi4+0x124>
 8000f7c:	4638      	mov	r0, r7
 8000f7e:	e708      	b.n	8000d92 <__udivmoddi4+0xda>
 8000f80:	4637      	mov	r7, r6
 8000f82:	e6e9      	b.n	8000d58 <__udivmoddi4+0xa0>

08000f84 <__aeabi_idiv0>:
 8000f84:	4770      	bx	lr
 8000f86:	bf00      	nop

08000f88 <MX_ADC1_Init>:
 8000f88:	b510      	push	{r4, lr}
 8000f8a:	2210      	movs	r2, #16
 8000f8c:	2400      	movs	r4, #0
 8000f8e:	b088      	sub	sp, #32
 8000f90:	4621      	mov	r1, r4
 8000f92:	eb0d 0002 	add.w	r0, sp, r2
 8000f96:	e9cd 4401 	strd	r4, r4, [sp, #4]
 8000f9a:	9403      	str	r4, [sp, #12]
 8000f9c:	f003 fbcc 	bl	8004738 <memset>
 8000fa0:	4819      	ldr	r0, [pc, #100]	; (8001008 <MX_ADC1_Init+0x80>)
 8000fa2:	491a      	ldr	r1, [pc, #104]	; (800100c <MX_ADC1_Init+0x84>)
 8000fa4:	6084      	str	r4, [r0, #8]
 8000fa6:	f44f 3380 	mov.w	r3, #65536	; 0x10000
 8000faa:	e9c0 1300 	strd	r1, r3, [r0]
 8000fae:	f04f 5380 	mov.w	r3, #268435456	; 0x10000000
 8000fb2:	e9c0 430a 	strd	r4, r3, [r0, #40]	; 0x28
 8000fb6:	2301      	movs	r3, #1
 8000fb8:	6104      	str	r4, [r0, #16]
 8000fba:	7604      	strb	r4, [r0, #24]
 8000fbc:	f880 4020 	strb.w	r4, [r0, #32]
 8000fc0:	60c4      	str	r4, [r0, #12]
 8000fc2:	61c3      	str	r3, [r0, #28]
 8000fc4:	f880 4030 	strb.w	r4, [r0, #48]	; 0x30
 8000fc8:	6143      	str	r3, [r0, #20]
 8000fca:	f001 fb73 	bl	80026b4 <HAL_ADC_Init>
 8000fce:	b108      	cbz	r0, 8000fd4 <MX_ADC1_Init+0x4c>
 8000fd0:	f000 ff00 	bl	8001dd4 <Error_Handler>
 8000fd4:	2316      	movs	r3, #22
 8000fd6:	a901      	add	r1, sp, #4
 8000fd8:	480b      	ldr	r0, [pc, #44]	; (8001008 <MX_ADC1_Init+0x80>)
 8000fda:	9403      	str	r4, [sp, #12]
 8000fdc:	e9cd 3401 	strd	r3, r4, [sp, #4]
 8000fe0:	f001 fcac 	bl	800293c <HAL_ADCEx_MultiModeConfigChannel>
 8000fe4:	b108      	cbz	r0, 8000fea <MX_ADC1_Init+0x62>
 8000fe6:	f000 fef5 	bl	8001dd4 <Error_Handler>
 8000fea:	2301      	movs	r3, #1
 8000fec:	220a      	movs	r2, #10
 8000fee:	e9cd 2304 	strd	r2, r3, [sp, #16]
 8000ff2:	a904      	add	r1, sp, #16
 8000ff4:	2300      	movs	r3, #0
 8000ff6:	4804      	ldr	r0, [pc, #16]	; (8001008 <MX_ADC1_Init+0x80>)
 8000ff8:	9306      	str	r3, [sp, #24]
 8000ffa:	f001 fc01 	bl	8002800 <HAL_ADC_ConfigChannel>
 8000ffe:	b108      	cbz	r0, 8001004 <MX_ADC1_Init+0x7c>
 8001000:	f000 fee8 	bl	8001dd4 <Error_Handler>
 8001004:	b008      	add	sp, #32
 8001006:	bd10      	pop	{r4, pc}
 8001008:	20000a5c 	.word	0x20000a5c
 800100c:	40012000 	.word	0x40012000

08001010 <MX_ADC2_Init>:
 8001010:	b51f      	push	{r0, r1, r2, r3, r4, lr}
 8001012:	2210      	movs	r2, #16
 8001014:	2100      	movs	r1, #0
 8001016:	4668      	mov	r0, sp
 8001018:	f003 fb8e 	bl	8004738 <memset>
 800101c:	4812      	ldr	r0, [pc, #72]	; (8001068 <MX_ADC2_Init+0x58>)
 800101e:	4a13      	ldr	r2, [pc, #76]	; (800106c <MX_ADC2_Init+0x5c>)
 8001020:	f44f 3380 	mov.w	r3, #65536	; 0x10000
 8001024:	2401      	movs	r4, #1
 8001026:	e9c0 2300 	strd	r2, r3, [r0]
 800102a:	2300      	movs	r3, #0
 800102c:	6083      	str	r3, [r0, #8]
 800102e:	6103      	str	r3, [r0, #16]
 8001030:	7603      	strb	r3, [r0, #24]
 8001032:	f880 3020 	strb.w	r3, [r0, #32]
 8001036:	60c3      	str	r3, [r0, #12]
 8001038:	61c4      	str	r4, [r0, #28]
 800103a:	f880 3030 	strb.w	r3, [r0, #48]	; 0x30
 800103e:	6144      	str	r4, [r0, #20]
 8001040:	f001 fb38 	bl	80026b4 <HAL_ADC_Init>
 8001044:	b108      	cbz	r0, 800104a <MX_ADC2_Init+0x3a>
 8001046:	f000 fec5 	bl	8001dd4 <Error_Handler>
 800104a:	230b      	movs	r3, #11
 800104c:	e9cd 3400 	strd	r3, r4, [sp]
 8001050:	4669      	mov	r1, sp
 8001052:	2300      	movs	r3, #0
 8001054:	4804      	ldr	r0, [pc, #16]	; (8001068 <MX_ADC2_Init+0x58>)
 8001056:	9302      	str	r3, [sp, #8]
 8001058:	f001 fbd2 	bl	8002800 <HAL_ADC_ConfigChannel>
 800105c:	b108      	cbz	r0, 8001062 <MX_ADC2_Init+0x52>
 800105e:	f000 feb9 	bl	8001dd4 <Error_Handler>
 8001062:	b004      	add	sp, #16
 8001064:	bd10      	pop	{r4, pc}
 8001066:	bf00      	nop
 8001068:	20000a14 	.word	0x20000a14
 800106c:	40012100 	.word	0x40012100

08001070 <MX_ADC3_Init>:
 8001070:	b51f      	push	{r0, r1, r2, r3, r4, lr}
 8001072:	2210      	movs	r2, #16
 8001074:	2100      	movs	r1, #0
 8001076:	4668      	mov	r0, sp
 8001078:	f003 fb5e 	bl	8004738 <memset>
 800107c:	4812      	ldr	r0, [pc, #72]	; (80010c8 <MX_ADC3_Init+0x58>)
 800107e:	4a13      	ldr	r2, [pc, #76]	; (80010cc <MX_ADC3_Init+0x5c>)
 8001080:	f44f 3380 	mov.w	r3, #65536	; 0x10000
 8001084:	2401      	movs	r4, #1
 8001086:	e9c0 2300 	strd	r2, r3, [r0]
 800108a:	2300      	movs	r3, #0
 800108c:	6083      	str	r3, [r0, #8]
 800108e:	6103      	str	r3, [r0, #16]
 8001090:	7603      	strb	r3, [r0, #24]
 8001092:	f880 3020 	strb.w	r3, [r0, #32]
 8001096:	60c3      	str	r3, [r0, #12]
 8001098:	61c4      	str	r4, [r0, #28]
 800109a:	f880 3030 	strb.w	r3, [r0, #48]	; 0x30
 800109e:	6144      	str	r4, [r0, #20]
 80010a0:	f001 fb08 	bl	80026b4 <HAL_ADC_Init>
 80010a4:	b108      	cbz	r0, 80010aa <MX_ADC3_Init+0x3a>
 80010a6:	f000 fe95 	bl	8001dd4 <Error_Handler>
 80010aa:	230c      	movs	r3, #12
 80010ac:	e9cd 3400 	strd	r3, r4, [sp]
 80010b0:	4669      	mov	r1, sp
 80010b2:	2300      	movs	r3, #0
 80010b4:	4804      	ldr	r0, [pc, #16]	; (80010c8 <MX_ADC3_Init+0x58>)
 80010b6:	9302      	str	r3, [sp, #8]
 80010b8:	f001 fba2 	bl	8002800 <HAL_ADC_ConfigChannel>
 80010bc:	b108      	cbz	r0, 80010c2 <MX_ADC3_Init+0x52>
 80010be:	f000 fe89 	bl	8001dd4 <Error_Handler>
 80010c2:	b004      	add	sp, #16
 80010c4:	bd10      	pop	{r4, pc}
 80010c6:	bf00      	nop
 80010c8:	20000aa4 	.word	0x20000aa4
 80010cc:	40012200 	.word	0x40012200

080010d0 <HAL_ADC_MspInit>:
 80010d0:	b510      	push	{r4, lr}
 80010d2:	4604      	mov	r4, r0
 80010d4:	b08c      	sub	sp, #48	; 0x30
 80010d6:	2214      	movs	r2, #20
 80010d8:	2100      	movs	r1, #0
 80010da:	a807      	add	r0, sp, #28
 80010dc:	f003 fb2c 	bl	8004738 <memset>
 80010e0:	6823      	ldr	r3, [r4, #0]
 80010e2:	4a2c      	ldr	r2, [pc, #176]	; (8001194 <HAL_ADC_MspInit+0xc4>)
 80010e4:	4293      	cmp	r3, r2
 80010e6:	d11f      	bne.n	8001128 <HAL_ADC_MspInit+0x58>
 80010e8:	4b2b      	ldr	r3, [pc, #172]	; (8001198 <HAL_ADC_MspInit+0xc8>)
 80010ea:	2100      	movs	r1, #0
 80010ec:	9101      	str	r1, [sp, #4]
 80010ee:	6c5a      	ldr	r2, [r3, #68]	; 0x44
 80010f0:	f442 7280 	orr.w	r2, r2, #256	; 0x100
 80010f4:	645a      	str	r2, [r3, #68]	; 0x44
 80010f6:	6c5a      	ldr	r2, [r3, #68]	; 0x44
 80010f8:	f402 7280 	and.w	r2, r2, #256	; 0x100
 80010fc:	9201      	str	r2, [sp, #4]
 80010fe:	9a01      	ldr	r2, [sp, #4]
 8001100:	9102      	str	r1, [sp, #8]
 8001102:	6b1a      	ldr	r2, [r3, #48]	; 0x30
 8001104:	f042 0204 	orr.w	r2, r2, #4
 8001108:	631a      	str	r2, [r3, #48]	; 0x30
 800110a:	6b1b      	ldr	r3, [r3, #48]	; 0x30
 800110c:	f003 0304 	and.w	r3, r3, #4
 8001110:	9302      	str	r3, [sp, #8]
 8001112:	9b02      	ldr	r3, [sp, #8]
 8001114:	2301      	movs	r3, #1
 8001116:	9307      	str	r3, [sp, #28]
 8001118:	a907      	add	r1, sp, #28
 800111a:	2303      	movs	r3, #3
 800111c:	481f      	ldr	r0, [pc, #124]	; (800119c <HAL_ADC_MspInit+0xcc>)
 800111e:	9308      	str	r3, [sp, #32]
 8001120:	f001 fe36 	bl	8002d90 <HAL_GPIO_Init>
 8001124:	b00c      	add	sp, #48	; 0x30
 8001126:	bd10      	pop	{r4, pc}
 8001128:	4a1d      	ldr	r2, [pc, #116]	; (80011a0 <HAL_ADC_MspInit+0xd0>)
 800112a:	4293      	cmp	r3, r2
 800112c:	d117      	bne.n	800115e <HAL_ADC_MspInit+0x8e>
 800112e:	4b1a      	ldr	r3, [pc, #104]	; (8001198 <HAL_ADC_MspInit+0xc8>)
 8001130:	2100      	movs	r1, #0
 8001132:	9103      	str	r1, [sp, #12]
 8001134:	6c5a      	ldr	r2, [r3, #68]	; 0x44
 8001136:	f442 7200 	orr.w	r2, r2, #512	; 0x200
 800113a:	645a      	str	r2, [r3, #68]	; 0x44
 800113c:	6c5a      	ldr	r2, [r3, #68]	; 0x44
 800113e:	f402 7200 	and.w	r2, r2, #512	; 0x200
 8001142:	9203      	str	r2, [sp, #12]
 8001144:	9a03      	ldr	r2, [sp, #12]
 8001146:	9104      	str	r1, [sp, #16]
 8001148:	6b1a      	ldr	r2, [r3, #48]	; 0x30
 800114a:	f042 0204 	orr.w	r2, r2, #4
 800114e:	631a      	str	r2, [r3, #48]	; 0x30
 8001150:	6b1b      	ldr	r3, [r3, #48]	; 0x30
 8001152:	f003 0304 	and.w	r3, r3, #4
 8001156:	9304      	str	r3, [sp, #16]
 8001158:	9b04      	ldr	r3, [sp, #16]
 800115a:	2302      	movs	r3, #2
 800115c:	e7db      	b.n	8001116 <HAL_ADC_MspInit+0x46>
 800115e:	4a11      	ldr	r2, [pc, #68]	; (80011a4 <HAL_ADC_MspInit+0xd4>)
 8001160:	4293      	cmp	r3, r2
 8001162:	d1df      	bne.n	8001124 <HAL_ADC_MspInit+0x54>
 8001164:	4b0c      	ldr	r3, [pc, #48]	; (8001198 <HAL_ADC_MspInit+0xc8>)
 8001166:	2100      	movs	r1, #0
 8001168:	9105      	str	r1, [sp, #20]
 800116a:	6c5a      	ldr	r2, [r3, #68]	; 0x44
 800116c:	f442 6280 	orr.w	r2, r2, #1024	; 0x400
 8001170:	645a      	str	r2, [r3, #68]	; 0x44
 8001172:	6c5a      	ldr	r2, [r3, #68]	; 0x44
 8001174:	f402 6280 	and.w	r2, r2, #1024	; 0x400
 8001178:	9205      	str	r2, [sp, #20]
 800117a:	9a05      	ldr	r2, [sp, #20]
 800117c:	9106      	str	r1, [sp, #24]
 800117e:	6b1a      	ldr	r2, [r3, #48]	; 0x30
 8001180:	f042 0204 	orr.w	r2, r2, #4
 8001184:	631a      	str	r2, [r3, #48]	; 0x30
 8001186:	6b1b      	ldr	r3, [r3, #48]	; 0x30
 8001188:	f003 0304 	and.w	r3, r3, #4
 800118c:	9306      	str	r3, [sp, #24]
 800118e:	9b06      	ldr	r3, [sp, #24]
 8001190:	2304      	movs	r3, #4
 8001192:	e7c0      	b.n	8001116 <HAL_ADC_MspInit+0x46>
 8001194:	40012000 	.word	0x40012000
 8001198:	40023800 	.word	0x40023800
 800119c:	40020800 	.word	0x40020800
 80011a0:	40012100 	.word	0x40012100
 80011a4:	40012200 	.word	0x40012200

080011a8 <MX_CAN1_Init>:
 80011a8:	480e      	ldr	r0, [pc, #56]	; (80011e4 <MX_CAN1_Init+0x3c>)
 80011aa:	4a0f      	ldr	r2, [pc, #60]	; (80011e8 <MX_CAN1_Init+0x40>)
 80011ac:	b508      	push	{r3, lr}
 80011ae:	2305      	movs	r3, #5
 80011b0:	e9c0 2300 	strd	r2, r3, [r0]
 80011b4:	f44f 21e0 	mov.w	r1, #458752	; 0x70000
 80011b8:	2300      	movs	r3, #0
 80011ba:	f44f 02a0 	mov.w	r2, #5242880	; 0x500000
 80011be:	e9c0 3302 	strd	r3, r3, [r0, #8]
 80011c2:	e9c0 1204 	strd	r1, r2, [r0, #16]
 80011c6:	7603      	strb	r3, [r0, #24]
 80011c8:	7643      	strb	r3, [r0, #25]
 80011ca:	7683      	strb	r3, [r0, #26]
 80011cc:	76c3      	strb	r3, [r0, #27]
 80011ce:	7703      	strb	r3, [r0, #28]
 80011d0:	7743      	strb	r3, [r0, #29]
 80011d2:	f001 fbdb 	bl	800298c <HAL_CAN_Init>
 80011d6:	b118      	cbz	r0, 80011e0 <MX_CAN1_Init+0x38>
 80011d8:	e8bd 4008 	ldmia.w	sp!, {r3, lr}
 80011dc:	f000 bdfa 	b.w	8001dd4 <Error_Handler>
 80011e0:	bd08      	pop	{r3, pc}
 80011e2:	bf00      	nop
 80011e4:	20000aec 	.word	0x20000aec
 80011e8:	40006400 	.word	0x40006400

080011ec <HAL_CAN_MspInit>:
 80011ec:	b510      	push	{r4, lr}
 80011ee:	4604      	mov	r4, r0
 80011f0:	b088      	sub	sp, #32
 80011f2:	2214      	movs	r2, #20
 80011f4:	2100      	movs	r1, #0
 80011f6:	a803      	add	r0, sp, #12
 80011f8:	f003 fa9e 	bl	8004738 <memset>
 80011fc:	6822      	ldr	r2, [r4, #0]
 80011fe:	4b18      	ldr	r3, [pc, #96]	; (8001260 <HAL_CAN_MspInit+0x74>)
 8001200:	429a      	cmp	r2, r3
 8001202:	d12b      	bne.n	800125c <HAL_CAN_MspInit+0x70>
 8001204:	f503 33ea 	add.w	r3, r3, #119808	; 0x1d400
 8001208:	2400      	movs	r4, #0
 800120a:	9401      	str	r4, [sp, #4]
 800120c:	6c1a      	ldr	r2, [r3, #64]	; 0x40
 800120e:	4815      	ldr	r0, [pc, #84]	; (8001264 <HAL_CAN_MspInit+0x78>)
 8001210:	f042 7200 	orr.w	r2, r2, #33554432	; 0x2000000
 8001214:	641a      	str	r2, [r3, #64]	; 0x40
 8001216:	6c1a      	ldr	r2, [r3, #64]	; 0x40
 8001218:	f002 7200 	and.w	r2, r2, #33554432	; 0x2000000
 800121c:	9201      	str	r2, [sp, #4]
 800121e:	9a01      	ldr	r2, [sp, #4]
 8001220:	9402      	str	r4, [sp, #8]
 8001222:	6b1a      	ldr	r2, [r3, #48]	; 0x30
 8001224:	f042 0202 	orr.w	r2, r2, #2
 8001228:	631a      	str	r2, [r3, #48]	; 0x30
 800122a:	6b1b      	ldr	r3, [r3, #48]	; 0x30
 800122c:	f003 0302 	and.w	r3, r3, #2
 8001230:	9302      	str	r3, [sp, #8]
 8001232:	f44f 7240 	mov.w	r2, #768	; 0x300
 8001236:	9b02      	ldr	r3, [sp, #8]
 8001238:	2302      	movs	r3, #2
 800123a:	e9cd 2303 	strd	r2, r3, [sp, #12]
 800123e:	2103      	movs	r1, #3
 8001240:	2309      	movs	r3, #9
 8001242:	e9cd 1306 	strd	r1, r3, [sp, #24]
 8001246:	a903      	add	r1, sp, #12
 8001248:	f001 fda2 	bl	8002d90 <HAL_GPIO_Init>
 800124c:	2014      	movs	r0, #20
 800124e:	4622      	mov	r2, r4
 8001250:	4621      	mov	r1, r4
 8001252:	f001 fd33 	bl	8002cbc <HAL_NVIC_SetPriority>
 8001256:	2014      	movs	r0, #20
 8001258:	f001 fd64 	bl	8002d24 <HAL_NVIC_EnableIRQ>
 800125c:	b008      	add	sp, #32
 800125e:	bd10      	pop	{r4, pc}
 8001260:	40006400 	.word	0x40006400
 8001264:	40020400 	.word	0x40020400

08001268 <drv_spi_write>:
 8001268:	b513      	push	{r0, r1, r4, lr}
 800126a:	2200      	movs	r2, #0
 800126c:	4604      	mov	r4, r0
 800126e:	f8a0 105e 	strh.w	r1, [r0, #94]	; 0x5e
 8001272:	f8b0 105c 	ldrh.w	r1, [r0, #92]	; 0x5c
 8001276:	6d80      	ldr	r0, [r0, #88]	; 0x58
 8001278:	f001 fe64 	bl	8002f44 <HAL_GPIO_WritePin>
 800127c:	2364      	movs	r3, #100	; 0x64
 800127e:	9300      	str	r3, [sp, #0]
 8001280:	f104 0260 	add.w	r2, r4, #96	; 0x60
 8001284:	2301      	movs	r3, #1
 8001286:	f104 015e 	add.w	r1, r4, #94	; 0x5e
 800128a:	4620      	mov	r0, r4
 800128c:	f002 f9dd 	bl	800364a <HAL_SPI_TransmitReceive>
 8001290:	f894 3051 	ldrb.w	r3, [r4, #81]	; 0x51
 8001294:	2b02      	cmp	r3, #2
 8001296:	d0fb      	beq.n	8001290 <drv_spi_write+0x28>
 8001298:	6da0      	ldr	r0, [r4, #88]	; 0x58
 800129a:	f8b4 105c 	ldrh.w	r1, [r4, #92]	; 0x5c
 800129e:	2201      	movs	r2, #1
 80012a0:	f001 fe50 	bl	8002f44 <HAL_GPIO_WritePin>
 80012a4:	f8b4 0060 	ldrh.w	r0, [r4, #96]	; 0x60
 80012a8:	b002      	add	sp, #8
 80012aa:	bd10      	pop	{r4, pc}

080012ac <drv_read_register>:
 80012ac:	b084      	sub	sp, #16
 80012ae:	b508      	push	{r3, lr}
 80012b0:	f10d 0c08 	add.w	ip, sp, #8
 80012b4:	e88c 000f 	stmia.w	ip, {r0, r1, r2, r3}
 80012b8:	9b1b      	ldr	r3, [sp, #108]	; 0x6c
 80012ba:	4906      	ldr	r1, [pc, #24]	; (80012d4 <drv_read_register+0x28>)
 80012bc:	ea41 21c3 	orr.w	r1, r1, r3, lsl #11
 80012c0:	f401 4178 	and.w	r1, r1, #63488	; 0xf800
 80012c4:	4660      	mov	r0, ip
 80012c6:	f7ff ffcf 	bl	8001268 <drv_spi_write>
 80012ca:	e8bd 4008 	ldmia.w	sp!, {r3, lr}
 80012ce:	b004      	add	sp, #16
 80012d0:	4770      	bx	lr
 80012d2:	bf00      	nop
 80012d4:	ffff8000 	.word	0xffff8000

080012d8 <drv_write_DCR>:
 80012d8:	b084      	sub	sp, #16
 80012da:	b508      	push	{r3, lr}
 80012dc:	f10d 0c08 	add.w	ip, sp, #8
 80012e0:	e88c 000f 	stmia.w	ip, {r0, r1, r2, r3}
 80012e4:	9b23      	ldr	r3, [sp, #140]	; 0x8c
 80012e6:	f443 5180 	orr.w	r1, r3, #4096	; 0x1000
 80012ea:	9b22      	ldr	r3, [sp, #136]	; 0x88
 80012ec:	ea41 0143 	orr.w	r1, r1, r3, lsl #1
 80012f0:	9b21      	ldr	r3, [sp, #132]	; 0x84
 80012f2:	ea41 0183 	orr.w	r1, r1, r3, lsl #2
 80012f6:	9b20      	ldr	r3, [sp, #128]	; 0x80
 80012f8:	ea41 01c3 	orr.w	r1, r1, r3, lsl #3
 80012fc:	9b1f      	ldr	r3, [sp, #124]	; 0x7c
 80012fe:	ea41 1103 	orr.w	r1, r1, r3, lsl #4
 8001302:	9b1e      	ldr	r3, [sp, #120]	; 0x78
 8001304:	ea41 1143 	orr.w	r1, r1, r3, lsl #5
 8001308:	9b1d      	ldr	r3, [sp, #116]	; 0x74
 800130a:	ea41 11c3 	orr.w	r1, r1, r3, lsl #7
 800130e:	9b1c      	ldr	r3, [sp, #112]	; 0x70
 8001310:	ea41 2103 	orr.w	r1, r1, r3, lsl #8
 8001314:	9b1b      	ldr	r3, [sp, #108]	; 0x6c
 8001316:	ea41 2143 	orr.w	r1, r1, r3, lsl #9
 800131a:	b289      	uxth	r1, r1
 800131c:	4660      	mov	r0, ip
 800131e:	f7ff ffa3 	bl	8001268 <drv_spi_write>
 8001322:	e8bd 4008 	ldmia.w	sp!, {r3, lr}
 8001326:	b004      	add	sp, #16
 8001328:	4770      	bx	lr

0800132a <drv_write_OCPCR>:
 800132a:	b084      	sub	sp, #16
 800132c:	b508      	push	{r3, lr}
 800132e:	f10d 0c08 	add.w	ip, sp, #8
 8001332:	e88c 000f 	stmia.w	ip, {r0, r1, r2, r3}
 8001336:	9b1f      	ldr	r3, [sp, #124]	; 0x7c
 8001338:	f443 5120 	orr.w	r1, r3, #10240	; 0x2800
 800133c:	9b1e      	ldr	r3, [sp, #120]	; 0x78
 800133e:	ea41 1103 	orr.w	r1, r1, r3, lsl #4
 8001342:	9b1d      	ldr	r3, [sp, #116]	; 0x74
 8001344:	ea41 1183 	orr.w	r1, r1, r3, lsl #6
 8001348:	9b1c      	ldr	r3, [sp, #112]	; 0x70
 800134a:	ea41 2103 	orr.w	r1, r1, r3, lsl #8
 800134e:	9b1b      	ldr	r3, [sp, #108]	; 0x6c
 8001350:	ea41 2183 	orr.w	r1, r1, r3, lsl #10
 8001354:	b289      	uxth	r1, r1
 8001356:	4660      	mov	r0, ip
 8001358:	f7ff ff86 	bl	8001268 <drv_spi_write>
 800135c:	e8bd 4008 	ldmia.w	sp!, {r3, lr}
 8001360:	b004      	add	sp, #16
 8001362:	4770      	bx	lr

08001364 <drv_write_CSACR>:
 8001364:	b084      	sub	sp, #16
 8001366:	b508      	push	{r3, lr}
 8001368:	f10d 0c08 	add.w	ip, sp, #8
 800136c:	e88c 000f 	stmia.w	ip, {r0, r1, r2, r3}
 8001370:	9b23      	ldr	r3, [sp, #140]	; 0x8c
 8001372:	f443 5140 	orr.w	r1, r3, #12288	; 0x3000
 8001376:	9b22      	ldr	r3, [sp, #136]	; 0x88
 8001378:	ea41 0183 	orr.w	r1, r1, r3, lsl #2
 800137c:	9b21      	ldr	r3, [sp, #132]	; 0x84
 800137e:	ea41 01c3 	orr.w	r1, r1, r3, lsl #3
 8001382:	9b20      	ldr	r3, [sp, #128]	; 0x80
 8001384:	ea41 1103 	orr.w	r1, r1, r3, lsl #4
 8001388:	9b1f      	ldr	r3, [sp, #124]	; 0x7c
 800138a:	ea41 1143 	orr.w	r1, r1, r3, lsl #5
 800138e:	9b1e      	ldr	r3, [sp, #120]	; 0x78
 8001390:	ea41 1183 	orr.w	r1, r1, r3, lsl #6
 8001394:	9b1d      	ldr	r3, [sp, #116]	; 0x74
 8001396:	ea41 2103 	orr.w	r1, r1, r3, lsl #8
 800139a:	9b1c      	ldr	r3, [sp, #112]	; 0x70
 800139c:	ea41 2143 	orr.w	r1, r1, r3, lsl #9
 80013a0:	9b1b      	ldr	r3, [sp, #108]	; 0x6c
 80013a2:	ea41 2183 	orr.w	r1, r1, r3, lsl #10
 80013a6:	b289      	uxth	r1, r1
 80013a8:	4660      	mov	r0, ip
 80013aa:	f7ff ff5d 	bl	8001268 <drv_spi_write>
 80013ae:	e8bd 4008 	ldmia.w	sp!, {r3, lr}
 80013b2:	b004      	add	sp, #16
 80013b4:	4770      	bx	lr

080013b6 <drv_enable_gd>:
 80013b6:	b084      	sub	sp, #16
 80013b8:	b530      	push	{r4, r5, lr}
 80013ba:	b0b3      	sub	sp, #204	; 0xcc
 80013bc:	2564      	movs	r5, #100	; 0x64
 80013be:	ac36      	add	r4, sp, #216	; 0xd8
 80013c0:	e884 000f 	stmia.w	r4, {r0, r1, r2, r3}
 80013c4:	462a      	mov	r2, r5
 80013c6:	4621      	mov	r1, r4
 80013c8:	eb0d 0005 	add.w	r0, sp, r5
 80013cc:	f003 f990 	bl	80046f0 <memcpy>
 80013d0:	f44f 4110 	mov.w	r1, #36864	; 0x9000
 80013d4:	eb0d 0005 	add.w	r0, sp, r5
 80013d8:	f7ff ff46 	bl	8001268 <drv_spi_write>
 80013dc:	462a      	mov	r2, r5
 80013de:	4604      	mov	r4, r0
 80013e0:	a936      	add	r1, sp, #216	; 0xd8
 80013e2:	4668      	mov	r0, sp
 80013e4:	f003 f984 	bl	80046f0 <memcpy>
 80013e8:	f024 0104 	bic.w	r1, r4, #4
 80013ec:	f441 5180 	orr.w	r1, r1, #4096	; 0x1000
 80013f0:	b289      	uxth	r1, r1
 80013f2:	4668      	mov	r0, sp
 80013f4:	f7ff ff38 	bl	8001268 <drv_spi_write>
 80013f8:	b033      	add	sp, #204	; 0xcc
 80013fa:	e8bd 4030 	ldmia.w	sp!, {r4, r5, lr}
 80013fe:	b004      	add	sp, #16
 8001400:	4770      	bx	lr

08001402 <drv_disable_gd>:
 8001402:	b084      	sub	sp, #16
 8001404:	b530      	push	{r4, r5, lr}
 8001406:	b0b3      	sub	sp, #204	; 0xcc
 8001408:	2564      	movs	r5, #100	; 0x64
 800140a:	ac36      	add	r4, sp, #216	; 0xd8
 800140c:	e884 000f 	stmia.w	r4, {r0, r1, r2, r3}
 8001410:	462a      	mov	r2, r5
 8001412:	4621      	mov	r1, r4
 8001414:	eb0d 0005 	add.w	r0, sp, r5
 8001418:	f003 f96a 	bl	80046f0 <memcpy>
 800141c:	f44f 4110 	mov.w	r1, #36864	; 0x9000
 8001420:	eb0d 0005 	add.w	r0, sp, r5
 8001424:	f7ff ff20 	bl	8001268 <drv_spi_write>
 8001428:	462a      	mov	r2, r5
 800142a:	4604      	mov	r4, r0
 800142c:	a936      	add	r1, sp, #216	; 0xd8
 800142e:	4668      	mov	r0, sp
 8001430:	f003 f95e 	bl	80046f0 <memcpy>
 8001434:	f444 5180 	orr.w	r1, r4, #4096	; 0x1000
 8001438:	f041 0104 	orr.w	r1, r1, #4
 800143c:	b289      	uxth	r1, r1
 800143e:	4668      	mov	r0, sp
 8001440:	f7ff ff12 	bl	8001268 <drv_spi_write>
 8001444:	b033      	add	sp, #204	; 0xcc
 8001446:	e8bd 4030 	ldmia.w	sp!, {r4, r5, lr}
 800144a:	b004      	add	sp, #16
 800144c:	4770      	bx	lr

0800144e <drv_calibrate>:
 800144e:	b084      	sub	sp, #16
 8001450:	b500      	push	{lr}
 8001452:	b09b      	sub	sp, #108	; 0x6c
 8001454:	f10d 0c70 	add.w	ip, sp, #112	; 0x70
 8001458:	e88c 000f 	stmia.w	ip, {r0, r1, r2, r3}
 800145c:	4661      	mov	r1, ip
 800145e:	2264      	movs	r2, #100	; 0x64
 8001460:	a801      	add	r0, sp, #4
 8001462:	f003 f945 	bl	80046f0 <memcpy>
 8001466:	f243 011c 	movw	r1, #12316	; 0x301c
 800146a:	a801      	add	r0, sp, #4
 800146c:	f7ff fefc 	bl	8001268 <drv_spi_write>
 8001470:	b01b      	add	sp, #108	; 0x6c
 8001472:	f85d eb04 	ldr.w	lr, [sp], #4
 8001476:	b004      	add	sp, #16
 8001478:	4770      	bx	lr
	...

0800147c <drv_print_faults>:
 800147c:	b084      	sub	sp, #16
 800147e:	b530      	push	{r4, r5, lr}
 8001480:	b0b3      	sub	sp, #204	; 0xcc
 8001482:	ac36      	add	r4, sp, #216	; 0xd8
 8001484:	e884 000f 	stmia.w	r4, {r0, r1, r2, r3}
 8001488:	2264      	movs	r2, #100	; 0x64
 800148a:	4621      	mov	r1, r4
 800148c:	eb0d 0002 	add.w	r0, sp, r2
 8001490:	f003 f92e 	bl	80046f0 <memcpy>
 8001494:	f44f 4100 	mov.w	r1, #32768	; 0x8000
 8001498:	a819      	add	r0, sp, #100	; 0x64
 800149a:	f7ff fee5 	bl	8001268 <drv_spi_write>
 800149e:	2264      	movs	r2, #100	; 0x64
 80014a0:	4605      	mov	r5, r0
 80014a2:	a936      	add	r1, sp, #216	; 0xd8
 80014a4:	4668      	mov	r0, sp
 80014a6:	f003 f923 	bl	80046f0 <memcpy>
 80014aa:	f248 0101 	movw	r1, #32769	; 0x8001
 80014ae:	4668      	mov	r0, sp
 80014b0:	f7ff feda 	bl	8001268 <drv_spi_write>
 80014b4:	4604      	mov	r4, r0
 80014b6:	0568      	lsls	r0, r5, #21
 80014b8:	d502      	bpl.n	80014c0 <drv_print_faults+0x44>
 80014ba:	4838      	ldr	r0, [pc, #224]	; (800159c <drv_print_faults+0x120>)
 80014bc:	f003 f944 	bl	8004748 <printf>
 80014c0:	05a9      	lsls	r1, r5, #22
 80014c2:	d502      	bpl.n	80014ca <drv_print_faults+0x4e>
 80014c4:	4836      	ldr	r0, [pc, #216]	; (80015a0 <drv_print_faults+0x124>)
 80014c6:	f003 f93f 	bl	8004748 <printf>
 80014ca:	05ea      	lsls	r2, r5, #23
 80014cc:	d502      	bpl.n	80014d4 <drv_print_faults+0x58>
 80014ce:	4835      	ldr	r0, [pc, #212]	; (80015a4 <drv_print_faults+0x128>)
 80014d0:	f003 f93a 	bl	8004748 <printf>
 80014d4:	062b      	lsls	r3, r5, #24
 80014d6:	d502      	bpl.n	80014de <drv_print_faults+0x62>
 80014d8:	4833      	ldr	r0, [pc, #204]	; (80015a8 <drv_print_faults+0x12c>)
 80014da:	f003 f935 	bl	8004748 <printf>
 80014de:	0668      	lsls	r0, r5, #25
 80014e0:	d502      	bpl.n	80014e8 <drv_print_faults+0x6c>
 80014e2:	4832      	ldr	r0, [pc, #200]	; (80015ac <drv_print_faults+0x130>)
 80014e4:	f003 f930 	bl	8004748 <printf>
 80014e8:	06a9      	lsls	r1, r5, #26
 80014ea:	d502      	bpl.n	80014f2 <drv_print_faults+0x76>
 80014ec:	4830      	ldr	r0, [pc, #192]	; (80015b0 <drv_print_faults+0x134>)
 80014ee:	f003 f92b 	bl	8004748 <printf>
 80014f2:	06ea      	lsls	r2, r5, #27
 80014f4:	d502      	bpl.n	80014fc <drv_print_faults+0x80>
 80014f6:	482f      	ldr	r0, [pc, #188]	; (80015b4 <drv_print_faults+0x138>)
 80014f8:	f003 f926 	bl	8004748 <printf>
 80014fc:	072b      	lsls	r3, r5, #28
 80014fe:	d502      	bpl.n	8001506 <drv_print_faults+0x8a>
 8001500:	482d      	ldr	r0, [pc, #180]	; (80015b8 <drv_print_faults+0x13c>)
 8001502:	f003 f921 	bl	8004748 <printf>
 8001506:	0768      	lsls	r0, r5, #29
 8001508:	d502      	bpl.n	8001510 <drv_print_faults+0x94>
 800150a:	482c      	ldr	r0, [pc, #176]	; (80015bc <drv_print_faults+0x140>)
 800150c:	f003 f91c 	bl	8004748 <printf>
 8001510:	07a9      	lsls	r1, r5, #30
 8001512:	d502      	bpl.n	800151a <drv_print_faults+0x9e>
 8001514:	482a      	ldr	r0, [pc, #168]	; (80015c0 <drv_print_faults+0x144>)
 8001516:	f003 f917 	bl	8004748 <printf>
 800151a:	07ea      	lsls	r2, r5, #31
 800151c:	d502      	bpl.n	8001524 <drv_print_faults+0xa8>
 800151e:	4829      	ldr	r0, [pc, #164]	; (80015c4 <drv_print_faults+0x148>)
 8001520:	f003 f912 	bl	8004748 <printf>
 8001524:	0563      	lsls	r3, r4, #21
 8001526:	d502      	bpl.n	800152e <drv_print_faults+0xb2>
 8001528:	4827      	ldr	r0, [pc, #156]	; (80015c8 <drv_print_faults+0x14c>)
 800152a:	f003 f90d 	bl	8004748 <printf>
 800152e:	05a5      	lsls	r5, r4, #22
 8001530:	d502      	bpl.n	8001538 <drv_print_faults+0xbc>
 8001532:	4826      	ldr	r0, [pc, #152]	; (80015cc <drv_print_faults+0x150>)
 8001534:	f003 f908 	bl	8004748 <printf>
 8001538:	05e0      	lsls	r0, r4, #23
 800153a:	d502      	bpl.n	8001542 <drv_print_faults+0xc6>
 800153c:	4824      	ldr	r0, [pc, #144]	; (80015d0 <drv_print_faults+0x154>)
 800153e:	f003 f903 	bl	8004748 <printf>
 8001542:	0621      	lsls	r1, r4, #24
 8001544:	d502      	bpl.n	800154c <drv_print_faults+0xd0>
 8001546:	4823      	ldr	r0, [pc, #140]	; (80015d4 <drv_print_faults+0x158>)
 8001548:	f003 f8fe 	bl	8004748 <printf>
 800154c:	0662      	lsls	r2, r4, #25
 800154e:	d502      	bpl.n	8001556 <drv_print_faults+0xda>
 8001550:	4821      	ldr	r0, [pc, #132]	; (80015d8 <drv_print_faults+0x15c>)
 8001552:	f003 f8f9 	bl	8004748 <printf>
 8001556:	06a3      	lsls	r3, r4, #26
 8001558:	d502      	bpl.n	8001560 <drv_print_faults+0xe4>
 800155a:	4820      	ldr	r0, [pc, #128]	; (80015dc <drv_print_faults+0x160>)
 800155c:	f003 f8f4 	bl	8004748 <printf>
 8001560:	06e5      	lsls	r5, r4, #27
 8001562:	d502      	bpl.n	800156a <drv_print_faults+0xee>
 8001564:	481e      	ldr	r0, [pc, #120]	; (80015e0 <drv_print_faults+0x164>)
 8001566:	f003 f8ef 	bl	8004748 <printf>
 800156a:	0720      	lsls	r0, r4, #28
 800156c:	d502      	bpl.n	8001574 <drv_print_faults+0xf8>
 800156e:	481d      	ldr	r0, [pc, #116]	; (80015e4 <drv_print_faults+0x168>)
 8001570:	f003 f8ea 	bl	8004748 <printf>
 8001574:	0761      	lsls	r1, r4, #29
 8001576:	d502      	bpl.n	800157e <drv_print_faults+0x102>
 8001578:	481b      	ldr	r0, [pc, #108]	; (80015e8 <drv_print_faults+0x16c>)
 800157a:	f003 f8e5 	bl	8004748 <printf>
 800157e:	07a2      	lsls	r2, r4, #30
 8001580:	d502      	bpl.n	8001588 <drv_print_faults+0x10c>
 8001582:	481a      	ldr	r0, [pc, #104]	; (80015ec <drv_print_faults+0x170>)
 8001584:	f003 f8e0 	bl	8004748 <printf>
 8001588:	07e3      	lsls	r3, r4, #31
 800158a:	d502      	bpl.n	8001592 <drv_print_faults+0x116>
 800158c:	4818      	ldr	r0, [pc, #96]	; (80015f0 <drv_print_faults+0x174>)
 800158e:	f003 f8db 	bl	8004748 <printf>
 8001592:	b033      	add	sp, #204	; 0xcc
 8001594:	e8bd 4030 	ldmia.w	sp!, {r4, r5, lr}
 8001598:	b004      	add	sp, #16
 800159a:	4770      	bx	lr
 800159c:	080086a8 	.word	0x080086a8
 80015a0:	080086b2 	.word	0x080086b2
 80015a4:	080086bc 	.word	0x080086bc
 80015a8:	080086c2 	.word	0x080086c2
 80015ac:	080086c9 	.word	0x080086c9
 80015b0:	080086d0 	.word	0x080086d0
 80015b4:	080086d9 	.word	0x080086d9
 80015b8:	080086e2 	.word	0x080086e2
 80015bc:	080086eb 	.word	0x080086eb
 80015c0:	080086f4 	.word	0x080086f4
 80015c4:	080086fd 	.word	0x080086fd
 80015c8:	08008706 	.word	0x08008706
 80015cc:	0800870e 	.word	0x0800870e
 80015d0:	08008716 	.word	0x08008716
 80015d4:	0800871e 	.word	0x0800871e
 80015d8:	08008724 	.word	0x08008724
 80015dc:	0800872b 	.word	0x0800872b
 80015e0:	08008734 	.word	0x08008734
 80015e4:	0800873d 	.word	0x0800873d
 80015e8:	08008746 	.word	0x08008746
 80015ec:	0800874f 	.word	0x0800874f
 80015f0:	08008758 	.word	0x08008758

080015f4 <flash_writer_init>:
 80015f4:	2907      	cmp	r1, #7
 80015f6:	bf28      	it	cs
 80015f8:	2107      	movcs	r1, #7
 80015fa:	4b04      	ldr	r3, [pc, #16]	; (800160c <flash_writer_init+0x18>)
 80015fc:	6081      	str	r1, [r0, #8]
 80015fe:	f853 3021 	ldr.w	r3, [r3, r1, lsl #2]
 8001602:	6043      	str	r3, [r0, #4]
 8001604:	2300      	movs	r3, #0
 8001606:	7003      	strb	r3, [r0, #0]
 8001608:	4770      	bx	lr
 800160a:	bf00      	nop
 800160c:	08008764 	.word	0x08008764

08001610 <flash_read_int>:
 8001610:	b084      	sub	sp, #16
 8001612:	f10d 0c10 	add.w	ip, sp, #16
 8001616:	e90c 0007 	stmdb	ip, {r0, r1, r2}
 800161a:	4a04      	ldr	r2, [pc, #16]	; (800162c <flash_read_int+0x1c>)
 800161c:	9903      	ldr	r1, [sp, #12]
 800161e:	f852 2021 	ldr.w	r2, [r2, r1, lsl #2]
 8001622:	f852 0023 	ldr.w	r0, [r2, r3, lsl #2]
 8001626:	b004      	add	sp, #16
 8001628:	4770      	bx	lr
 800162a:	bf00      	nop
 800162c:	08008764 	.word	0x08008764

08001630 <flash_read_float>:
 8001630:	b084      	sub	sp, #16
 8001632:	f10d 0c10 	add.w	ip, sp, #16
 8001636:	e90c 0007 	stmdb	ip, {r0, r1, r2}
 800163a:	4a05      	ldr	r2, [pc, #20]	; (8001650 <flash_read_float+0x20>)
 800163c:	9903      	ldr	r1, [sp, #12]
 800163e:	f852 2021 	ldr.w	r2, [r2, r1, lsl #2]
 8001642:	eb02 0383 	add.w	r3, r2, r3, lsl #2
 8001646:	ed93 0a00 	vldr	s0, [r3]
 800164a:	b004      	add	sp, #16
 800164c:	4770      	bx	lr
 800164e:	bf00      	nop
 8001650:	08008764 	.word	0x08008764

08001654 <update_fsm>:
 8001654:	291b      	cmp	r1, #27
 8001656:	b508      	push	{r3, lr}
 8001658:	d103      	bne.n	8001662 <update_fsm+0xe>
 800165a:	2300      	movs	r3, #0
 800165c:	7003      	strb	r3, [r0, #0]
 800165e:	2301      	movs	r3, #1
 8001660:	e019      	b.n	8001696 <update_fsm+0x42>
 8001662:	7803      	ldrb	r3, [r0, #0]
 8001664:	b933      	cbnz	r3, 8001674 <update_fsm+0x20>
 8001666:	296d      	cmp	r1, #109	; 0x6d
 8001668:	d017      	beq.n	800169a <update_fsm+0x46>
 800166a:	d804      	bhi.n	8001676 <update_fsm+0x22>
 800166c:	2963      	cmp	r1, #99	; 0x63
 800166e:	d010      	beq.n	8001692 <update_fsm+0x3e>
 8001670:	2965      	cmp	r1, #101	; 0x65
 8001672:	d014      	beq.n	800169e <update_fsm+0x4a>
 8001674:	bd08      	pop	{r3, pc}
 8001676:	2973      	cmp	r1, #115	; 0x73
 8001678:	d013      	beq.n	80016a2 <update_fsm+0x4e>
 800167a:	297a      	cmp	r1, #122	; 0x7a
 800167c:	d1fa      	bne.n	8001674 <update_fsm+0x20>
 800167e:	2014      	movs	r0, #20
 8001680:	f001 f804 	bl	800268c <HAL_Delay>
 8001684:	4b08      	ldr	r3, [pc, #32]	; (80016a8 <update_fsm+0x54>)
 8001686:	4809      	ldr	r0, [pc, #36]	; (80016ac <update_fsm+0x58>)
 8001688:	6919      	ldr	r1, [r3, #16]
 800168a:	e8bd 4008 	ldmia.w	sp!, {r3, lr}
 800168e:	f003 b85b 	b.w	8004748 <printf>
 8001692:	2301      	movs	r3, #1
 8001694:	7003      	strb	r3, [r0, #0]
 8001696:	7043      	strb	r3, [r0, #1]
 8001698:	e7ec      	b.n	8001674 <update_fsm+0x20>
 800169a:	2302      	movs	r3, #2
 800169c:	e7de      	b.n	800165c <update_fsm+0x8>
 800169e:	2305      	movs	r3, #5
 80016a0:	e7dc      	b.n	800165c <update_fsm+0x8>
 80016a2:	2304      	movs	r3, #4
 80016a4:	e7da      	b.n	800165c <update_fsm+0x8>
 80016a6:	bf00      	nop
 80016a8:	200011f0 	.word	0x200011f0
 80016ac:	080089ed 	.word	0x080089ed

080016b0 <enter_menu_state>:
 80016b0:	b508      	push	{r3, lr}
 80016b2:	480d      	ldr	r0, [pc, #52]	; (80016e8 <enter_menu_state+0x38>)
 80016b4:	f003 f848 	bl	8004748 <printf>
 80016b8:	480c      	ldr	r0, [pc, #48]	; (80016ec <enter_menu_state+0x3c>)
 80016ba:	f003 f845 	bl	8004748 <printf>
 80016be:	480c      	ldr	r0, [pc, #48]	; (80016f0 <enter_menu_state+0x40>)
 80016c0:	f003 f842 	bl	8004748 <printf>
 80016c4:	480b      	ldr	r0, [pc, #44]	; (80016f4 <enter_menu_state+0x44>)
 80016c6:	f003 f83f 	bl	8004748 <printf>
 80016ca:	480b      	ldr	r0, [pc, #44]	; (80016f8 <enter_menu_state+0x48>)
 80016cc:	f003 f83c 	bl	8004748 <printf>
 80016d0:	480a      	ldr	r0, [pc, #40]	; (80016fc <enter_menu_state+0x4c>)
 80016d2:	f003 f839 	bl	8004748 <printf>
 80016d6:	480a      	ldr	r0, [pc, #40]	; (8001700 <enter_menu_state+0x50>)
 80016d8:	f003 f836 	bl	8004748 <printf>
 80016dc:	4809      	ldr	r0, [pc, #36]	; (8001704 <enter_menu_state+0x54>)
 80016de:	e8bd 4008 	ldmia.w	sp!, {r3, lr}
 80016e2:	f003 b831 	b.w	8004748 <printf>
 80016e6:	bf00      	nop
 80016e8:	08008784 	.word	0x08008784
 80016ec:	0800878b 	.word	0x0800878b
 80016f0:	08008798 	.word	0x08008798
 80016f4:	080087aa 	.word	0x080087aa
 80016f8:	080087c3 	.word	0x080087c3
 80016fc:	080087d0 	.word	0x080087d0
 8001700:	080087e7 	.word	0x080087e7
 8001704:	08008800 	.word	0x08008800

08001708 <enter_setup_state>:
 8001708:	e92d 43f0 	stmdb	sp!, {r4, r5, r6, r7, r8, r9, lr}
 800170c:	483e      	ldr	r0, [pc, #248]	; (8001808 <enter_setup_state+0x100>)
 800170e:	4e3f      	ldr	r6, [pc, #252]	; (800180c <enter_setup_state+0x104>)
 8001710:	4c3f      	ldr	r4, [pc, #252]	; (8001810 <enter_setup_state+0x108>)
 8001712:	4f40      	ldr	r7, [pc, #256]	; (8001814 <enter_setup_state+0x10c>)
 8001714:	4d40      	ldr	r5, [pc, #256]	; (8001818 <enter_setup_state+0x110>)
 8001716:	f8df 8178 	ldr.w	r8, [pc, #376]	; 8001890 <enter_setup_state+0x188>
 800171a:	f8df 9178 	ldr.w	r9, [pc, #376]	; 8001894 <enter_setup_state+0x18c>
 800171e:	b085      	sub	sp, #20
 8001720:	f003 f86a 	bl	80047f8 <puts>
 8001724:	4b3d      	ldr	r3, [pc, #244]	; (800181c <enter_setup_state+0x114>)
 8001726:	9301      	str	r3, [sp, #4]
 8001728:	4b3d      	ldr	r3, [pc, #244]	; (8001820 <enter_setup_state+0x118>)
 800172a:	9300      	str	r3, [sp, #0]
 800172c:	4a3d      	ldr	r2, [pc, #244]	; (8001824 <enter_setup_state+0x11c>)
 800172e:	4b3e      	ldr	r3, [pc, #248]	; (8001828 <enter_setup_state+0x120>)
 8001730:	493e      	ldr	r1, [pc, #248]	; (800182c <enter_setup_state+0x124>)
 8001732:	483f      	ldr	r0, [pc, #252]	; (8001830 <enter_setup_state+0x128>)
 8001734:	f003 f808 	bl	8004748 <printf>
 8001738:	68b0      	ldr	r0, [r6, #8]
 800173a:	f7fe ff25 	bl	8000588 <__aeabi_f2d>
 800173e:	4b3d      	ldr	r3, [pc, #244]	; (8001834 <enter_setup_state+0x12c>)
 8001740:	9300      	str	r3, [sp, #0]
 8001742:	e9cd 0102 	strd	r0, r1, [sp, #8]
 8001746:	4b3c      	ldr	r3, [pc, #240]	; (8001838 <enter_setup_state+0x130>)
 8001748:	4a3c      	ldr	r2, [pc, #240]	; (800183c <enter_setup_state+0x134>)
 800174a:	493d      	ldr	r1, [pc, #244]	; (8001840 <enter_setup_state+0x138>)
 800174c:	4620      	mov	r0, r4
 800174e:	f002 fffb 	bl	8004748 <printf>
 8001752:	687b      	ldr	r3, [r7, #4]
 8001754:	9301      	str	r3, [sp, #4]
 8001756:	f8cd 9000 	str.w	r9, [sp]
 800175a:	462b      	mov	r3, r5
 800175c:	4a39      	ldr	r2, [pc, #228]	; (8001844 <enter_setup_state+0x13c>)
 800175e:	493a      	ldr	r1, [pc, #232]	; (8001848 <enter_setup_state+0x140>)
 8001760:	4640      	mov	r0, r8
 8001762:	f002 fff1 	bl	8004748 <printf>
 8001766:	68bb      	ldr	r3, [r7, #8]
 8001768:	4a38      	ldr	r2, [pc, #224]	; (800184c <enter_setup_state+0x144>)
 800176a:	4939      	ldr	r1, [pc, #228]	; (8001850 <enter_setup_state+0x148>)
 800176c:	e9cd 9300 	strd	r9, r3, [sp]
 8001770:	4640      	mov	r0, r8
 8001772:	462b      	mov	r3, r5
 8001774:	f002 ffe8 	bl	8004748 <printf>
 8001778:	68f0      	ldr	r0, [r6, #12]
 800177a:	f8df 911c 	ldr.w	r9, [pc, #284]	; 8001898 <enter_setup_state+0x190>
 800177e:	f8df 811c 	ldr.w	r8, [pc, #284]	; 800189c <enter_setup_state+0x194>
 8001782:	f7fe ff01 	bl	8000588 <__aeabi_f2d>
 8001786:	464b      	mov	r3, r9
 8001788:	e9cd 0102 	strd	r0, r1, [sp, #8]
 800178c:	4a31      	ldr	r2, [pc, #196]	; (8001854 <enter_setup_state+0x14c>)
 800178e:	f8cd 8000 	str.w	r8, [sp]
 8001792:	4931      	ldr	r1, [pc, #196]	; (8001858 <enter_setup_state+0x150>)
 8001794:	4620      	mov	r0, r4
 8001796:	f002 ffd7 	bl	8004748 <printf>
 800179a:	69b0      	ldr	r0, [r6, #24]
 800179c:	f7fe fef4 	bl	8000588 <__aeabi_f2d>
 80017a0:	4b2e      	ldr	r3, [pc, #184]	; (800185c <enter_setup_state+0x154>)
 80017a2:	9300      	str	r3, [sp, #0]
 80017a4:	e9cd 0102 	strd	r0, r1, [sp, #8]
 80017a8:	464b      	mov	r3, r9
 80017aa:	4a2d      	ldr	r2, [pc, #180]	; (8001860 <enter_setup_state+0x158>)
 80017ac:	492d      	ldr	r1, [pc, #180]	; (8001864 <enter_setup_state+0x15c>)
 80017ae:	4620      	mov	r0, r4
 80017b0:	f002 ffca 	bl	8004748 <printf>
 80017b4:	68fb      	ldr	r3, [r7, #12]
 80017b6:	9301      	str	r3, [sp, #4]
 80017b8:	4b2b      	ldr	r3, [pc, #172]	; (8001868 <enter_setup_state+0x160>)
 80017ba:	9300      	str	r3, [sp, #0]
 80017bc:	4a2b      	ldr	r2, [pc, #172]	; (800186c <enter_setup_state+0x164>)
 80017be:	492c      	ldr	r1, [pc, #176]	; (8001870 <enter_setup_state+0x168>)
 80017c0:	482c      	ldr	r0, [pc, #176]	; (8001874 <enter_setup_state+0x16c>)
 80017c2:	462b      	mov	r3, r5
 80017c4:	f002 ffc0 	bl	8004748 <printf>
 80017c8:	6a30      	ldr	r0, [r6, #32]
 80017ca:	f7fe fedd 	bl	8000588 <__aeabi_f2d>
 80017ce:	4b2a      	ldr	r3, [pc, #168]	; (8001878 <enter_setup_state+0x170>)
 80017d0:	9300      	str	r3, [sp, #0]
 80017d2:	e9cd 0102 	strd	r0, r1, [sp, #8]
 80017d6:	462b      	mov	r3, r5
 80017d8:	4a28      	ldr	r2, [pc, #160]	; (800187c <enter_setup_state+0x174>)
 80017da:	4929      	ldr	r1, [pc, #164]	; (8001880 <enter_setup_state+0x178>)
 80017dc:	4620      	mov	r0, r4
 80017de:	f002 ffb3 	bl	8004748 <printf>
 80017e2:	6a70      	ldr	r0, [r6, #36]	; 0x24
 80017e4:	f7fe fed0 	bl	8000588 <__aeabi_f2d>
 80017e8:	f8cd 8000 	str.w	r8, [sp]
 80017ec:	e9cd 0102 	strd	r0, r1, [sp, #8]
 80017f0:	462b      	mov	r3, r5
 80017f2:	4a24      	ldr	r2, [pc, #144]	; (8001884 <enter_setup_state+0x17c>)
 80017f4:	4924      	ldr	r1, [pc, #144]	; (8001888 <enter_setup_state+0x180>)
 80017f6:	4620      	mov	r0, r4
 80017f8:	f002 ffa6 	bl	8004748 <printf>
 80017fc:	4823      	ldr	r0, [pc, #140]	; (800188c <enter_setup_state+0x184>)
 80017fe:	b005      	add	sp, #20
 8001800:	e8bd 43f0 	ldmia.w	sp!, {r4, r5, r6, r7, r8, r9, lr}
 8001804:	f002 bfa0 	b.w	8004748 <printf>
 8001808:	08008816 	.word	0x08008816
 800180c:	20000e1c 	.word	0x20000e1c
 8001810:	08008898 	.word	0x08008898
 8001814:	200011f0 	.word	0x200011f0
 8001818:	080088f9 	.word	0x080088f9
 800181c:	08008869 	.word	0x08008869
 8001820:	08008877 	.word	0x08008877
 8001824:	08008839 	.word	0x08008839
 8001828:	08008835 	.word	0x08008835
 800182c:	08008843 	.word	0x08008843
 8001830:	0800884a 	.word	0x0800884a
 8001834:	080088b5 	.word	0x080088b5
 8001838:	0800887b 	.word	0x0800887b
 800183c:	0800887f 	.word	0x0800887f
 8001840:	08008896 	.word	0x08008896
 8001844:	080088ba 	.word	0x080088ba
 8001848:	080088c1 	.word	0x080088c1
 800184c:	080088e4 	.word	0x080088e4
 8001850:	080088f2 	.word	0x080088f2
 8001854:	080088fe 	.word	0x080088fe
 8001858:	080088f4 	.word	0x080088f4
 800185c:	08008910 	.word	0x08008910
 8001860:	080088fb 	.word	0x080088fb
 8001864:	08008a8b 	.word	0x08008a8b
 8001868:	08008951 	.word	0x08008951
 800186c:	08008915 	.word	0x08008915
 8001870:	08008934 	.word	0x08008934
 8001874:	08008936 	.word	0x08008936
 8001878:	08008975 	.word	0x08008975
 800187c:	08008958 	.word	0x08008958
 8001880:	08008973 	.word	0x08008973
 8001884:	08008979 	.word	0x08008979
 8001888:	08008990 	.word	0x08008990
 800188c:	08008992 	.word	0x08008992
 8001890:	080088c3 	.word	0x080088c3
 8001894:	080088e0 	.word	0x080088e0
 8001898:	080088f7 	.word	0x080088f7
 800189c:	080088f6 	.word	0x080088f6

080018a0 <run_fsm>:
 80018a0:	b538      	push	{r3, r4, r5, lr}
 80018a2:	7843      	ldrb	r3, [r0, #1]
 80018a4:	4604      	mov	r4, r0
 80018a6:	b11b      	cbz	r3, 80018b0 <run_fsm+0x10>
 80018a8:	7801      	ldrb	r1, [r0, #0]
 80018aa:	480b      	ldr	r0, [pc, #44]	; (80018d8 <run_fsm+0x38>)
 80018ac:	f002 ff4c 	bl	8004748 <printf>
 80018b0:	7825      	ldrb	r5, [r4, #0]
 80018b2:	b115      	cbz	r5, 80018ba <run_fsm+0x1a>
 80018b4:	2d04      	cmp	r5, #4
 80018b6:	d007      	beq.n	80018c8 <run_fsm+0x28>
 80018b8:	bd38      	pop	{r3, r4, r5, pc}
 80018ba:	7863      	ldrb	r3, [r4, #1]
 80018bc:	2b00      	cmp	r3, #0
 80018be:	d0fb      	beq.n	80018b8 <run_fsm+0x18>
 80018c0:	f7ff fef6 	bl	80016b0 <enter_menu_state>
 80018c4:	7065      	strb	r5, [r4, #1]
 80018c6:	e7f7      	b.n	80018b8 <run_fsm+0x18>
 80018c8:	7863      	ldrb	r3, [r4, #1]
 80018ca:	2b00      	cmp	r3, #0
 80018cc:	d0f4      	beq.n	80018b8 <run_fsm+0x18>
 80018ce:	f7ff ff1b 	bl	8001708 <enter_setup_state>
 80018d2:	2300      	movs	r3, #0
 80018d4:	7063      	strb	r3, [r4, #1]
 80018d6:	e7ef      	b.n	80018b8 <run_fsm+0x18>
 80018d8:	080089de 	.word	0x080089de

080018dc <MX_GPIO_Init>:
 80018dc:	e92d 41f0 	stmdb	sp!, {r4, r5, r6, r7, r8, lr}
 80018e0:	2214      	movs	r2, #20
 80018e2:	b08a      	sub	sp, #40	; 0x28
 80018e4:	eb0d 0002 	add.w	r0, sp, r2
 80018e8:	2100      	movs	r1, #0
 80018ea:	f002 ff25 	bl	8004738 <memset>
 80018ee:	2400      	movs	r4, #0
 80018f0:	4b2c      	ldr	r3, [pc, #176]	; (80019a4 <MX_GPIO_Init+0xc8>)
 80018f2:	9401      	str	r4, [sp, #4]
 80018f4:	6b1a      	ldr	r2, [r3, #48]	; 0x30
 80018f6:	f8df 80b8 	ldr.w	r8, [pc, #184]	; 80019b0 <MX_GPIO_Init+0xd4>
 80018fa:	4d2b      	ldr	r5, [pc, #172]	; (80019a8 <MX_GPIO_Init+0xcc>)
 80018fc:	f042 0204 	orr.w	r2, r2, #4
 8001900:	631a      	str	r2, [r3, #48]	; 0x30
 8001902:	6b1a      	ldr	r2, [r3, #48]	; 0x30
 8001904:	f002 0204 	and.w	r2, r2, #4
 8001908:	9201      	str	r2, [sp, #4]
 800190a:	9a01      	ldr	r2, [sp, #4]
 800190c:	9402      	str	r4, [sp, #8]
 800190e:	6b1a      	ldr	r2, [r3, #48]	; 0x30
 8001910:	f042 0280 	orr.w	r2, r2, #128	; 0x80
 8001914:	631a      	str	r2, [r3, #48]	; 0x30
 8001916:	6b1a      	ldr	r2, [r3, #48]	; 0x30
 8001918:	f002 0280 	and.w	r2, r2, #128	; 0x80
 800191c:	9202      	str	r2, [sp, #8]
 800191e:	9a02      	ldr	r2, [sp, #8]
 8001920:	9403      	str	r4, [sp, #12]
 8001922:	6b1a      	ldr	r2, [r3, #48]	; 0x30
 8001924:	f042 0201 	orr.w	r2, r2, #1
 8001928:	631a      	str	r2, [r3, #48]	; 0x30
 800192a:	6b1a      	ldr	r2, [r3, #48]	; 0x30
 800192c:	f002 0201 	and.w	r2, r2, #1
 8001930:	9203      	str	r2, [sp, #12]
 8001932:	9a03      	ldr	r2, [sp, #12]
 8001934:	9404      	str	r4, [sp, #16]
 8001936:	6b1a      	ldr	r2, [r3, #48]	; 0x30
 8001938:	f042 0202 	orr.w	r2, r2, #2
 800193c:	631a      	str	r2, [r3, #48]	; 0x30
 800193e:	6b1b      	ldr	r3, [r3, #48]	; 0x30
 8001940:	f003 0302 	and.w	r3, r3, #2
 8001944:	9304      	str	r3, [sp, #16]
 8001946:	4622      	mov	r2, r4
 8001948:	4640      	mov	r0, r8
 800194a:	f648 0110 	movw	r1, #34832	; 0x8810
 800194e:	9b04      	ldr	r3, [sp, #16]
 8001950:	f001 faf8 	bl	8002f44 <HAL_GPIO_WritePin>
 8001954:	4622      	mov	r2, r4
 8001956:	4628      	mov	r0, r5
 8001958:	2120      	movs	r1, #32
 800195a:	f001 faf3 	bl	8002f44 <HAL_GPIO_WritePin>
 800195e:	4b13      	ldr	r3, [pc, #76]	; (80019ac <MX_GPIO_Init+0xd0>)
 8001960:	9407      	str	r4, [sp, #28]
 8001962:	f44f 5200 	mov.w	r2, #8192	; 0x2000
 8001966:	a905      	add	r1, sp, #20
 8001968:	4628      	mov	r0, r5
 800196a:	e9cd 2305 	strd	r2, r3, [sp, #20]
 800196e:	2701      	movs	r7, #1
 8001970:	f001 fa0e 	bl	8002d90 <HAL_GPIO_Init>
 8001974:	2603      	movs	r6, #3
 8001976:	f648 0310 	movw	r3, #34832	; 0x8810
 800197a:	a905      	add	r1, sp, #20
 800197c:	4640      	mov	r0, r8
 800197e:	e9cd 3705 	strd	r3, r7, [sp, #20]
 8001982:	9407      	str	r4, [sp, #28]
 8001984:	9608      	str	r6, [sp, #32]
 8001986:	f001 fa03 	bl	8002d90 <HAL_GPIO_Init>
 800198a:	2320      	movs	r3, #32
 800198c:	a905      	add	r1, sp, #20
 800198e:	4628      	mov	r0, r5
 8001990:	e9cd 3705 	strd	r3, r7, [sp, #20]
 8001994:	e9cd 4607 	strd	r4, r6, [sp, #28]
 8001998:	f001 f9fa 	bl	8002d90 <HAL_GPIO_Init>
 800199c:	b00a      	add	sp, #40	; 0x28
 800199e:	e8bd 81f0 	ldmia.w	sp!, {r4, r5, r6, r7, r8, pc}
 80019a2:	bf00      	nop
 80019a4:	40023800 	.word	0x40023800
 80019a8:	40020800 	.word	0x40020800
 80019ac:	10210000 	.word	0x10210000
 80019b0:	40020000 	.word	0x40020000

080019b4 <SystemClock_Config>:
 80019b4:	b530      	push	{r4, r5, lr}
 80019b6:	2414      	movs	r4, #20
 80019b8:	b095      	sub	sp, #84	; 0x54
 80019ba:	4622      	mov	r2, r4
 80019bc:	2100      	movs	r1, #0
 80019be:	a808      	add	r0, sp, #32
 80019c0:	f002 feba 	bl	8004738 <memset>
 80019c4:	4622      	mov	r2, r4
 80019c6:	2100      	movs	r1, #0
 80019c8:	a802      	add	r0, sp, #8
 80019ca:	f002 feb5 	bl	8004738 <memset>
 80019ce:	2500      	movs	r5, #0
 80019d0:	4b1c      	ldr	r3, [pc, #112]	; (8001a44 <SystemClock_Config+0x90>)
 80019d2:	9500      	str	r5, [sp, #0]
 80019d4:	6c1a      	ldr	r2, [r3, #64]	; 0x40
 80019d6:	f042 5280 	orr.w	r2, r2, #268435456	; 0x10000000
 80019da:	641a      	str	r2, [r3, #64]	; 0x40
 80019dc:	6c1b      	ldr	r3, [r3, #64]	; 0x40
 80019de:	f003 5380 	and.w	r3, r3, #268435456	; 0x10000000
 80019e2:	9300      	str	r3, [sp, #0]
 80019e4:	9b00      	ldr	r3, [sp, #0]
 80019e6:	4b18      	ldr	r3, [pc, #96]	; (8001a48 <SystemClock_Config+0x94>)
 80019e8:	9501      	str	r5, [sp, #4]
 80019ea:	681a      	ldr	r2, [r3, #0]
 80019ec:	f442 4240 	orr.w	r2, r2, #49152	; 0xc000
 80019f0:	601a      	str	r2, [r3, #0]
 80019f2:	681b      	ldr	r3, [r3, #0]
 80019f4:	f403 4340 	and.w	r3, r3, #49152	; 0xc000
 80019f8:	9301      	str	r3, [sp, #4]
 80019fa:	2201      	movs	r2, #1
 80019fc:	9b01      	ldr	r3, [sp, #4]
 80019fe:	2310      	movs	r3, #16
 8001a00:	2402      	movs	r4, #2
 8001a02:	e9cd 230a 	strd	r2, r3, [sp, #40]	; 0x28
 8001a06:	2108      	movs	r1, #8
 8001a08:	23b4      	movs	r3, #180	; 0xb4
 8001a0a:	a807      	add	r0, sp, #28
 8001a0c:	e9cd 130f 	strd	r1, r3, [sp, #60]	; 0x3c
 8001a10:	9407      	str	r4, [sp, #28]
 8001a12:	e9cd 450d 	strd	r4, r5, [sp, #52]	; 0x34
 8001a16:	e9cd 4411 	strd	r4, r4, [sp, #68]	; 0x44
 8001a1a:	9413      	str	r4, [sp, #76]	; 0x4c
 8001a1c:	f001 fbd6 	bl	80031cc <HAL_RCC_OscConfig>
 8001a20:	f001 fa96 	bl	8002f50 <HAL_PWREx_EnableOverDrive>
 8001a24:	230f      	movs	r3, #15
 8001a26:	e9cd 3402 	strd	r3, r4, [sp, #8]
 8001a2a:	f44f 50a0 	mov.w	r0, #5120	; 0x1400
 8001a2e:	f44f 5380 	mov.w	r3, #4096	; 0x1000
 8001a32:	e9cd 0305 	strd	r0, r3, [sp, #20]
 8001a36:	2105      	movs	r1, #5
 8001a38:	a802      	add	r0, sp, #8
 8001a3a:	9504      	str	r5, [sp, #16]
 8001a3c:	f001 fac4 	bl	8002fc8 <HAL_RCC_ClockConfig>
 8001a40:	b015      	add	sp, #84	; 0x54
 8001a42:	bd30      	pop	{r4, r5, pc}
 8001a44:	40023800 	.word	0x40023800
 8001a48:	40007000 	.word	0x40007000

08001a4c <main>:
 8001a4c:	b580      	push	{r7, lr}
 8001a4e:	4ccd      	ldr	r4, [pc, #820]	; (8001d84 <main+0x338>)
 8001a50:	4ecd      	ldr	r6, [pc, #820]	; (8001d88 <main+0x33c>)
 8001a52:	b09e      	sub	sp, #120	; 0x78
 8001a54:	f000 fdee 	bl	8002634 <HAL_Init>
 8001a58:	f7ff ffac 	bl	80019b4 <SystemClock_Config>
 8001a5c:	f7ff ff3e 	bl	80018dc <MX_GPIO_Init>
 8001a60:	f000 fd30 	bl	80024c4 <MX_USART2_UART_Init>
 8001a64:	f000 fcb2 	bl	80023cc <MX_TIM1_Init>
 8001a68:	f7ff fb9e 	bl	80011a8 <MX_CAN1_Init>
 8001a6c:	f000 fb06 	bl	800207c <MX_SPI1_Init>
 8001a70:	f000 fb28 	bl	80020c4 <MX_SPI3_Init>
 8001a74:	f7ff fa88 	bl	8000f88 <MX_ADC1_Init>
 8001a78:	f7ff faca 	bl	8001010 <MX_ADC2_Init>
 8001a7c:	f7ff faf8 	bl	8001070 <MX_ADC3_Init>
 8001a80:	4620      	mov	r0, r4
 8001a82:	2106      	movs	r1, #6
 8001a84:	f000 facc 	bl	8002020 <preference_writer_init>
 8001a88:	6923      	ldr	r3, [r4, #16]
 8001a8a:	9300      	str	r3, [sp, #0]
 8001a8c:	e894 000f 	ldmia.w	r4, {r0, r1, r2, r3}
 8001a90:	f000 face 	bl	8002030 <preference_writer_load>
 8001a94:	6973      	ldr	r3, [r6, #20]
 8001a96:	4cbd      	ldr	r4, [pc, #756]	; (8001d8c <main+0x340>)
 8001a98:	3301      	adds	r3, #1
 8001a9a:	bf04      	itt	eq
 8001a9c:	2300      	moveq	r3, #0
 8001a9e:	6173      	streq	r3, [r6, #20]
 8001aa0:	6933      	ldr	r3, [r6, #16]
 8001aa2:	edd4 7a02 	vldr	s15, [r4, #8]
 8001aa6:	3301      	adds	r3, #1
 8001aa8:	bf08      	it	eq
 8001aaa:	2300      	moveq	r3, #0
 8001aac:	eef4 7a67 	vcmp.f32	s15, s15
 8001ab0:	bf08      	it	eq
 8001ab2:	6133      	streq	r3, [r6, #16]
 8001ab4:	eef1 fa10 	vmrs	APSR_nzcv, fpscr
 8001ab8:	d606      	bvs.n	8001ac8 <main+0x7c>
 8001aba:	eebf 7a00 	vmov.f32	s14, #240	; 0xbf800000 -1.0
 8001abe:	eef4 7a47 	vcmp.f32	s15, s14
 8001ac2:	eef1 fa10 	vmrs	APSR_nzcv, fpscr
 8001ac6:	d101      	bne.n	8001acc <main+0x80>
 8001ac8:	4bb1      	ldr	r3, [pc, #708]	; (8001d90 <main+0x344>)
 8001aca:	60a3      	str	r3, [r4, #8]
 8001acc:	edd4 7a03 	vldr	s15, [r4, #12]
 8001ad0:	eef4 7a67 	vcmp.f32	s15, s15
 8001ad4:	eef1 fa10 	vmrs	APSR_nzcv, fpscr
 8001ad8:	d606      	bvs.n	8001ae8 <main+0x9c>
 8001ada:	eebf 7a00 	vmov.f32	s14, #240	; 0xbf800000 -1.0
 8001ade:	eef4 7a47 	vcmp.f32	s15, s14
 8001ae2:	eef1 fa10 	vmrs	APSR_nzcv, fpscr
 8001ae6:	d101      	bne.n	8001aec <main+0xa0>
 8001ae8:	4baa      	ldr	r3, [pc, #680]	; (8001d94 <main+0x348>)
 8001aea:	60e3      	str	r3, [r4, #12]
 8001aec:	edd4 7a06 	vldr	s15, [r4, #24]
 8001af0:	eef4 7a67 	vcmp.f32	s15, s15
 8001af4:	eef1 fa10 	vmrs	APSR_nzcv, fpscr
 8001af8:	d606      	bvs.n	8001b08 <main+0xbc>
 8001afa:	eebf 7a00 	vmov.f32	s14, #240	; 0xbf800000 -1.0
 8001afe:	eef4 7a47 	vcmp.f32	s15, s14
 8001b02:	eef1 fa10 	vmrs	APSR_nzcv, fpscr
 8001b06:	d101      	bne.n	8001b0c <main+0xc0>
 8001b08:	4ba3      	ldr	r3, [pc, #652]	; (8001d98 <main+0x34c>)
 8001b0a:	61a3      	str	r3, [r4, #24]
 8001b0c:	6873      	ldr	r3, [r6, #4]
 8001b0e:	edd4 7a07 	vldr	s15, [r4, #28]
 8001b12:	3301      	adds	r3, #1
 8001b14:	bf04      	itt	eq
 8001b16:	2301      	moveq	r3, #1
 8001b18:	6073      	streq	r3, [r6, #4]
 8001b1a:	68b3      	ldr	r3, [r6, #8]
 8001b1c:	3301      	adds	r3, #1
 8001b1e:	bf04      	itt	eq
 8001b20:	2300      	moveq	r3, #0
 8001b22:	60b3      	streq	r3, [r6, #8]
 8001b24:	68f3      	ldr	r3, [r6, #12]
 8001b26:	3301      	adds	r3, #1
 8001b28:	bf08      	it	eq
 8001b2a:	f44f 737a 	moveq.w	r3, #1000	; 0x3e8
 8001b2e:	eef4 7a67 	vcmp.f32	s15, s15
 8001b32:	bf08      	it	eq
 8001b34:	60f3      	streq	r3, [r6, #12]
 8001b36:	eef1 fa10 	vmrs	APSR_nzcv, fpscr
 8001b3a:	d606      	bvs.n	8001b4a <main+0xfe>
 8001b3c:	eebf 7a00 	vmov.f32	s14, #240	; 0xbf800000 -1.0
 8001b40:	eef4 7a47 	vcmp.f32	s15, s14
 8001b44:	eef1 fa10 	vmrs	APSR_nzcv, fpscr
 8001b48:	d101      	bne.n	8001b4e <main+0x102>
 8001b4a:	2300      	movs	r3, #0
 8001b4c:	61e3      	str	r3, [r4, #28]
 8001b4e:	edd4 7a08 	vldr	s15, [r4, #32]
 8001b52:	eef4 7a67 	vcmp.f32	s15, s15
 8001b56:	eef1 fa10 	vmrs	APSR_nzcv, fpscr
 8001b5a:	d606      	bvs.n	8001b6a <main+0x11e>
 8001b5c:	eebf 7a00 	vmov.f32	s14, #240	; 0xbf800000 -1.0
 8001b60:	eef4 7a47 	vcmp.f32	s15, s14
 8001b64:	eef1 fa10 	vmrs	APSR_nzcv, fpscr
 8001b68:	d101      	bne.n	8001b6e <main+0x122>
 8001b6a:	4b8c      	ldr	r3, [pc, #560]	; (8001d9c <main+0x350>)
 8001b6c:	6223      	str	r3, [r4, #32]
 8001b6e:	edd4 7a09 	vldr	s15, [r4, #36]	; 0x24
 8001b72:	eef4 7a67 	vcmp.f32	s15, s15
 8001b76:	eef1 fa10 	vmrs	APSR_nzcv, fpscr
 8001b7a:	d606      	bvs.n	8001b8a <main+0x13e>
 8001b7c:	eebf 7a00 	vmov.f32	s14, #240	; 0xbf800000 -1.0
 8001b80:	eef4 7a47 	vcmp.f32	s15, s14
 8001b84:	eef1 fa10 	vmrs	APSR_nzcv, fpscr
 8001b88:	d101      	bne.n	8001b8e <main+0x142>
 8001b8a:	4b85      	ldr	r3, [pc, #532]	; (8001da0 <main+0x354>)
 8001b8c:	6263      	str	r3, [r4, #36]	; 0x24
 8001b8e:	edd4 7a0a 	vldr	s15, [r4, #40]	; 0x28
 8001b92:	eef4 7a67 	vcmp.f32	s15, s15
 8001b96:	eef1 fa10 	vmrs	APSR_nzcv, fpscr
 8001b9a:	d606      	bvs.n	8001baa <main+0x15e>
 8001b9c:	eebf 7a00 	vmov.f32	s14, #240	; 0xbf800000 -1.0
 8001ba0:	eef4 7a47 	vcmp.f32	s15, s14
 8001ba4:	eef1 fa10 	vmrs	APSR_nzcv, fpscr
 8001ba8:	d101      	bne.n	8001bae <main+0x162>
 8001baa:	4b7e      	ldr	r3, [pc, #504]	; (8001da4 <main+0x358>)
 8001bac:	62a3      	str	r3, [r4, #40]	; 0x28
 8001bae:	4d7e      	ldr	r5, [pc, #504]	; (8001da8 <main+0x35c>)
 8001bb0:	487e      	ldr	r0, [pc, #504]	; (8001dac <main+0x360>)
 8001bb2:	4f7f      	ldr	r7, [pc, #508]	; (8001db0 <main+0x364>)
 8001bb4:	f04f 4380 	mov.w	r3, #1073741824	; 0x40000000
 8001bb8:	2200      	movs	r2, #0
 8001bba:	f002 fdc5 	bl	8004748 <printf>
 8001bbe:	2258      	movs	r2, #88	; 0x58
 8001bc0:	497c      	ldr	r1, [pc, #496]	; (8001db4 <main+0x368>)
 8001bc2:	4628      	mov	r0, r5
 8001bc4:	f002 fd94 	bl	80046f0 <memcpy>
 8001bc8:	f44f 4300 	mov.w	r3, #32768	; 0x8000
 8001bcc:	f8a5 305c 	strh.w	r3, [r5, #92]	; 0x5c
 8001bd0:	f44f 3380 	mov.w	r3, #65536	; 0x10000
 8001bd4:	f8c5 30d8 	str.w	r3, [r5, #216]	; 0xd8
 8001bd8:	6933      	ldr	r3, [r6, #16]
 8001bda:	f8c5 30e0 	str.w	r3, [r5, #224]	; 0xe0
 8001bde:	6973      	ldr	r3, [r6, #20]
 8001be0:	f8c5 30e4 	str.w	r3, [r5, #228]	; 0xe4
 8001be4:	4628      	mov	r0, r5
 8001be6:	6aa3      	ldr	r3, [r4, #40]	; 0x28
 8001be8:	4c73      	ldr	r4, [pc, #460]	; (8001db8 <main+0x36c>)
 8001bea:	f8c5 30c8 	str.w	r3, [r5, #200]	; 0xc8
 8001bee:	2164      	movs	r1, #100	; 0x64
 8001bf0:	65af      	str	r7, [r5, #88]	; 0x58
 8001bf2:	f000 f8f0 	bl	8001dd6 <ps_warmup>
 8001bf6:	f44f 7200 	mov.w	r2, #512	; 0x200
 8001bfa:	2100      	movs	r1, #0
 8001bfc:	f105 00e8 	add.w	r0, r5, #232	; 0xe8
 8001c00:	f002 fd9a 	bl	8004738 <memset>
 8001c04:	2258      	movs	r2, #88	; 0x58
 8001c06:	496d      	ldr	r1, [pc, #436]	; (8001dbc <main+0x370>)
 8001c08:	4620      	mov	r0, r4
 8001c0a:	f002 fd71 	bl	80046f0 <memcpy>
 8001c0e:	2310      	movs	r3, #16
 8001c10:	4638      	mov	r0, r7
 8001c12:	2201      	movs	r2, #1
 8001c14:	f44f 6100 	mov.w	r1, #2048	; 0x800
 8001c18:	f8a4 305c 	strh.w	r3, [r4, #92]	; 0x5c
 8001c1c:	65a7      	str	r7, [r4, #88]	; 0x58
 8001c1e:	f001 f991 	bl	8002f44 <HAL_GPIO_WritePin>
 8001c22:	2254      	movs	r2, #84	; 0x54
 8001c24:	f104 0110 	add.w	r1, r4, #16
 8001c28:	4668      	mov	r0, sp
 8001c2a:	f002 fd61 	bl	80046f0 <memcpy>
 8001c2e:	e894 000f 	ldmia.w	r4, {r0, r1, r2, r3}
 8001c32:	2500      	movs	r5, #0
 8001c34:	f7ff fc0b 	bl	800144e <drv_calibrate>
 8001c38:	2601      	movs	r6, #1
 8001c3a:	2254      	movs	r2, #84	; 0x54
 8001c3c:	f104 0110 	add.w	r1, r4, #16
 8001c40:	4668      	mov	r0, sp
 8001c42:	e9cd 561c 	strd	r5, r6, [sp, #112]	; 0x70
 8001c46:	e9cd 6518 	strd	r6, r5, [sp, #96]	; 0x60
 8001c4a:	e9cd 6516 	strd	r6, r5, [sp, #88]	; 0x58
 8001c4e:	e9cd 551a 	strd	r5, r5, [sp, #104]	; 0x68
 8001c52:	9515      	str	r5, [sp, #84]	; 0x54
 8001c54:	f002 fd4c 	bl	80046f0 <memcpy>
 8001c58:	e894 000f 	ldmia.w	r4, {r0, r1, r2, r3}
 8001c5c:	f7ff fb3c 	bl	80012d8 <drv_write_DCR>
 8001c60:	2703      	movs	r7, #3
 8001c62:	2254      	movs	r2, #84	; 0x54
 8001c64:	f104 0110 	add.w	r1, r4, #16
 8001c68:	4668      	mov	r0, sp
 8001c6a:	e9cd 6516 	strd	r6, r5, [sp, #88]	; 0x58
 8001c6e:	e9cd 671c 	strd	r6, r7, [sp, #112]	; 0x70
 8001c72:	e9cd 661a 	strd	r6, r6, [sp, #104]	; 0x68
 8001c76:	e9cd 7518 	strd	r7, r5, [sp, #96]	; 0x60
 8001c7a:	9515      	str	r5, [sp, #84]	; 0x54
 8001c7c:	f002 fd38 	bl	80046f0 <memcpy>
 8001c80:	e894 000f 	ldmia.w	r4, {r0, r1, r2, r3}
 8001c84:	f7ff fb6e 	bl	8001364 <drv_write_CSACR>
 8001c88:	2254      	movs	r2, #84	; 0x54
 8001c8a:	f104 0110 	add.w	r1, r4, #16
 8001c8e:	4668      	mov	r0, sp
 8001c90:	e9cd 6516 	strd	r6, r5, [sp, #88]	; 0x58
 8001c94:	e9cd 571c 	strd	r5, r7, [sp, #112]	; 0x70
 8001c98:	e9cd 551a 	strd	r5, r5, [sp, #104]	; 0x68
 8001c9c:	e9cd 7618 	strd	r7, r6, [sp, #96]	; 0x60
 8001ca0:	9515      	str	r5, [sp, #84]	; 0x54
 8001ca2:	f002 fd25 	bl	80046f0 <memcpy>
 8001ca6:	e894 000f 	ldmia.w	r4, {r0, r1, r2, r3}
 8001caa:	f7ff fb5b 	bl	8001364 <drv_write_CSACR>
 8001cae:	230f      	movs	r3, #15
 8001cb0:	2254      	movs	r2, #84	; 0x54
 8001cb2:	f104 0110 	add.w	r1, r4, #16
 8001cb6:	4668      	mov	r0, sp
 8001cb8:	e9cd 7318 	strd	r7, r3, [sp, #96]	; 0x60
 8001cbc:	e9cd 5716 	strd	r5, r7, [sp, #88]	; 0x58
 8001cc0:	9615      	str	r6, [sp, #84]	; 0x54
 8001cc2:	f002 fd15 	bl	80046f0 <memcpy>
 8001cc6:	e894 000f 	ldmia.w	r4, {r0, r1, r2, r3}
 8001cca:	f7ff fb2e 	bl	800132a <drv_write_OCPCR>
 8001cce:	2254      	movs	r2, #84	; 0x54
 8001cd0:	f104 0110 	add.w	r1, r4, #16
 8001cd4:	4668      	mov	r0, sp
 8001cd6:	f002 fd0b 	bl	80046f0 <memcpy>
 8001cda:	e894 000f 	ldmia.w	r4, {r0, r1, r2, r3}
 8001cde:	f7ff fb90 	bl	8001402 <drv_disable_gd>
 8001ce2:	200a      	movs	r0, #10
 8001ce4:	f000 fcd2 	bl	800268c <HAL_Delay>
 8001ce8:	2502      	movs	r5, #2
 8001cea:	2254      	movs	r2, #84	; 0x54
 8001cec:	f104 0110 	add.w	r1, r4, #16
 8001cf0:	4668      	mov	r0, sp
 8001cf2:	9515      	str	r5, [sp, #84]	; 0x54
 8001cf4:	f002 fcfc 	bl	80046f0 <memcpy>
 8001cf8:	e894 000f 	ldmia.w	r4, {r0, r1, r2, r3}
 8001cfc:	f7ff fad6 	bl	80012ac <drv_read_register>
 8001d00:	4601      	mov	r1, r0
 8001d02:	482f      	ldr	r0, [pc, #188]	; (8001dc0 <main+0x374>)
 8001d04:	f002 fd20 	bl	8004748 <printf>
 8001d08:	2254      	movs	r2, #84	; 0x54
 8001d0a:	f104 0110 	add.w	r1, r4, #16
 8001d0e:	4668      	mov	r0, sp
 8001d10:	f002 fcee 	bl	80046f0 <memcpy>
 8001d14:	e894 000f 	ldmia.w	r4, {r0, r1, r2, r3}
 8001d18:	f7ff fb4d 	bl	80013b6 <drv_enable_gd>
 8001d1c:	2254      	movs	r2, #84	; 0x54
 8001d1e:	f104 0110 	add.w	r1, r4, #16
 8001d22:	4668      	mov	r0, sp
 8001d24:	9515      	str	r5, [sp, #84]	; 0x54
 8001d26:	f002 fce3 	bl	80046f0 <memcpy>
 8001d2a:	e894 000f 	ldmia.w	r4, {r0, r1, r2, r3}
 8001d2e:	f7ff fabd 	bl	80012ac <drv_read_register>
 8001d32:	4601      	mov	r1, r0
 8001d34:	4822      	ldr	r0, [pc, #136]	; (8001dc0 <main+0x374>)
 8001d36:	4d23      	ldr	r5, [pc, #140]	; (8001dc4 <main+0x378>)
 8001d38:	f002 fd06 	bl	8004748 <printf>
 8001d3c:	4632      	mov	r2, r6
 8001d3e:	4922      	ldr	r1, [pc, #136]	; (8001dc8 <main+0x37c>)
 8001d40:	4822      	ldr	r0, [pc, #136]	; (8001dcc <main+0x380>)
 8001d42:	f002 fa23 	bl	800418c <HAL_UART_Receive_IT>
 8001d46:	4822      	ldr	r0, [pc, #136]	; (8001dd0 <main+0x384>)
 8001d48:	f001 fdfe 	bl	8003948 <HAL_TIM_Base_Start_IT>
 8001d4c:	f104 0610 	add.w	r6, r4, #16
 8001d50:	2064      	movs	r0, #100	; 0x64
 8001d52:	f000 fc9b 	bl	800268c <HAL_Delay>
 8001d56:	4631      	mov	r1, r6
 8001d58:	2254      	movs	r2, #84	; 0x54
 8001d5a:	4668      	mov	r0, sp
 8001d5c:	f002 fcc8 	bl	80046f0 <memcpy>
 8001d60:	e894 000f 	ldmia.w	r4, {r0, r1, r2, r3}
 8001d64:	f7ff fb8a 	bl	800147c <drv_print_faults>
 8001d68:	2201      	movs	r2, #1
 8001d6a:	2120      	movs	r1, #32
 8001d6c:	4628      	mov	r0, r5
 8001d6e:	f001 f8e9 	bl	8002f44 <HAL_GPIO_WritePin>
 8001d72:	2064      	movs	r0, #100	; 0x64
 8001d74:	f000 fc8a 	bl	800268c <HAL_Delay>
 8001d78:	2200      	movs	r2, #0
 8001d7a:	2120      	movs	r1, #32
 8001d7c:	4628      	mov	r0, r5
 8001d7e:	f001 f8e1 	bl	8002f44 <HAL_GPIO_WritePin>
 8001d82:	e7e5      	b.n	8001d50 <main+0x304>
 8001d84:	20000e08 	.word	0x20000e08
 8001d88:	200011f0 	.word	0x200011f0
 8001d8c:	20000e1c 	.word	0x20000e1c
 8001d90:	447a0000 	.word	0x447a0000
 8001d94:	42200000 	.word	0x42200000
 8001d98:	41400000 	.word	0x41400000
 8001d9c:	42fa0000 	.word	0x42fa0000
 8001da0:	41600000 	.word	0x41600000
 8001da4:	41a80000 	.word	0x41a80000
 8001da8:	20000b18 	.word	0x20000b18
 8001dac:	08008a14 	.word	0x08008a14
 8001db0:	40020000 	.word	0x40020000
 8001db4:	20001680 	.word	0x20001680
 8001db8:	200015f0 	.word	0x200015f0
 8001dbc:	200016d8 	.word	0x200016d8
 8001dc0:	08008a2b 	.word	0x08008a2b
 8001dc4:	40020800 	.word	0x40020800
 8001dc8:	20000e04 	.word	0x20000e04
 8001dcc:	20001770 	.word	0x20001770
 8001dd0:	20001730 	.word	0x20001730

08001dd4 <Error_Handler>:
 8001dd4:	4770      	bx	lr

08001dd6 <ps_warmup>:
 8001dd6:	e92d 43f7 	stmdb	sp!, {r0, r1, r2, r4, r5, r6, r7, r8, r9, lr}
 8001dda:	2500      	movs	r5, #0
 8001ddc:	4604      	mov	r4, r0
 8001dde:	460e      	mov	r6, r1
 8001de0:	462f      	mov	r7, r5
 8001de2:	f100 0860 	add.w	r8, r0, #96	; 0x60
 8001de6:	f100 095e 	add.w	r9, r0, #94	; 0x5e
 8001dea:	42b5      	cmp	r5, r6
 8001dec:	db02      	blt.n	8001df4 <ps_warmup+0x1e>
 8001dee:	b003      	add	sp, #12
 8001df0:	e8bd 83f0 	ldmia.w	sp!, {r4, r5, r6, r7, r8, r9, pc}
 8001df4:	2200      	movs	r2, #0
 8001df6:	f8b4 105c 	ldrh.w	r1, [r4, #92]	; 0x5c
 8001dfa:	6da0      	ldr	r0, [r4, #88]	; 0x58
 8001dfc:	f8a4 705e 	strh.w	r7, [r4, #94]	; 0x5e
 8001e00:	f001 f8a0 	bl	8002f44 <HAL_GPIO_WritePin>
 8001e04:	2364      	movs	r3, #100	; 0x64
 8001e06:	9300      	str	r3, [sp, #0]
 8001e08:	4642      	mov	r2, r8
 8001e0a:	2301      	movs	r3, #1
 8001e0c:	4649      	mov	r1, r9
 8001e0e:	4620      	mov	r0, r4
 8001e10:	f001 fc1b 	bl	800364a <HAL_SPI_TransmitReceive>
 8001e14:	f894 3051 	ldrb.w	r3, [r4, #81]	; 0x51
 8001e18:	2b02      	cmp	r3, #2
 8001e1a:	d0fb      	beq.n	8001e14 <ps_warmup+0x3e>
 8001e1c:	2201      	movs	r2, #1
 8001e1e:	f8b4 105c 	ldrh.w	r1, [r4, #92]	; 0x5c
 8001e22:	6da0      	ldr	r0, [r4, #88]	; 0x58
 8001e24:	f001 f88e 	bl	8002f44 <HAL_GPIO_WritePin>
 8001e28:	3501      	adds	r5, #1
 8001e2a:	e7de      	b.n	8001dea <ps_warmup+0x14>
 8001e2c:	0000      	movs	r0, r0
	...

08001e30 <ps_sample>:
 8001e30:	b5f0      	push	{r4, r5, r6, r7, lr}
 8001e32:	ed2d 8b02 	vpush	{d8}
 8001e36:	f8d0 30d0 	ldr.w	r3, [r0, #208]	; 0xd0
 8001e3a:	f8c0 30d4 	str.w	r3, [r0, #212]	; 0xd4
 8001e3e:	f100 0568 	add.w	r5, r0, #104	; 0x68
 8001e42:	4604      	mov	r4, r0
 8001e44:	b083      	sub	sp, #12
 8001e46:	224c      	movs	r2, #76	; 0x4c
 8001e48:	4629      	mov	r1, r5
 8001e4a:	306c      	adds	r0, #108	; 0x6c
 8001e4c:	eeb0 8a40 	vmov.f32	s16, s0
 8001e50:	f002 fc59 	bl	8004706 <memmove>
 8001e54:	2200      	movs	r2, #0
 8001e56:	f8a4 205e 	strh.w	r2, [r4, #94]	; 0x5e
 8001e5a:	f8b4 105c 	ldrh.w	r1, [r4, #92]	; 0x5c
 8001e5e:	6da0      	ldr	r0, [r4, #88]	; 0x58
 8001e60:	f001 f870 	bl	8002f44 <HAL_GPIO_WritePin>
 8001e64:	2364      	movs	r3, #100	; 0x64
 8001e66:	9300      	str	r3, [sp, #0]
 8001e68:	f104 0260 	add.w	r2, r4, #96	; 0x60
 8001e6c:	2301      	movs	r3, #1
 8001e6e:	f104 015e 	add.w	r1, r4, #94	; 0x5e
 8001e72:	4620      	mov	r0, r4
 8001e74:	f001 fbe9 	bl	800364a <HAL_SPI_TransmitReceive>
 8001e78:	f894 3051 	ldrb.w	r3, [r4, #81]	; 0x51
 8001e7c:	2b02      	cmp	r3, #2
 8001e7e:	d0fb      	beq.n	8001e78 <ps_sample+0x48>
 8001e80:	2201      	movs	r2, #1
 8001e82:	f8b4 105c 	ldrh.w	r1, [r4, #92]	; 0x5c
 8001e86:	6da0      	ldr	r0, [r4, #88]	; 0x58
 8001e88:	f001 f85c 	bl	8002f44 <HAL_GPIO_WritePin>
 8001e8c:	f8b4 0060 	ldrh.w	r0, [r4, #96]	; 0x60
 8001e90:	ed94 7a36 	vldr	s14, [r4, #216]	; 0xd8
 8001e94:	f8c4 00cc 	str.w	r0, [r4, #204]	; 0xcc
 8001e98:	1241      	asrs	r1, r0, #9
 8001e9a:	f101 033a 	add.w	r3, r1, #58	; 0x3a
 8001e9e:	3101      	adds	r1, #1
 8001ea0:	f001 017f 	and.w	r1, r1, #127	; 0x7f
 8001ea4:	313a      	adds	r1, #58	; 0x3a
 8001ea6:	f854 2023 	ldr.w	r2, [r4, r3, lsl #2]
 8001eaa:	f854 1021 	ldr.w	r1, [r4, r1, lsl #2]
 8001eae:	f3c0 0308 	ubfx	r3, r0, #0, #9
 8001eb2:	1a89      	subs	r1, r1, r2
 8001eb4:	434b      	muls	r3, r1
 8001eb6:	eb02 2363 	add.w	r3, r2, r3, asr #9
 8001eba:	f8d4 20e0 	ldr.w	r2, [r4, #224]	; 0xe0
 8001ebe:	4403      	add	r3, r0
 8001ec0:	f8c4 30d0 	str.w	r3, [r4, #208]	; 0xd0
 8001ec4:	1a9b      	subs	r3, r3, r2
 8001ec6:	ee07 3a90 	vmov	s15, r3
 8001eca:	eeb8 7ac7 	vcvt.f32.s32	s14, s14
 8001ece:	eef8 7ae7 	vcvt.f32.s32	s15, s15
 8001ed2:	eec7 7a87 	vdiv.f32	s15, s15, s14
 8001ed6:	ee17 0a90 	vmov	r0, s15
 8001eda:	f7fe fb55 	bl	8000588 <__aeabi_f2d>
 8001ede:	ed9f 1b4a 	vldr	d1, [pc, #296]	; 8002008 <ps_sample+0x1d8>
 8001ee2:	ec41 0b10 	vmov	d0, r0, r1
 8001ee6:	f002 fa61 	bl	80043ac <fmod>
 8001eea:	a34b      	add	r3, pc, #300	; (adr r3, 8002018 <ps_sample+0x1e8>)
 8001eec:	e9d3 2300 	ldrd	r2, r3, [r3]
 8001ef0:	ec51 0b10 	vmov	r0, r1, d0
 8001ef4:	f7fe fba0 	bl	8000638 <__aeabi_dmul>
 8001ef8:	f7fe fe76 	bl	8000be8 <__aeabi_d2f>
 8001efc:	f8d4 20e4 	ldr.w	r2, [r4, #228]	; 0xe4
 8001f00:	f8d4 30d0 	ldr.w	r3, [r4, #208]	; 0xd0
 8001f04:	ed94 7a32 	vldr	s14, [r4, #200]	; 0xc8
 8001f08:	6660      	str	r0, [r4, #100]	; 0x64
 8001f0a:	1a9b      	subs	r3, r3, r2
 8001f0c:	ee07 3a90 	vmov	s15, r3
 8001f10:	eef8 7ae7 	vcvt.f32.s32	s15, s15
 8001f14:	ee67 7a87 	vmul.f32	s15, s15, s14
 8001f18:	ed94 7a36 	vldr	s14, [r4, #216]	; 0xd8
 8001f1c:	eeb8 7ac7 	vcvt.f32.s32	s14, s14
 8001f20:	eec7 7a87 	vdiv.f32	s15, s15, s14
 8001f24:	ee17 0a90 	vmov	r0, s15
 8001f28:	f7fe fb2e 	bl	8000588 <__aeabi_f2d>
 8001f2c:	ed9f 1b36 	vldr	d1, [pc, #216]	; 8002008 <ps_sample+0x1d8>
 8001f30:	ec41 0b10 	vmov	d0, r0, r1
 8001f34:	f002 fa3a 	bl	80043ac <fmod>
 8001f38:	a337      	add	r3, pc, #220	; (adr r3, 8002018 <ps_sample+0x1e8>)
 8001f3a:	e9d3 2300 	ldrd	r2, r3, [r3]
 8001f3e:	ec51 0b10 	vmov	r0, r1, d0
 8001f42:	f7fe fb79 	bl	8000638 <__aeabi_dmul>
 8001f46:	f7fe fe4f 	bl	8000be8 <__aeabi_d2f>
 8001f4a:	e9d4 2334 	ldrd	r2, r3, [r4, #208]	; 0xd0
 8001f4e:	f8d4 10d8 	ldr.w	r1, [r4, #216]	; 0xd8
 8001f52:	f8c4 00bc 	str.w	r0, [r4, #188]	; 0xbc
 8001f56:	1ad2      	subs	r2, r2, r3
 8001f58:	ebb2 0f61 	cmp.w	r2, r1, asr #1
 8001f5c:	f8d4 30dc 	ldr.w	r3, [r4, #220]	; 0xdc
 8001f60:	dd4b      	ble.n	8001ffa <ps_sample+0x1ca>
 8001f62:	3b01      	subs	r3, #1
 8001f64:	f8c4 30dc 	str.w	r3, [r4, #220]	; 0xdc
 8001f68:	edd4 7a37 	vldr	s15, [r4, #220]	; 0xdc
 8001f6c:	eef8 7ae7 	vcvt.f32.s32	s15, s15
 8001f70:	ee17 0a90 	vmov	r0, s15
 8001f74:	f7fe fb08 	bl	8000588 <__aeabi_f2d>
 8001f78:	a327      	add	r3, pc, #156	; (adr r3, 8002018 <ps_sample+0x1e8>)
 8001f7a:	e9d3 2300 	ldrd	r2, r3, [r3]
 8001f7e:	f7fe fb5b 	bl	8000638 <__aeabi_dmul>
 8001f82:	4606      	mov	r6, r0
 8001f84:	6e60      	ldr	r0, [r4, #100]	; 0x64
 8001f86:	460f      	mov	r7, r1
 8001f88:	f7fe fafe 	bl	8000588 <__aeabi_f2d>
 8001f8c:	460b      	mov	r3, r1
 8001f8e:	4602      	mov	r2, r0
 8001f90:	4639      	mov	r1, r7
 8001f92:	4630      	mov	r0, r6
 8001f94:	f7fe f99a 	bl	80002cc <__adddf3>
 8001f98:	f7fe fe26 	bl	8000be8 <__aeabi_d2f>
 8001f9c:	eddf 7a1c 	vldr	s15, [pc, #112]	; 8002010 <ps_sample+0x1e0>
 8001fa0:	ed9f 5a1c 	vldr	s10, [pc, #112]	; 8002014 <ps_sample+0x1e4>
 8001fa4:	66a0      	str	r0, [r4, #104]	; 0x68
 8001fa6:	ee07 0a10 	vmov	s14, r0
 8001faa:	2300      	movs	r3, #0
 8001fac:	eef2 5a03 	vmov.f32	s11, #35	; 0x41180000  9.5
 8001fb0:	ee06 3a90 	vmov	s13, r3
 8001fb4:	ecb5 6a01 	vldmia	r5!, {s12}
 8001fb8:	eef8 6ae6 	vcvt.f32.s32	s13, s13
 8001fbc:	ee26 6a05 	vmul.f32	s12, s12, s10
 8001fc0:	ee76 6ae5 	vsub.f32	s13, s13, s11
 8001fc4:	3301      	adds	r3, #1
 8001fc6:	2b14      	cmp	r3, #20
 8001fc8:	eee6 7a26 	vfma.f32	s15, s12, s13
 8001fcc:	d1f0      	bne.n	8001fb0 <ps_sample+0x180>
 8001fce:	eef1 7a67 	vneg.f32	s15, s15
 8001fd2:	eec7 6a88 	vdiv.f32	s13, s15, s16
 8001fd6:	edd4 7a2d 	vldr	s15, [r4, #180]	; 0xb4
 8001fda:	edc4 6a31 	vstr	s13, [r4, #196]	; 0xc4
 8001fde:	ee37 7a67 	vsub.f32	s14, s14, s15
 8001fe2:	eef3 7a04 	vmov.f32	s15, #52	; 0x41a00000  20.0
 8001fe6:	ee28 8a27 	vmul.f32	s16, s16, s15
 8001fea:	eec7 7a08 	vdiv.f32	s15, s14, s16
 8001fee:	edc4 7a30 	vstr	s15, [r4, #192]	; 0xc0
 8001ff2:	b003      	add	sp, #12
 8001ff4:	ecbd 8b02 	vpop	{d8}
 8001ff8:	bdf0      	pop	{r4, r5, r6, r7, pc}
 8001ffa:	4249      	negs	r1, r1
 8001ffc:	ebb2 0f61 	cmp.w	r2, r1, asr #1
 8002000:	dab2      	bge.n	8001f68 <ps_sample+0x138>
 8002002:	3301      	adds	r3, #1
 8002004:	e7ae      	b.n	8001f64 <ps_sample+0x134>
 8002006:	bf00      	nop
 8002008:	00000000 	.word	0x00000000
 800200c:	3ff00000 	.word	0x3ff00000
 8002010:	00000000 	.word	0x00000000
 8002014:	3ac519cb 	.word	0x3ac519cb
 8002018:	54442d18 	.word	0x54442d18
 800201c:	401921fb 	.word	0x401921fb

08002020 <preference_writer_init>:
 8002020:	b538      	push	{r3, r4, r5, lr}
 8002022:	4604      	mov	r4, r0
 8002024:	460d      	mov	r5, r1
 8002026:	f7ff fae5 	bl	80015f4 <flash_writer_init>
 800202a:	60e5      	str	r5, [r4, #12]
 800202c:	bd38      	pop	{r3, r4, r5, pc}
	...

08002030 <preference_writer_load>:
 8002030:	b084      	sub	sp, #16
 8002032:	b538      	push	{r3, r4, r5, lr}
 8002034:	4d0f      	ldr	r5, [pc, #60]	; (8002074 <preference_writer_load+0x44>)
 8002036:	ac04      	add	r4, sp, #16
 8002038:	e884 000f 	stmia.w	r4, {r0, r1, r2, r3}
 800203c:	2400      	movs	r4, #0
 800203e:	aa04      	add	r2, sp, #16
 8002040:	4623      	mov	r3, r4
 8002042:	ca07      	ldmia	r2, {r0, r1, r2}
 8002044:	f7ff fae4 	bl	8001610 <flash_read_int>
 8002048:	f845 0024 	str.w	r0, [r5, r4, lsl #2]
 800204c:	3401      	adds	r4, #1
 800204e:	f5b4 7f80 	cmp.w	r4, #256	; 0x100
 8002052:	d1f4      	bne.n	800203e <preference_writer_load+0xe>
 8002054:	4d08      	ldr	r5, [pc, #32]	; (8002078 <preference_writer_load+0x48>)
 8002056:	aa04      	add	r2, sp, #16
 8002058:	4623      	mov	r3, r4
 800205a:	ca07      	ldmia	r2, {r0, r1, r2}
 800205c:	f7ff fae8 	bl	8001630 <flash_read_float>
 8002060:	3401      	adds	r4, #1
 8002062:	f5b4 7fa0 	cmp.w	r4, #320	; 0x140
 8002066:	eca5 0a01 	vstmia	r5!, {s0}
 800206a:	d1f4      	bne.n	8002056 <preference_writer_load+0x26>
 800206c:	e8bd 4038 	ldmia.w	sp!, {r3, r4, r5, lr}
 8002070:	b004      	add	sp, #16
 8002072:	4770      	bx	lr
 8002074:	200011f0 	.word	0x200011f0
 8002078:	20000e1c 	.word	0x20000e1c

0800207c <MX_SPI1_Init>:
 800207c:	480f      	ldr	r0, [pc, #60]	; (80020bc <MX_SPI1_Init+0x40>)
 800207e:	4a10      	ldr	r2, [pc, #64]	; (80020c0 <MX_SPI1_Init+0x44>)
 8002080:	b508      	push	{r3, lr}
 8002082:	f44f 7382 	mov.w	r3, #260	; 0x104
 8002086:	e9c0 2300 	strd	r2, r3, [r0]
 800208a:	2300      	movs	r3, #0
 800208c:	f44f 6200 	mov.w	r2, #2048	; 0x800
 8002090:	e9c0 3202 	strd	r3, r2, [r0, #8]
 8002094:	e9c0 3304 	strd	r3, r3, [r0, #16]
 8002098:	f44f 7100 	mov.w	r1, #512	; 0x200
 800209c:	2208      	movs	r2, #8
 800209e:	e9c0 3308 	strd	r3, r3, [r0, #32]
 80020a2:	6283      	str	r3, [r0, #40]	; 0x28
 80020a4:	230a      	movs	r3, #10
 80020a6:	e9c0 1206 	strd	r1, r2, [r0, #24]
 80020aa:	62c3      	str	r3, [r0, #44]	; 0x2c
 80020ac:	f001 fa90 	bl	80035d0 <HAL_SPI_Init>
 80020b0:	b118      	cbz	r0, 80020ba <MX_SPI1_Init+0x3e>
 80020b2:	e8bd 4008 	ldmia.w	sp!, {r3, lr}
 80020b6:	f7ff be8d 	b.w	8001dd4 <Error_Handler>
 80020ba:	bd08      	pop	{r3, pc}
 80020bc:	200016d8 	.word	0x200016d8
 80020c0:	40013000 	.word	0x40013000

080020c4 <MX_SPI3_Init>:
 80020c4:	480f      	ldr	r0, [pc, #60]	; (8002104 <MX_SPI3_Init+0x40>)
 80020c6:	4a10      	ldr	r2, [pc, #64]	; (8002108 <MX_SPI3_Init+0x44>)
 80020c8:	b508      	push	{r3, lr}
 80020ca:	f44f 7382 	mov.w	r3, #260	; 0x104
 80020ce:	e9c0 2300 	strd	r2, r3, [r0]
 80020d2:	2300      	movs	r3, #0
 80020d4:	f44f 6200 	mov.w	r2, #2048	; 0x800
 80020d8:	e9c0 3202 	strd	r3, r2, [r0, #8]
 80020dc:	f44f 7200 	mov.w	r2, #512	; 0x200
 80020e0:	e9c0 3304 	strd	r3, r3, [r0, #16]
 80020e4:	e9c0 2306 	strd	r2, r3, [r0, #24]
 80020e8:	e9c0 3308 	strd	r3, r3, [r0, #32]
 80020ec:	6283      	str	r3, [r0, #40]	; 0x28
 80020ee:	230a      	movs	r3, #10
 80020f0:	62c3      	str	r3, [r0, #44]	; 0x2c
 80020f2:	f001 fa6d 	bl	80035d0 <HAL_SPI_Init>
 80020f6:	b118      	cbz	r0, 8002100 <MX_SPI3_Init+0x3c>
 80020f8:	e8bd 4008 	ldmia.w	sp!, {r3, lr}
 80020fc:	f7ff be6a 	b.w	8001dd4 <Error_Handler>
 8002100:	bd08      	pop	{r3, pc}
 8002102:	bf00      	nop
 8002104:	20001680 	.word	0x20001680
 8002108:	40003c00 	.word	0x40003c00

0800210c <HAL_SPI_MspInit>:
 800210c:	b510      	push	{r4, lr}
 800210e:	2214      	movs	r2, #20
 8002110:	b08a      	sub	sp, #40	; 0x28
 8002112:	4604      	mov	r4, r0
 8002114:	2100      	movs	r1, #0
 8002116:	eb0d 0002 	add.w	r0, sp, r2
 800211a:	f002 fb0d 	bl	8004738 <memset>
 800211e:	6823      	ldr	r3, [r4, #0]
 8002120:	4a25      	ldr	r2, [pc, #148]	; (80021b8 <HAL_SPI_MspInit+0xac>)
 8002122:	4293      	cmp	r3, r2
 8002124:	d123      	bne.n	800216e <HAL_SPI_MspInit+0x62>
 8002126:	4b25      	ldr	r3, [pc, #148]	; (80021bc <HAL_SPI_MspInit+0xb0>)
 8002128:	2100      	movs	r1, #0
 800212a:	9101      	str	r1, [sp, #4]
 800212c:	6c5a      	ldr	r2, [r3, #68]	; 0x44
 800212e:	f442 5280 	orr.w	r2, r2, #4096	; 0x1000
 8002132:	645a      	str	r2, [r3, #68]	; 0x44
 8002134:	6c5a      	ldr	r2, [r3, #68]	; 0x44
 8002136:	f402 5280 	and.w	r2, r2, #4096	; 0x1000
 800213a:	9201      	str	r2, [sp, #4]
 800213c:	9a01      	ldr	r2, [sp, #4]
 800213e:	9102      	str	r1, [sp, #8]
 8002140:	6b1a      	ldr	r2, [r3, #48]	; 0x30
 8002142:	f042 0201 	orr.w	r2, r2, #1
 8002146:	631a      	str	r2, [r3, #48]	; 0x30
 8002148:	6b1b      	ldr	r3, [r3, #48]	; 0x30
 800214a:	f003 0301 	and.w	r3, r3, #1
 800214e:	9302      	str	r3, [sp, #8]
 8002150:	20e0      	movs	r0, #224	; 0xe0
 8002152:	9b02      	ldr	r3, [sp, #8]
 8002154:	2302      	movs	r3, #2
 8002156:	e9cd 0305 	strd	r0, r3, [sp, #20]
 800215a:	2403      	movs	r4, #3
 800215c:	2305      	movs	r3, #5
 800215e:	e9cd 4308 	strd	r4, r3, [sp, #32]
 8002162:	4817      	ldr	r0, [pc, #92]	; (80021c0 <HAL_SPI_MspInit+0xb4>)
 8002164:	a905      	add	r1, sp, #20
 8002166:	f000 fe13 	bl	8002d90 <HAL_GPIO_Init>
 800216a:	b00a      	add	sp, #40	; 0x28
 800216c:	bd10      	pop	{r4, pc}
 800216e:	4a15      	ldr	r2, [pc, #84]	; (80021c4 <HAL_SPI_MspInit+0xb8>)
 8002170:	4293      	cmp	r3, r2
 8002172:	d1fa      	bne.n	800216a <HAL_SPI_MspInit+0x5e>
 8002174:	4b11      	ldr	r3, [pc, #68]	; (80021bc <HAL_SPI_MspInit+0xb0>)
 8002176:	4814      	ldr	r0, [pc, #80]	; (80021c8 <HAL_SPI_MspInit+0xbc>)
 8002178:	2100      	movs	r1, #0
 800217a:	9103      	str	r1, [sp, #12]
 800217c:	6c1a      	ldr	r2, [r3, #64]	; 0x40
 800217e:	f442 4200 	orr.w	r2, r2, #32768	; 0x8000
 8002182:	641a      	str	r2, [r3, #64]	; 0x40
 8002184:	6c1a      	ldr	r2, [r3, #64]	; 0x40
 8002186:	f402 4200 	and.w	r2, r2, #32768	; 0x8000
 800218a:	9203      	str	r2, [sp, #12]
 800218c:	9a03      	ldr	r2, [sp, #12]
 800218e:	9104      	str	r1, [sp, #16]
 8002190:	6b1a      	ldr	r2, [r3, #48]	; 0x30
 8002192:	f042 0204 	orr.w	r2, r2, #4
 8002196:	631a      	str	r2, [r3, #48]	; 0x30
 8002198:	6b1b      	ldr	r3, [r3, #48]	; 0x30
 800219a:	f003 0304 	and.w	r3, r3, #4
 800219e:	9304      	str	r3, [sp, #16]
 80021a0:	9b04      	ldr	r3, [sp, #16]
 80021a2:	f44f 52e0 	mov.w	r2, #7168	; 0x1c00
 80021a6:	2302      	movs	r3, #2
 80021a8:	2103      	movs	r1, #3
 80021aa:	e9cd 2305 	strd	r2, r3, [sp, #20]
 80021ae:	2306      	movs	r3, #6
 80021b0:	e9cd 1308 	strd	r1, r3, [sp, #32]
 80021b4:	a905      	add	r1, sp, #20
 80021b6:	e7d6      	b.n	8002166 <HAL_SPI_MspInit+0x5a>
 80021b8:	40013000 	.word	0x40013000
 80021bc:	40023800 	.word	0x40023800
 80021c0:	40020000 	.word	0x40020000
 80021c4:	40003c00 	.word	0x40003c00
 80021c8:	40020800 	.word	0x40020800

080021cc <HAL_MspInit>:
 80021cc:	b082      	sub	sp, #8
 80021ce:	4b0d      	ldr	r3, [pc, #52]	; (8002204 <HAL_MspInit+0x38>)
 80021d0:	2100      	movs	r1, #0
 80021d2:	9100      	str	r1, [sp, #0]
 80021d4:	6c5a      	ldr	r2, [r3, #68]	; 0x44
 80021d6:	f442 4280 	orr.w	r2, r2, #16384	; 0x4000
 80021da:	645a      	str	r2, [r3, #68]	; 0x44
 80021dc:	6c5a      	ldr	r2, [r3, #68]	; 0x44
 80021de:	f402 4280 	and.w	r2, r2, #16384	; 0x4000
 80021e2:	9200      	str	r2, [sp, #0]
 80021e4:	9a00      	ldr	r2, [sp, #0]
 80021e6:	9101      	str	r1, [sp, #4]
 80021e8:	6c1a      	ldr	r2, [r3, #64]	; 0x40
 80021ea:	f042 5280 	orr.w	r2, r2, #268435456	; 0x10000000
 80021ee:	641a      	str	r2, [r3, #64]	; 0x40
 80021f0:	6c1b      	ldr	r3, [r3, #64]	; 0x40
 80021f2:	f003 5380 	and.w	r3, r3, #268435456	; 0x10000000
 80021f6:	9301      	str	r3, [sp, #4]
 80021f8:	9b01      	ldr	r3, [sp, #4]
 80021fa:	2007      	movs	r0, #7
 80021fc:	b002      	add	sp, #8
 80021fe:	f000 bd4b 	b.w	8002c98 <HAL_NVIC_SetPriorityGrouping>
 8002202:	bf00      	nop
 8002204:	40023800 	.word	0x40023800

08002208 <NMI_Handler>:
 8002208:	4770      	bx	lr

0800220a <HardFault_Handler>:
 800220a:	e7fe      	b.n	800220a <HardFault_Handler>

0800220c <MemManage_Handler>:
 800220c:	e7fe      	b.n	800220c <MemManage_Handler>

0800220e <BusFault_Handler>:
 800220e:	e7fe      	b.n	800220e <BusFault_Handler>

08002210 <UsageFault_Handler>:
 8002210:	e7fe      	b.n	8002210 <UsageFault_Handler>

08002212 <SVC_Handler>:
 8002212:	4770      	bx	lr

08002214 <DebugMon_Handler>:
 8002214:	4770      	bx	lr

08002216 <PendSV_Handler>:
 8002216:	4770      	bx	lr

08002218 <SysTick_Handler>:
 8002218:	f000 ba26 	b.w	8002668 <HAL_IncTick>

0800221c <CAN1_RX0_IRQHandler>:
 800221c:	4801      	ldr	r0, [pc, #4]	; (8002224 <CAN1_RX0_IRQHandler+0x8>)
 800221e:	f000 bc3d 	b.w	8002a9c <HAL_CAN_IRQHandler>
 8002222:	bf00      	nop
 8002224:	20000aec 	.word	0x20000aec

08002228 <TIM1_UP_TIM10_IRQHandler>:
 8002228:	b508      	push	{r3, lr}
 800222a:	ed9f 0a09 	vldr	s0, [pc, #36]	; 8002250 <TIM1_UP_TIM10_IRQHandler+0x28>
 800222e:	4809      	ldr	r0, [pc, #36]	; (8002254 <TIM1_UP_TIM10_IRQHandler+0x2c>)
 8002230:	f7ff fdfe 	bl	8001e30 <ps_sample>
 8002234:	4808      	ldr	r0, [pc, #32]	; (8002258 <TIM1_UP_TIM10_IRQHandler+0x30>)
 8002236:	f7ff fb33 	bl	80018a0 <run_fsm>
 800223a:	4a08      	ldr	r2, [pc, #32]	; (800225c <TIM1_UP_TIM10_IRQHandler+0x34>)
 800223c:	4808      	ldr	r0, [pc, #32]	; (8002260 <TIM1_UP_TIM10_IRQHandler+0x38>)
 800223e:	f8d2 309c 	ldr.w	r3, [r2, #156]	; 0x9c
 8002242:	3301      	adds	r3, #1
 8002244:	f8c2 309c 	str.w	r3, [r2, #156]	; 0x9c
 8002248:	e8bd 4008 	ldmia.w	sp!, {r3, lr}
 800224c:	f001 bb92 	b.w	8003974 <HAL_TIM_IRQHandler>
 8002250:	37d1b717 	.word	0x37d1b717
 8002254:	20000b18 	.word	0x20000b18
 8002258:	20000e05 	.word	0x20000e05
 800225c:	20000f1c 	.word	0x20000f1c
 8002260:	20001730 	.word	0x20001730

08002264 <USART2_IRQHandler>:
 8002264:	b510      	push	{r4, lr}
 8002266:	4c07      	ldr	r4, [pc, #28]	; (8002284 <USART2_IRQHandler+0x20>)
 8002268:	4620      	mov	r0, r4
 800226a:	f001 fff5 	bl	8004258 <HAL_UART_IRQHandler>
 800226e:	4b06      	ldr	r3, [pc, #24]	; (8002288 <USART2_IRQHandler+0x24>)
 8002270:	4806      	ldr	r0, [pc, #24]	; (800228c <USART2_IRQHandler+0x28>)
 8002272:	7819      	ldrb	r1, [r3, #0]
 8002274:	f7ff f9ee 	bl	8001654 <update_fsm>
 8002278:	4620      	mov	r0, r4
 800227a:	e8bd 4010 	ldmia.w	sp!, {r4, lr}
 800227e:	f001 bfeb 	b.w	8004258 <HAL_UART_IRQHandler>
 8002282:	bf00      	nop
 8002284:	20001770 	.word	0x20001770
 8002288:	20000e04 	.word	0x20000e04
 800228c:	20000e05 	.word	0x20000e05

08002290 <_read>:
 8002290:	b570      	push	{r4, r5, r6, lr}
 8002292:	460e      	mov	r6, r1
 8002294:	4615      	mov	r5, r2
 8002296:	460c      	mov	r4, r1
 8002298:	1ba3      	subs	r3, r4, r6
 800229a:	429d      	cmp	r5, r3
 800229c:	dc01      	bgt.n	80022a2 <_read+0x12>
 800229e:	4628      	mov	r0, r5
 80022a0:	bd70      	pop	{r4, r5, r6, pc}
 80022a2:	f3af 8000 	nop.w
 80022a6:	f804 0b01 	strb.w	r0, [r4], #1
 80022aa:	e7f5      	b.n	8002298 <_read+0x8>

080022ac <_write>:
 80022ac:	b570      	push	{r4, r5, r6, lr}
 80022ae:	460e      	mov	r6, r1
 80022b0:	4615      	mov	r5, r2
 80022b2:	460c      	mov	r4, r1
 80022b4:	1ba3      	subs	r3, r4, r6
 80022b6:	429d      	cmp	r5, r3
 80022b8:	dc01      	bgt.n	80022be <_write+0x12>
 80022ba:	4628      	mov	r0, r5
 80022bc:	bd70      	pop	{r4, r5, r6, pc}
 80022be:	f814 0b01 	ldrb.w	r0, [r4], #1
 80022c2:	f000 f959 	bl	8002578 <__io_putchar>
 80022c6:	e7f5      	b.n	80022b4 <_write+0x8>

080022c8 <_close>:
 80022c8:	f04f 30ff 	mov.w	r0, #4294967295
 80022cc:	4770      	bx	lr

080022ce <_fstat>:
 80022ce:	f44f 5300 	mov.w	r3, #8192	; 0x2000
 80022d2:	604b      	str	r3, [r1, #4]
 80022d4:	2000      	movs	r0, #0
 80022d6:	4770      	bx	lr

080022d8 <_isatty>:
 80022d8:	2001      	movs	r0, #1
 80022da:	4770      	bx	lr

080022dc <_lseek>:
 80022dc:	2000      	movs	r0, #0
 80022de:	4770      	bx	lr

080022e0 <_sbrk>:
 80022e0:	b508      	push	{r3, lr}
 80022e2:	4b0a      	ldr	r3, [pc, #40]	; (800230c <_sbrk+0x2c>)
 80022e4:	6819      	ldr	r1, [r3, #0]
 80022e6:	4602      	mov	r2, r0
 80022e8:	b909      	cbnz	r1, 80022ee <_sbrk+0xe>
 80022ea:	4909      	ldr	r1, [pc, #36]	; (8002310 <_sbrk+0x30>)
 80022ec:	6019      	str	r1, [r3, #0]
 80022ee:	6818      	ldr	r0, [r3, #0]
 80022f0:	4669      	mov	r1, sp
 80022f2:	4402      	add	r2, r0
 80022f4:	428a      	cmp	r2, r1
 80022f6:	d906      	bls.n	8002306 <_sbrk+0x26>
 80022f8:	f002 f9d0 	bl	800469c <__errno>
 80022fc:	230c      	movs	r3, #12
 80022fe:	6003      	str	r3, [r0, #0]
 8002300:	f04f 30ff 	mov.w	r0, #4294967295
 8002304:	bd08      	pop	{r3, pc}
 8002306:	601a      	str	r2, [r3, #0]
 8002308:	e7fc      	b.n	8002304 <_sbrk+0x24>
 800230a:	bf00      	nop
 800230c:	200009dc 	.word	0x200009dc
 8002310:	200017c8 	.word	0x200017c8

08002314 <SystemInit>:
 8002314:	4b05      	ldr	r3, [pc, #20]	; (800232c <SystemInit+0x18>)
 8002316:	f8d3 2088 	ldr.w	r2, [r3, #136]	; 0x88
 800231a:	f442 0270 	orr.w	r2, r2, #15728640	; 0xf00000
 800231e:	f8c3 2088 	str.w	r2, [r3, #136]	; 0x88
 8002322:	f04f 6200 	mov.w	r2, #134217728	; 0x8000000
 8002326:	609a      	str	r2, [r3, #8]
 8002328:	4770      	bx	lr
 800232a:	bf00      	nop
 800232c:	e000ed00 	.word	0xe000ed00

08002330 <HAL_TIM_Base_MspInit>:
 8002330:	b507      	push	{r0, r1, r2, lr}
 8002332:	4b0f      	ldr	r3, [pc, #60]	; (8002370 <HAL_TIM_Base_MspInit+0x40>)
 8002334:	6802      	ldr	r2, [r0, #0]
 8002336:	429a      	cmp	r2, r3
 8002338:	d116      	bne.n	8002368 <HAL_TIM_Base_MspInit+0x38>
 800233a:	2200      	movs	r2, #0
 800233c:	f503 339c 	add.w	r3, r3, #79872	; 0x13800
 8002340:	9201      	str	r2, [sp, #4]
 8002342:	6c59      	ldr	r1, [r3, #68]	; 0x44
 8002344:	f041 0101 	orr.w	r1, r1, #1
 8002348:	6459      	str	r1, [r3, #68]	; 0x44
 800234a:	6c5b      	ldr	r3, [r3, #68]	; 0x44
 800234c:	f003 0301 	and.w	r3, r3, #1
 8002350:	9301      	str	r3, [sp, #4]
 8002352:	4611      	mov	r1, r2
 8002354:	2019      	movs	r0, #25
 8002356:	9b01      	ldr	r3, [sp, #4]
 8002358:	f000 fcb0 	bl	8002cbc <HAL_NVIC_SetPriority>
 800235c:	2019      	movs	r0, #25
 800235e:	b003      	add	sp, #12
 8002360:	f85d eb04 	ldr.w	lr, [sp], #4
 8002364:	f000 bcde 	b.w	8002d24 <HAL_NVIC_EnableIRQ>
 8002368:	b003      	add	sp, #12
 800236a:	f85d fb04 	ldr.w	pc, [sp], #4
 800236e:	bf00      	nop
 8002370:	40010000 	.word	0x40010000

08002374 <HAL_TIM_MspPostInit>:
 8002374:	b510      	push	{r4, lr}
 8002376:	4604      	mov	r4, r0
 8002378:	b086      	sub	sp, #24
 800237a:	2214      	movs	r2, #20
 800237c:	2100      	movs	r1, #0
 800237e:	a801      	add	r0, sp, #4
 8002380:	f002 f9da 	bl	8004738 <memset>
 8002384:	6822      	ldr	r2, [r4, #0]
 8002386:	4b0e      	ldr	r3, [pc, #56]	; (80023c0 <HAL_TIM_MspPostInit+0x4c>)
 8002388:	429a      	cmp	r2, r3
 800238a:	d116      	bne.n	80023ba <HAL_TIM_MspPostInit+0x46>
 800238c:	2300      	movs	r3, #0
 800238e:	9300      	str	r3, [sp, #0]
 8002390:	4b0c      	ldr	r3, [pc, #48]	; (80023c4 <HAL_TIM_MspPostInit+0x50>)
 8002392:	480d      	ldr	r0, [pc, #52]	; (80023c8 <HAL_TIM_MspPostInit+0x54>)
 8002394:	6b1a      	ldr	r2, [r3, #48]	; 0x30
 8002396:	f042 0201 	orr.w	r2, r2, #1
 800239a:	631a      	str	r2, [r3, #48]	; 0x30
 800239c:	6b1b      	ldr	r3, [r3, #48]	; 0x30
 800239e:	f003 0301 	and.w	r3, r3, #1
 80023a2:	9300      	str	r3, [sp, #0]
 80023a4:	9b00      	ldr	r3, [sp, #0]
 80023a6:	f44f 62e0 	mov.w	r2, #1792	; 0x700
 80023aa:	2302      	movs	r3, #2
 80023ac:	e9cd 2301 	strd	r2, r3, [sp, #4]
 80023b0:	a901      	add	r1, sp, #4
 80023b2:	2301      	movs	r3, #1
 80023b4:	9305      	str	r3, [sp, #20]
 80023b6:	f000 fceb 	bl	8002d90 <HAL_GPIO_Init>
 80023ba:	b006      	add	sp, #24
 80023bc:	bd10      	pop	{r4, pc}
 80023be:	bf00      	nop
 80023c0:	40010000 	.word	0x40010000
 80023c4:	40023800 	.word	0x40023800
 80023c8:	40020000 	.word	0x40020000

080023cc <MX_TIM1_Init>:
 80023cc:	b510      	push	{r4, lr}
 80023ce:	b096      	sub	sp, #88	; 0x58
 80023d0:	2210      	movs	r2, #16
 80023d2:	2100      	movs	r1, #0
 80023d4:	a803      	add	r0, sp, #12
 80023d6:	f002 f9af 	bl	8004738 <memset>
 80023da:	2400      	movs	r4, #0
 80023dc:	221c      	movs	r2, #28
 80023de:	4621      	mov	r1, r4
 80023e0:	eb0d 0002 	add.w	r0, sp, r2
 80023e4:	e9cd 4401 	strd	r4, r4, [sp, #4]
 80023e8:	f002 f9a6 	bl	8004738 <memset>
 80023ec:	2220      	movs	r2, #32
 80023ee:	4621      	mov	r1, r4
 80023f0:	a80e      	add	r0, sp, #56	; 0x38
 80023f2:	f002 f9a1 	bl	8004738 <memset>
 80023f6:	4831      	ldr	r0, [pc, #196]	; (80024bc <MX_TIM1_Init+0xf0>)
 80023f8:	4b31      	ldr	r3, [pc, #196]	; (80024c0 <MX_TIM1_Init+0xf4>)
 80023fa:	6104      	str	r4, [r0, #16]
 80023fc:	e9c0 3400 	strd	r3, r4, [r0]
 8002400:	2240      	movs	r2, #64	; 0x40
 8002402:	f640 03ca 	movw	r3, #2250	; 0x8ca
 8002406:	e9c0 2302 	strd	r2, r3, [r0, #8]
 800240a:	2101      	movs	r1, #1
 800240c:	2380      	movs	r3, #128	; 0x80
 800240e:	e9c0 1305 	strd	r1, r3, [r0, #20]
 8002412:	f001 fbb7 	bl	8003b84 <HAL_TIM_Base_Init>
 8002416:	b108      	cbz	r0, 800241c <MX_TIM1_Init+0x50>
 8002418:	f7ff fcdc 	bl	8001dd4 <Error_Handler>
 800241c:	f44f 5380 	mov.w	r3, #4096	; 0x1000
 8002420:	a903      	add	r1, sp, #12
 8002422:	4826      	ldr	r0, [pc, #152]	; (80024bc <MX_TIM1_Init+0xf0>)
 8002424:	9303      	str	r3, [sp, #12]
 8002426:	f001 fc83 	bl	8003d30 <HAL_TIM_ConfigClockSource>
 800242a:	b108      	cbz	r0, 8002430 <MX_TIM1_Init+0x64>
 800242c:	f7ff fcd2 	bl	8001dd4 <Error_Handler>
 8002430:	4822      	ldr	r0, [pc, #136]	; (80024bc <MX_TIM1_Init+0xf0>)
 8002432:	f001 fbc1 	bl	8003bb8 <HAL_TIM_PWM_Init>
 8002436:	b108      	cbz	r0, 800243c <MX_TIM1_Init+0x70>
 8002438:	f7ff fccc 	bl	8001dd4 <Error_Handler>
 800243c:	2400      	movs	r4, #0
 800243e:	a901      	add	r1, sp, #4
 8002440:	481e      	ldr	r0, [pc, #120]	; (80024bc <MX_TIM1_Init+0xf0>)
 8002442:	e9cd 4401 	strd	r4, r4, [sp, #4]
 8002446:	f001 fd07 	bl	8003e58 <HAL_TIMEx_MasterConfigSynchronization>
 800244a:	b108      	cbz	r0, 8002450 <MX_TIM1_Init+0x84>
 800244c:	f7ff fcc2 	bl	8001dd4 <Error_Handler>
 8002450:	2360      	movs	r3, #96	; 0x60
 8002452:	2200      	movs	r2, #0
 8002454:	a907      	add	r1, sp, #28
 8002456:	4819      	ldr	r0, [pc, #100]	; (80024bc <MX_TIM1_Init+0xf0>)
 8002458:	940d      	str	r4, [sp, #52]	; 0x34
 800245a:	e9cd 3407 	strd	r3, r4, [sp, #28]
 800245e:	e9cd 4409 	strd	r4, r4, [sp, #36]	; 0x24
 8002462:	e9cd 440b 	strd	r4, r4, [sp, #44]	; 0x2c
 8002466:	f001 fbf7 	bl	8003c58 <HAL_TIM_PWM_ConfigChannel>
 800246a:	b108      	cbz	r0, 8002470 <MX_TIM1_Init+0xa4>
 800246c:	f7ff fcb2 	bl	8001dd4 <Error_Handler>
 8002470:	2204      	movs	r2, #4
 8002472:	a907      	add	r1, sp, #28
 8002474:	4811      	ldr	r0, [pc, #68]	; (80024bc <MX_TIM1_Init+0xf0>)
 8002476:	f001 fbef 	bl	8003c58 <HAL_TIM_PWM_ConfigChannel>
 800247a:	b108      	cbz	r0, 8002480 <MX_TIM1_Init+0xb4>
 800247c:	f7ff fcaa 	bl	8001dd4 <Error_Handler>
 8002480:	2208      	movs	r2, #8
 8002482:	a907      	add	r1, sp, #28
 8002484:	480d      	ldr	r0, [pc, #52]	; (80024bc <MX_TIM1_Init+0xf0>)
 8002486:	f001 fbe7 	bl	8003c58 <HAL_TIM_PWM_ConfigChannel>
 800248a:	b108      	cbz	r0, 8002490 <MX_TIM1_Init+0xc4>
 800248c:	f7ff fca2 	bl	8001dd4 <Error_Handler>
 8002490:	2300      	movs	r3, #0
 8002492:	f44f 5200 	mov.w	r2, #8192	; 0x2000
 8002496:	a90e      	add	r1, sp, #56	; 0x38
 8002498:	4808      	ldr	r0, [pc, #32]	; (80024bc <MX_TIM1_Init+0xf0>)
 800249a:	9312      	str	r3, [sp, #72]	; 0x48
 800249c:	e9cd 330e 	strd	r3, r3, [sp, #56]	; 0x38
 80024a0:	e9cd 3310 	strd	r3, r3, [sp, #64]	; 0x40
 80024a4:	9213      	str	r2, [sp, #76]	; 0x4c
 80024a6:	9315      	str	r3, [sp, #84]	; 0x54
 80024a8:	f001 fd18 	bl	8003edc <HAL_TIMEx_ConfigBreakDeadTime>
 80024ac:	b108      	cbz	r0, 80024b2 <MX_TIM1_Init+0xe6>
 80024ae:	f7ff fc91 	bl	8001dd4 <Error_Handler>
 80024b2:	4802      	ldr	r0, [pc, #8]	; (80024bc <MX_TIM1_Init+0xf0>)
 80024b4:	f7ff ff5e 	bl	8002374 <HAL_TIM_MspPostInit>
 80024b8:	b016      	add	sp, #88	; 0x58
 80024ba:	bd10      	pop	{r4, pc}
 80024bc:	20001730 	.word	0x20001730
 80024c0:	40010000 	.word	0x40010000

080024c4 <MX_USART2_UART_Init>:
 80024c4:	480b      	ldr	r0, [pc, #44]	; (80024f4 <MX_USART2_UART_Init+0x30>)
 80024c6:	4a0c      	ldr	r2, [pc, #48]	; (80024f8 <MX_USART2_UART_Init+0x34>)
 80024c8:	b508      	push	{r3, lr}
 80024ca:	f44f 33e1 	mov.w	r3, #115200	; 0x1c200
 80024ce:	e9c0 2300 	strd	r2, r3, [r0]
 80024d2:	2300      	movs	r3, #0
 80024d4:	220c      	movs	r2, #12
 80024d6:	e9c0 3302 	strd	r3, r3, [r0, #8]
 80024da:	6103      	str	r3, [r0, #16]
 80024dc:	e9c0 2305 	strd	r2, r3, [r0, #20]
 80024e0:	61c3      	str	r3, [r0, #28]
 80024e2:	f001 fdc9 	bl	8004078 <HAL_UART_Init>
 80024e6:	b118      	cbz	r0, 80024f0 <MX_USART2_UART_Init+0x2c>
 80024e8:	e8bd 4008 	ldmia.w	sp!, {r3, lr}
 80024ec:	f7ff bc72 	b.w	8001dd4 <Error_Handler>
 80024f0:	bd08      	pop	{r3, pc}
 80024f2:	bf00      	nop
 80024f4:	20001770 	.word	0x20001770
 80024f8:	40004400 	.word	0x40004400

080024fc <HAL_UART_MspInit>:
 80024fc:	b510      	push	{r4, lr}
 80024fe:	4604      	mov	r4, r0
 8002500:	b088      	sub	sp, #32
 8002502:	2214      	movs	r2, #20
 8002504:	2100      	movs	r1, #0
 8002506:	a803      	add	r0, sp, #12
 8002508:	f002 f916 	bl	8004738 <memset>
 800250c:	6822      	ldr	r2, [r4, #0]
 800250e:	4b18      	ldr	r3, [pc, #96]	; (8002570 <HAL_UART_MspInit+0x74>)
 8002510:	429a      	cmp	r2, r3
 8002512:	d12a      	bne.n	800256a <HAL_UART_MspInit+0x6e>
 8002514:	f503 33fa 	add.w	r3, r3, #128000	; 0x1f400
 8002518:	2400      	movs	r4, #0
 800251a:	9401      	str	r4, [sp, #4]
 800251c:	6c1a      	ldr	r2, [r3, #64]	; 0x40
 800251e:	4815      	ldr	r0, [pc, #84]	; (8002574 <HAL_UART_MspInit+0x78>)
 8002520:	f442 3200 	orr.w	r2, r2, #131072	; 0x20000
 8002524:	641a      	str	r2, [r3, #64]	; 0x40
 8002526:	6c1a      	ldr	r2, [r3, #64]	; 0x40
 8002528:	f402 3200 	and.w	r2, r2, #131072	; 0x20000
 800252c:	9201      	str	r2, [sp, #4]
 800252e:	9a01      	ldr	r2, [sp, #4]
 8002530:	9402      	str	r4, [sp, #8]
 8002532:	6b1a      	ldr	r2, [r3, #48]	; 0x30
 8002534:	f042 0201 	orr.w	r2, r2, #1
 8002538:	631a      	str	r2, [r3, #48]	; 0x30
 800253a:	6b1b      	ldr	r3, [r3, #48]	; 0x30
 800253c:	f003 0301 	and.w	r3, r3, #1
 8002540:	9302      	str	r3, [sp, #8]
 8002542:	220c      	movs	r2, #12
 8002544:	9b02      	ldr	r3, [sp, #8]
 8002546:	2302      	movs	r3, #2
 8002548:	e9cd 2303 	strd	r2, r3, [sp, #12]
 800254c:	2103      	movs	r1, #3
 800254e:	2307      	movs	r3, #7
 8002550:	e9cd 1306 	strd	r1, r3, [sp, #24]
 8002554:	a903      	add	r1, sp, #12
 8002556:	f000 fc1b 	bl	8002d90 <HAL_GPIO_Init>
 800255a:	2026      	movs	r0, #38	; 0x26
 800255c:	4622      	mov	r2, r4
 800255e:	4621      	mov	r1, r4
 8002560:	f000 fbac 	bl	8002cbc <HAL_NVIC_SetPriority>
 8002564:	2026      	movs	r0, #38	; 0x26
 8002566:	f000 fbdd 	bl	8002d24 <HAL_NVIC_EnableIRQ>
 800256a:	b008      	add	sp, #32
 800256c:	bd10      	pop	{r4, pc}
 800256e:	bf00      	nop
 8002570:	40004400 	.word	0x40004400
 8002574:	40020000 	.word	0x40020000

08002578 <__io_putchar>:
 8002578:	b507      	push	{r0, r1, r2, lr}
 800257a:	a902      	add	r1, sp, #8
 800257c:	f64f 73ff 	movw	r3, #65535	; 0xffff
 8002580:	f841 0d04 	str.w	r0, [r1, #-4]!
 8002584:	2201      	movs	r2, #1
 8002586:	4803      	ldr	r0, [pc, #12]	; (8002594 <__io_putchar+0x1c>)
 8002588:	f001 fda4 	bl	80040d4 <HAL_UART_Transmit>
 800258c:	2000      	movs	r0, #0
 800258e:	b003      	add	sp, #12
 8002590:	f85d fb04 	ldr.w	pc, [sp], #4
 8002594:	20001770 	.word	0x20001770

08002598 <Reset_Handler>:
 8002598:	f8df d034 	ldr.w	sp, [pc, #52]	; 80025d0 <LoopFillZerobss+0x14>
 800259c:	2100      	movs	r1, #0
 800259e:	e003      	b.n	80025a8 <LoopCopyDataInit>

080025a0 <CopyDataInit>:
 80025a0:	4b0c      	ldr	r3, [pc, #48]	; (80025d4 <LoopFillZerobss+0x18>)
 80025a2:	585b      	ldr	r3, [r3, r1]
 80025a4:	5043      	str	r3, [r0, r1]
 80025a6:	3104      	adds	r1, #4

080025a8 <LoopCopyDataInit>:
 80025a8:	480b      	ldr	r0, [pc, #44]	; (80025d8 <LoopFillZerobss+0x1c>)
 80025aa:	4b0c      	ldr	r3, [pc, #48]	; (80025dc <LoopFillZerobss+0x20>)
 80025ac:	1842      	adds	r2, r0, r1
 80025ae:	429a      	cmp	r2, r3
 80025b0:	d3f6      	bcc.n	80025a0 <CopyDataInit>
 80025b2:	4a0b      	ldr	r2, [pc, #44]	; (80025e0 <LoopFillZerobss+0x24>)
 80025b4:	e002      	b.n	80025bc <LoopFillZerobss>

080025b6 <FillZerobss>:
 80025b6:	2300      	movs	r3, #0
 80025b8:	f842 3b04 	str.w	r3, [r2], #4

080025bc <LoopFillZerobss>:
 80025bc:	4b09      	ldr	r3, [pc, #36]	; (80025e4 <LoopFillZerobss+0x28>)
 80025be:	429a      	cmp	r2, r3
 80025c0:	d3f9      	bcc.n	80025b6 <FillZerobss>
 80025c2:	f7ff fea7 	bl	8002314 <SystemInit>
 80025c6:	f002 f86f 	bl	80046a8 <__libc_init_array>
 80025ca:	f7ff fa3f 	bl	8001a4c <main>
 80025ce:	4770      	bx	lr
 80025d0:	20020000 	.word	0x20020000
 80025d4:	08008cec 	.word	0x08008cec
 80025d8:	20000000 	.word	0x20000000
 80025dc:	200009c0 	.word	0x200009c0
 80025e0:	200009c0 	.word	0x200009c0
 80025e4:	200017c4 	.word	0x200017c4

080025e8 <ADC_IRQHandler>:
 80025e8:	e7fe      	b.n	80025e8 <ADC_IRQHandler>
	...

080025ec <HAL_InitTick>:
 80025ec:	b538      	push	{r3, r4, r5, lr}
 80025ee:	4a0e      	ldr	r2, [pc, #56]	; (8002628 <HAL_InitTick+0x3c>)
 80025f0:	4b0e      	ldr	r3, [pc, #56]	; (800262c <HAL_InitTick+0x40>)
 80025f2:	4605      	mov	r5, r0
 80025f4:	7818      	ldrb	r0, [r3, #0]
 80025f6:	f44f 737a 	mov.w	r3, #1000	; 0x3e8
 80025fa:	fbb3 f3f0 	udiv	r3, r3, r0
 80025fe:	6810      	ldr	r0, [r2, #0]
 8002600:	fbb0 f0f3 	udiv	r0, r0, r3
 8002604:	f000 fb9c 	bl	8002d40 <HAL_SYSTICK_Config>
 8002608:	4604      	mov	r4, r0
 800260a:	b958      	cbnz	r0, 8002624 <HAL_InitTick+0x38>
 800260c:	2d0f      	cmp	r5, #15
 800260e:	d809      	bhi.n	8002624 <HAL_InitTick+0x38>
 8002610:	4602      	mov	r2, r0
 8002612:	4629      	mov	r1, r5
 8002614:	f04f 30ff 	mov.w	r0, #4294967295
 8002618:	f000 fb50 	bl	8002cbc <HAL_NVIC_SetPriority>
 800261c:	4b04      	ldr	r3, [pc, #16]	; (8002630 <HAL_InitTick+0x44>)
 800261e:	4620      	mov	r0, r4
 8002620:	601d      	str	r5, [r3, #0]
 8002622:	bd38      	pop	{r3, r4, r5, pc}
 8002624:	2001      	movs	r0, #1
 8002626:	e7fc      	b.n	8002622 <HAL_InitTick+0x36>
 8002628:	20000000 	.word	0x20000000
 800262c:	20000004 	.word	0x20000004
 8002630:	20000008 	.word	0x20000008

08002634 <HAL_Init>:
 8002634:	b508      	push	{r3, lr}
 8002636:	4b0b      	ldr	r3, [pc, #44]	; (8002664 <HAL_Init+0x30>)
 8002638:	681a      	ldr	r2, [r3, #0]
 800263a:	f442 7200 	orr.w	r2, r2, #512	; 0x200
 800263e:	601a      	str	r2, [r3, #0]
 8002640:	681a      	ldr	r2, [r3, #0]
 8002642:	f442 6280 	orr.w	r2, r2, #1024	; 0x400
 8002646:	601a      	str	r2, [r3, #0]
 8002648:	681a      	ldr	r2, [r3, #0]
 800264a:	f442 7280 	orr.w	r2, r2, #256	; 0x100
 800264e:	601a      	str	r2, [r3, #0]
 8002650:	2003      	movs	r0, #3
 8002652:	f000 fb21 	bl	8002c98 <HAL_NVIC_SetPriorityGrouping>
 8002656:	2000      	movs	r0, #0
 8002658:	f7ff ffc8 	bl	80025ec <HAL_InitTick>
 800265c:	f7ff fdb6 	bl	80021cc <HAL_MspInit>
 8002660:	2000      	movs	r0, #0
 8002662:	bd08      	pop	{r3, pc}
 8002664:	40023c00 	.word	0x40023c00

08002668 <HAL_IncTick>:
 8002668:	4a03      	ldr	r2, [pc, #12]	; (8002678 <HAL_IncTick+0x10>)
 800266a:	4b04      	ldr	r3, [pc, #16]	; (800267c <HAL_IncTick+0x14>)
 800266c:	6811      	ldr	r1, [r2, #0]
 800266e:	781b      	ldrb	r3, [r3, #0]
 8002670:	440b      	add	r3, r1
 8002672:	6013      	str	r3, [r2, #0]
 8002674:	4770      	bx	lr
 8002676:	bf00      	nop
 8002678:	200017b0 	.word	0x200017b0
 800267c:	20000004 	.word	0x20000004

08002680 <HAL_GetTick>:
 8002680:	4b01      	ldr	r3, [pc, #4]	; (8002688 <HAL_GetTick+0x8>)
 8002682:	6818      	ldr	r0, [r3, #0]
 8002684:	4770      	bx	lr
 8002686:	bf00      	nop
 8002688:	200017b0 	.word	0x200017b0

0800268c <HAL_Delay>:
 800268c:	b538      	push	{r3, r4, r5, lr}
 800268e:	4604      	mov	r4, r0
 8002690:	f7ff fff6 	bl	8002680 <HAL_GetTick>
 8002694:	1c63      	adds	r3, r4, #1
 8002696:	bf1c      	itt	ne
 8002698:	4b05      	ldrne	r3, [pc, #20]	; (80026b0 <HAL_Delay+0x24>)
 800269a:	781b      	ldrbne	r3, [r3, #0]
 800269c:	4605      	mov	r5, r0
 800269e:	bf18      	it	ne
 80026a0:	18e4      	addne	r4, r4, r3
 80026a2:	f7ff ffed 	bl	8002680 <HAL_GetTick>
 80026a6:	1b40      	subs	r0, r0, r5
 80026a8:	42a0      	cmp	r0, r4
 80026aa:	d3fa      	bcc.n	80026a2 <HAL_Delay+0x16>
 80026ac:	bd38      	pop	{r3, r4, r5, pc}
 80026ae:	bf00      	nop
 80026b0:	20000004 	.word	0x20000004

080026b4 <HAL_ADC_Init>:
 80026b4:	b538      	push	{r3, r4, r5, lr}
 80026b6:	4604      	mov	r4, r0
 80026b8:	2800      	cmp	r0, #0
 80026ba:	f000 809b 	beq.w	80027f4 <HAL_ADC_Init+0x140>
 80026be:	6c05      	ldr	r5, [r0, #64]	; 0x40
 80026c0:	b925      	cbnz	r5, 80026cc <HAL_ADC_Init+0x18>
 80026c2:	f7fe fd05 	bl	80010d0 <HAL_ADC_MspInit>
 80026c6:	6465      	str	r5, [r4, #68]	; 0x44
 80026c8:	f884 503c 	strb.w	r5, [r4, #60]	; 0x3c
 80026cc:	6c23      	ldr	r3, [r4, #64]	; 0x40
 80026ce:	06db      	lsls	r3, r3, #27
 80026d0:	f100 808e 	bmi.w	80027f0 <HAL_ADC_Init+0x13c>
 80026d4:	6c23      	ldr	r3, [r4, #64]	; 0x40
 80026d6:	f423 5388 	bic.w	r3, r3, #4352	; 0x1100
 80026da:	f023 0302 	bic.w	r3, r3, #2
 80026de:	f043 0302 	orr.w	r3, r3, #2
 80026e2:	6423      	str	r3, [r4, #64]	; 0x40
 80026e4:	4b44      	ldr	r3, [pc, #272]	; (80027f8 <HAL_ADC_Init+0x144>)
 80026e6:	685a      	ldr	r2, [r3, #4]
 80026e8:	f422 3240 	bic.w	r2, r2, #196608	; 0x30000
 80026ec:	605a      	str	r2, [r3, #4]
 80026ee:	685a      	ldr	r2, [r3, #4]
 80026f0:	6861      	ldr	r1, [r4, #4]
 80026f2:	430a      	orrs	r2, r1
 80026f4:	605a      	str	r2, [r3, #4]
 80026f6:	6823      	ldr	r3, [r4, #0]
 80026f8:	6921      	ldr	r1, [r4, #16]
 80026fa:	685a      	ldr	r2, [r3, #4]
 80026fc:	f422 7280 	bic.w	r2, r2, #256	; 0x100
 8002700:	605a      	str	r2, [r3, #4]
 8002702:	685a      	ldr	r2, [r3, #4]
 8002704:	ea42 2201 	orr.w	r2, r2, r1, lsl #8
 8002708:	605a      	str	r2, [r3, #4]
 800270a:	685a      	ldr	r2, [r3, #4]
 800270c:	68a1      	ldr	r1, [r4, #8]
 800270e:	f022 7240 	bic.w	r2, r2, #50331648	; 0x3000000
 8002712:	605a      	str	r2, [r3, #4]
 8002714:	685a      	ldr	r2, [r3, #4]
 8002716:	430a      	orrs	r2, r1
 8002718:	605a      	str	r2, [r3, #4]
 800271a:	689a      	ldr	r2, [r3, #8]
 800271c:	68e1      	ldr	r1, [r4, #12]
 800271e:	f422 6200 	bic.w	r2, r2, #2048	; 0x800
 8002722:	609a      	str	r2, [r3, #8]
 8002724:	689a      	ldr	r2, [r3, #8]
 8002726:	430a      	orrs	r2, r1
 8002728:	609a      	str	r2, [r3, #8]
 800272a:	4934      	ldr	r1, [pc, #208]	; (80027fc <HAL_ADC_Init+0x148>)
 800272c:	6aa2      	ldr	r2, [r4, #40]	; 0x28
 800272e:	428a      	cmp	r2, r1
 8002730:	d052      	beq.n	80027d8 <HAL_ADC_Init+0x124>
 8002732:	6899      	ldr	r1, [r3, #8]
 8002734:	f021 6170 	bic.w	r1, r1, #251658240	; 0xf000000
 8002738:	6099      	str	r1, [r3, #8]
 800273a:	6899      	ldr	r1, [r3, #8]
 800273c:	430a      	orrs	r2, r1
 800273e:	609a      	str	r2, [r3, #8]
 8002740:	689a      	ldr	r2, [r3, #8]
 8002742:	6ae1      	ldr	r1, [r4, #44]	; 0x2c
 8002744:	f022 5240 	bic.w	r2, r2, #805306368	; 0x30000000
 8002748:	609a      	str	r2, [r3, #8]
 800274a:	689a      	ldr	r2, [r3, #8]
 800274c:	430a      	orrs	r2, r1
 800274e:	609a      	str	r2, [r3, #8]
 8002750:	689a      	ldr	r2, [r3, #8]
 8002752:	7e21      	ldrb	r1, [r4, #24]
 8002754:	f022 0202 	bic.w	r2, r2, #2
 8002758:	609a      	str	r2, [r3, #8]
 800275a:	689a      	ldr	r2, [r3, #8]
 800275c:	ea42 0241 	orr.w	r2, r2, r1, lsl #1
 8002760:	609a      	str	r2, [r3, #8]
 8002762:	f894 2020 	ldrb.w	r2, [r4, #32]
 8002766:	2a00      	cmp	r2, #0
 8002768:	d03e      	beq.n	80027e8 <HAL_ADC_Init+0x134>
 800276a:	685a      	ldr	r2, [r3, #4]
 800276c:	6a61      	ldr	r1, [r4, #36]	; 0x24
 800276e:	f442 6200 	orr.w	r2, r2, #2048	; 0x800
 8002772:	605a      	str	r2, [r3, #4]
 8002774:	685a      	ldr	r2, [r3, #4]
 8002776:	f422 4260 	bic.w	r2, r2, #57344	; 0xe000
 800277a:	605a      	str	r2, [r3, #4]
 800277c:	685a      	ldr	r2, [r3, #4]
 800277e:	3901      	subs	r1, #1
 8002780:	ea42 3241 	orr.w	r2, r2, r1, lsl #13
 8002784:	605a      	str	r2, [r3, #4]
 8002786:	6ada      	ldr	r2, [r3, #44]	; 0x2c
 8002788:	69e1      	ldr	r1, [r4, #28]
 800278a:	f422 0270 	bic.w	r2, r2, #15728640	; 0xf00000
 800278e:	62da      	str	r2, [r3, #44]	; 0x2c
 8002790:	6ada      	ldr	r2, [r3, #44]	; 0x2c
 8002792:	3901      	subs	r1, #1
 8002794:	ea42 5201 	orr.w	r2, r2, r1, lsl #20
 8002798:	62da      	str	r2, [r3, #44]	; 0x2c
 800279a:	689a      	ldr	r2, [r3, #8]
 800279c:	f894 1030 	ldrb.w	r1, [r4, #48]	; 0x30
 80027a0:	f422 7200 	bic.w	r2, r2, #512	; 0x200
 80027a4:	609a      	str	r2, [r3, #8]
 80027a6:	689a      	ldr	r2, [r3, #8]
 80027a8:	ea42 2241 	orr.w	r2, r2, r1, lsl #9
 80027ac:	609a      	str	r2, [r3, #8]
 80027ae:	689a      	ldr	r2, [r3, #8]
 80027b0:	6961      	ldr	r1, [r4, #20]
 80027b2:	f422 6280 	bic.w	r2, r2, #1024	; 0x400
 80027b6:	609a      	str	r2, [r3, #8]
 80027b8:	689a      	ldr	r2, [r3, #8]
 80027ba:	2000      	movs	r0, #0
 80027bc:	ea42 2281 	orr.w	r2, r2, r1, lsl #10
 80027c0:	609a      	str	r2, [r3, #8]
 80027c2:	6460      	str	r0, [r4, #68]	; 0x44
 80027c4:	6c23      	ldr	r3, [r4, #64]	; 0x40
 80027c6:	f023 0303 	bic.w	r3, r3, #3
 80027ca:	f043 0301 	orr.w	r3, r3, #1
 80027ce:	6423      	str	r3, [r4, #64]	; 0x40
 80027d0:	2300      	movs	r3, #0
 80027d2:	f884 303c 	strb.w	r3, [r4, #60]	; 0x3c
 80027d6:	bd38      	pop	{r3, r4, r5, pc}
 80027d8:	689a      	ldr	r2, [r3, #8]
 80027da:	f022 6270 	bic.w	r2, r2, #251658240	; 0xf000000
 80027de:	609a      	str	r2, [r3, #8]
 80027e0:	689a      	ldr	r2, [r3, #8]
 80027e2:	f022 5240 	bic.w	r2, r2, #805306368	; 0x30000000
 80027e6:	e7b2      	b.n	800274e <HAL_ADC_Init+0x9a>
 80027e8:	685a      	ldr	r2, [r3, #4]
 80027ea:	f422 6200 	bic.w	r2, r2, #2048	; 0x800
 80027ee:	e7c9      	b.n	8002784 <HAL_ADC_Init+0xd0>
 80027f0:	2001      	movs	r0, #1
 80027f2:	e7ed      	b.n	80027d0 <HAL_ADC_Init+0x11c>
 80027f4:	2001      	movs	r0, #1
 80027f6:	e7ee      	b.n	80027d6 <HAL_ADC_Init+0x122>
 80027f8:	40012300 	.word	0x40012300
 80027fc:	0f000001 	.word	0x0f000001

08002800 <HAL_ADC_ConfigChannel>:
 8002800:	b5f7      	push	{r0, r1, r2, r4, r5, r6, r7, lr}
 8002802:	2300      	movs	r3, #0
 8002804:	9301      	str	r3, [sp, #4]
 8002806:	f890 303c 	ldrb.w	r3, [r0, #60]	; 0x3c
 800280a:	2b01      	cmp	r3, #1
 800280c:	d06a      	beq.n	80028e4 <HAL_ADC_ConfigChannel+0xe4>
 800280e:	680d      	ldr	r5, [r1, #0]
 8002810:	688e      	ldr	r6, [r1, #8]
 8002812:	2301      	movs	r3, #1
 8002814:	2d09      	cmp	r5, #9
 8002816:	f880 303c 	strb.w	r3, [r0, #60]	; 0x3c
 800281a:	b2ac      	uxth	r4, r5
 800281c:	6803      	ldr	r3, [r0, #0]
 800281e:	d929      	bls.n	8002874 <HAL_ADC_ConfigChannel+0x74>
 8002820:	eb04 0244 	add.w	r2, r4, r4, lsl #1
 8002824:	68df      	ldr	r7, [r3, #12]
 8002826:	3a1e      	subs	r2, #30
 8002828:	f04f 0c07 	mov.w	ip, #7
 800282c:	fa0c fc02 	lsl.w	ip, ip, r2
 8002830:	ea27 070c 	bic.w	r7, r7, ip
 8002834:	60df      	str	r7, [r3, #12]
 8002836:	68df      	ldr	r7, [r3, #12]
 8002838:	fa06 f202 	lsl.w	r2, r6, r2
 800283c:	433a      	orrs	r2, r7
 800283e:	60da      	str	r2, [r3, #12]
 8002840:	6849      	ldr	r1, [r1, #4]
 8002842:	2906      	cmp	r1, #6
 8002844:	eb01 0281 	add.w	r2, r1, r1, lsl #2
 8002848:	d824      	bhi.n	8002894 <HAL_ADC_ConfigChannel+0x94>
 800284a:	6b59      	ldr	r1, [r3, #52]	; 0x34
 800284c:	3a05      	subs	r2, #5
 800284e:	261f      	movs	r6, #31
 8002850:	4096      	lsls	r6, r2
 8002852:	ea21 0106 	bic.w	r1, r1, r6
 8002856:	6359      	str	r1, [r3, #52]	; 0x34
 8002858:	6b59      	ldr	r1, [r3, #52]	; 0x34
 800285a:	fa04 f202 	lsl.w	r2, r4, r2
 800285e:	430a      	orrs	r2, r1
 8002860:	635a      	str	r2, [r3, #52]	; 0x34
 8002862:	4a31      	ldr	r2, [pc, #196]	; (8002928 <HAL_ADC_ConfigChannel+0x128>)
 8002864:	4293      	cmp	r3, r2
 8002866:	d031      	beq.n	80028cc <HAL_ADC_ConfigChannel+0xcc>
 8002868:	2300      	movs	r3, #0
 800286a:	f880 303c 	strb.w	r3, [r0, #60]	; 0x3c
 800286e:	4618      	mov	r0, r3
 8002870:	b003      	add	sp, #12
 8002872:	bdf0      	pop	{r4, r5, r6, r7, pc}
 8002874:	691f      	ldr	r7, [r3, #16]
 8002876:	eb05 0245 	add.w	r2, r5, r5, lsl #1
 800287a:	f04f 0c07 	mov.w	ip, #7
 800287e:	fa0c fc02 	lsl.w	ip, ip, r2
 8002882:	ea27 070c 	bic.w	r7, r7, ip
 8002886:	611f      	str	r7, [r3, #16]
 8002888:	691f      	ldr	r7, [r3, #16]
 800288a:	fa06 f202 	lsl.w	r2, r6, r2
 800288e:	433a      	orrs	r2, r7
 8002890:	611a      	str	r2, [r3, #16]
 8002892:	e7d5      	b.n	8002840 <HAL_ADC_ConfigChannel+0x40>
 8002894:	290c      	cmp	r1, #12
 8002896:	f04f 011f 	mov.w	r1, #31
 800289a:	d80b      	bhi.n	80028b4 <HAL_ADC_ConfigChannel+0xb4>
 800289c:	6b1e      	ldr	r6, [r3, #48]	; 0x30
 800289e:	3a23      	subs	r2, #35	; 0x23
 80028a0:	4091      	lsls	r1, r2
 80028a2:	ea26 0101 	bic.w	r1, r6, r1
 80028a6:	6319      	str	r1, [r3, #48]	; 0x30
 80028a8:	6b19      	ldr	r1, [r3, #48]	; 0x30
 80028aa:	fa04 f202 	lsl.w	r2, r4, r2
 80028ae:	430a      	orrs	r2, r1
 80028b0:	631a      	str	r2, [r3, #48]	; 0x30
 80028b2:	e7d6      	b.n	8002862 <HAL_ADC_ConfigChannel+0x62>
 80028b4:	6ade      	ldr	r6, [r3, #44]	; 0x2c
 80028b6:	3a41      	subs	r2, #65	; 0x41
 80028b8:	4091      	lsls	r1, r2
 80028ba:	ea26 0101 	bic.w	r1, r6, r1
 80028be:	62d9      	str	r1, [r3, #44]	; 0x2c
 80028c0:	6ad9      	ldr	r1, [r3, #44]	; 0x2c
 80028c2:	fa04 f202 	lsl.w	r2, r4, r2
 80028c6:	430a      	orrs	r2, r1
 80028c8:	62da      	str	r2, [r3, #44]	; 0x2c
 80028ca:	e7ca      	b.n	8002862 <HAL_ADC_ConfigChannel+0x62>
 80028cc:	2d12      	cmp	r5, #18
 80028ce:	d10b      	bne.n	80028e8 <HAL_ADC_ConfigChannel+0xe8>
 80028d0:	4b16      	ldr	r3, [pc, #88]	; (800292c <HAL_ADC_ConfigChannel+0x12c>)
 80028d2:	685a      	ldr	r2, [r3, #4]
 80028d4:	f422 0200 	bic.w	r2, r2, #8388608	; 0x800000
 80028d8:	605a      	str	r2, [r3, #4]
 80028da:	685a      	ldr	r2, [r3, #4]
 80028dc:	f442 0280 	orr.w	r2, r2, #4194304	; 0x400000
 80028e0:	605a      	str	r2, [r3, #4]
 80028e2:	e7c1      	b.n	8002868 <HAL_ADC_ConfigChannel+0x68>
 80028e4:	2002      	movs	r0, #2
 80028e6:	e7c3      	b.n	8002870 <HAL_ADC_ConfigChannel+0x70>
 80028e8:	4b11      	ldr	r3, [pc, #68]	; (8002930 <HAL_ADC_ConfigChannel+0x130>)
 80028ea:	429d      	cmp	r5, r3
 80028ec:	d001      	beq.n	80028f2 <HAL_ADC_ConfigChannel+0xf2>
 80028ee:	2d11      	cmp	r5, #17
 80028f0:	d1ba      	bne.n	8002868 <HAL_ADC_ConfigChannel+0x68>
 80028f2:	4b0e      	ldr	r3, [pc, #56]	; (800292c <HAL_ADC_ConfigChannel+0x12c>)
 80028f4:	685a      	ldr	r2, [r3, #4]
 80028f6:	f422 0280 	bic.w	r2, r2, #4194304	; 0x400000
 80028fa:	605a      	str	r2, [r3, #4]
 80028fc:	685a      	ldr	r2, [r3, #4]
 80028fe:	f442 0200 	orr.w	r2, r2, #8388608	; 0x800000
 8002902:	605a      	str	r2, [r3, #4]
 8002904:	4b0a      	ldr	r3, [pc, #40]	; (8002930 <HAL_ADC_ConfigChannel+0x130>)
 8002906:	429d      	cmp	r5, r3
 8002908:	d1ae      	bne.n	8002868 <HAL_ADC_ConfigChannel+0x68>
 800290a:	4b0a      	ldr	r3, [pc, #40]	; (8002934 <HAL_ADC_ConfigChannel+0x134>)
 800290c:	4a0a      	ldr	r2, [pc, #40]	; (8002938 <HAL_ADC_ConfigChannel+0x138>)
 800290e:	681b      	ldr	r3, [r3, #0]
 8002910:	fbb3 f2f2 	udiv	r2, r3, r2
 8002914:	230a      	movs	r3, #10
 8002916:	4353      	muls	r3, r2
 8002918:	9301      	str	r3, [sp, #4]
 800291a:	9b01      	ldr	r3, [sp, #4]
 800291c:	2b00      	cmp	r3, #0
 800291e:	d0a3      	beq.n	8002868 <HAL_ADC_ConfigChannel+0x68>
 8002920:	9b01      	ldr	r3, [sp, #4]
 8002922:	3b01      	subs	r3, #1
 8002924:	e7f8      	b.n	8002918 <HAL_ADC_ConfigChannel+0x118>
 8002926:	bf00      	nop
 8002928:	40012000 	.word	0x40012000
 800292c:	40012300 	.word	0x40012300
 8002930:	10000012 	.word	0x10000012
 8002934:	20000000 	.word	0x20000000
 8002938:	000f4240 	.word	0x000f4240

0800293c <HAL_ADCEx_MultiModeConfigChannel>:
 800293c:	f890 303c 	ldrb.w	r3, [r0, #60]	; 0x3c
 8002940:	2b01      	cmp	r3, #1
 8002942:	b510      	push	{r4, lr}
 8002944:	d01d      	beq.n	8002982 <HAL_ADCEx_MultiModeConfigChannel+0x46>
 8002946:	4b10      	ldr	r3, [pc, #64]	; (8002988 <HAL_ADCEx_MultiModeConfigChannel+0x4c>)
 8002948:	685a      	ldr	r2, [r3, #4]
 800294a:	f022 021f 	bic.w	r2, r2, #31
 800294e:	605a      	str	r2, [r3, #4]
 8002950:	685a      	ldr	r2, [r3, #4]
 8002952:	680c      	ldr	r4, [r1, #0]
 8002954:	4322      	orrs	r2, r4
 8002956:	605a      	str	r2, [r3, #4]
 8002958:	685a      	ldr	r2, [r3, #4]
 800295a:	f422 4240 	bic.w	r2, r2, #49152	; 0xc000
 800295e:	605a      	str	r2, [r3, #4]
 8002960:	685a      	ldr	r2, [r3, #4]
 8002962:	684c      	ldr	r4, [r1, #4]
 8002964:	4322      	orrs	r2, r4
 8002966:	605a      	str	r2, [r3, #4]
 8002968:	685a      	ldr	r2, [r3, #4]
 800296a:	f422 6270 	bic.w	r2, r2, #3840	; 0xf00
 800296e:	605a      	str	r2, [r3, #4]
 8002970:	685a      	ldr	r2, [r3, #4]
 8002972:	6889      	ldr	r1, [r1, #8]
 8002974:	430a      	orrs	r2, r1
 8002976:	605a      	str	r2, [r3, #4]
 8002978:	2300      	movs	r3, #0
 800297a:	f880 303c 	strb.w	r3, [r0, #60]	; 0x3c
 800297e:	4618      	mov	r0, r3
 8002980:	bd10      	pop	{r4, pc}
 8002982:	2002      	movs	r0, #2
 8002984:	e7fc      	b.n	8002980 <HAL_ADCEx_MultiModeConfigChannel+0x44>
 8002986:	bf00      	nop
 8002988:	40012300 	.word	0x40012300

0800298c <HAL_CAN_Init>:
 800298c:	b538      	push	{r3, r4, r5, lr}
 800298e:	4604      	mov	r4, r0
 8002990:	2800      	cmp	r0, #0
 8002992:	d06e      	beq.n	8002a72 <HAL_CAN_Init+0xe6>
 8002994:	f890 3020 	ldrb.w	r3, [r0, #32]
 8002998:	b90b      	cbnz	r3, 800299e <HAL_CAN_Init+0x12>
 800299a:	f7fe fc27 	bl	80011ec <HAL_CAN_MspInit>
 800299e:	6822      	ldr	r2, [r4, #0]
 80029a0:	6813      	ldr	r3, [r2, #0]
 80029a2:	f023 0302 	bic.w	r3, r3, #2
 80029a6:	6013      	str	r3, [r2, #0]
 80029a8:	f7ff fe6a 	bl	8002680 <HAL_GetTick>
 80029ac:	4605      	mov	r5, r0
 80029ae:	6823      	ldr	r3, [r4, #0]
 80029b0:	685a      	ldr	r2, [r3, #4]
 80029b2:	0791      	lsls	r1, r2, #30
 80029b4:	d451      	bmi.n	8002a5a <HAL_CAN_Init+0xce>
 80029b6:	681a      	ldr	r2, [r3, #0]
 80029b8:	f042 0201 	orr.w	r2, r2, #1
 80029bc:	601a      	str	r2, [r3, #0]
 80029be:	f7ff fe5f 	bl	8002680 <HAL_GetTick>
 80029c2:	4605      	mov	r5, r0
 80029c4:	6823      	ldr	r3, [r4, #0]
 80029c6:	685a      	ldr	r2, [r3, #4]
 80029c8:	07d2      	lsls	r2, r2, #31
 80029ca:	d554      	bpl.n	8002a76 <HAL_CAN_Init+0xea>
 80029cc:	7e22      	ldrb	r2, [r4, #24]
 80029ce:	2a01      	cmp	r2, #1
 80029d0:	681a      	ldr	r2, [r3, #0]
 80029d2:	bf0c      	ite	eq
 80029d4:	f042 0280 	orreq.w	r2, r2, #128	; 0x80
 80029d8:	f022 0280 	bicne.w	r2, r2, #128	; 0x80
 80029dc:	601a      	str	r2, [r3, #0]
 80029de:	7e62      	ldrb	r2, [r4, #25]
 80029e0:	2a01      	cmp	r2, #1
 80029e2:	681a      	ldr	r2, [r3, #0]
 80029e4:	bf0c      	ite	eq
 80029e6:	f042 0240 	orreq.w	r2, r2, #64	; 0x40
 80029ea:	f022 0240 	bicne.w	r2, r2, #64	; 0x40
 80029ee:	601a      	str	r2, [r3, #0]
 80029f0:	7ea2      	ldrb	r2, [r4, #26]
 80029f2:	2a01      	cmp	r2, #1
 80029f4:	681a      	ldr	r2, [r3, #0]
 80029f6:	bf0c      	ite	eq
 80029f8:	f042 0220 	orreq.w	r2, r2, #32
 80029fc:	f022 0220 	bicne.w	r2, r2, #32
 8002a00:	601a      	str	r2, [r3, #0]
 8002a02:	7ee2      	ldrb	r2, [r4, #27]
 8002a04:	2a01      	cmp	r2, #1
 8002a06:	681a      	ldr	r2, [r3, #0]
 8002a08:	bf0c      	ite	eq
 8002a0a:	f022 0210 	biceq.w	r2, r2, #16
 8002a0e:	f042 0210 	orrne.w	r2, r2, #16
 8002a12:	601a      	str	r2, [r3, #0]
 8002a14:	7f22      	ldrb	r2, [r4, #28]
 8002a16:	2a01      	cmp	r2, #1
 8002a18:	681a      	ldr	r2, [r3, #0]
 8002a1a:	bf0c      	ite	eq
 8002a1c:	f042 0208 	orreq.w	r2, r2, #8
 8002a20:	f022 0208 	bicne.w	r2, r2, #8
 8002a24:	601a      	str	r2, [r3, #0]
 8002a26:	7f62      	ldrb	r2, [r4, #29]
 8002a28:	2a01      	cmp	r2, #1
 8002a2a:	681a      	ldr	r2, [r3, #0]
 8002a2c:	bf0c      	ite	eq
 8002a2e:	f042 0204 	orreq.w	r2, r2, #4
 8002a32:	f022 0204 	bicne.w	r2, r2, #4
 8002a36:	601a      	str	r2, [r3, #0]
 8002a38:	e9d4 2102 	ldrd	r2, r1, [r4, #8]
 8002a3c:	430a      	orrs	r2, r1
 8002a3e:	6921      	ldr	r1, [r4, #16]
 8002a40:	430a      	orrs	r2, r1
 8002a42:	6961      	ldr	r1, [r4, #20]
 8002a44:	430a      	orrs	r2, r1
 8002a46:	6861      	ldr	r1, [r4, #4]
 8002a48:	3901      	subs	r1, #1
 8002a4a:	430a      	orrs	r2, r1
 8002a4c:	61da      	str	r2, [r3, #28]
 8002a4e:	2000      	movs	r0, #0
 8002a50:	2301      	movs	r3, #1
 8002a52:	6260      	str	r0, [r4, #36]	; 0x24
 8002a54:	f884 3020 	strb.w	r3, [r4, #32]
 8002a58:	bd38      	pop	{r3, r4, r5, pc}
 8002a5a:	f7ff fe11 	bl	8002680 <HAL_GetTick>
 8002a5e:	1b40      	subs	r0, r0, r5
 8002a60:	280a      	cmp	r0, #10
 8002a62:	d9a4      	bls.n	80029ae <HAL_CAN_Init+0x22>
 8002a64:	6a63      	ldr	r3, [r4, #36]	; 0x24
 8002a66:	f443 3300 	orr.w	r3, r3, #131072	; 0x20000
 8002a6a:	6263      	str	r3, [r4, #36]	; 0x24
 8002a6c:	2305      	movs	r3, #5
 8002a6e:	f884 3020 	strb.w	r3, [r4, #32]
 8002a72:	2001      	movs	r0, #1
 8002a74:	e7f0      	b.n	8002a58 <HAL_CAN_Init+0xcc>
 8002a76:	f7ff fe03 	bl	8002680 <HAL_GetTick>
 8002a7a:	1b40      	subs	r0, r0, r5
 8002a7c:	280a      	cmp	r0, #10
 8002a7e:	d9a1      	bls.n	80029c4 <HAL_CAN_Init+0x38>
 8002a80:	e7f0      	b.n	8002a64 <HAL_CAN_Init+0xd8>

08002a82 <HAL_CAN_TxMailbox0CompleteCallback>:
 8002a82:	4770      	bx	lr

08002a84 <HAL_CAN_TxMailbox1CompleteCallback>:
 8002a84:	4770      	bx	lr

08002a86 <HAL_CAN_TxMailbox2CompleteCallback>:
 8002a86:	4770      	bx	lr

08002a88 <HAL_CAN_TxMailbox0AbortCallback>:
 8002a88:	4770      	bx	lr

08002a8a <HAL_CAN_TxMailbox1AbortCallback>:
 8002a8a:	4770      	bx	lr

08002a8c <HAL_CAN_TxMailbox2AbortCallback>:
 8002a8c:	4770      	bx	lr

08002a8e <HAL_CAN_RxFifo0MsgPendingCallback>:
 8002a8e:	4770      	bx	lr

08002a90 <HAL_CAN_RxFifo0FullCallback>:
 8002a90:	4770      	bx	lr

08002a92 <HAL_CAN_RxFifo1MsgPendingCallback>:
 8002a92:	4770      	bx	lr

08002a94 <HAL_CAN_RxFifo1FullCallback>:
 8002a94:	4770      	bx	lr

08002a96 <HAL_CAN_SleepCallback>:
 8002a96:	4770      	bx	lr

08002a98 <HAL_CAN_WakeUpFromRxMsgCallback>:
 8002a98:	4770      	bx	lr

08002a9a <HAL_CAN_ErrorCallback>:
 8002a9a:	4770      	bx	lr

08002a9c <HAL_CAN_IRQHandler>:
 8002a9c:	e92d 4ff8 	stmdb	sp!, {r3, r4, r5, r6, r7, r8, r9, sl, fp, lr}
 8002aa0:	6803      	ldr	r3, [r0, #0]
 8002aa2:	695e      	ldr	r6, [r3, #20]
 8002aa4:	f8d3 9004 	ldr.w	r9, [r3, #4]
 8002aa8:	689f      	ldr	r7, [r3, #8]
 8002aaa:	f8d3 b00c 	ldr.w	fp, [r3, #12]
 8002aae:	f8d3 a010 	ldr.w	sl, [r3, #16]
 8002ab2:	f8d3 8018 	ldr.w	r8, [r3, #24]
 8002ab6:	f016 0401 	ands.w	r4, r6, #1
 8002aba:	4605      	mov	r5, r0
 8002abc:	d022      	beq.n	8002b04 <HAL_CAN_IRQHandler+0x68>
 8002abe:	f017 0401 	ands.w	r4, r7, #1
 8002ac2:	d007      	beq.n	8002ad4 <HAL_CAN_IRQHandler+0x38>
 8002ac4:	2201      	movs	r2, #1
 8002ac6:	07b9      	lsls	r1, r7, #30
 8002ac8:	609a      	str	r2, [r3, #8]
 8002aca:	f140 80a3 	bpl.w	8002c14 <HAL_CAN_IRQHandler+0x178>
 8002ace:	f7ff ffd8 	bl	8002a82 <HAL_CAN_TxMailbox0CompleteCallback>
 8002ad2:	2400      	movs	r4, #0
 8002ad4:	05fb      	lsls	r3, r7, #23
 8002ad6:	d509      	bpl.n	8002aec <HAL_CAN_IRQHandler+0x50>
 8002ad8:	682b      	ldr	r3, [r5, #0]
 8002ada:	f44f 7280 	mov.w	r2, #256	; 0x100
 8002ade:	05b8      	lsls	r0, r7, #22
 8002ae0:	609a      	str	r2, [r3, #8]
 8002ae2:	f140 80a5 	bpl.w	8002c30 <HAL_CAN_IRQHandler+0x194>
 8002ae6:	4628      	mov	r0, r5
 8002ae8:	f7ff ffcc 	bl	8002a84 <HAL_CAN_TxMailbox1CompleteCallback>
 8002aec:	03fb      	lsls	r3, r7, #15
 8002aee:	d509      	bpl.n	8002b04 <HAL_CAN_IRQHandler+0x68>
 8002af0:	682b      	ldr	r3, [r5, #0]
 8002af2:	f44f 3280 	mov.w	r2, #65536	; 0x10000
 8002af6:	03b8      	lsls	r0, r7, #14
 8002af8:	609a      	str	r2, [r3, #8]
 8002afa:	f140 80a7 	bpl.w	8002c4c <HAL_CAN_IRQHandler+0x1b0>
 8002afe:	4628      	mov	r0, r5
 8002b00:	f7ff ffc1 	bl	8002a86 <HAL_CAN_TxMailbox2CompleteCallback>
 8002b04:	0733      	lsls	r3, r6, #28
 8002b06:	d507      	bpl.n	8002b18 <HAL_CAN_IRQHandler+0x7c>
 8002b08:	f01b 0f10 	tst.w	fp, #16
 8002b0c:	bf1f      	itttt	ne
 8002b0e:	682b      	ldrne	r3, [r5, #0]
 8002b10:	2210      	movne	r2, #16
 8002b12:	f444 7400 	orrne.w	r4, r4, #512	; 0x200
 8002b16:	60da      	strne	r2, [r3, #12]
 8002b18:	0777      	lsls	r7, r6, #29
 8002b1a:	d508      	bpl.n	8002b2e <HAL_CAN_IRQHandler+0x92>
 8002b1c:	f01b 0f08 	tst.w	fp, #8
 8002b20:	d005      	beq.n	8002b2e <HAL_CAN_IRQHandler+0x92>
 8002b22:	682b      	ldr	r3, [r5, #0]
 8002b24:	2208      	movs	r2, #8
 8002b26:	60da      	str	r2, [r3, #12]
 8002b28:	4628      	mov	r0, r5
 8002b2a:	f7ff ffb1 	bl	8002a90 <HAL_CAN_RxFifo0FullCallback>
 8002b2e:	07b0      	lsls	r0, r6, #30
 8002b30:	d506      	bpl.n	8002b40 <HAL_CAN_IRQHandler+0xa4>
 8002b32:	682b      	ldr	r3, [r5, #0]
 8002b34:	68db      	ldr	r3, [r3, #12]
 8002b36:	0799      	lsls	r1, r3, #30
 8002b38:	d002      	beq.n	8002b40 <HAL_CAN_IRQHandler+0xa4>
 8002b3a:	4628      	mov	r0, r5
 8002b3c:	f7ff ffa7 	bl	8002a8e <HAL_CAN_RxFifo0MsgPendingCallback>
 8002b40:	0672      	lsls	r2, r6, #25
 8002b42:	d507      	bpl.n	8002b54 <HAL_CAN_IRQHandler+0xb8>
 8002b44:	f01a 0f10 	tst.w	sl, #16
 8002b48:	bf1f      	itttt	ne
 8002b4a:	682b      	ldrne	r3, [r5, #0]
 8002b4c:	2210      	movne	r2, #16
 8002b4e:	f444 6480 	orrne.w	r4, r4, #1024	; 0x400
 8002b52:	611a      	strne	r2, [r3, #16]
 8002b54:	06b3      	lsls	r3, r6, #26
 8002b56:	d508      	bpl.n	8002b6a <HAL_CAN_IRQHandler+0xce>
 8002b58:	f01a 0f08 	tst.w	sl, #8
 8002b5c:	d005      	beq.n	8002b6a <HAL_CAN_IRQHandler+0xce>
 8002b5e:	682b      	ldr	r3, [r5, #0]
 8002b60:	2208      	movs	r2, #8
 8002b62:	611a      	str	r2, [r3, #16]
 8002b64:	4628      	mov	r0, r5
 8002b66:	f7ff ff95 	bl	8002a94 <HAL_CAN_RxFifo1FullCallback>
 8002b6a:	06f7      	lsls	r7, r6, #27
 8002b6c:	d506      	bpl.n	8002b7c <HAL_CAN_IRQHandler+0xe0>
 8002b6e:	682b      	ldr	r3, [r5, #0]
 8002b70:	691b      	ldr	r3, [r3, #16]
 8002b72:	0798      	lsls	r0, r3, #30
 8002b74:	d002      	beq.n	8002b7c <HAL_CAN_IRQHandler+0xe0>
 8002b76:	4628      	mov	r0, r5
 8002b78:	f7ff ff8b 	bl	8002a92 <HAL_CAN_RxFifo1MsgPendingCallback>
 8002b7c:	03b1      	lsls	r1, r6, #14
 8002b7e:	d508      	bpl.n	8002b92 <HAL_CAN_IRQHandler+0xf6>
 8002b80:	f019 0f10 	tst.w	r9, #16
 8002b84:	d005      	beq.n	8002b92 <HAL_CAN_IRQHandler+0xf6>
 8002b86:	682b      	ldr	r3, [r5, #0]
 8002b88:	2210      	movs	r2, #16
 8002b8a:	605a      	str	r2, [r3, #4]
 8002b8c:	4628      	mov	r0, r5
 8002b8e:	f7ff ff82 	bl	8002a96 <HAL_CAN_SleepCallback>
 8002b92:	03f2      	lsls	r2, r6, #15
 8002b94:	d508      	bpl.n	8002ba8 <HAL_CAN_IRQHandler+0x10c>
 8002b96:	f019 0f08 	tst.w	r9, #8
 8002b9a:	d005      	beq.n	8002ba8 <HAL_CAN_IRQHandler+0x10c>
 8002b9c:	682b      	ldr	r3, [r5, #0]
 8002b9e:	2208      	movs	r2, #8
 8002ba0:	605a      	str	r2, [r3, #4]
 8002ba2:	4628      	mov	r0, r5
 8002ba4:	f7ff ff78 	bl	8002a98 <HAL_CAN_WakeUpFromRxMsgCallback>
 8002ba8:	0433      	lsls	r3, r6, #16
 8002baa:	d52a      	bpl.n	8002c02 <HAL_CAN_IRQHandler+0x166>
 8002bac:	f019 0f04 	tst.w	r9, #4
 8002bb0:	682a      	ldr	r2, [r5, #0]
 8002bb2:	d024      	beq.n	8002bfe <HAL_CAN_IRQHandler+0x162>
 8002bb4:	05f7      	lsls	r7, r6, #23
 8002bb6:	d504      	bpl.n	8002bc2 <HAL_CAN_IRQHandler+0x126>
 8002bb8:	f018 0f01 	tst.w	r8, #1
 8002bbc:	bf18      	it	ne
 8002bbe:	f044 0401 	orrne.w	r4, r4, #1
 8002bc2:	05b0      	lsls	r0, r6, #22
 8002bc4:	d504      	bpl.n	8002bd0 <HAL_CAN_IRQHandler+0x134>
 8002bc6:	f018 0f02 	tst.w	r8, #2
 8002bca:	bf18      	it	ne
 8002bcc:	f044 0402 	orrne.w	r4, r4, #2
 8002bd0:	0571      	lsls	r1, r6, #21
 8002bd2:	d504      	bpl.n	8002bde <HAL_CAN_IRQHandler+0x142>
 8002bd4:	f018 0f04 	tst.w	r8, #4
 8002bd8:	bf18      	it	ne
 8002bda:	f044 0404 	orrne.w	r4, r4, #4
 8002bde:	0533      	lsls	r3, r6, #20
 8002be0:	d50d      	bpl.n	8002bfe <HAL_CAN_IRQHandler+0x162>
 8002be2:	f018 0370 	ands.w	r3, r8, #112	; 0x70
 8002be6:	d00a      	beq.n	8002bfe <HAL_CAN_IRQHandler+0x162>
 8002be8:	2b30      	cmp	r3, #48	; 0x30
 8002bea:	d04c      	beq.n	8002c86 <HAL_CAN_IRQHandler+0x1ea>
 8002bec:	d83c      	bhi.n	8002c68 <HAL_CAN_IRQHandler+0x1cc>
 8002bee:	2b10      	cmp	r3, #16
 8002bf0:	d043      	beq.n	8002c7a <HAL_CAN_IRQHandler+0x1de>
 8002bf2:	2b20      	cmp	r3, #32
 8002bf4:	d044      	beq.n	8002c80 <HAL_CAN_IRQHandler+0x1e4>
 8002bf6:	6993      	ldr	r3, [r2, #24]
 8002bf8:	f023 0370 	bic.w	r3, r3, #112	; 0x70
 8002bfc:	6193      	str	r3, [r2, #24]
 8002bfe:	2304      	movs	r3, #4
 8002c00:	6053      	str	r3, [r2, #4]
 8002c02:	b12c      	cbz	r4, 8002c10 <HAL_CAN_IRQHandler+0x174>
 8002c04:	6a6b      	ldr	r3, [r5, #36]	; 0x24
 8002c06:	431c      	orrs	r4, r3
 8002c08:	626c      	str	r4, [r5, #36]	; 0x24
 8002c0a:	4628      	mov	r0, r5
 8002c0c:	f7ff ff45 	bl	8002a9a <HAL_CAN_ErrorCallback>
 8002c10:	e8bd 8ff8 	ldmia.w	sp!, {r3, r4, r5, r6, r7, r8, r9, sl, fp, pc}
 8002c14:	077a      	lsls	r2, r7, #29
 8002c16:	d405      	bmi.n	8002c24 <HAL_CAN_IRQHandler+0x188>
 8002c18:	f017 0408 	ands.w	r4, r7, #8
 8002c1c:	d105      	bne.n	8002c2a <HAL_CAN_IRQHandler+0x18e>
 8002c1e:	f7ff ff33 	bl	8002a88 <HAL_CAN_TxMailbox0AbortCallback>
 8002c22:	e757      	b.n	8002ad4 <HAL_CAN_IRQHandler+0x38>
 8002c24:	f44f 6400 	mov.w	r4, #2048	; 0x800
 8002c28:	e754      	b.n	8002ad4 <HAL_CAN_IRQHandler+0x38>
 8002c2a:	f44f 5480 	mov.w	r4, #4096	; 0x1000
 8002c2e:	e751      	b.n	8002ad4 <HAL_CAN_IRQHandler+0x38>
 8002c30:	0579      	lsls	r1, r7, #21
 8002c32:	d502      	bpl.n	8002c3a <HAL_CAN_IRQHandler+0x19e>
 8002c34:	f444 5400 	orr.w	r4, r4, #8192	; 0x2000
 8002c38:	e758      	b.n	8002aec <HAL_CAN_IRQHandler+0x50>
 8002c3a:	053a      	lsls	r2, r7, #20
 8002c3c:	d502      	bpl.n	8002c44 <HAL_CAN_IRQHandler+0x1a8>
 8002c3e:	f444 4480 	orr.w	r4, r4, #16384	; 0x4000
 8002c42:	e753      	b.n	8002aec <HAL_CAN_IRQHandler+0x50>
 8002c44:	4628      	mov	r0, r5
 8002c46:	f7ff ff20 	bl	8002a8a <HAL_CAN_TxMailbox1AbortCallback>
 8002c4a:	e74f      	b.n	8002aec <HAL_CAN_IRQHandler+0x50>
 8002c4c:	0379      	lsls	r1, r7, #13
 8002c4e:	d502      	bpl.n	8002c56 <HAL_CAN_IRQHandler+0x1ba>
 8002c50:	f444 4400 	orr.w	r4, r4, #32768	; 0x8000
 8002c54:	e756      	b.n	8002b04 <HAL_CAN_IRQHandler+0x68>
 8002c56:	033a      	lsls	r2, r7, #12
 8002c58:	d502      	bpl.n	8002c60 <HAL_CAN_IRQHandler+0x1c4>
 8002c5a:	f444 3480 	orr.w	r4, r4, #65536	; 0x10000
 8002c5e:	e751      	b.n	8002b04 <HAL_CAN_IRQHandler+0x68>
 8002c60:	4628      	mov	r0, r5
 8002c62:	f7ff ff13 	bl	8002a8c <HAL_CAN_TxMailbox2AbortCallback>
 8002c66:	e74d      	b.n	8002b04 <HAL_CAN_IRQHandler+0x68>
 8002c68:	2b50      	cmp	r3, #80	; 0x50
 8002c6a:	d00f      	beq.n	8002c8c <HAL_CAN_IRQHandler+0x1f0>
 8002c6c:	2b60      	cmp	r3, #96	; 0x60
 8002c6e:	d010      	beq.n	8002c92 <HAL_CAN_IRQHandler+0x1f6>
 8002c70:	2b40      	cmp	r3, #64	; 0x40
 8002c72:	d1c0      	bne.n	8002bf6 <HAL_CAN_IRQHandler+0x15a>
 8002c74:	f044 0440 	orr.w	r4, r4, #64	; 0x40
 8002c78:	e7bd      	b.n	8002bf6 <HAL_CAN_IRQHandler+0x15a>
 8002c7a:	f044 0408 	orr.w	r4, r4, #8
 8002c7e:	e7ba      	b.n	8002bf6 <HAL_CAN_IRQHandler+0x15a>
 8002c80:	f044 0410 	orr.w	r4, r4, #16
 8002c84:	e7b7      	b.n	8002bf6 <HAL_CAN_IRQHandler+0x15a>
 8002c86:	f044 0420 	orr.w	r4, r4, #32
 8002c8a:	e7b4      	b.n	8002bf6 <HAL_CAN_IRQHandler+0x15a>
 8002c8c:	f044 0480 	orr.w	r4, r4, #128	; 0x80
 8002c90:	e7b1      	b.n	8002bf6 <HAL_CAN_IRQHandler+0x15a>
 8002c92:	f444 7480 	orr.w	r4, r4, #256	; 0x100
 8002c96:	e7ae      	b.n	8002bf6 <HAL_CAN_IRQHandler+0x15a>

08002c98 <HAL_NVIC_SetPriorityGrouping>:
 8002c98:	4a07      	ldr	r2, [pc, #28]	; (8002cb8 <HAL_NVIC_SetPriorityGrouping+0x20>)
 8002c9a:	68d3      	ldr	r3, [r2, #12]
 8002c9c:	f423 63e0 	bic.w	r3, r3, #1792	; 0x700
 8002ca0:	041b      	lsls	r3, r3, #16
 8002ca2:	0c1b      	lsrs	r3, r3, #16
 8002ca4:	f043 63bf 	orr.w	r3, r3, #100139008	; 0x5f80000
 8002ca8:	0200      	lsls	r0, r0, #8
 8002caa:	f443 3300 	orr.w	r3, r3, #131072	; 0x20000
 8002cae:	f400 60e0 	and.w	r0, r0, #1792	; 0x700
 8002cb2:	4303      	orrs	r3, r0
 8002cb4:	60d3      	str	r3, [r2, #12]
 8002cb6:	4770      	bx	lr
 8002cb8:	e000ed00 	.word	0xe000ed00

08002cbc <HAL_NVIC_SetPriority>:
 8002cbc:	4b17      	ldr	r3, [pc, #92]	; (8002d1c <HAL_NVIC_SetPriority+0x60>)
 8002cbe:	b570      	push	{r4, r5, r6, lr}
 8002cc0:	68dc      	ldr	r4, [r3, #12]
 8002cc2:	f3c4 2402 	ubfx	r4, r4, #8, #3
 8002cc6:	f1c4 0507 	rsb	r5, r4, #7
 8002cca:	2d04      	cmp	r5, #4
 8002ccc:	f104 0304 	add.w	r3, r4, #4
 8002cd0:	bf28      	it	cs
 8002cd2:	2504      	movcs	r5, #4
 8002cd4:	f04f 36ff 	mov.w	r6, #4294967295
 8002cd8:	2b06      	cmp	r3, #6
 8002cda:	fa06 f305 	lsl.w	r3, r6, r5
 8002cde:	bf8c      	ite	hi
 8002ce0:	3c03      	subhi	r4, #3
 8002ce2:	2400      	movls	r4, #0
 8002ce4:	ea21 0303 	bic.w	r3, r1, r3
 8002ce8:	40a3      	lsls	r3, r4
 8002cea:	fa06 f404 	lsl.w	r4, r6, r4
 8002cee:	ea22 0404 	bic.w	r4, r2, r4
 8002cf2:	2800      	cmp	r0, #0
 8002cf4:	ea43 0304 	orr.w	r3, r3, r4
 8002cf8:	bfa8      	it	ge
 8002cfa:	f100 4060 	addge.w	r0, r0, #3758096384	; 0xe0000000
 8002cfe:	ea4f 1303 	mov.w	r3, r3, lsl #4
 8002d02:	bfbc      	itt	lt
 8002d04:	f000 000f 	andlt.w	r0, r0, #15
 8002d08:	4a05      	ldrlt	r2, [pc, #20]	; (8002d20 <HAL_NVIC_SetPriority+0x64>)
 8002d0a:	b2db      	uxtb	r3, r3
 8002d0c:	bfaa      	itet	ge
 8002d0e:	f500 4061 	addge.w	r0, r0, #57600	; 0xe100
 8002d12:	5413      	strblt	r3, [r2, r0]
 8002d14:	f880 3300 	strbge.w	r3, [r0, #768]	; 0x300
 8002d18:	bd70      	pop	{r4, r5, r6, pc}
 8002d1a:	bf00      	nop
 8002d1c:	e000ed00 	.word	0xe000ed00
 8002d20:	e000ed14 	.word	0xe000ed14

08002d24 <HAL_NVIC_EnableIRQ>:
 8002d24:	2800      	cmp	r0, #0
 8002d26:	db08      	blt.n	8002d3a <HAL_NVIC_EnableIRQ+0x16>
 8002d28:	0942      	lsrs	r2, r0, #5
 8002d2a:	2301      	movs	r3, #1
 8002d2c:	f000 001f 	and.w	r0, r0, #31
 8002d30:	fa03 f000 	lsl.w	r0, r3, r0
 8002d34:	4b01      	ldr	r3, [pc, #4]	; (8002d3c <HAL_NVIC_EnableIRQ+0x18>)
 8002d36:	f843 0022 	str.w	r0, [r3, r2, lsl #2]
 8002d3a:	4770      	bx	lr
 8002d3c:	e000e100 	.word	0xe000e100

08002d40 <HAL_SYSTICK_Config>:
 8002d40:	3801      	subs	r0, #1
 8002d42:	f1b0 7f80 	cmp.w	r0, #16777216	; 0x1000000
 8002d46:	d20a      	bcs.n	8002d5e <HAL_SYSTICK_Config+0x1e>
 8002d48:	4b06      	ldr	r3, [pc, #24]	; (8002d64 <HAL_SYSTICK_Config+0x24>)
 8002d4a:	4a07      	ldr	r2, [pc, #28]	; (8002d68 <HAL_SYSTICK_Config+0x28>)
 8002d4c:	6058      	str	r0, [r3, #4]
 8002d4e:	21f0      	movs	r1, #240	; 0xf0
 8002d50:	f882 1023 	strb.w	r1, [r2, #35]	; 0x23
 8002d54:	2000      	movs	r0, #0
 8002d56:	2207      	movs	r2, #7
 8002d58:	6098      	str	r0, [r3, #8]
 8002d5a:	601a      	str	r2, [r3, #0]
 8002d5c:	4770      	bx	lr
 8002d5e:	2001      	movs	r0, #1
 8002d60:	4770      	bx	lr
 8002d62:	bf00      	nop
 8002d64:	e000e010 	.word	0xe000e010
 8002d68:	e000ed00 	.word	0xe000ed00

08002d6c <HAL_DMA_Abort_IT>:
 8002d6c:	f890 3035 	ldrb.w	r3, [r0, #53]	; 0x35
 8002d70:	2b02      	cmp	r3, #2
 8002d72:	d003      	beq.n	8002d7c <HAL_DMA_Abort_IT+0x10>
 8002d74:	2380      	movs	r3, #128	; 0x80
 8002d76:	6543      	str	r3, [r0, #84]	; 0x54
 8002d78:	2001      	movs	r0, #1
 8002d7a:	4770      	bx	lr
 8002d7c:	6802      	ldr	r2, [r0, #0]
 8002d7e:	2305      	movs	r3, #5
 8002d80:	f880 3035 	strb.w	r3, [r0, #53]	; 0x35
 8002d84:	6813      	ldr	r3, [r2, #0]
 8002d86:	f023 0301 	bic.w	r3, r3, #1
 8002d8a:	6013      	str	r3, [r2, #0]
 8002d8c:	2000      	movs	r0, #0
 8002d8e:	4770      	bx	lr

08002d90 <HAL_GPIO_Init>:
 8002d90:	e92d 4ff0 	stmdb	sp!, {r4, r5, r6, r7, r8, r9, sl, fp, lr}
 8002d94:	b085      	sub	sp, #20
 8002d96:	680b      	ldr	r3, [r1, #0]
 8002d98:	f8df 81a0 	ldr.w	r8, [pc, #416]	; 8002f3c <HAL_GPIO_Init+0x1ac>
 8002d9c:	4a65      	ldr	r2, [pc, #404]	; (8002f34 <HAL_GPIO_Init+0x1a4>)
 8002d9e:	f8df 91a0 	ldr.w	r9, [pc, #416]	; 8002f40 <HAL_GPIO_Init+0x1b0>
 8002da2:	9301      	str	r3, [sp, #4]
 8002da4:	2300      	movs	r3, #0
 8002da6:	2401      	movs	r4, #1
 8002da8:	9d01      	ldr	r5, [sp, #4]
 8002daa:	409c      	lsls	r4, r3
 8002dac:	4025      	ands	r5, r4
 8002dae:	42ac      	cmp	r4, r5
 8002db0:	f040 80ac 	bne.w	8002f0c <HAL_GPIO_Init+0x17c>
 8002db4:	684c      	ldr	r4, [r1, #4]
 8002db6:	f024 0c10 	bic.w	ip, r4, #16
 8002dba:	ea4f 0e43 	mov.w	lr, r3, lsl #1
 8002dbe:	2603      	movs	r6, #3
 8002dc0:	f10c 37ff 	add.w	r7, ip, #4294967295
 8002dc4:	fa06 f60e 	lsl.w	r6, r6, lr
 8002dc8:	2f01      	cmp	r7, #1
 8002dca:	ea6f 0606 	mvn.w	r6, r6
 8002dce:	d811      	bhi.n	8002df4 <HAL_GPIO_Init+0x64>
 8002dd0:	6887      	ldr	r7, [r0, #8]
 8002dd2:	ea07 0a06 	and.w	sl, r7, r6
 8002dd6:	68cf      	ldr	r7, [r1, #12]
 8002dd8:	fa07 f70e 	lsl.w	r7, r7, lr
 8002ddc:	ea47 070a 	orr.w	r7, r7, sl
 8002de0:	6087      	str	r7, [r0, #8]
 8002de2:	6847      	ldr	r7, [r0, #4]
 8002de4:	ea27 0a05 	bic.w	sl, r7, r5
 8002de8:	f3c4 1700 	ubfx	r7, r4, #4, #1
 8002dec:	409f      	lsls	r7, r3
 8002dee:	ea47 070a 	orr.w	r7, r7, sl
 8002df2:	6047      	str	r7, [r0, #4]
 8002df4:	68c7      	ldr	r7, [r0, #12]
 8002df6:	ea07 0a06 	and.w	sl, r7, r6
 8002dfa:	688f      	ldr	r7, [r1, #8]
 8002dfc:	fa07 f70e 	lsl.w	r7, r7, lr
 8002e00:	ea47 070a 	orr.w	r7, r7, sl
 8002e04:	f1bc 0f02 	cmp.w	ip, #2
 8002e08:	60c7      	str	r7, [r0, #12]
 8002e0a:	d116      	bne.n	8002e3a <HAL_GPIO_Init+0xaa>
 8002e0c:	ea4f 0ad3 	mov.w	sl, r3, lsr #3
 8002e10:	eb00 0a8a 	add.w	sl, r0, sl, lsl #2
 8002e14:	f003 0b07 	and.w	fp, r3, #7
 8002e18:	f8da 7020 	ldr.w	r7, [sl, #32]
 8002e1c:	ea4f 0b8b 	mov.w	fp, fp, lsl #2
 8002e20:	f04f 0c0f 	mov.w	ip, #15
 8002e24:	fa0c fc0b 	lsl.w	ip, ip, fp
 8002e28:	ea27 0c0c 	bic.w	ip, r7, ip
 8002e2c:	690f      	ldr	r7, [r1, #16]
 8002e2e:	fa07 f70b 	lsl.w	r7, r7, fp
 8002e32:	ea47 070c 	orr.w	r7, r7, ip
 8002e36:	f8ca 7020 	str.w	r7, [sl, #32]
 8002e3a:	6807      	ldr	r7, [r0, #0]
 8002e3c:	403e      	ands	r6, r7
 8002e3e:	f004 0703 	and.w	r7, r4, #3
 8002e42:	fa07 fe0e 	lsl.w	lr, r7, lr
 8002e46:	ea4e 0606 	orr.w	r6, lr, r6
 8002e4a:	6006      	str	r6, [r0, #0]
 8002e4c:	00e6      	lsls	r6, r4, #3
 8002e4e:	d55d      	bpl.n	8002f0c <HAL_GPIO_Init+0x17c>
 8002e50:	f04f 0b00 	mov.w	fp, #0
 8002e54:	f8cd b00c 	str.w	fp, [sp, #12]
 8002e58:	f8d8 7044 	ldr.w	r7, [r8, #68]	; 0x44
 8002e5c:	4e36      	ldr	r6, [pc, #216]	; (8002f38 <HAL_GPIO_Init+0x1a8>)
 8002e5e:	f447 4780 	orr.w	r7, r7, #16384	; 0x4000
 8002e62:	f8c8 7044 	str.w	r7, [r8, #68]	; 0x44
 8002e66:	f8d8 7044 	ldr.w	r7, [r8, #68]	; 0x44
 8002e6a:	f407 4780 	and.w	r7, r7, #16384	; 0x4000
 8002e6e:	9703      	str	r7, [sp, #12]
 8002e70:	9f03      	ldr	r7, [sp, #12]
 8002e72:	f023 0703 	bic.w	r7, r3, #3
 8002e76:	f107 4780 	add.w	r7, r7, #1073741824	; 0x40000000
 8002e7a:	f507 379c 	add.w	r7, r7, #79872	; 0x13800
 8002e7e:	f003 0e03 	and.w	lr, r3, #3
 8002e82:	f8d7 a008 	ldr.w	sl, [r7, #8]
 8002e86:	ea4f 0e8e 	mov.w	lr, lr, lsl #2
 8002e8a:	f04f 0c0f 	mov.w	ip, #15
 8002e8e:	fa0c fc0e 	lsl.w	ip, ip, lr
 8002e92:	42b0      	cmp	r0, r6
 8002e94:	ea2a 0c0c 	bic.w	ip, sl, ip
 8002e98:	d03f      	beq.n	8002f1a <HAL_GPIO_Init+0x18a>
 8002e9a:	f506 6680 	add.w	r6, r6, #1024	; 0x400
 8002e9e:	42b0      	cmp	r0, r6
 8002ea0:	d03d      	beq.n	8002f1e <HAL_GPIO_Init+0x18e>
 8002ea2:	f506 6680 	add.w	r6, r6, #1024	; 0x400
 8002ea6:	42b0      	cmp	r0, r6
 8002ea8:	d03b      	beq.n	8002f22 <HAL_GPIO_Init+0x192>
 8002eaa:	f506 6680 	add.w	r6, r6, #1024	; 0x400
 8002eae:	42b0      	cmp	r0, r6
 8002eb0:	d039      	beq.n	8002f26 <HAL_GPIO_Init+0x196>
 8002eb2:	f506 6680 	add.w	r6, r6, #1024	; 0x400
 8002eb6:	42b0      	cmp	r0, r6
 8002eb8:	d037      	beq.n	8002f2a <HAL_GPIO_Init+0x19a>
 8002eba:	4548      	cmp	r0, r9
 8002ebc:	d037      	beq.n	8002f2e <HAL_GPIO_Init+0x19e>
 8002ebe:	f506 6600 	add.w	r6, r6, #2048	; 0x800
 8002ec2:	42b0      	cmp	r0, r6
 8002ec4:	bf14      	ite	ne
 8002ec6:	2607      	movne	r6, #7
 8002ec8:	2606      	moveq	r6, #6
 8002eca:	fa06 f60e 	lsl.w	r6, r6, lr
 8002ece:	ea46 060c 	orr.w	r6, r6, ip
 8002ed2:	60be      	str	r6, [r7, #8]
 8002ed4:	6816      	ldr	r6, [r2, #0]
 8002ed6:	43ef      	mvns	r7, r5
 8002ed8:	f414 3f80 	tst.w	r4, #65536	; 0x10000
 8002edc:	bf0c      	ite	eq
 8002ede:	403e      	andeq	r6, r7
 8002ee0:	432e      	orrne	r6, r5
 8002ee2:	6016      	str	r6, [r2, #0]
 8002ee4:	6856      	ldr	r6, [r2, #4]
 8002ee6:	f414 3f00 	tst.w	r4, #131072	; 0x20000
 8002eea:	bf0c      	ite	eq
 8002eec:	403e      	andeq	r6, r7
 8002eee:	432e      	orrne	r6, r5
 8002ef0:	6056      	str	r6, [r2, #4]
 8002ef2:	6896      	ldr	r6, [r2, #8]
 8002ef4:	f414 1f80 	tst.w	r4, #1048576	; 0x100000
 8002ef8:	bf0c      	ite	eq
 8002efa:	403e      	andeq	r6, r7
 8002efc:	432e      	orrne	r6, r5
 8002efe:	6096      	str	r6, [r2, #8]
 8002f00:	68d6      	ldr	r6, [r2, #12]
 8002f02:	02a4      	lsls	r4, r4, #10
 8002f04:	bf54      	ite	pl
 8002f06:	403e      	andpl	r6, r7
 8002f08:	432e      	orrmi	r6, r5
 8002f0a:	60d6      	str	r6, [r2, #12]
 8002f0c:	3301      	adds	r3, #1
 8002f0e:	2b10      	cmp	r3, #16
 8002f10:	f47f af49 	bne.w	8002da6 <HAL_GPIO_Init+0x16>
 8002f14:	b005      	add	sp, #20
 8002f16:	e8bd 8ff0 	ldmia.w	sp!, {r4, r5, r6, r7, r8, r9, sl, fp, pc}
 8002f1a:	465e      	mov	r6, fp
 8002f1c:	e7d5      	b.n	8002eca <HAL_GPIO_Init+0x13a>
 8002f1e:	2601      	movs	r6, #1
 8002f20:	e7d3      	b.n	8002eca <HAL_GPIO_Init+0x13a>
 8002f22:	2602      	movs	r6, #2
 8002f24:	e7d1      	b.n	8002eca <HAL_GPIO_Init+0x13a>
 8002f26:	2603      	movs	r6, #3
 8002f28:	e7cf      	b.n	8002eca <HAL_GPIO_Init+0x13a>
 8002f2a:	2604      	movs	r6, #4
 8002f2c:	e7cd      	b.n	8002eca <HAL_GPIO_Init+0x13a>
 8002f2e:	2605      	movs	r6, #5
 8002f30:	e7cb      	b.n	8002eca <HAL_GPIO_Init+0x13a>
 8002f32:	bf00      	nop
 8002f34:	40013c00 	.word	0x40013c00
 8002f38:	40020000 	.word	0x40020000
 8002f3c:	40023800 	.word	0x40023800
 8002f40:	40021400 	.word	0x40021400

08002f44 <HAL_GPIO_WritePin>:
 8002f44:	b10a      	cbz	r2, 8002f4a <HAL_GPIO_WritePin+0x6>
 8002f46:	6181      	str	r1, [r0, #24]
 8002f48:	4770      	bx	lr
 8002f4a:	0409      	lsls	r1, r1, #16
 8002f4c:	e7fb      	b.n	8002f46 <HAL_GPIO_WritePin+0x2>
	...

08002f50 <HAL_PWREx_EnableOverDrive>:
 8002f50:	b537      	push	{r0, r1, r2, r4, r5, lr}
 8002f52:	2300      	movs	r3, #0
 8002f54:	9301      	str	r3, [sp, #4]
 8002f56:	4b18      	ldr	r3, [pc, #96]	; (8002fb8 <HAL_PWREx_EnableOverDrive+0x68>)
 8002f58:	4c18      	ldr	r4, [pc, #96]	; (8002fbc <HAL_PWREx_EnableOverDrive+0x6c>)
 8002f5a:	6c1a      	ldr	r2, [r3, #64]	; 0x40
 8002f5c:	f042 5280 	orr.w	r2, r2, #268435456	; 0x10000000
 8002f60:	641a      	str	r2, [r3, #64]	; 0x40
 8002f62:	6c1b      	ldr	r3, [r3, #64]	; 0x40
 8002f64:	f003 5380 	and.w	r3, r3, #268435456	; 0x10000000
 8002f68:	9301      	str	r3, [sp, #4]
 8002f6a:	9b01      	ldr	r3, [sp, #4]
 8002f6c:	4b14      	ldr	r3, [pc, #80]	; (8002fc0 <HAL_PWREx_EnableOverDrive+0x70>)
 8002f6e:	2201      	movs	r2, #1
 8002f70:	601a      	str	r2, [r3, #0]
 8002f72:	f7ff fb85 	bl	8002680 <HAL_GetTick>
 8002f76:	4605      	mov	r5, r0
 8002f78:	6863      	ldr	r3, [r4, #4]
 8002f7a:	03da      	lsls	r2, r3, #15
 8002f7c:	d50b      	bpl.n	8002f96 <HAL_PWREx_EnableOverDrive+0x46>
 8002f7e:	4b11      	ldr	r3, [pc, #68]	; (8002fc4 <HAL_PWREx_EnableOverDrive+0x74>)
 8002f80:	4c0e      	ldr	r4, [pc, #56]	; (8002fbc <HAL_PWREx_EnableOverDrive+0x6c>)
 8002f82:	2201      	movs	r2, #1
 8002f84:	601a      	str	r2, [r3, #0]
 8002f86:	f7ff fb7b 	bl	8002680 <HAL_GetTick>
 8002f8a:	4605      	mov	r5, r0
 8002f8c:	6863      	ldr	r3, [r4, #4]
 8002f8e:	039b      	lsls	r3, r3, #14
 8002f90:	d50a      	bpl.n	8002fa8 <HAL_PWREx_EnableOverDrive+0x58>
 8002f92:	2000      	movs	r0, #0
 8002f94:	e006      	b.n	8002fa4 <HAL_PWREx_EnableOverDrive+0x54>
 8002f96:	f7ff fb73 	bl	8002680 <HAL_GetTick>
 8002f9a:	1b40      	subs	r0, r0, r5
 8002f9c:	f5b0 7f7a 	cmp.w	r0, #1000	; 0x3e8
 8002fa0:	d9ea      	bls.n	8002f78 <HAL_PWREx_EnableOverDrive+0x28>
 8002fa2:	2003      	movs	r0, #3
 8002fa4:	b003      	add	sp, #12
 8002fa6:	bd30      	pop	{r4, r5, pc}
 8002fa8:	f7ff fb6a 	bl	8002680 <HAL_GetTick>
 8002fac:	1b40      	subs	r0, r0, r5
 8002fae:	f5b0 7f7a 	cmp.w	r0, #1000	; 0x3e8
 8002fb2:	d9eb      	bls.n	8002f8c <HAL_PWREx_EnableOverDrive+0x3c>
 8002fb4:	e7f5      	b.n	8002fa2 <HAL_PWREx_EnableOverDrive+0x52>
 8002fb6:	bf00      	nop
 8002fb8:	40023800 	.word	0x40023800
 8002fbc:	40007000 	.word	0x40007000
 8002fc0:	420e0040 	.word	0x420e0040
 8002fc4:	420e0044 	.word	0x420e0044

08002fc8 <HAL_RCC_ClockConfig>:
 8002fc8:	e92d 41f0 	stmdb	sp!, {r4, r5, r6, r7, r8, lr}
 8002fcc:	460d      	mov	r5, r1
 8002fce:	4604      	mov	r4, r0
 8002fd0:	b910      	cbnz	r0, 8002fd8 <HAL_RCC_ClockConfig+0x10>
 8002fd2:	2001      	movs	r0, #1
 8002fd4:	e8bd 81f0 	ldmia.w	sp!, {r4, r5, r6, r7, r8, pc}
 8002fd8:	4b43      	ldr	r3, [pc, #268]	; (80030e8 <HAL_RCC_ClockConfig+0x120>)
 8002fda:	681a      	ldr	r2, [r3, #0]
 8002fdc:	f002 020f 	and.w	r2, r2, #15
 8002fe0:	428a      	cmp	r2, r1
 8002fe2:	d328      	bcc.n	8003036 <HAL_RCC_ClockConfig+0x6e>
 8002fe4:	6821      	ldr	r1, [r4, #0]
 8002fe6:	078f      	lsls	r7, r1, #30
 8002fe8:	d42d      	bmi.n	8003046 <HAL_RCC_ClockConfig+0x7e>
 8002fea:	07c8      	lsls	r0, r1, #31
 8002fec:	d440      	bmi.n	8003070 <HAL_RCC_ClockConfig+0xa8>
 8002fee:	4b3e      	ldr	r3, [pc, #248]	; (80030e8 <HAL_RCC_ClockConfig+0x120>)
 8002ff0:	681a      	ldr	r2, [r3, #0]
 8002ff2:	f002 020f 	and.w	r2, r2, #15
 8002ff6:	42aa      	cmp	r2, r5
 8002ff8:	d865      	bhi.n	80030c6 <HAL_RCC_ClockConfig+0xfe>
 8002ffa:	6822      	ldr	r2, [r4, #0]
 8002ffc:	0751      	lsls	r1, r2, #29
 8002ffe:	d46b      	bmi.n	80030d8 <HAL_RCC_ClockConfig+0x110>
 8003000:	0713      	lsls	r3, r2, #28
 8003002:	d507      	bpl.n	8003014 <HAL_RCC_ClockConfig+0x4c>
 8003004:	4a39      	ldr	r2, [pc, #228]	; (80030ec <HAL_RCC_ClockConfig+0x124>)
 8003006:	6921      	ldr	r1, [r4, #16]
 8003008:	6893      	ldr	r3, [r2, #8]
 800300a:	f423 4360 	bic.w	r3, r3, #57344	; 0xe000
 800300e:	ea43 03c1 	orr.w	r3, r3, r1, lsl #3
 8003012:	6093      	str	r3, [r2, #8]
 8003014:	f000 f892 	bl	800313c <HAL_RCC_GetSysClockFreq>
 8003018:	4b34      	ldr	r3, [pc, #208]	; (80030ec <HAL_RCC_ClockConfig+0x124>)
 800301a:	4a35      	ldr	r2, [pc, #212]	; (80030f0 <HAL_RCC_ClockConfig+0x128>)
 800301c:	689b      	ldr	r3, [r3, #8]
 800301e:	f3c3 1303 	ubfx	r3, r3, #4, #4
 8003022:	5cd3      	ldrb	r3, [r2, r3]
 8003024:	40d8      	lsrs	r0, r3
 8003026:	4b33      	ldr	r3, [pc, #204]	; (80030f4 <HAL_RCC_ClockConfig+0x12c>)
 8003028:	6018      	str	r0, [r3, #0]
 800302a:	4b33      	ldr	r3, [pc, #204]	; (80030f8 <HAL_RCC_ClockConfig+0x130>)
 800302c:	6818      	ldr	r0, [r3, #0]
 800302e:	f7ff fadd 	bl	80025ec <HAL_InitTick>
 8003032:	2000      	movs	r0, #0
 8003034:	e7ce      	b.n	8002fd4 <HAL_RCC_ClockConfig+0xc>
 8003036:	b2ca      	uxtb	r2, r1
 8003038:	701a      	strb	r2, [r3, #0]
 800303a:	681b      	ldr	r3, [r3, #0]
 800303c:	f003 030f 	and.w	r3, r3, #15
 8003040:	428b      	cmp	r3, r1
 8003042:	d1c6      	bne.n	8002fd2 <HAL_RCC_ClockConfig+0xa>
 8003044:	e7ce      	b.n	8002fe4 <HAL_RCC_ClockConfig+0x1c>
 8003046:	4b29      	ldr	r3, [pc, #164]	; (80030ec <HAL_RCC_ClockConfig+0x124>)
 8003048:	f011 0f04 	tst.w	r1, #4
 800304c:	bf1e      	ittt	ne
 800304e:	689a      	ldrne	r2, [r3, #8]
 8003050:	f442 52e0 	orrne.w	r2, r2, #7168	; 0x1c00
 8003054:	609a      	strne	r2, [r3, #8]
 8003056:	070e      	lsls	r6, r1, #28
 8003058:	bf42      	ittt	mi
 800305a:	689a      	ldrmi	r2, [r3, #8]
 800305c:	f442 4260 	orrmi.w	r2, r2, #57344	; 0xe000
 8003060:	609a      	strmi	r2, [r3, #8]
 8003062:	689a      	ldr	r2, [r3, #8]
 8003064:	68a0      	ldr	r0, [r4, #8]
 8003066:	f022 02f0 	bic.w	r2, r2, #240	; 0xf0
 800306a:	4302      	orrs	r2, r0
 800306c:	609a      	str	r2, [r3, #8]
 800306e:	e7bc      	b.n	8002fea <HAL_RCC_ClockConfig+0x22>
 8003070:	6862      	ldr	r2, [r4, #4]
 8003072:	4b1e      	ldr	r3, [pc, #120]	; (80030ec <HAL_RCC_ClockConfig+0x124>)
 8003074:	2a01      	cmp	r2, #1
 8003076:	d11c      	bne.n	80030b2 <HAL_RCC_ClockConfig+0xea>
 8003078:	681b      	ldr	r3, [r3, #0]
 800307a:	f413 3f00 	tst.w	r3, #131072	; 0x20000
 800307e:	d0a8      	beq.n	8002fd2 <HAL_RCC_ClockConfig+0xa>
 8003080:	4e1a      	ldr	r6, [pc, #104]	; (80030ec <HAL_RCC_ClockConfig+0x124>)
 8003082:	68b3      	ldr	r3, [r6, #8]
 8003084:	f023 0303 	bic.w	r3, r3, #3
 8003088:	4313      	orrs	r3, r2
 800308a:	60b3      	str	r3, [r6, #8]
 800308c:	f7ff faf8 	bl	8002680 <HAL_GetTick>
 8003090:	f241 3888 	movw	r8, #5000	; 0x1388
 8003094:	4607      	mov	r7, r0
 8003096:	68b3      	ldr	r3, [r6, #8]
 8003098:	6862      	ldr	r2, [r4, #4]
 800309a:	f003 030c 	and.w	r3, r3, #12
 800309e:	ebb3 0f82 	cmp.w	r3, r2, lsl #2
 80030a2:	d0a4      	beq.n	8002fee <HAL_RCC_ClockConfig+0x26>
 80030a4:	f7ff faec 	bl	8002680 <HAL_GetTick>
 80030a8:	1bc0      	subs	r0, r0, r7
 80030aa:	4540      	cmp	r0, r8
 80030ac:	d9f3      	bls.n	8003096 <HAL_RCC_ClockConfig+0xce>
 80030ae:	2003      	movs	r0, #3
 80030b0:	e790      	b.n	8002fd4 <HAL_RCC_ClockConfig+0xc>
 80030b2:	1e91      	subs	r1, r2, #2
 80030b4:	2901      	cmp	r1, #1
 80030b6:	681b      	ldr	r3, [r3, #0]
 80030b8:	d802      	bhi.n	80030c0 <HAL_RCC_ClockConfig+0xf8>
 80030ba:	f013 7f00 	tst.w	r3, #33554432	; 0x2000000
 80030be:	e7de      	b.n	800307e <HAL_RCC_ClockConfig+0xb6>
 80030c0:	f013 0f02 	tst.w	r3, #2
 80030c4:	e7db      	b.n	800307e <HAL_RCC_ClockConfig+0xb6>
 80030c6:	b2ea      	uxtb	r2, r5
 80030c8:	701a      	strb	r2, [r3, #0]
 80030ca:	681b      	ldr	r3, [r3, #0]
 80030cc:	f003 030f 	and.w	r3, r3, #15
 80030d0:	42ab      	cmp	r3, r5
 80030d2:	f47f af7e 	bne.w	8002fd2 <HAL_RCC_ClockConfig+0xa>
 80030d6:	e790      	b.n	8002ffa <HAL_RCC_ClockConfig+0x32>
 80030d8:	4904      	ldr	r1, [pc, #16]	; (80030ec <HAL_RCC_ClockConfig+0x124>)
 80030da:	68e0      	ldr	r0, [r4, #12]
 80030dc:	688b      	ldr	r3, [r1, #8]
 80030de:	f423 53e0 	bic.w	r3, r3, #7168	; 0x1c00
 80030e2:	4303      	orrs	r3, r0
 80030e4:	608b      	str	r3, [r1, #8]
 80030e6:	e78b      	b.n	8003000 <HAL_RCC_ClockConfig+0x38>
 80030e8:	40023c00 	.word	0x40023c00
 80030ec:	40023800 	.word	0x40023800
 80030f0:	08008a35 	.word	0x08008a35
 80030f4:	20000000 	.word	0x20000000
 80030f8:	20000008 	.word	0x20000008

080030fc <HAL_RCC_GetPCLK1Freq>:
 80030fc:	4b04      	ldr	r3, [pc, #16]	; (8003110 <HAL_RCC_GetPCLK1Freq+0x14>)
 80030fe:	4a05      	ldr	r2, [pc, #20]	; (8003114 <HAL_RCC_GetPCLK1Freq+0x18>)
 8003100:	689b      	ldr	r3, [r3, #8]
 8003102:	f3c3 2382 	ubfx	r3, r3, #10, #3
 8003106:	5cd3      	ldrb	r3, [r2, r3]
 8003108:	4a03      	ldr	r2, [pc, #12]	; (8003118 <HAL_RCC_GetPCLK1Freq+0x1c>)
 800310a:	6810      	ldr	r0, [r2, #0]
 800310c:	40d8      	lsrs	r0, r3
 800310e:	4770      	bx	lr
 8003110:	40023800 	.word	0x40023800
 8003114:	08008a45 	.word	0x08008a45
 8003118:	20000000 	.word	0x20000000

0800311c <HAL_RCC_GetPCLK2Freq>:
 800311c:	4b04      	ldr	r3, [pc, #16]	; (8003130 <HAL_RCC_GetPCLK2Freq+0x14>)
 800311e:	4a05      	ldr	r2, [pc, #20]	; (8003134 <HAL_RCC_GetPCLK2Freq+0x18>)
 8003120:	689b      	ldr	r3, [r3, #8]
 8003122:	f3c3 3342 	ubfx	r3, r3, #13, #3
 8003126:	5cd3      	ldrb	r3, [r2, r3]
 8003128:	4a03      	ldr	r2, [pc, #12]	; (8003138 <HAL_RCC_GetPCLK2Freq+0x1c>)
 800312a:	6810      	ldr	r0, [r2, #0]
 800312c:	40d8      	lsrs	r0, r3
 800312e:	4770      	bx	lr
 8003130:	40023800 	.word	0x40023800
 8003134:	08008a45 	.word	0x08008a45
 8003138:	20000000 	.word	0x20000000

0800313c <HAL_RCC_GetSysClockFreq>:
 800313c:	4920      	ldr	r1, [pc, #128]	; (80031c0 <HAL_RCC_GetSysClockFreq+0x84>)
 800313e:	b508      	push	{r3, lr}
 8003140:	688b      	ldr	r3, [r1, #8]
 8003142:	f003 030c 	and.w	r3, r3, #12
 8003146:	2b08      	cmp	r3, #8
 8003148:	d007      	beq.n	800315a <HAL_RCC_GetSysClockFreq+0x1e>
 800314a:	2b0c      	cmp	r3, #12
 800314c:	d020      	beq.n	8003190 <HAL_RCC_GetSysClockFreq+0x54>
 800314e:	481d      	ldr	r0, [pc, #116]	; (80031c4 <HAL_RCC_GetSysClockFreq+0x88>)
 8003150:	4a1d      	ldr	r2, [pc, #116]	; (80031c8 <HAL_RCC_GetSysClockFreq+0x8c>)
 8003152:	2b04      	cmp	r3, #4
 8003154:	bf18      	it	ne
 8003156:	4610      	movne	r0, r2
 8003158:	bd08      	pop	{r3, pc}
 800315a:	684a      	ldr	r2, [r1, #4]
 800315c:	684b      	ldr	r3, [r1, #4]
 800315e:	6849      	ldr	r1, [r1, #4]
 8003160:	f413 0380 	ands.w	r3, r3, #4194304	; 0x400000
 8003164:	bf14      	ite	ne
 8003166:	4817      	ldrne	r0, [pc, #92]	; (80031c4 <HAL_RCC_GetSysClockFreq+0x88>)
 8003168:	4817      	ldreq	r0, [pc, #92]	; (80031c8 <HAL_RCC_GetSysClockFreq+0x8c>)
 800316a:	f3c1 1188 	ubfx	r1, r1, #6, #9
 800316e:	bf18      	it	ne
 8003170:	2300      	movne	r3, #0
 8003172:	f002 023f 	and.w	r2, r2, #63	; 0x3f
 8003176:	fba1 0100 	umull	r0, r1, r1, r0
 800317a:	f7fd fd85 	bl	8000c88 <__aeabi_uldivmod>
 800317e:	4b10      	ldr	r3, [pc, #64]	; (80031c0 <HAL_RCC_GetSysClockFreq+0x84>)
 8003180:	685b      	ldr	r3, [r3, #4]
 8003182:	f3c3 4301 	ubfx	r3, r3, #16, #2
 8003186:	3301      	adds	r3, #1
 8003188:	005b      	lsls	r3, r3, #1
 800318a:	fbb0 f0f3 	udiv	r0, r0, r3
 800318e:	e7e3      	b.n	8003158 <HAL_RCC_GetSysClockFreq+0x1c>
 8003190:	684a      	ldr	r2, [r1, #4]
 8003192:	684b      	ldr	r3, [r1, #4]
 8003194:	6849      	ldr	r1, [r1, #4]
 8003196:	f413 0380 	ands.w	r3, r3, #4194304	; 0x400000
 800319a:	bf14      	ite	ne
 800319c:	4809      	ldrne	r0, [pc, #36]	; (80031c4 <HAL_RCC_GetSysClockFreq+0x88>)
 800319e:	480a      	ldreq	r0, [pc, #40]	; (80031c8 <HAL_RCC_GetSysClockFreq+0x8c>)
 80031a0:	f3c1 1188 	ubfx	r1, r1, #6, #9
 80031a4:	bf18      	it	ne
 80031a6:	2300      	movne	r3, #0
 80031a8:	f002 023f 	and.w	r2, r2, #63	; 0x3f
 80031ac:	fba1 0100 	umull	r0, r1, r1, r0
 80031b0:	f7fd fd6a 	bl	8000c88 <__aeabi_uldivmod>
 80031b4:	4b02      	ldr	r3, [pc, #8]	; (80031c0 <HAL_RCC_GetSysClockFreq+0x84>)
 80031b6:	685b      	ldr	r3, [r3, #4]
 80031b8:	f3c3 7302 	ubfx	r3, r3, #28, #3
 80031bc:	e7e5      	b.n	800318a <HAL_RCC_GetSysClockFreq+0x4e>
 80031be:	bf00      	nop
 80031c0:	40023800 	.word	0x40023800
 80031c4:	007a1200 	.word	0x007a1200
 80031c8:	00f42400 	.word	0x00f42400

080031cc <HAL_RCC_OscConfig>:
 80031cc:	6803      	ldr	r3, [r0, #0]
 80031ce:	e92d 41f3 	stmdb	sp!, {r0, r1, r4, r5, r6, r7, r8, lr}
 80031d2:	07df      	lsls	r7, r3, #31
 80031d4:	4604      	mov	r4, r0
 80031d6:	d410      	bmi.n	80031fa <HAL_RCC_OscConfig+0x2e>
 80031d8:	6823      	ldr	r3, [r4, #0]
 80031da:	079e      	lsls	r6, r3, #30
 80031dc:	d467      	bmi.n	80032ae <HAL_RCC_OscConfig+0xe2>
 80031de:	6823      	ldr	r3, [r4, #0]
 80031e0:	071a      	lsls	r2, r3, #28
 80031e2:	f100 80b2 	bmi.w	800334a <HAL_RCC_OscConfig+0x17e>
 80031e6:	6823      	ldr	r3, [r4, #0]
 80031e8:	075b      	lsls	r3, r3, #29
 80031ea:	f100 80d0 	bmi.w	800338e <HAL_RCC_OscConfig+0x1c2>
 80031ee:	69a2      	ldr	r2, [r4, #24]
 80031f0:	2a00      	cmp	r2, #0
 80031f2:	f040 8139 	bne.w	8003468 <HAL_RCC_OscConfig+0x29c>
 80031f6:	2000      	movs	r0, #0
 80031f8:	e01e      	b.n	8003238 <HAL_RCC_OscConfig+0x6c>
 80031fa:	4b97      	ldr	r3, [pc, #604]	; (8003458 <HAL_RCC_OscConfig+0x28c>)
 80031fc:	689a      	ldr	r2, [r3, #8]
 80031fe:	f002 020c 	and.w	r2, r2, #12
 8003202:	2a04      	cmp	r2, #4
 8003204:	d010      	beq.n	8003228 <HAL_RCC_OscConfig+0x5c>
 8003206:	689a      	ldr	r2, [r3, #8]
 8003208:	f002 020c 	and.w	r2, r2, #12
 800320c:	2a08      	cmp	r2, #8
 800320e:	d102      	bne.n	8003216 <HAL_RCC_OscConfig+0x4a>
 8003210:	685b      	ldr	r3, [r3, #4]
 8003212:	025d      	lsls	r5, r3, #9
 8003214:	d408      	bmi.n	8003228 <HAL_RCC_OscConfig+0x5c>
 8003216:	4b90      	ldr	r3, [pc, #576]	; (8003458 <HAL_RCC_OscConfig+0x28c>)
 8003218:	689a      	ldr	r2, [r3, #8]
 800321a:	f002 020c 	and.w	r2, r2, #12
 800321e:	2a0c      	cmp	r2, #12
 8003220:	d10d      	bne.n	800323e <HAL_RCC_OscConfig+0x72>
 8003222:	685a      	ldr	r2, [r3, #4]
 8003224:	0250      	lsls	r0, r2, #9
 8003226:	d50a      	bpl.n	800323e <HAL_RCC_OscConfig+0x72>
 8003228:	4b8b      	ldr	r3, [pc, #556]	; (8003458 <HAL_RCC_OscConfig+0x28c>)
 800322a:	681b      	ldr	r3, [r3, #0]
 800322c:	0399      	lsls	r1, r3, #14
 800322e:	d5d3      	bpl.n	80031d8 <HAL_RCC_OscConfig+0xc>
 8003230:	6863      	ldr	r3, [r4, #4]
 8003232:	2b00      	cmp	r3, #0
 8003234:	d1d0      	bne.n	80031d8 <HAL_RCC_OscConfig+0xc>
 8003236:	2001      	movs	r0, #1
 8003238:	b002      	add	sp, #8
 800323a:	e8bd 81f0 	ldmia.w	sp!, {r4, r5, r6, r7, r8, pc}
 800323e:	6862      	ldr	r2, [r4, #4]
 8003240:	f5b2 3f80 	cmp.w	r2, #65536	; 0x10000
 8003244:	d111      	bne.n	800326a <HAL_RCC_OscConfig+0x9e>
 8003246:	681a      	ldr	r2, [r3, #0]
 8003248:	f442 3280 	orr.w	r2, r2, #65536	; 0x10000
 800324c:	601a      	str	r2, [r3, #0]
 800324e:	f7ff fa17 	bl	8002680 <HAL_GetTick>
 8003252:	4d81      	ldr	r5, [pc, #516]	; (8003458 <HAL_RCC_OscConfig+0x28c>)
 8003254:	4606      	mov	r6, r0
 8003256:	682b      	ldr	r3, [r5, #0]
 8003258:	039a      	lsls	r2, r3, #14
 800325a:	d4bd      	bmi.n	80031d8 <HAL_RCC_OscConfig+0xc>
 800325c:	f7ff fa10 	bl	8002680 <HAL_GetTick>
 8003260:	1b80      	subs	r0, r0, r6
 8003262:	2864      	cmp	r0, #100	; 0x64
 8003264:	d9f7      	bls.n	8003256 <HAL_RCC_OscConfig+0x8a>
 8003266:	2003      	movs	r0, #3
 8003268:	e7e6      	b.n	8003238 <HAL_RCC_OscConfig+0x6c>
 800326a:	4d7b      	ldr	r5, [pc, #492]	; (8003458 <HAL_RCC_OscConfig+0x28c>)
 800326c:	f5b2 2fa0 	cmp.w	r2, #327680	; 0x50000
 8003270:	682b      	ldr	r3, [r5, #0]
 8003272:	d107      	bne.n	8003284 <HAL_RCC_OscConfig+0xb8>
 8003274:	f443 2380 	orr.w	r3, r3, #262144	; 0x40000
 8003278:	602b      	str	r3, [r5, #0]
 800327a:	682b      	ldr	r3, [r5, #0]
 800327c:	f443 3380 	orr.w	r3, r3, #65536	; 0x10000
 8003280:	602b      	str	r3, [r5, #0]
 8003282:	e7e4      	b.n	800324e <HAL_RCC_OscConfig+0x82>
 8003284:	f423 3380 	bic.w	r3, r3, #65536	; 0x10000
 8003288:	602b      	str	r3, [r5, #0]
 800328a:	682b      	ldr	r3, [r5, #0]
 800328c:	f423 2380 	bic.w	r3, r3, #262144	; 0x40000
 8003290:	602b      	str	r3, [r5, #0]
 8003292:	2a00      	cmp	r2, #0
 8003294:	d1db      	bne.n	800324e <HAL_RCC_OscConfig+0x82>
 8003296:	f7ff f9f3 	bl	8002680 <HAL_GetTick>
 800329a:	4606      	mov	r6, r0
 800329c:	682b      	ldr	r3, [r5, #0]
 800329e:	039b      	lsls	r3, r3, #14
 80032a0:	d59a      	bpl.n	80031d8 <HAL_RCC_OscConfig+0xc>
 80032a2:	f7ff f9ed 	bl	8002680 <HAL_GetTick>
 80032a6:	1b80      	subs	r0, r0, r6
 80032a8:	2864      	cmp	r0, #100	; 0x64
 80032aa:	d9f7      	bls.n	800329c <HAL_RCC_OscConfig+0xd0>
 80032ac:	e7db      	b.n	8003266 <HAL_RCC_OscConfig+0x9a>
 80032ae:	4b6a      	ldr	r3, [pc, #424]	; (8003458 <HAL_RCC_OscConfig+0x28c>)
 80032b0:	689a      	ldr	r2, [r3, #8]
 80032b2:	f012 0f0c 	tst.w	r2, #12
 80032b6:	d010      	beq.n	80032da <HAL_RCC_OscConfig+0x10e>
 80032b8:	689a      	ldr	r2, [r3, #8]
 80032ba:	f002 020c 	and.w	r2, r2, #12
 80032be:	2a08      	cmp	r2, #8
 80032c0:	d102      	bne.n	80032c8 <HAL_RCC_OscConfig+0xfc>
 80032c2:	685b      	ldr	r3, [r3, #4]
 80032c4:	025f      	lsls	r7, r3, #9
 80032c6:	d508      	bpl.n	80032da <HAL_RCC_OscConfig+0x10e>
 80032c8:	4a63      	ldr	r2, [pc, #396]	; (8003458 <HAL_RCC_OscConfig+0x28c>)
 80032ca:	6893      	ldr	r3, [r2, #8]
 80032cc:	f003 030c 	and.w	r3, r3, #12
 80032d0:	2b0c      	cmp	r3, #12
 80032d2:	d111      	bne.n	80032f8 <HAL_RCC_OscConfig+0x12c>
 80032d4:	6853      	ldr	r3, [r2, #4]
 80032d6:	025e      	lsls	r6, r3, #9
 80032d8:	d40e      	bmi.n	80032f8 <HAL_RCC_OscConfig+0x12c>
 80032da:	4b5f      	ldr	r3, [pc, #380]	; (8003458 <HAL_RCC_OscConfig+0x28c>)
 80032dc:	681a      	ldr	r2, [r3, #0]
 80032de:	0795      	lsls	r5, r2, #30
 80032e0:	d502      	bpl.n	80032e8 <HAL_RCC_OscConfig+0x11c>
 80032e2:	68e2      	ldr	r2, [r4, #12]
 80032e4:	2a01      	cmp	r2, #1
 80032e6:	d1a6      	bne.n	8003236 <HAL_RCC_OscConfig+0x6a>
 80032e8:	681a      	ldr	r2, [r3, #0]
 80032ea:	6921      	ldr	r1, [r4, #16]
 80032ec:	f022 02f8 	bic.w	r2, r2, #248	; 0xf8
 80032f0:	ea42 02c1 	orr.w	r2, r2, r1, lsl #3
 80032f4:	601a      	str	r2, [r3, #0]
 80032f6:	e772      	b.n	80031de <HAL_RCC_OscConfig+0x12>
 80032f8:	68e2      	ldr	r2, [r4, #12]
 80032fa:	4b58      	ldr	r3, [pc, #352]	; (800345c <HAL_RCC_OscConfig+0x290>)
 80032fc:	b1b2      	cbz	r2, 800332c <HAL_RCC_OscConfig+0x160>
 80032fe:	2201      	movs	r2, #1
 8003300:	601a      	str	r2, [r3, #0]
 8003302:	f7ff f9bd 	bl	8002680 <HAL_GetTick>
 8003306:	4d54      	ldr	r5, [pc, #336]	; (8003458 <HAL_RCC_OscConfig+0x28c>)
 8003308:	4606      	mov	r6, r0
 800330a:	682b      	ldr	r3, [r5, #0]
 800330c:	0798      	lsls	r0, r3, #30
 800330e:	d507      	bpl.n	8003320 <HAL_RCC_OscConfig+0x154>
 8003310:	682b      	ldr	r3, [r5, #0]
 8003312:	6922      	ldr	r2, [r4, #16]
 8003314:	f023 03f8 	bic.w	r3, r3, #248	; 0xf8
 8003318:	ea43 03c2 	orr.w	r3, r3, r2, lsl #3
 800331c:	602b      	str	r3, [r5, #0]
 800331e:	e75e      	b.n	80031de <HAL_RCC_OscConfig+0x12>
 8003320:	f7ff f9ae 	bl	8002680 <HAL_GetTick>
 8003324:	1b80      	subs	r0, r0, r6
 8003326:	2802      	cmp	r0, #2
 8003328:	d9ef      	bls.n	800330a <HAL_RCC_OscConfig+0x13e>
 800332a:	e79c      	b.n	8003266 <HAL_RCC_OscConfig+0x9a>
 800332c:	601a      	str	r2, [r3, #0]
 800332e:	f7ff f9a7 	bl	8002680 <HAL_GetTick>
 8003332:	4d49      	ldr	r5, [pc, #292]	; (8003458 <HAL_RCC_OscConfig+0x28c>)
 8003334:	4606      	mov	r6, r0
 8003336:	682b      	ldr	r3, [r5, #0]
 8003338:	0799      	lsls	r1, r3, #30
 800333a:	f57f af50 	bpl.w	80031de <HAL_RCC_OscConfig+0x12>
 800333e:	f7ff f99f 	bl	8002680 <HAL_GetTick>
 8003342:	1b80      	subs	r0, r0, r6
 8003344:	2802      	cmp	r0, #2
 8003346:	d9f6      	bls.n	8003336 <HAL_RCC_OscConfig+0x16a>
 8003348:	e78d      	b.n	8003266 <HAL_RCC_OscConfig+0x9a>
 800334a:	6962      	ldr	r2, [r4, #20]
 800334c:	4b44      	ldr	r3, [pc, #272]	; (8003460 <HAL_RCC_OscConfig+0x294>)
 800334e:	b17a      	cbz	r2, 8003370 <HAL_RCC_OscConfig+0x1a4>
 8003350:	2201      	movs	r2, #1
 8003352:	601a      	str	r2, [r3, #0]
 8003354:	f7ff f994 	bl	8002680 <HAL_GetTick>
 8003358:	4d3f      	ldr	r5, [pc, #252]	; (8003458 <HAL_RCC_OscConfig+0x28c>)
 800335a:	4606      	mov	r6, r0
 800335c:	6f6b      	ldr	r3, [r5, #116]	; 0x74
 800335e:	079f      	lsls	r7, r3, #30
 8003360:	f53f af41 	bmi.w	80031e6 <HAL_RCC_OscConfig+0x1a>
 8003364:	f7ff f98c 	bl	8002680 <HAL_GetTick>
 8003368:	1b80      	subs	r0, r0, r6
 800336a:	2802      	cmp	r0, #2
 800336c:	d9f6      	bls.n	800335c <HAL_RCC_OscConfig+0x190>
 800336e:	e77a      	b.n	8003266 <HAL_RCC_OscConfig+0x9a>
 8003370:	601a      	str	r2, [r3, #0]
 8003372:	f7ff f985 	bl	8002680 <HAL_GetTick>
 8003376:	4d38      	ldr	r5, [pc, #224]	; (8003458 <HAL_RCC_OscConfig+0x28c>)
 8003378:	4606      	mov	r6, r0
 800337a:	6f6b      	ldr	r3, [r5, #116]	; 0x74
 800337c:	0798      	lsls	r0, r3, #30
 800337e:	f57f af32 	bpl.w	80031e6 <HAL_RCC_OscConfig+0x1a>
 8003382:	f7ff f97d 	bl	8002680 <HAL_GetTick>
 8003386:	1b80      	subs	r0, r0, r6
 8003388:	2802      	cmp	r0, #2
 800338a:	d9f6      	bls.n	800337a <HAL_RCC_OscConfig+0x1ae>
 800338c:	e76b      	b.n	8003266 <HAL_RCC_OscConfig+0x9a>
 800338e:	4b32      	ldr	r3, [pc, #200]	; (8003458 <HAL_RCC_OscConfig+0x28c>)
 8003390:	6c1a      	ldr	r2, [r3, #64]	; 0x40
 8003392:	f012 5280 	ands.w	r2, r2, #268435456	; 0x10000000
 8003396:	d128      	bne.n	80033ea <HAL_RCC_OscConfig+0x21e>
 8003398:	9201      	str	r2, [sp, #4]
 800339a:	6c1a      	ldr	r2, [r3, #64]	; 0x40
 800339c:	f042 5280 	orr.w	r2, r2, #268435456	; 0x10000000
 80033a0:	641a      	str	r2, [r3, #64]	; 0x40
 80033a2:	6c1b      	ldr	r3, [r3, #64]	; 0x40
 80033a4:	f003 5380 	and.w	r3, r3, #268435456	; 0x10000000
 80033a8:	9301      	str	r3, [sp, #4]
 80033aa:	9b01      	ldr	r3, [sp, #4]
 80033ac:	2601      	movs	r6, #1
 80033ae:	4d2d      	ldr	r5, [pc, #180]	; (8003464 <HAL_RCC_OscConfig+0x298>)
 80033b0:	682b      	ldr	r3, [r5, #0]
 80033b2:	05d9      	lsls	r1, r3, #23
 80033b4:	d51b      	bpl.n	80033ee <HAL_RCC_OscConfig+0x222>
 80033b6:	68a3      	ldr	r3, [r4, #8]
 80033b8:	4d27      	ldr	r5, [pc, #156]	; (8003458 <HAL_RCC_OscConfig+0x28c>)
 80033ba:	2b01      	cmp	r3, #1
 80033bc:	d127      	bne.n	800340e <HAL_RCC_OscConfig+0x242>
 80033be:	6f2b      	ldr	r3, [r5, #112]	; 0x70
 80033c0:	f043 0301 	orr.w	r3, r3, #1
 80033c4:	672b      	str	r3, [r5, #112]	; 0x70
 80033c6:	f7ff f95b 	bl	8002680 <HAL_GetTick>
 80033ca:	4d23      	ldr	r5, [pc, #140]	; (8003458 <HAL_RCC_OscConfig+0x28c>)
 80033cc:	4607      	mov	r7, r0
 80033ce:	f241 3888 	movw	r8, #5000	; 0x1388
 80033d2:	6f2b      	ldr	r3, [r5, #112]	; 0x70
 80033d4:	079b      	lsls	r3, r3, #30
 80033d6:	d539      	bpl.n	800344c <HAL_RCC_OscConfig+0x280>
 80033d8:	2e00      	cmp	r6, #0
 80033da:	f43f af08 	beq.w	80031ee <HAL_RCC_OscConfig+0x22>
 80033de:	4a1e      	ldr	r2, [pc, #120]	; (8003458 <HAL_RCC_OscConfig+0x28c>)
 80033e0:	6c13      	ldr	r3, [r2, #64]	; 0x40
 80033e2:	f023 5380 	bic.w	r3, r3, #268435456	; 0x10000000
 80033e6:	6413      	str	r3, [r2, #64]	; 0x40
 80033e8:	e701      	b.n	80031ee <HAL_RCC_OscConfig+0x22>
 80033ea:	2600      	movs	r6, #0
 80033ec:	e7df      	b.n	80033ae <HAL_RCC_OscConfig+0x1e2>
 80033ee:	682b      	ldr	r3, [r5, #0]
 80033f0:	f443 7380 	orr.w	r3, r3, #256	; 0x100
 80033f4:	602b      	str	r3, [r5, #0]
 80033f6:	f7ff f943 	bl	8002680 <HAL_GetTick>
 80033fa:	4607      	mov	r7, r0
 80033fc:	682b      	ldr	r3, [r5, #0]
 80033fe:	05da      	lsls	r2, r3, #23
 8003400:	d4d9      	bmi.n	80033b6 <HAL_RCC_OscConfig+0x1ea>
 8003402:	f7ff f93d 	bl	8002680 <HAL_GetTick>
 8003406:	1bc0      	subs	r0, r0, r7
 8003408:	2802      	cmp	r0, #2
 800340a:	d9f7      	bls.n	80033fc <HAL_RCC_OscConfig+0x230>
 800340c:	e72b      	b.n	8003266 <HAL_RCC_OscConfig+0x9a>
 800340e:	2b05      	cmp	r3, #5
 8003410:	d104      	bne.n	800341c <HAL_RCC_OscConfig+0x250>
 8003412:	6f2b      	ldr	r3, [r5, #112]	; 0x70
 8003414:	f043 0304 	orr.w	r3, r3, #4
 8003418:	672b      	str	r3, [r5, #112]	; 0x70
 800341a:	e7d0      	b.n	80033be <HAL_RCC_OscConfig+0x1f2>
 800341c:	6f2a      	ldr	r2, [r5, #112]	; 0x70
 800341e:	f022 0201 	bic.w	r2, r2, #1
 8003422:	672a      	str	r2, [r5, #112]	; 0x70
 8003424:	6f2a      	ldr	r2, [r5, #112]	; 0x70
 8003426:	f022 0204 	bic.w	r2, r2, #4
 800342a:	672a      	str	r2, [r5, #112]	; 0x70
 800342c:	2b00      	cmp	r3, #0
 800342e:	d1ca      	bne.n	80033c6 <HAL_RCC_OscConfig+0x1fa>
 8003430:	f7ff f926 	bl	8002680 <HAL_GetTick>
 8003434:	f241 3888 	movw	r8, #5000	; 0x1388
 8003438:	4607      	mov	r7, r0
 800343a:	6f2b      	ldr	r3, [r5, #112]	; 0x70
 800343c:	0798      	lsls	r0, r3, #30
 800343e:	d5cb      	bpl.n	80033d8 <HAL_RCC_OscConfig+0x20c>
 8003440:	f7ff f91e 	bl	8002680 <HAL_GetTick>
 8003444:	1bc0      	subs	r0, r0, r7
 8003446:	4540      	cmp	r0, r8
 8003448:	d9f7      	bls.n	800343a <HAL_RCC_OscConfig+0x26e>
 800344a:	e70c      	b.n	8003266 <HAL_RCC_OscConfig+0x9a>
 800344c:	f7ff f918 	bl	8002680 <HAL_GetTick>
 8003450:	1bc0      	subs	r0, r0, r7
 8003452:	4540      	cmp	r0, r8
 8003454:	d9bd      	bls.n	80033d2 <HAL_RCC_OscConfig+0x206>
 8003456:	e706      	b.n	8003266 <HAL_RCC_OscConfig+0x9a>
 8003458:	40023800 	.word	0x40023800
 800345c:	42470000 	.word	0x42470000
 8003460:	42470e80 	.word	0x42470e80
 8003464:	40007000 	.word	0x40007000
 8003468:	4d23      	ldr	r5, [pc, #140]	; (80034f8 <HAL_RCC_OscConfig+0x32c>)
 800346a:	68ab      	ldr	r3, [r5, #8]
 800346c:	f003 030c 	and.w	r3, r3, #12
 8003470:	2b08      	cmp	r3, #8
 8003472:	f43f aee0 	beq.w	8003236 <HAL_RCC_OscConfig+0x6a>
 8003476:	4e21      	ldr	r6, [pc, #132]	; (80034fc <HAL_RCC_OscConfig+0x330>)
 8003478:	2300      	movs	r3, #0
 800347a:	2a02      	cmp	r2, #2
 800347c:	6033      	str	r3, [r6, #0]
 800347e:	d12d      	bne.n	80034dc <HAL_RCC_OscConfig+0x310>
 8003480:	f7ff f8fe 	bl	8002680 <HAL_GetTick>
 8003484:	4607      	mov	r7, r0
 8003486:	682b      	ldr	r3, [r5, #0]
 8003488:	0199      	lsls	r1, r3, #6
 800348a:	d421      	bmi.n	80034d0 <HAL_RCC_OscConfig+0x304>
 800348c:	e9d4 3207 	ldrd	r3, r2, [r4, #28]
 8003490:	4313      	orrs	r3, r2
 8003492:	6a62      	ldr	r2, [r4, #36]	; 0x24
 8003494:	ea43 1382 	orr.w	r3, r3, r2, lsl #6
 8003498:	6ae2      	ldr	r2, [r4, #44]	; 0x2c
 800349a:	ea43 6302 	orr.w	r3, r3, r2, lsl #24
 800349e:	6b22      	ldr	r2, [r4, #48]	; 0x30
 80034a0:	ea43 7302 	orr.w	r3, r3, r2, lsl #28
 80034a4:	6aa2      	ldr	r2, [r4, #40]	; 0x28
 80034a6:	4c14      	ldr	r4, [pc, #80]	; (80034f8 <HAL_RCC_OscConfig+0x32c>)
 80034a8:	0852      	lsrs	r2, r2, #1
 80034aa:	3a01      	subs	r2, #1
 80034ac:	ea43 4302 	orr.w	r3, r3, r2, lsl #16
 80034b0:	606b      	str	r3, [r5, #4]
 80034b2:	2301      	movs	r3, #1
 80034b4:	6033      	str	r3, [r6, #0]
 80034b6:	f7ff f8e3 	bl	8002680 <HAL_GetTick>
 80034ba:	4605      	mov	r5, r0
 80034bc:	6823      	ldr	r3, [r4, #0]
 80034be:	019a      	lsls	r2, r3, #6
 80034c0:	f53f ae99 	bmi.w	80031f6 <HAL_RCC_OscConfig+0x2a>
 80034c4:	f7ff f8dc 	bl	8002680 <HAL_GetTick>
 80034c8:	1b40      	subs	r0, r0, r5
 80034ca:	2802      	cmp	r0, #2
 80034cc:	d9f6      	bls.n	80034bc <HAL_RCC_OscConfig+0x2f0>
 80034ce:	e6ca      	b.n	8003266 <HAL_RCC_OscConfig+0x9a>
 80034d0:	f7ff f8d6 	bl	8002680 <HAL_GetTick>
 80034d4:	1bc0      	subs	r0, r0, r7
 80034d6:	2802      	cmp	r0, #2
 80034d8:	d9d5      	bls.n	8003486 <HAL_RCC_OscConfig+0x2ba>
 80034da:	e6c4      	b.n	8003266 <HAL_RCC_OscConfig+0x9a>
 80034dc:	f7ff f8d0 	bl	8002680 <HAL_GetTick>
 80034e0:	4604      	mov	r4, r0
 80034e2:	682b      	ldr	r3, [r5, #0]
 80034e4:	019b      	lsls	r3, r3, #6
 80034e6:	f57f ae86 	bpl.w	80031f6 <HAL_RCC_OscConfig+0x2a>
 80034ea:	f7ff f8c9 	bl	8002680 <HAL_GetTick>
 80034ee:	1b00      	subs	r0, r0, r4
 80034f0:	2802      	cmp	r0, #2
 80034f2:	d9f6      	bls.n	80034e2 <HAL_RCC_OscConfig+0x316>
 80034f4:	e6b7      	b.n	8003266 <HAL_RCC_OscConfig+0x9a>
 80034f6:	bf00      	nop
 80034f8:	40023800 	.word	0x40023800
 80034fc:	42470060 	.word	0x42470060

08003500 <SPI_WaitFlagStateUntilTimeout.constprop.7>:
 8003500:	b5f8      	push	{r3, r4, r5, r6, r7, lr}
 8003502:	4604      	mov	r4, r0
 8003504:	460e      	mov	r6, r1
 8003506:	4615      	mov	r5, r2
 8003508:	461f      	mov	r7, r3
 800350a:	6821      	ldr	r1, [r4, #0]
 800350c:	688a      	ldr	r2, [r1, #8]
 800350e:	ea36 0302 	bics.w	r3, r6, r2
 8003512:	d001      	beq.n	8003518 <SPI_WaitFlagStateUntilTimeout.constprop.7+0x18>
 8003514:	2000      	movs	r0, #0
 8003516:	e02d      	b.n	8003574 <SPI_WaitFlagStateUntilTimeout.constprop.7+0x74>
 8003518:	1c6b      	adds	r3, r5, #1
 800351a:	d0f7      	beq.n	800350c <SPI_WaitFlagStateUntilTimeout.constprop.7+0xc>
 800351c:	f7ff f8b0 	bl	8002680 <HAL_GetTick>
 8003520:	1bc0      	subs	r0, r0, r7
 8003522:	4285      	cmp	r5, r0
 8003524:	d8f1      	bhi.n	800350a <SPI_WaitFlagStateUntilTimeout.constprop.7+0xa>
 8003526:	6823      	ldr	r3, [r4, #0]
 8003528:	685a      	ldr	r2, [r3, #4]
 800352a:	f022 02e0 	bic.w	r2, r2, #224	; 0xe0
 800352e:	605a      	str	r2, [r3, #4]
 8003530:	6862      	ldr	r2, [r4, #4]
 8003532:	f5b2 7f82 	cmp.w	r2, #260	; 0x104
 8003536:	d10a      	bne.n	800354e <SPI_WaitFlagStateUntilTimeout.constprop.7+0x4e>
 8003538:	68a2      	ldr	r2, [r4, #8]
 800353a:	f5b2 4f00 	cmp.w	r2, #32768	; 0x8000
 800353e:	d002      	beq.n	8003546 <SPI_WaitFlagStateUntilTimeout.constprop.7+0x46>
 8003540:	f5b2 6f80 	cmp.w	r2, #1024	; 0x400
 8003544:	d103      	bne.n	800354e <SPI_WaitFlagStateUntilTimeout.constprop.7+0x4e>
 8003546:	681a      	ldr	r2, [r3, #0]
 8003548:	f022 0240 	bic.w	r2, r2, #64	; 0x40
 800354c:	601a      	str	r2, [r3, #0]
 800354e:	6aa2      	ldr	r2, [r4, #40]	; 0x28
 8003550:	f5b2 5f00 	cmp.w	r2, #8192	; 0x2000
 8003554:	d107      	bne.n	8003566 <SPI_WaitFlagStateUntilTimeout.constprop.7+0x66>
 8003556:	681a      	ldr	r2, [r3, #0]
 8003558:	f422 5200 	bic.w	r2, r2, #8192	; 0x2000
 800355c:	601a      	str	r2, [r3, #0]
 800355e:	681a      	ldr	r2, [r3, #0]
 8003560:	f442 5200 	orr.w	r2, r2, #8192	; 0x2000
 8003564:	601a      	str	r2, [r3, #0]
 8003566:	2301      	movs	r3, #1
 8003568:	f884 3051 	strb.w	r3, [r4, #81]	; 0x51
 800356c:	2300      	movs	r3, #0
 800356e:	f884 3050 	strb.w	r3, [r4, #80]	; 0x50
 8003572:	2003      	movs	r0, #3
 8003574:	bdf8      	pop	{r3, r4, r5, r6, r7, pc}
	...

08003578 <SPI_EndRxTxTransaction>:
 8003578:	b573      	push	{r0, r1, r4, r5, r6, lr}
 800357a:	4613      	mov	r3, r2
 800357c:	4a12      	ldr	r2, [pc, #72]	; (80035c8 <SPI_EndRxTxTransaction+0x50>)
 800357e:	4e13      	ldr	r6, [pc, #76]	; (80035cc <SPI_EndRxTxTransaction+0x54>)
 8003580:	6815      	ldr	r5, [r2, #0]
 8003582:	6842      	ldr	r2, [r0, #4]
 8003584:	fbb5 f6f6 	udiv	r6, r5, r6
 8003588:	f44f 757a 	mov.w	r5, #1000	; 0x3e8
 800358c:	4375      	muls	r5, r6
 800358e:	f5b2 7f82 	cmp.w	r2, #260	; 0x104
 8003592:	4604      	mov	r4, r0
 8003594:	9501      	str	r5, [sp, #4]
 8003596:	d10b      	bne.n	80035b0 <SPI_EndRxTxTransaction+0x38>
 8003598:	460a      	mov	r2, r1
 800359a:	2180      	movs	r1, #128	; 0x80
 800359c:	f7ff ffb0 	bl	8003500 <SPI_WaitFlagStateUntilTimeout.constprop.7>
 80035a0:	b178      	cbz	r0, 80035c2 <SPI_EndRxTxTransaction+0x4a>
 80035a2:	6d63      	ldr	r3, [r4, #84]	; 0x54
 80035a4:	f043 0320 	orr.w	r3, r3, #32
 80035a8:	6563      	str	r3, [r4, #84]	; 0x54
 80035aa:	2003      	movs	r0, #3
 80035ac:	b002      	add	sp, #8
 80035ae:	bd70      	pop	{r4, r5, r6, pc}
 80035b0:	9b01      	ldr	r3, [sp, #4]
 80035b2:	b133      	cbz	r3, 80035c2 <SPI_EndRxTxTransaction+0x4a>
 80035b4:	9b01      	ldr	r3, [sp, #4]
 80035b6:	3b01      	subs	r3, #1
 80035b8:	9301      	str	r3, [sp, #4]
 80035ba:	6823      	ldr	r3, [r4, #0]
 80035bc:	689b      	ldr	r3, [r3, #8]
 80035be:	061b      	lsls	r3, r3, #24
 80035c0:	d4f6      	bmi.n	80035b0 <SPI_EndRxTxTransaction+0x38>
 80035c2:	2000      	movs	r0, #0
 80035c4:	e7f2      	b.n	80035ac <SPI_EndRxTxTransaction+0x34>
 80035c6:	bf00      	nop
 80035c8:	20000000 	.word	0x20000000
 80035cc:	016e3600 	.word	0x016e3600

080035d0 <HAL_SPI_Init>:
 80035d0:	b510      	push	{r4, lr}
 80035d2:	4604      	mov	r4, r0
 80035d4:	2800      	cmp	r0, #0
 80035d6:	d036      	beq.n	8003646 <HAL_SPI_Init+0x76>
 80035d8:	2300      	movs	r3, #0
 80035da:	6283      	str	r3, [r0, #40]	; 0x28
 80035dc:	f890 3051 	ldrb.w	r3, [r0, #81]	; 0x51
 80035e0:	f003 02ff 	and.w	r2, r3, #255	; 0xff
 80035e4:	b91b      	cbnz	r3, 80035ee <HAL_SPI_Init+0x1e>
 80035e6:	f880 2050 	strb.w	r2, [r0, #80]	; 0x50
 80035ea:	f7fe fd8f 	bl	800210c <HAL_SPI_MspInit>
 80035ee:	6821      	ldr	r1, [r4, #0]
 80035f0:	69a2      	ldr	r2, [r4, #24]
 80035f2:	2302      	movs	r3, #2
 80035f4:	f884 3051 	strb.w	r3, [r4, #81]	; 0x51
 80035f8:	680b      	ldr	r3, [r1, #0]
 80035fa:	f023 0340 	bic.w	r3, r3, #64	; 0x40
 80035fe:	600b      	str	r3, [r1, #0]
 8003600:	e9d4 3001 	ldrd	r3, r0, [r4, #4]
 8003604:	4303      	orrs	r3, r0
 8003606:	68e0      	ldr	r0, [r4, #12]
 8003608:	4303      	orrs	r3, r0
 800360a:	6920      	ldr	r0, [r4, #16]
 800360c:	4303      	orrs	r3, r0
 800360e:	6960      	ldr	r0, [r4, #20]
 8003610:	4303      	orrs	r3, r0
 8003612:	69e0      	ldr	r0, [r4, #28]
 8003614:	4303      	orrs	r3, r0
 8003616:	6a20      	ldr	r0, [r4, #32]
 8003618:	4303      	orrs	r3, r0
 800361a:	6aa0      	ldr	r0, [r4, #40]	; 0x28
 800361c:	4303      	orrs	r3, r0
 800361e:	f402 7000 	and.w	r0, r2, #512	; 0x200
 8003622:	4303      	orrs	r3, r0
 8003624:	600b      	str	r3, [r1, #0]
 8003626:	0c12      	lsrs	r2, r2, #16
 8003628:	6a63      	ldr	r3, [r4, #36]	; 0x24
 800362a:	f002 0204 	and.w	r2, r2, #4
 800362e:	431a      	orrs	r2, r3
 8003630:	604a      	str	r2, [r1, #4]
 8003632:	69cb      	ldr	r3, [r1, #28]
 8003634:	f423 6300 	bic.w	r3, r3, #2048	; 0x800
 8003638:	61cb      	str	r3, [r1, #28]
 800363a:	2000      	movs	r0, #0
 800363c:	2301      	movs	r3, #1
 800363e:	6560      	str	r0, [r4, #84]	; 0x54
 8003640:	f884 3051 	strb.w	r3, [r4, #81]	; 0x51
 8003644:	bd10      	pop	{r4, pc}
 8003646:	2001      	movs	r0, #1
 8003648:	e7fc      	b.n	8003644 <HAL_SPI_Init+0x74>

0800364a <HAL_SPI_TransmitReceive>:
 800364a:	e92d 43f7 	stmdb	sp!, {r0, r1, r2, r4, r5, r6, r7, r8, r9, lr}
 800364e:	461e      	mov	r6, r3
 8003650:	f890 3050 	ldrb.w	r3, [r0, #80]	; 0x50
 8003654:	9f0a      	ldr	r7, [sp, #40]	; 0x28
 8003656:	2b01      	cmp	r3, #1
 8003658:	4604      	mov	r4, r0
 800365a:	460d      	mov	r5, r1
 800365c:	4691      	mov	r9, r2
 800365e:	f000 80e2 	beq.w	8003826 <HAL_SPI_TransmitReceive+0x1dc>
 8003662:	2301      	movs	r3, #1
 8003664:	f880 3050 	strb.w	r3, [r0, #80]	; 0x50
 8003668:	f7ff f80a 	bl	8002680 <HAL_GetTick>
 800366c:	f894 3051 	ldrb.w	r3, [r4, #81]	; 0x51
 8003670:	6861      	ldr	r1, [r4, #4]
 8003672:	b2db      	uxtb	r3, r3
 8003674:	2b01      	cmp	r3, #1
 8003676:	4680      	mov	r8, r0
 8003678:	d00a      	beq.n	8003690 <HAL_SPI_TransmitReceive+0x46>
 800367a:	f5b1 7f82 	cmp.w	r1, #260	; 0x104
 800367e:	f040 80d0 	bne.w	8003822 <HAL_SPI_TransmitReceive+0x1d8>
 8003682:	68a0      	ldr	r0, [r4, #8]
 8003684:	2800      	cmp	r0, #0
 8003686:	f040 80cc 	bne.w	8003822 <HAL_SPI_TransmitReceive+0x1d8>
 800368a:	2b04      	cmp	r3, #4
 800368c:	f040 80c9 	bne.w	8003822 <HAL_SPI_TransmitReceive+0x1d8>
 8003690:	2d00      	cmp	r5, #0
 8003692:	f000 80c4 	beq.w	800381e <HAL_SPI_TransmitReceive+0x1d4>
 8003696:	f1b9 0f00 	cmp.w	r9, #0
 800369a:	f000 80c0 	beq.w	800381e <HAL_SPI_TransmitReceive+0x1d4>
 800369e:	2e00      	cmp	r6, #0
 80036a0:	f000 80bd 	beq.w	800381e <HAL_SPI_TransmitReceive+0x1d4>
 80036a4:	f894 3051 	ldrb.w	r3, [r4, #81]	; 0x51
 80036a8:	f8c4 9038 	str.w	r9, [r4, #56]	; 0x38
 80036ac:	2b04      	cmp	r3, #4
 80036ae:	bf1c      	itt	ne
 80036b0:	2305      	movne	r3, #5
 80036b2:	f884 3051 	strbne.w	r3, [r4, #81]	; 0x51
 80036b6:	2300      	movs	r3, #0
 80036b8:	6563      	str	r3, [r4, #84]	; 0x54
 80036ba:	e9c4 3310 	strd	r3, r3, [r4, #64]	; 0x40
 80036be:	6823      	ldr	r3, [r4, #0]
 80036c0:	87e6      	strh	r6, [r4, #62]	; 0x3e
 80036c2:	86e6      	strh	r6, [r4, #54]	; 0x36
 80036c4:	681a      	ldr	r2, [r3, #0]
 80036c6:	87a6      	strh	r6, [r4, #60]	; 0x3c
 80036c8:	0650      	lsls	r0, r2, #25
 80036ca:	bf58      	it	pl
 80036cc:	681a      	ldrpl	r2, [r3, #0]
 80036ce:	6325      	str	r5, [r4, #48]	; 0x30
 80036d0:	bf58      	it	pl
 80036d2:	f042 0240 	orrpl.w	r2, r2, #64	; 0x40
 80036d6:	86a6      	strh	r6, [r4, #52]	; 0x34
 80036d8:	bf58      	it	pl
 80036da:	601a      	strpl	r2, [r3, #0]
 80036dc:	68e2      	ldr	r2, [r4, #12]
 80036de:	f5b2 6f00 	cmp.w	r2, #2048	; 0x800
 80036e2:	d158      	bne.n	8003796 <HAL_SPI_TransmitReceive+0x14c>
 80036e4:	b109      	cbz	r1, 80036ea <HAL_SPI_TransmitReceive+0xa0>
 80036e6:	2e01      	cmp	r6, #1
 80036e8:	d107      	bne.n	80036fa <HAL_SPI_TransmitReceive+0xb0>
 80036ea:	f835 2b02 	ldrh.w	r2, [r5], #2
 80036ee:	60da      	str	r2, [r3, #12]
 80036f0:	8ee3      	ldrh	r3, [r4, #54]	; 0x36
 80036f2:	6325      	str	r5, [r4, #48]	; 0x30
 80036f4:	3b01      	subs	r3, #1
 80036f6:	b29b      	uxth	r3, r3
 80036f8:	86e3      	strh	r3, [r4, #54]	; 0x36
 80036fa:	2501      	movs	r5, #1
 80036fc:	8ee3      	ldrh	r3, [r4, #54]	; 0x36
 80036fe:	b29b      	uxth	r3, r3
 8003700:	b9ab      	cbnz	r3, 800372e <HAL_SPI_TransmitReceive+0xe4>
 8003702:	8fe3      	ldrh	r3, [r4, #62]	; 0x3e
 8003704:	b29b      	uxth	r3, r3
 8003706:	b993      	cbnz	r3, 800372e <HAL_SPI_TransmitReceive+0xe4>
 8003708:	4642      	mov	r2, r8
 800370a:	4639      	mov	r1, r7
 800370c:	4620      	mov	r0, r4
 800370e:	f7ff ff33 	bl	8003578 <SPI_EndRxTxTransaction>
 8003712:	2800      	cmp	r0, #0
 8003714:	f040 8081 	bne.w	800381a <HAL_SPI_TransmitReceive+0x1d0>
 8003718:	68a3      	ldr	r3, [r4, #8]
 800371a:	2b00      	cmp	r3, #0
 800371c:	d132      	bne.n	8003784 <HAL_SPI_TransmitReceive+0x13a>
 800371e:	6823      	ldr	r3, [r4, #0]
 8003720:	9001      	str	r0, [sp, #4]
 8003722:	68da      	ldr	r2, [r3, #12]
 8003724:	9201      	str	r2, [sp, #4]
 8003726:	689b      	ldr	r3, [r3, #8]
 8003728:	9301      	str	r3, [sp, #4]
 800372a:	9b01      	ldr	r3, [sp, #4]
 800372c:	e02a      	b.n	8003784 <HAL_SPI_TransmitReceive+0x13a>
 800372e:	6822      	ldr	r2, [r4, #0]
 8003730:	6893      	ldr	r3, [r2, #8]
 8003732:	0799      	lsls	r1, r3, #30
 8003734:	d50d      	bpl.n	8003752 <HAL_SPI_TransmitReceive+0x108>
 8003736:	8ee3      	ldrh	r3, [r4, #54]	; 0x36
 8003738:	b29b      	uxth	r3, r3
 800373a:	b153      	cbz	r3, 8003752 <HAL_SPI_TransmitReceive+0x108>
 800373c:	b14d      	cbz	r5, 8003752 <HAL_SPI_TransmitReceive+0x108>
 800373e:	6b23      	ldr	r3, [r4, #48]	; 0x30
 8003740:	f833 1b02 	ldrh.w	r1, [r3], #2
 8003744:	60d1      	str	r1, [r2, #12]
 8003746:	6323      	str	r3, [r4, #48]	; 0x30
 8003748:	8ee3      	ldrh	r3, [r4, #54]	; 0x36
 800374a:	3b01      	subs	r3, #1
 800374c:	b29b      	uxth	r3, r3
 800374e:	86e3      	strh	r3, [r4, #54]	; 0x36
 8003750:	2500      	movs	r5, #0
 8003752:	6893      	ldr	r3, [r2, #8]
 8003754:	07db      	lsls	r3, r3, #31
 8003756:	d50c      	bpl.n	8003772 <HAL_SPI_TransmitReceive+0x128>
 8003758:	8fe3      	ldrh	r3, [r4, #62]	; 0x3e
 800375a:	b29b      	uxth	r3, r3
 800375c:	b14b      	cbz	r3, 8003772 <HAL_SPI_TransmitReceive+0x128>
 800375e:	6ba3      	ldr	r3, [r4, #56]	; 0x38
 8003760:	68d2      	ldr	r2, [r2, #12]
 8003762:	f823 2b02 	strh.w	r2, [r3], #2
 8003766:	63a3      	str	r3, [r4, #56]	; 0x38
 8003768:	8fe3      	ldrh	r3, [r4, #62]	; 0x3e
 800376a:	3b01      	subs	r3, #1
 800376c:	b29b      	uxth	r3, r3
 800376e:	87e3      	strh	r3, [r4, #62]	; 0x3e
 8003770:	2501      	movs	r5, #1
 8003772:	f7fe ff85 	bl	8002680 <HAL_GetTick>
 8003776:	eba0 0008 	sub.w	r0, r0, r8
 800377a:	4287      	cmp	r7, r0
 800377c:	d8be      	bhi.n	80036fc <HAL_SPI_TransmitReceive+0xb2>
 800377e:	1c7e      	adds	r6, r7, #1
 8003780:	d0bc      	beq.n	80036fc <HAL_SPI_TransmitReceive+0xb2>
 8003782:	2003      	movs	r0, #3
 8003784:	2301      	movs	r3, #1
 8003786:	f884 3051 	strb.w	r3, [r4, #81]	; 0x51
 800378a:	2300      	movs	r3, #0
 800378c:	f884 3050 	strb.w	r3, [r4, #80]	; 0x50
 8003790:	b003      	add	sp, #12
 8003792:	e8bd 83f0 	ldmia.w	sp!, {r4, r5, r6, r7, r8, r9, pc}
 8003796:	b109      	cbz	r1, 800379c <HAL_SPI_TransmitReceive+0x152>
 8003798:	2e01      	cmp	r6, #1
 800379a:	d108      	bne.n	80037ae <HAL_SPI_TransmitReceive+0x164>
 800379c:	782a      	ldrb	r2, [r5, #0]
 800379e:	731a      	strb	r2, [r3, #12]
 80037a0:	6b23      	ldr	r3, [r4, #48]	; 0x30
 80037a2:	3301      	adds	r3, #1
 80037a4:	6323      	str	r3, [r4, #48]	; 0x30
 80037a6:	8ee3      	ldrh	r3, [r4, #54]	; 0x36
 80037a8:	3b01      	subs	r3, #1
 80037aa:	b29b      	uxth	r3, r3
 80037ac:	86e3      	strh	r3, [r4, #54]	; 0x36
 80037ae:	2501      	movs	r5, #1
 80037b0:	8ee3      	ldrh	r3, [r4, #54]	; 0x36
 80037b2:	b29b      	uxth	r3, r3
 80037b4:	b91b      	cbnz	r3, 80037be <HAL_SPI_TransmitReceive+0x174>
 80037b6:	8fe3      	ldrh	r3, [r4, #62]	; 0x3e
 80037b8:	b29b      	uxth	r3, r3
 80037ba:	2b00      	cmp	r3, #0
 80037bc:	d0a4      	beq.n	8003708 <HAL_SPI_TransmitReceive+0xbe>
 80037be:	6822      	ldr	r2, [r4, #0]
 80037c0:	6893      	ldr	r3, [r2, #8]
 80037c2:	0798      	lsls	r0, r3, #30
 80037c4:	d50e      	bpl.n	80037e4 <HAL_SPI_TransmitReceive+0x19a>
 80037c6:	8ee3      	ldrh	r3, [r4, #54]	; 0x36
 80037c8:	b29b      	uxth	r3, r3
 80037ca:	b15b      	cbz	r3, 80037e4 <HAL_SPI_TransmitReceive+0x19a>
 80037cc:	b155      	cbz	r5, 80037e4 <HAL_SPI_TransmitReceive+0x19a>
 80037ce:	6b23      	ldr	r3, [r4, #48]	; 0x30
 80037d0:	781b      	ldrb	r3, [r3, #0]
 80037d2:	7313      	strb	r3, [r2, #12]
 80037d4:	6b23      	ldr	r3, [r4, #48]	; 0x30
 80037d6:	3301      	adds	r3, #1
 80037d8:	6323      	str	r3, [r4, #48]	; 0x30
 80037da:	8ee3      	ldrh	r3, [r4, #54]	; 0x36
 80037dc:	3b01      	subs	r3, #1
 80037de:	b29b      	uxth	r3, r3
 80037e0:	86e3      	strh	r3, [r4, #54]	; 0x36
 80037e2:	2500      	movs	r5, #0
 80037e4:	6822      	ldr	r2, [r4, #0]
 80037e6:	6893      	ldr	r3, [r2, #8]
 80037e8:	07d9      	lsls	r1, r3, #31
 80037ea:	d50d      	bpl.n	8003808 <HAL_SPI_TransmitReceive+0x1be>
 80037ec:	8fe3      	ldrh	r3, [r4, #62]	; 0x3e
 80037ee:	b29b      	uxth	r3, r3
 80037f0:	b153      	cbz	r3, 8003808 <HAL_SPI_TransmitReceive+0x1be>
 80037f2:	6ba3      	ldr	r3, [r4, #56]	; 0x38
 80037f4:	68d2      	ldr	r2, [r2, #12]
 80037f6:	701a      	strb	r2, [r3, #0]
 80037f8:	6ba3      	ldr	r3, [r4, #56]	; 0x38
 80037fa:	3301      	adds	r3, #1
 80037fc:	63a3      	str	r3, [r4, #56]	; 0x38
 80037fe:	8fe3      	ldrh	r3, [r4, #62]	; 0x3e
 8003800:	3b01      	subs	r3, #1
 8003802:	b29b      	uxth	r3, r3
 8003804:	87e3      	strh	r3, [r4, #62]	; 0x3e
 8003806:	2501      	movs	r5, #1
 8003808:	f7fe ff3a 	bl	8002680 <HAL_GetTick>
 800380c:	eba0 0008 	sub.w	r0, r0, r8
 8003810:	4287      	cmp	r7, r0
 8003812:	d8cd      	bhi.n	80037b0 <HAL_SPI_TransmitReceive+0x166>
 8003814:	1c7b      	adds	r3, r7, #1
 8003816:	d0cb      	beq.n	80037b0 <HAL_SPI_TransmitReceive+0x166>
 8003818:	e7b3      	b.n	8003782 <HAL_SPI_TransmitReceive+0x138>
 800381a:	2320      	movs	r3, #32
 800381c:	6563      	str	r3, [r4, #84]	; 0x54
 800381e:	2001      	movs	r0, #1
 8003820:	e7b0      	b.n	8003784 <HAL_SPI_TransmitReceive+0x13a>
 8003822:	2002      	movs	r0, #2
 8003824:	e7ae      	b.n	8003784 <HAL_SPI_TransmitReceive+0x13a>
 8003826:	2002      	movs	r0, #2
 8003828:	e7b2      	b.n	8003790 <HAL_SPI_TransmitReceive+0x146>
	...

0800382c <TIM_OC1_SetConfig>:
 800382c:	6a03      	ldr	r3, [r0, #32]
 800382e:	f023 0301 	bic.w	r3, r3, #1
 8003832:	6203      	str	r3, [r0, #32]
 8003834:	6a03      	ldr	r3, [r0, #32]
 8003836:	b570      	push	{r4, r5, r6, lr}
 8003838:	6844      	ldr	r4, [r0, #4]
 800383a:	6982      	ldr	r2, [r0, #24]
 800383c:	680d      	ldr	r5, [r1, #0]
 800383e:	f022 0273 	bic.w	r2, r2, #115	; 0x73
 8003842:	432a      	orrs	r2, r5
 8003844:	688d      	ldr	r5, [r1, #8]
 8003846:	f023 0302 	bic.w	r3, r3, #2
 800384a:	432b      	orrs	r3, r5
 800384c:	4d0e      	ldr	r5, [pc, #56]	; (8003888 <TIM_OC1_SetConfig+0x5c>)
 800384e:	42a8      	cmp	r0, r5
 8003850:	d002      	beq.n	8003858 <TIM_OC1_SetConfig+0x2c>
 8003852:	4e0e      	ldr	r6, [pc, #56]	; (800388c <TIM_OC1_SetConfig+0x60>)
 8003854:	42b0      	cmp	r0, r6
 8003856:	d110      	bne.n	800387a <TIM_OC1_SetConfig+0x4e>
 8003858:	68ce      	ldr	r6, [r1, #12]
 800385a:	f023 0308 	bic.w	r3, r3, #8
 800385e:	4333      	orrs	r3, r6
 8003860:	42a8      	cmp	r0, r5
 8003862:	f023 0304 	bic.w	r3, r3, #4
 8003866:	d002      	beq.n	800386e <TIM_OC1_SetConfig+0x42>
 8003868:	4d08      	ldr	r5, [pc, #32]	; (800388c <TIM_OC1_SetConfig+0x60>)
 800386a:	42a8      	cmp	r0, r5
 800386c:	d105      	bne.n	800387a <TIM_OC1_SetConfig+0x4e>
 800386e:	e9d1 5605 	ldrd	r5, r6, [r1, #20]
 8003872:	f424 7440 	bic.w	r4, r4, #768	; 0x300
 8003876:	4335      	orrs	r5, r6
 8003878:	432c      	orrs	r4, r5
 800387a:	6044      	str	r4, [r0, #4]
 800387c:	6182      	str	r2, [r0, #24]
 800387e:	684a      	ldr	r2, [r1, #4]
 8003880:	6342      	str	r2, [r0, #52]	; 0x34
 8003882:	6203      	str	r3, [r0, #32]
 8003884:	bd70      	pop	{r4, r5, r6, pc}
 8003886:	bf00      	nop
 8003888:	40010000 	.word	0x40010000
 800388c:	40010400 	.word	0x40010400

08003890 <TIM_OC3_SetConfig>:
 8003890:	6a03      	ldr	r3, [r0, #32]
 8003892:	f423 7380 	bic.w	r3, r3, #256	; 0x100
 8003896:	6203      	str	r3, [r0, #32]
 8003898:	6a03      	ldr	r3, [r0, #32]
 800389a:	b570      	push	{r4, r5, r6, lr}
 800389c:	6844      	ldr	r4, [r0, #4]
 800389e:	69c2      	ldr	r2, [r0, #28]
 80038a0:	680d      	ldr	r5, [r1, #0]
 80038a2:	f022 0273 	bic.w	r2, r2, #115	; 0x73
 80038a6:	432a      	orrs	r2, r5
 80038a8:	688d      	ldr	r5, [r1, #8]
 80038aa:	f423 7300 	bic.w	r3, r3, #512	; 0x200
 80038ae:	ea43 2305 	orr.w	r3, r3, r5, lsl #8
 80038b2:	4d11      	ldr	r5, [pc, #68]	; (80038f8 <TIM_OC3_SetConfig+0x68>)
 80038b4:	42a8      	cmp	r0, r5
 80038b6:	d003      	beq.n	80038c0 <TIM_OC3_SetConfig+0x30>
 80038b8:	f505 6580 	add.w	r5, r5, #1024	; 0x400
 80038bc:	42a8      	cmp	r0, r5
 80038be:	d114      	bne.n	80038ea <TIM_OC3_SetConfig+0x5a>
 80038c0:	68cd      	ldr	r5, [r1, #12]
 80038c2:	f423 6300 	bic.w	r3, r3, #2048	; 0x800
 80038c6:	ea43 2305 	orr.w	r3, r3, r5, lsl #8
 80038ca:	4d0b      	ldr	r5, [pc, #44]	; (80038f8 <TIM_OC3_SetConfig+0x68>)
 80038cc:	42a8      	cmp	r0, r5
 80038ce:	f423 6380 	bic.w	r3, r3, #1024	; 0x400
 80038d2:	d003      	beq.n	80038dc <TIM_OC3_SetConfig+0x4c>
 80038d4:	f505 6580 	add.w	r5, r5, #1024	; 0x400
 80038d8:	42a8      	cmp	r0, r5
 80038da:	d106      	bne.n	80038ea <TIM_OC3_SetConfig+0x5a>
 80038dc:	e9d1 5605 	ldrd	r5, r6, [r1, #20]
 80038e0:	f424 5440 	bic.w	r4, r4, #12288	; 0x3000
 80038e4:	4335      	orrs	r5, r6
 80038e6:	ea44 1405 	orr.w	r4, r4, r5, lsl #4
 80038ea:	6044      	str	r4, [r0, #4]
 80038ec:	61c2      	str	r2, [r0, #28]
 80038ee:	684a      	ldr	r2, [r1, #4]
 80038f0:	63c2      	str	r2, [r0, #60]	; 0x3c
 80038f2:	6203      	str	r3, [r0, #32]
 80038f4:	bd70      	pop	{r4, r5, r6, pc}
 80038f6:	bf00      	nop
 80038f8:	40010000 	.word	0x40010000

080038fc <TIM_OC4_SetConfig>:
 80038fc:	6a03      	ldr	r3, [r0, #32]
 80038fe:	f423 5380 	bic.w	r3, r3, #4096	; 0x1000
 8003902:	6203      	str	r3, [r0, #32]
 8003904:	6a03      	ldr	r3, [r0, #32]
 8003906:	b530      	push	{r4, r5, lr}
 8003908:	6844      	ldr	r4, [r0, #4]
 800390a:	69c2      	ldr	r2, [r0, #28]
 800390c:	680d      	ldr	r5, [r1, #0]
 800390e:	f422 42e6 	bic.w	r2, r2, #29440	; 0x7300
 8003912:	ea42 2205 	orr.w	r2, r2, r5, lsl #8
 8003916:	688d      	ldr	r5, [r1, #8]
 8003918:	f423 5300 	bic.w	r3, r3, #8192	; 0x2000
 800391c:	ea43 3305 	orr.w	r3, r3, r5, lsl #12
 8003920:	4d08      	ldr	r5, [pc, #32]	; (8003944 <TIM_OC4_SetConfig+0x48>)
 8003922:	42a8      	cmp	r0, r5
 8003924:	d003      	beq.n	800392e <TIM_OC4_SetConfig+0x32>
 8003926:	f505 6580 	add.w	r5, r5, #1024	; 0x400
 800392a:	42a8      	cmp	r0, r5
 800392c:	d104      	bne.n	8003938 <TIM_OC4_SetConfig+0x3c>
 800392e:	694d      	ldr	r5, [r1, #20]
 8003930:	f424 4480 	bic.w	r4, r4, #16384	; 0x4000
 8003934:	ea44 1485 	orr.w	r4, r4, r5, lsl #6
 8003938:	6044      	str	r4, [r0, #4]
 800393a:	61c2      	str	r2, [r0, #28]
 800393c:	684a      	ldr	r2, [r1, #4]
 800393e:	6402      	str	r2, [r0, #64]	; 0x40
 8003940:	6203      	str	r3, [r0, #32]
 8003942:	bd30      	pop	{r4, r5, pc}
 8003944:	40010000 	.word	0x40010000

08003948 <HAL_TIM_Base_Start_IT>:
 8003948:	6803      	ldr	r3, [r0, #0]
 800394a:	68da      	ldr	r2, [r3, #12]
 800394c:	f042 0201 	orr.w	r2, r2, #1
 8003950:	60da      	str	r2, [r3, #12]
 8003952:	689a      	ldr	r2, [r3, #8]
 8003954:	f002 0207 	and.w	r2, r2, #7
 8003958:	2a06      	cmp	r2, #6
 800395a:	bf1e      	ittt	ne
 800395c:	681a      	ldrne	r2, [r3, #0]
 800395e:	f042 0201 	orrne.w	r2, r2, #1
 8003962:	601a      	strne	r2, [r3, #0]
 8003964:	2000      	movs	r0, #0
 8003966:	4770      	bx	lr

08003968 <HAL_TIM_PWM_MspInit>:
 8003968:	4770      	bx	lr

0800396a <HAL_TIM_PeriodElapsedCallback>:
 800396a:	4770      	bx	lr

0800396c <HAL_TIM_OC_DelayElapsedCallback>:
 800396c:	4770      	bx	lr

0800396e <HAL_TIM_IC_CaptureCallback>:
 800396e:	4770      	bx	lr

08003970 <HAL_TIM_PWM_PulseFinishedCallback>:
 8003970:	4770      	bx	lr

08003972 <HAL_TIM_TriggerCallback>:
 8003972:	4770      	bx	lr

08003974 <HAL_TIM_IRQHandler>:
 8003974:	6803      	ldr	r3, [r0, #0]
 8003976:	691a      	ldr	r2, [r3, #16]
 8003978:	0791      	lsls	r1, r2, #30
 800397a:	b510      	push	{r4, lr}
 800397c:	4604      	mov	r4, r0
 800397e:	d50e      	bpl.n	800399e <HAL_TIM_IRQHandler+0x2a>
 8003980:	68da      	ldr	r2, [r3, #12]
 8003982:	0792      	lsls	r2, r2, #30
 8003984:	d50b      	bpl.n	800399e <HAL_TIM_IRQHandler+0x2a>
 8003986:	f06f 0202 	mvn.w	r2, #2
 800398a:	611a      	str	r2, [r3, #16]
 800398c:	699b      	ldr	r3, [r3, #24]
 800398e:	2201      	movs	r2, #1
 8003990:	079b      	lsls	r3, r3, #30
 8003992:	7702      	strb	r2, [r0, #28]
 8003994:	d077      	beq.n	8003a86 <HAL_TIM_IRQHandler+0x112>
 8003996:	f7ff ffea 	bl	800396e <HAL_TIM_IC_CaptureCallback>
 800399a:	2300      	movs	r3, #0
 800399c:	7723      	strb	r3, [r4, #28]
 800399e:	6823      	ldr	r3, [r4, #0]
 80039a0:	691a      	ldr	r2, [r3, #16]
 80039a2:	0750      	lsls	r0, r2, #29
 80039a4:	d510      	bpl.n	80039c8 <HAL_TIM_IRQHandler+0x54>
 80039a6:	68da      	ldr	r2, [r3, #12]
 80039a8:	0751      	lsls	r1, r2, #29
 80039aa:	d50d      	bpl.n	80039c8 <HAL_TIM_IRQHandler+0x54>
 80039ac:	f06f 0204 	mvn.w	r2, #4
 80039b0:	611a      	str	r2, [r3, #16]
 80039b2:	699b      	ldr	r3, [r3, #24]
 80039b4:	2202      	movs	r2, #2
 80039b6:	f413 7f40 	tst.w	r3, #768	; 0x300
 80039ba:	7722      	strb	r2, [r4, #28]
 80039bc:	4620      	mov	r0, r4
 80039be:	d068      	beq.n	8003a92 <HAL_TIM_IRQHandler+0x11e>
 80039c0:	f7ff ffd5 	bl	800396e <HAL_TIM_IC_CaptureCallback>
 80039c4:	2300      	movs	r3, #0
 80039c6:	7723      	strb	r3, [r4, #28]
 80039c8:	6823      	ldr	r3, [r4, #0]
 80039ca:	691a      	ldr	r2, [r3, #16]
 80039cc:	0712      	lsls	r2, r2, #28
 80039ce:	d50f      	bpl.n	80039f0 <HAL_TIM_IRQHandler+0x7c>
 80039d0:	68da      	ldr	r2, [r3, #12]
 80039d2:	0710      	lsls	r0, r2, #28
 80039d4:	d50c      	bpl.n	80039f0 <HAL_TIM_IRQHandler+0x7c>
 80039d6:	f06f 0208 	mvn.w	r2, #8
 80039da:	611a      	str	r2, [r3, #16]
 80039dc:	69db      	ldr	r3, [r3, #28]
 80039de:	2204      	movs	r2, #4
 80039e0:	0799      	lsls	r1, r3, #30
 80039e2:	7722      	strb	r2, [r4, #28]
 80039e4:	4620      	mov	r0, r4
 80039e6:	d05a      	beq.n	8003a9e <HAL_TIM_IRQHandler+0x12a>
 80039e8:	f7ff ffc1 	bl	800396e <HAL_TIM_IC_CaptureCallback>
 80039ec:	2300      	movs	r3, #0
 80039ee:	7723      	strb	r3, [r4, #28]
 80039f0:	6823      	ldr	r3, [r4, #0]
 80039f2:	691a      	ldr	r2, [r3, #16]
 80039f4:	06d2      	lsls	r2, r2, #27
 80039f6:	d510      	bpl.n	8003a1a <HAL_TIM_IRQHandler+0xa6>
 80039f8:	68da      	ldr	r2, [r3, #12]
 80039fa:	06d0      	lsls	r0, r2, #27
 80039fc:	d50d      	bpl.n	8003a1a <HAL_TIM_IRQHandler+0xa6>
 80039fe:	f06f 0210 	mvn.w	r2, #16
 8003a02:	611a      	str	r2, [r3, #16]
 8003a04:	69db      	ldr	r3, [r3, #28]
 8003a06:	2208      	movs	r2, #8
 8003a08:	f413 7f40 	tst.w	r3, #768	; 0x300
 8003a0c:	7722      	strb	r2, [r4, #28]
 8003a0e:	4620      	mov	r0, r4
 8003a10:	d04b      	beq.n	8003aaa <HAL_TIM_IRQHandler+0x136>
 8003a12:	f7ff ffac 	bl	800396e <HAL_TIM_IC_CaptureCallback>
 8003a16:	2300      	movs	r3, #0
 8003a18:	7723      	strb	r3, [r4, #28]
 8003a1a:	6823      	ldr	r3, [r4, #0]
 8003a1c:	691a      	ldr	r2, [r3, #16]
 8003a1e:	07d1      	lsls	r1, r2, #31
 8003a20:	d508      	bpl.n	8003a34 <HAL_TIM_IRQHandler+0xc0>
 8003a22:	68da      	ldr	r2, [r3, #12]
 8003a24:	07d2      	lsls	r2, r2, #31
 8003a26:	d505      	bpl.n	8003a34 <HAL_TIM_IRQHandler+0xc0>
 8003a28:	f06f 0201 	mvn.w	r2, #1
 8003a2c:	611a      	str	r2, [r3, #16]
 8003a2e:	4620      	mov	r0, r4
 8003a30:	f7ff ff9b 	bl	800396a <HAL_TIM_PeriodElapsedCallback>
 8003a34:	6823      	ldr	r3, [r4, #0]
 8003a36:	691a      	ldr	r2, [r3, #16]
 8003a38:	0610      	lsls	r0, r2, #24
 8003a3a:	d508      	bpl.n	8003a4e <HAL_TIM_IRQHandler+0xda>
 8003a3c:	68da      	ldr	r2, [r3, #12]
 8003a3e:	0611      	lsls	r1, r2, #24
 8003a40:	d505      	bpl.n	8003a4e <HAL_TIM_IRQHandler+0xda>
 8003a42:	f06f 0280 	mvn.w	r2, #128	; 0x80
 8003a46:	611a      	str	r2, [r3, #16]
 8003a48:	4620      	mov	r0, r4
 8003a4a:	f000 fa6e 	bl	8003f2a <HAL_TIMEx_BreakCallback>
 8003a4e:	6823      	ldr	r3, [r4, #0]
 8003a50:	691a      	ldr	r2, [r3, #16]
 8003a52:	0652      	lsls	r2, r2, #25
 8003a54:	d508      	bpl.n	8003a68 <HAL_TIM_IRQHandler+0xf4>
 8003a56:	68da      	ldr	r2, [r3, #12]
 8003a58:	0650      	lsls	r0, r2, #25
 8003a5a:	d505      	bpl.n	8003a68 <HAL_TIM_IRQHandler+0xf4>
 8003a5c:	f06f 0240 	mvn.w	r2, #64	; 0x40
 8003a60:	611a      	str	r2, [r3, #16]
 8003a62:	4620      	mov	r0, r4
 8003a64:	f7ff ff85 	bl	8003972 <HAL_TIM_TriggerCallback>
 8003a68:	6823      	ldr	r3, [r4, #0]
 8003a6a:	691a      	ldr	r2, [r3, #16]
 8003a6c:	0691      	lsls	r1, r2, #26
 8003a6e:	d522      	bpl.n	8003ab6 <HAL_TIM_IRQHandler+0x142>
 8003a70:	68da      	ldr	r2, [r3, #12]
 8003a72:	0692      	lsls	r2, r2, #26
 8003a74:	d51f      	bpl.n	8003ab6 <HAL_TIM_IRQHandler+0x142>
 8003a76:	f06f 0220 	mvn.w	r2, #32
 8003a7a:	4620      	mov	r0, r4
 8003a7c:	611a      	str	r2, [r3, #16]
 8003a7e:	e8bd 4010 	ldmia.w	sp!, {r4, lr}
 8003a82:	f000 ba51 	b.w	8003f28 <HAL_TIMEx_CommutCallback>
 8003a86:	f7ff ff71 	bl	800396c <HAL_TIM_OC_DelayElapsedCallback>
 8003a8a:	4620      	mov	r0, r4
 8003a8c:	f7ff ff70 	bl	8003970 <HAL_TIM_PWM_PulseFinishedCallback>
 8003a90:	e783      	b.n	800399a <HAL_TIM_IRQHandler+0x26>
 8003a92:	f7ff ff6b 	bl	800396c <HAL_TIM_OC_DelayElapsedCallback>
 8003a96:	4620      	mov	r0, r4
 8003a98:	f7ff ff6a 	bl	8003970 <HAL_TIM_PWM_PulseFinishedCallback>
 8003a9c:	e792      	b.n	80039c4 <HAL_TIM_IRQHandler+0x50>
 8003a9e:	f7ff ff65 	bl	800396c <HAL_TIM_OC_DelayElapsedCallback>
 8003aa2:	4620      	mov	r0, r4
 8003aa4:	f7ff ff64 	bl	8003970 <HAL_TIM_PWM_PulseFinishedCallback>
 8003aa8:	e7a0      	b.n	80039ec <HAL_TIM_IRQHandler+0x78>
 8003aaa:	f7ff ff5f 	bl	800396c <HAL_TIM_OC_DelayElapsedCallback>
 8003aae:	4620      	mov	r0, r4
 8003ab0:	f7ff ff5e 	bl	8003970 <HAL_TIM_PWM_PulseFinishedCallback>
 8003ab4:	e7af      	b.n	8003a16 <HAL_TIM_IRQHandler+0xa2>
 8003ab6:	bd10      	pop	{r4, pc}

08003ab8 <TIM_Base_SetConfig>:
 8003ab8:	4a30      	ldr	r2, [pc, #192]	; (8003b7c <TIM_Base_SetConfig+0xc4>)
 8003aba:	6803      	ldr	r3, [r0, #0]
 8003abc:	4290      	cmp	r0, r2
 8003abe:	d012      	beq.n	8003ae6 <TIM_Base_SetConfig+0x2e>
 8003ac0:	f1b0 4f80 	cmp.w	r0, #1073741824	; 0x40000000
 8003ac4:	d00f      	beq.n	8003ae6 <TIM_Base_SetConfig+0x2e>
 8003ac6:	f5a2 427c 	sub.w	r2, r2, #64512	; 0xfc00
 8003aca:	4290      	cmp	r0, r2
 8003acc:	d00b      	beq.n	8003ae6 <TIM_Base_SetConfig+0x2e>
 8003ace:	f502 6280 	add.w	r2, r2, #1024	; 0x400
 8003ad2:	4290      	cmp	r0, r2
 8003ad4:	d007      	beq.n	8003ae6 <TIM_Base_SetConfig+0x2e>
 8003ad6:	f502 6280 	add.w	r2, r2, #1024	; 0x400
 8003ada:	4290      	cmp	r0, r2
 8003adc:	d003      	beq.n	8003ae6 <TIM_Base_SetConfig+0x2e>
 8003ade:	f502 4278 	add.w	r2, r2, #63488	; 0xf800
 8003ae2:	4290      	cmp	r0, r2
 8003ae4:	d119      	bne.n	8003b1a <TIM_Base_SetConfig+0x62>
 8003ae6:	684a      	ldr	r2, [r1, #4]
 8003ae8:	f023 0370 	bic.w	r3, r3, #112	; 0x70
 8003aec:	4313      	orrs	r3, r2
 8003aee:	4a23      	ldr	r2, [pc, #140]	; (8003b7c <TIM_Base_SetConfig+0xc4>)
 8003af0:	4290      	cmp	r0, r2
 8003af2:	d029      	beq.n	8003b48 <TIM_Base_SetConfig+0x90>
 8003af4:	f1b0 4f80 	cmp.w	r0, #1073741824	; 0x40000000
 8003af8:	d026      	beq.n	8003b48 <TIM_Base_SetConfig+0x90>
 8003afa:	f5a2 427c 	sub.w	r2, r2, #64512	; 0xfc00
 8003afe:	4290      	cmp	r0, r2
 8003b00:	d022      	beq.n	8003b48 <TIM_Base_SetConfig+0x90>
 8003b02:	f502 6280 	add.w	r2, r2, #1024	; 0x400
 8003b06:	4290      	cmp	r0, r2
 8003b08:	d01e      	beq.n	8003b48 <TIM_Base_SetConfig+0x90>
 8003b0a:	f502 6280 	add.w	r2, r2, #1024	; 0x400
 8003b0e:	4290      	cmp	r0, r2
 8003b10:	d01a      	beq.n	8003b48 <TIM_Base_SetConfig+0x90>
 8003b12:	f502 4278 	add.w	r2, r2, #63488	; 0xf800
 8003b16:	4290      	cmp	r0, r2
 8003b18:	d016      	beq.n	8003b48 <TIM_Base_SetConfig+0x90>
 8003b1a:	4a19      	ldr	r2, [pc, #100]	; (8003b80 <TIM_Base_SetConfig+0xc8>)
 8003b1c:	4290      	cmp	r0, r2
 8003b1e:	d013      	beq.n	8003b48 <TIM_Base_SetConfig+0x90>
 8003b20:	f502 6280 	add.w	r2, r2, #1024	; 0x400
 8003b24:	4290      	cmp	r0, r2
 8003b26:	d00f      	beq.n	8003b48 <TIM_Base_SetConfig+0x90>
 8003b28:	f502 6280 	add.w	r2, r2, #1024	; 0x400
 8003b2c:	4290      	cmp	r0, r2
 8003b2e:	d00b      	beq.n	8003b48 <TIM_Base_SetConfig+0x90>
 8003b30:	f5a2 3298 	sub.w	r2, r2, #77824	; 0x13000
 8003b34:	4290      	cmp	r0, r2
 8003b36:	d007      	beq.n	8003b48 <TIM_Base_SetConfig+0x90>
 8003b38:	f502 6280 	add.w	r2, r2, #1024	; 0x400
 8003b3c:	4290      	cmp	r0, r2
 8003b3e:	d003      	beq.n	8003b48 <TIM_Base_SetConfig+0x90>
 8003b40:	f502 6280 	add.w	r2, r2, #1024	; 0x400
 8003b44:	4290      	cmp	r0, r2
 8003b46:	d103      	bne.n	8003b50 <TIM_Base_SetConfig+0x98>
 8003b48:	68ca      	ldr	r2, [r1, #12]
 8003b4a:	f423 7340 	bic.w	r3, r3, #768	; 0x300
 8003b4e:	4313      	orrs	r3, r2
 8003b50:	694a      	ldr	r2, [r1, #20]
 8003b52:	f023 0380 	bic.w	r3, r3, #128	; 0x80
 8003b56:	4313      	orrs	r3, r2
 8003b58:	6003      	str	r3, [r0, #0]
 8003b5a:	688b      	ldr	r3, [r1, #8]
 8003b5c:	62c3      	str	r3, [r0, #44]	; 0x2c
 8003b5e:	680b      	ldr	r3, [r1, #0]
 8003b60:	6283      	str	r3, [r0, #40]	; 0x28
 8003b62:	4b06      	ldr	r3, [pc, #24]	; (8003b7c <TIM_Base_SetConfig+0xc4>)
 8003b64:	4298      	cmp	r0, r3
 8003b66:	d003      	beq.n	8003b70 <TIM_Base_SetConfig+0xb8>
 8003b68:	f503 6380 	add.w	r3, r3, #1024	; 0x400
 8003b6c:	4298      	cmp	r0, r3
 8003b6e:	d101      	bne.n	8003b74 <TIM_Base_SetConfig+0xbc>
 8003b70:	690b      	ldr	r3, [r1, #16]
 8003b72:	6303      	str	r3, [r0, #48]	; 0x30
 8003b74:	2301      	movs	r3, #1
 8003b76:	6143      	str	r3, [r0, #20]
 8003b78:	4770      	bx	lr
 8003b7a:	bf00      	nop
 8003b7c:	40010000 	.word	0x40010000
 8003b80:	40014000 	.word	0x40014000

08003b84 <HAL_TIM_Base_Init>:
 8003b84:	b510      	push	{r4, lr}
 8003b86:	4604      	mov	r4, r0
 8003b88:	b1a0      	cbz	r0, 8003bb4 <HAL_TIM_Base_Init+0x30>
 8003b8a:	f890 303d 	ldrb.w	r3, [r0, #61]	; 0x3d
 8003b8e:	f003 02ff 	and.w	r2, r3, #255	; 0xff
 8003b92:	b91b      	cbnz	r3, 8003b9c <HAL_TIM_Base_Init+0x18>
 8003b94:	f880 203c 	strb.w	r2, [r0, #60]	; 0x3c
 8003b98:	f7fe fbca 	bl	8002330 <HAL_TIM_Base_MspInit>
 8003b9c:	2302      	movs	r3, #2
 8003b9e:	f884 303d 	strb.w	r3, [r4, #61]	; 0x3d
 8003ba2:	6820      	ldr	r0, [r4, #0]
 8003ba4:	1d21      	adds	r1, r4, #4
 8003ba6:	f7ff ff87 	bl	8003ab8 <TIM_Base_SetConfig>
 8003baa:	2301      	movs	r3, #1
 8003bac:	f884 303d 	strb.w	r3, [r4, #61]	; 0x3d
 8003bb0:	2000      	movs	r0, #0
 8003bb2:	bd10      	pop	{r4, pc}
 8003bb4:	2001      	movs	r0, #1
 8003bb6:	e7fc      	b.n	8003bb2 <HAL_TIM_Base_Init+0x2e>

08003bb8 <HAL_TIM_PWM_Init>:
 8003bb8:	b510      	push	{r4, lr}
 8003bba:	4604      	mov	r4, r0
 8003bbc:	b1a0      	cbz	r0, 8003be8 <HAL_TIM_PWM_Init+0x30>
 8003bbe:	f890 303d 	ldrb.w	r3, [r0, #61]	; 0x3d
 8003bc2:	f003 02ff 	and.w	r2, r3, #255	; 0xff
 8003bc6:	b91b      	cbnz	r3, 8003bd0 <HAL_TIM_PWM_Init+0x18>
 8003bc8:	f880 203c 	strb.w	r2, [r0, #60]	; 0x3c
 8003bcc:	f7ff fecc 	bl	8003968 <HAL_TIM_PWM_MspInit>
 8003bd0:	2302      	movs	r3, #2
 8003bd2:	f884 303d 	strb.w	r3, [r4, #61]	; 0x3d
 8003bd6:	6820      	ldr	r0, [r4, #0]
 8003bd8:	1d21      	adds	r1, r4, #4
 8003bda:	f7ff ff6d 	bl	8003ab8 <TIM_Base_SetConfig>
 8003bde:	2301      	movs	r3, #1
 8003be0:	f884 303d 	strb.w	r3, [r4, #61]	; 0x3d
 8003be4:	2000      	movs	r0, #0
 8003be6:	bd10      	pop	{r4, pc}
 8003be8:	2001      	movs	r0, #1
 8003bea:	e7fc      	b.n	8003be6 <HAL_TIM_PWM_Init+0x2e>

08003bec <TIM_OC2_SetConfig>:
 8003bec:	6a03      	ldr	r3, [r0, #32]
 8003bee:	f023 0310 	bic.w	r3, r3, #16
 8003bf2:	6203      	str	r3, [r0, #32]
 8003bf4:	6a03      	ldr	r3, [r0, #32]
 8003bf6:	b570      	push	{r4, r5, r6, lr}
 8003bf8:	6844      	ldr	r4, [r0, #4]
 8003bfa:	6982      	ldr	r2, [r0, #24]
 8003bfc:	680d      	ldr	r5, [r1, #0]
 8003bfe:	f422 42e6 	bic.w	r2, r2, #29440	; 0x7300
 8003c02:	ea42 2205 	orr.w	r2, r2, r5, lsl #8
 8003c06:	688d      	ldr	r5, [r1, #8]
 8003c08:	f023 0320 	bic.w	r3, r3, #32
 8003c0c:	ea43 1305 	orr.w	r3, r3, r5, lsl #4
 8003c10:	4d10      	ldr	r5, [pc, #64]	; (8003c54 <TIM_OC2_SetConfig+0x68>)
 8003c12:	42a8      	cmp	r0, r5
 8003c14:	d003      	beq.n	8003c1e <TIM_OC2_SetConfig+0x32>
 8003c16:	f505 6580 	add.w	r5, r5, #1024	; 0x400
 8003c1a:	42a8      	cmp	r0, r5
 8003c1c:	d114      	bne.n	8003c48 <TIM_OC2_SetConfig+0x5c>
 8003c1e:	68cd      	ldr	r5, [r1, #12]
 8003c20:	f023 0380 	bic.w	r3, r3, #128	; 0x80
 8003c24:	ea43 1305 	orr.w	r3, r3, r5, lsl #4
 8003c28:	4d0a      	ldr	r5, [pc, #40]	; (8003c54 <TIM_OC2_SetConfig+0x68>)
 8003c2a:	42a8      	cmp	r0, r5
 8003c2c:	f023 0340 	bic.w	r3, r3, #64	; 0x40
 8003c30:	d003      	beq.n	8003c3a <TIM_OC2_SetConfig+0x4e>
 8003c32:	f505 6580 	add.w	r5, r5, #1024	; 0x400
 8003c36:	42a8      	cmp	r0, r5
 8003c38:	d106      	bne.n	8003c48 <TIM_OC2_SetConfig+0x5c>
 8003c3a:	e9d1 5605 	ldrd	r5, r6, [r1, #20]
 8003c3e:	f424 6440 	bic.w	r4, r4, #3072	; 0xc00
 8003c42:	4335      	orrs	r5, r6
 8003c44:	ea44 0485 	orr.w	r4, r4, r5, lsl #2
 8003c48:	6044      	str	r4, [r0, #4]
 8003c4a:	6182      	str	r2, [r0, #24]
 8003c4c:	684a      	ldr	r2, [r1, #4]
 8003c4e:	6382      	str	r2, [r0, #56]	; 0x38
 8003c50:	6203      	str	r3, [r0, #32]
 8003c52:	bd70      	pop	{r4, r5, r6, pc}
 8003c54:	40010000 	.word	0x40010000

08003c58 <HAL_TIM_PWM_ConfigChannel>:
 8003c58:	b538      	push	{r3, r4, r5, lr}
 8003c5a:	f890 303c 	ldrb.w	r3, [r0, #60]	; 0x3c
 8003c5e:	2b01      	cmp	r3, #1
 8003c60:	4604      	mov	r4, r0
 8003c62:	f04f 0002 	mov.w	r0, #2
 8003c66:	d025      	beq.n	8003cb4 <HAL_TIM_PWM_ConfigChannel+0x5c>
 8003c68:	2301      	movs	r3, #1
 8003c6a:	f884 303c 	strb.w	r3, [r4, #60]	; 0x3c
 8003c6e:	f884 003d 	strb.w	r0, [r4, #61]	; 0x3d
 8003c72:	2a0c      	cmp	r2, #12
 8003c74:	d818      	bhi.n	8003ca8 <HAL_TIM_PWM_ConfigChannel+0x50>
 8003c76:	e8df f002 	tbb	[pc, r2]
 8003c7a:	1707      	.short	0x1707
 8003c7c:	171e1717 	.word	0x171e1717
 8003c80:	172f1717 	.word	0x172f1717
 8003c84:	1717      	.short	0x1717
 8003c86:	40          	.byte	0x40
 8003c87:	00          	.byte	0x00
 8003c88:	6820      	ldr	r0, [r4, #0]
 8003c8a:	f7ff fdcf 	bl	800382c <TIM_OC1_SetConfig>
 8003c8e:	6823      	ldr	r3, [r4, #0]
 8003c90:	6909      	ldr	r1, [r1, #16]
 8003c92:	699a      	ldr	r2, [r3, #24]
 8003c94:	f042 0208 	orr.w	r2, r2, #8
 8003c98:	619a      	str	r2, [r3, #24]
 8003c9a:	699a      	ldr	r2, [r3, #24]
 8003c9c:	f022 0204 	bic.w	r2, r2, #4
 8003ca0:	619a      	str	r2, [r3, #24]
 8003ca2:	699a      	ldr	r2, [r3, #24]
 8003ca4:	430a      	orrs	r2, r1
 8003ca6:	619a      	str	r2, [r3, #24]
 8003ca8:	2301      	movs	r3, #1
 8003caa:	2000      	movs	r0, #0
 8003cac:	f884 303d 	strb.w	r3, [r4, #61]	; 0x3d
 8003cb0:	f884 003c 	strb.w	r0, [r4, #60]	; 0x3c
 8003cb4:	bd38      	pop	{r3, r4, r5, pc}
 8003cb6:	6820      	ldr	r0, [r4, #0]
 8003cb8:	f7ff ff98 	bl	8003bec <TIM_OC2_SetConfig>
 8003cbc:	6823      	ldr	r3, [r4, #0]
 8003cbe:	6909      	ldr	r1, [r1, #16]
 8003cc0:	699a      	ldr	r2, [r3, #24]
 8003cc2:	f442 6200 	orr.w	r2, r2, #2048	; 0x800
 8003cc6:	619a      	str	r2, [r3, #24]
 8003cc8:	699a      	ldr	r2, [r3, #24]
 8003cca:	f422 6280 	bic.w	r2, r2, #1024	; 0x400
 8003cce:	619a      	str	r2, [r3, #24]
 8003cd0:	699a      	ldr	r2, [r3, #24]
 8003cd2:	ea42 2201 	orr.w	r2, r2, r1, lsl #8
 8003cd6:	e7e6      	b.n	8003ca6 <HAL_TIM_PWM_ConfigChannel+0x4e>
 8003cd8:	6820      	ldr	r0, [r4, #0]
 8003cda:	f7ff fdd9 	bl	8003890 <TIM_OC3_SetConfig>
 8003cde:	6823      	ldr	r3, [r4, #0]
 8003ce0:	6909      	ldr	r1, [r1, #16]
 8003ce2:	69da      	ldr	r2, [r3, #28]
 8003ce4:	f042 0208 	orr.w	r2, r2, #8
 8003ce8:	61da      	str	r2, [r3, #28]
 8003cea:	69da      	ldr	r2, [r3, #28]
 8003cec:	f022 0204 	bic.w	r2, r2, #4
 8003cf0:	61da      	str	r2, [r3, #28]
 8003cf2:	69da      	ldr	r2, [r3, #28]
 8003cf4:	430a      	orrs	r2, r1
 8003cf6:	61da      	str	r2, [r3, #28]
 8003cf8:	e7d6      	b.n	8003ca8 <HAL_TIM_PWM_ConfigChannel+0x50>
 8003cfa:	6820      	ldr	r0, [r4, #0]
 8003cfc:	f7ff fdfe 	bl	80038fc <TIM_OC4_SetConfig>
 8003d00:	6823      	ldr	r3, [r4, #0]
 8003d02:	6909      	ldr	r1, [r1, #16]
 8003d04:	69da      	ldr	r2, [r3, #28]
 8003d06:	f442 6200 	orr.w	r2, r2, #2048	; 0x800
 8003d0a:	61da      	str	r2, [r3, #28]
 8003d0c:	69da      	ldr	r2, [r3, #28]
 8003d0e:	f422 6280 	bic.w	r2, r2, #1024	; 0x400
 8003d12:	61da      	str	r2, [r3, #28]
 8003d14:	69da      	ldr	r2, [r3, #28]
 8003d16:	ea42 2201 	orr.w	r2, r2, r1, lsl #8
 8003d1a:	e7ec      	b.n	8003cf6 <HAL_TIM_PWM_ConfigChannel+0x9e>

08003d1c <TIM_ETR_SetConfig>:
 8003d1c:	b510      	push	{r4, lr}
 8003d1e:	6884      	ldr	r4, [r0, #8]
 8003d20:	430a      	orrs	r2, r1
 8003d22:	f424 447f 	bic.w	r4, r4, #65280	; 0xff00
 8003d26:	ea42 2303 	orr.w	r3, r2, r3, lsl #8
 8003d2a:	4323      	orrs	r3, r4
 8003d2c:	6083      	str	r3, [r0, #8]
 8003d2e:	bd10      	pop	{r4, pc}

08003d30 <HAL_TIM_ConfigClockSource>:
 8003d30:	f890 303c 	ldrb.w	r3, [r0, #60]	; 0x3c
 8003d34:	2b01      	cmp	r3, #1
 8003d36:	b570      	push	{r4, r5, r6, lr}
 8003d38:	4604      	mov	r4, r0
 8003d3a:	f04f 0002 	mov.w	r0, #2
 8003d3e:	d019      	beq.n	8003d74 <HAL_TIM_ConfigClockSource+0x44>
 8003d40:	f884 003d 	strb.w	r0, [r4, #61]	; 0x3d
 8003d44:	6820      	ldr	r0, [r4, #0]
 8003d46:	2301      	movs	r3, #1
 8003d48:	f884 303c 	strb.w	r3, [r4, #60]	; 0x3c
 8003d4c:	6883      	ldr	r3, [r0, #8]
 8003d4e:	f423 437f 	bic.w	r3, r3, #65280	; 0xff00
 8003d52:	f023 0377 	bic.w	r3, r3, #119	; 0x77
 8003d56:	6083      	str	r3, [r0, #8]
 8003d58:	680b      	ldr	r3, [r1, #0]
 8003d5a:	2b40      	cmp	r3, #64	; 0x40
 8003d5c:	d065      	beq.n	8003e2a <HAL_TIM_ConfigClockSource+0xfa>
 8003d5e:	d815      	bhi.n	8003d8c <HAL_TIM_ConfigClockSource+0x5c>
 8003d60:	2b10      	cmp	r3, #16
 8003d62:	d00c      	beq.n	8003d7e <HAL_TIM_ConfigClockSource+0x4e>
 8003d64:	d807      	bhi.n	8003d76 <HAL_TIM_ConfigClockSource+0x46>
 8003d66:	b153      	cbz	r3, 8003d7e <HAL_TIM_ConfigClockSource+0x4e>
 8003d68:	2301      	movs	r3, #1
 8003d6a:	2000      	movs	r0, #0
 8003d6c:	f884 303d 	strb.w	r3, [r4, #61]	; 0x3d
 8003d70:	f884 003c 	strb.w	r0, [r4, #60]	; 0x3c
 8003d74:	bd70      	pop	{r4, r5, r6, pc}
 8003d76:	2b20      	cmp	r3, #32
 8003d78:	d001      	beq.n	8003d7e <HAL_TIM_ConfigClockSource+0x4e>
 8003d7a:	2b30      	cmp	r3, #48	; 0x30
 8003d7c:	d1f4      	bne.n	8003d68 <HAL_TIM_ConfigClockSource+0x38>
 8003d7e:	6882      	ldr	r2, [r0, #8]
 8003d80:	f043 0307 	orr.w	r3, r3, #7
 8003d84:	f022 0270 	bic.w	r2, r2, #112	; 0x70
 8003d88:	4313      	orrs	r3, r2
 8003d8a:	e01a      	b.n	8003dc2 <HAL_TIM_ConfigClockSource+0x92>
 8003d8c:	2b60      	cmp	r3, #96	; 0x60
 8003d8e:	d034      	beq.n	8003dfa <HAL_TIM_ConfigClockSource+0xca>
 8003d90:	d819      	bhi.n	8003dc6 <HAL_TIM_ConfigClockSource+0x96>
 8003d92:	2b50      	cmp	r3, #80	; 0x50
 8003d94:	d1e8      	bne.n	8003d68 <HAL_TIM_ConfigClockSource+0x38>
 8003d96:	684a      	ldr	r2, [r1, #4]
 8003d98:	68ce      	ldr	r6, [r1, #12]
 8003d9a:	6a01      	ldr	r1, [r0, #32]
 8003d9c:	6a05      	ldr	r5, [r0, #32]
 8003d9e:	f025 0501 	bic.w	r5, r5, #1
 8003da2:	6205      	str	r5, [r0, #32]
 8003da4:	6983      	ldr	r3, [r0, #24]
 8003da6:	f021 010a 	bic.w	r1, r1, #10
 8003daa:	f023 03f0 	bic.w	r3, r3, #240	; 0xf0
 8003dae:	ea43 1306 	orr.w	r3, r3, r6, lsl #4
 8003db2:	430a      	orrs	r2, r1
 8003db4:	6183      	str	r3, [r0, #24]
 8003db6:	6202      	str	r2, [r0, #32]
 8003db8:	6883      	ldr	r3, [r0, #8]
 8003dba:	f023 0370 	bic.w	r3, r3, #112	; 0x70
 8003dbe:	f043 0357 	orr.w	r3, r3, #87	; 0x57
 8003dc2:	6083      	str	r3, [r0, #8]
 8003dc4:	e7d0      	b.n	8003d68 <HAL_TIM_ConfigClockSource+0x38>
 8003dc6:	2b70      	cmp	r3, #112	; 0x70
 8003dc8:	d00c      	beq.n	8003de4 <HAL_TIM_ConfigClockSource+0xb4>
 8003dca:	f5b3 5f00 	cmp.w	r3, #8192	; 0x2000
 8003dce:	d1cb      	bne.n	8003d68 <HAL_TIM_ConfigClockSource+0x38>
 8003dd0:	68cb      	ldr	r3, [r1, #12]
 8003dd2:	e9d1 2101 	ldrd	r2, r1, [r1, #4]
 8003dd6:	f7ff ffa1 	bl	8003d1c <TIM_ETR_SetConfig>
 8003dda:	6822      	ldr	r2, [r4, #0]
 8003ddc:	6893      	ldr	r3, [r2, #8]
 8003dde:	f443 4380 	orr.w	r3, r3, #16384	; 0x4000
 8003de2:	e008      	b.n	8003df6 <HAL_TIM_ConfigClockSource+0xc6>
 8003de4:	68cb      	ldr	r3, [r1, #12]
 8003de6:	e9d1 2101 	ldrd	r2, r1, [r1, #4]
 8003dea:	f7ff ff97 	bl	8003d1c <TIM_ETR_SetConfig>
 8003dee:	6822      	ldr	r2, [r4, #0]
 8003df0:	6893      	ldr	r3, [r2, #8]
 8003df2:	f043 0377 	orr.w	r3, r3, #119	; 0x77
 8003df6:	6093      	str	r3, [r2, #8]
 8003df8:	e7b6      	b.n	8003d68 <HAL_TIM_ConfigClockSource+0x38>
 8003dfa:	684d      	ldr	r5, [r1, #4]
 8003dfc:	68ce      	ldr	r6, [r1, #12]
 8003dfe:	6a01      	ldr	r1, [r0, #32]
 8003e00:	f021 0110 	bic.w	r1, r1, #16
 8003e04:	6201      	str	r1, [r0, #32]
 8003e06:	6982      	ldr	r2, [r0, #24]
 8003e08:	6a03      	ldr	r3, [r0, #32]
 8003e0a:	f422 4270 	bic.w	r2, r2, #61440	; 0xf000
 8003e0e:	f023 03a0 	bic.w	r3, r3, #160	; 0xa0
 8003e12:	ea43 1305 	orr.w	r3, r3, r5, lsl #4
 8003e16:	ea42 3206 	orr.w	r2, r2, r6, lsl #12
 8003e1a:	6182      	str	r2, [r0, #24]
 8003e1c:	6203      	str	r3, [r0, #32]
 8003e1e:	6883      	ldr	r3, [r0, #8]
 8003e20:	f023 0370 	bic.w	r3, r3, #112	; 0x70
 8003e24:	f043 0367 	orr.w	r3, r3, #103	; 0x67
 8003e28:	e7cb      	b.n	8003dc2 <HAL_TIM_ConfigClockSource+0x92>
 8003e2a:	684a      	ldr	r2, [r1, #4]
 8003e2c:	68ce      	ldr	r6, [r1, #12]
 8003e2e:	6a01      	ldr	r1, [r0, #32]
 8003e30:	6a05      	ldr	r5, [r0, #32]
 8003e32:	f025 0501 	bic.w	r5, r5, #1
 8003e36:	6205      	str	r5, [r0, #32]
 8003e38:	6983      	ldr	r3, [r0, #24]
 8003e3a:	f021 010a 	bic.w	r1, r1, #10
 8003e3e:	f023 03f0 	bic.w	r3, r3, #240	; 0xf0
 8003e42:	ea43 1306 	orr.w	r3, r3, r6, lsl #4
 8003e46:	430a      	orrs	r2, r1
 8003e48:	6183      	str	r3, [r0, #24]
 8003e4a:	6202      	str	r2, [r0, #32]
 8003e4c:	6883      	ldr	r3, [r0, #8]
 8003e4e:	f023 0370 	bic.w	r3, r3, #112	; 0x70
 8003e52:	f043 0347 	orr.w	r3, r3, #71	; 0x47
 8003e56:	e7b4      	b.n	8003dc2 <HAL_TIM_ConfigClockSource+0x92>

08003e58 <HAL_TIMEx_MasterConfigSynchronization>:
 8003e58:	f890 303c 	ldrb.w	r3, [r0, #60]	; 0x3c
 8003e5c:	2b01      	cmp	r3, #1
 8003e5e:	b530      	push	{r4, r5, lr}
 8003e60:	f04f 0302 	mov.w	r3, #2
 8003e64:	d035      	beq.n	8003ed2 <HAL_TIMEx_MasterConfigSynchronization+0x7a>
 8003e66:	f880 303d 	strb.w	r3, [r0, #61]	; 0x3d
 8003e6a:	6803      	ldr	r3, [r0, #0]
 8003e6c:	680d      	ldr	r5, [r1, #0]
 8003e6e:	685c      	ldr	r4, [r3, #4]
 8003e70:	f024 0470 	bic.w	r4, r4, #112	; 0x70
 8003e74:	2201      	movs	r2, #1
 8003e76:	432c      	orrs	r4, r5
 8003e78:	f880 203c 	strb.w	r2, [r0, #60]	; 0x3c
 8003e7c:	689a      	ldr	r2, [r3, #8]
 8003e7e:	605c      	str	r4, [r3, #4]
 8003e80:	4c15      	ldr	r4, [pc, #84]	; (8003ed8 <HAL_TIMEx_MasterConfigSynchronization+0x80>)
 8003e82:	42a3      	cmp	r3, r4
 8003e84:	d01a      	beq.n	8003ebc <HAL_TIMEx_MasterConfigSynchronization+0x64>
 8003e86:	f1b3 4f80 	cmp.w	r3, #1073741824	; 0x40000000
 8003e8a:	d017      	beq.n	8003ebc <HAL_TIMEx_MasterConfigSynchronization+0x64>
 8003e8c:	f5a4 447c 	sub.w	r4, r4, #64512	; 0xfc00
 8003e90:	42a3      	cmp	r3, r4
 8003e92:	d013      	beq.n	8003ebc <HAL_TIMEx_MasterConfigSynchronization+0x64>
 8003e94:	f504 6480 	add.w	r4, r4, #1024	; 0x400
 8003e98:	42a3      	cmp	r3, r4
 8003e9a:	d00f      	beq.n	8003ebc <HAL_TIMEx_MasterConfigSynchronization+0x64>
 8003e9c:	f504 6480 	add.w	r4, r4, #1024	; 0x400
 8003ea0:	42a3      	cmp	r3, r4
 8003ea2:	d00b      	beq.n	8003ebc <HAL_TIMEx_MasterConfigSynchronization+0x64>
 8003ea4:	f504 4478 	add.w	r4, r4, #63488	; 0xf800
 8003ea8:	42a3      	cmp	r3, r4
 8003eaa:	d007      	beq.n	8003ebc <HAL_TIMEx_MasterConfigSynchronization+0x64>
 8003eac:	f504 5470 	add.w	r4, r4, #15360	; 0x3c00
 8003eb0:	42a3      	cmp	r3, r4
 8003eb2:	d003      	beq.n	8003ebc <HAL_TIMEx_MasterConfigSynchronization+0x64>
 8003eb4:	f5a4 3494 	sub.w	r4, r4, #75776	; 0x12800
 8003eb8:	42a3      	cmp	r3, r4
 8003eba:	d104      	bne.n	8003ec6 <HAL_TIMEx_MasterConfigSynchronization+0x6e>
 8003ebc:	6849      	ldr	r1, [r1, #4]
 8003ebe:	f022 0280 	bic.w	r2, r2, #128	; 0x80
 8003ec2:	430a      	orrs	r2, r1
 8003ec4:	609a      	str	r2, [r3, #8]
 8003ec6:	2301      	movs	r3, #1
 8003ec8:	f880 303d 	strb.w	r3, [r0, #61]	; 0x3d
 8003ecc:	2300      	movs	r3, #0
 8003ece:	f880 303c 	strb.w	r3, [r0, #60]	; 0x3c
 8003ed2:	4618      	mov	r0, r3
 8003ed4:	bd30      	pop	{r4, r5, pc}
 8003ed6:	bf00      	nop
 8003ed8:	40010000 	.word	0x40010000

08003edc <HAL_TIMEx_ConfigBreakDeadTime>:
 8003edc:	f890 303c 	ldrb.w	r3, [r0, #60]	; 0x3c
 8003ee0:	2b01      	cmp	r3, #1
 8003ee2:	d01f      	beq.n	8003f24 <HAL_TIMEx_ConfigBreakDeadTime+0x48>
 8003ee4:	68cb      	ldr	r3, [r1, #12]
 8003ee6:	688a      	ldr	r2, [r1, #8]
 8003ee8:	f423 7340 	bic.w	r3, r3, #768	; 0x300
 8003eec:	4313      	orrs	r3, r2
 8003eee:	684a      	ldr	r2, [r1, #4]
 8003ef0:	f423 6380 	bic.w	r3, r3, #1024	; 0x400
 8003ef4:	4313      	orrs	r3, r2
 8003ef6:	680a      	ldr	r2, [r1, #0]
 8003ef8:	f423 6300 	bic.w	r3, r3, #2048	; 0x800
 8003efc:	4313      	orrs	r3, r2
 8003efe:	690a      	ldr	r2, [r1, #16]
 8003f00:	f423 5380 	bic.w	r3, r3, #4096	; 0x1000
 8003f04:	4313      	orrs	r3, r2
 8003f06:	694a      	ldr	r2, [r1, #20]
 8003f08:	f423 5300 	bic.w	r3, r3, #8192	; 0x2000
 8003f0c:	4313      	orrs	r3, r2
 8003f0e:	69ca      	ldr	r2, [r1, #28]
 8003f10:	f423 4380 	bic.w	r3, r3, #16384	; 0x4000
 8003f14:	4313      	orrs	r3, r2
 8003f16:	6802      	ldr	r2, [r0, #0]
 8003f18:	6453      	str	r3, [r2, #68]	; 0x44
 8003f1a:	2300      	movs	r3, #0
 8003f1c:	f880 303c 	strb.w	r3, [r0, #60]	; 0x3c
 8003f20:	4618      	mov	r0, r3
 8003f22:	4770      	bx	lr
 8003f24:	2002      	movs	r0, #2
 8003f26:	4770      	bx	lr

08003f28 <HAL_TIMEx_CommutCallback>:
 8003f28:	4770      	bx	lr

08003f2a <HAL_TIMEx_BreakCallback>:
 8003f2a:	4770      	bx	lr

08003f2c <UART_EndRxTransfer>:
 8003f2c:	6803      	ldr	r3, [r0, #0]
 8003f2e:	68da      	ldr	r2, [r3, #12]
 8003f30:	f422 7290 	bic.w	r2, r2, #288	; 0x120
 8003f34:	60da      	str	r2, [r3, #12]
 8003f36:	695a      	ldr	r2, [r3, #20]
 8003f38:	f022 0201 	bic.w	r2, r2, #1
 8003f3c:	615a      	str	r2, [r3, #20]
 8003f3e:	2320      	movs	r3, #32
 8003f40:	f880 303a 	strb.w	r3, [r0, #58]	; 0x3a
 8003f44:	4770      	bx	lr
	...

08003f48 <UART_SetConfig>:
 8003f48:	6803      	ldr	r3, [r0, #0]
 8003f4a:	68c1      	ldr	r1, [r0, #12]
 8003f4c:	691a      	ldr	r2, [r3, #16]
 8003f4e:	b570      	push	{r4, r5, r6, lr}
 8003f50:	f422 5240 	bic.w	r2, r2, #12288	; 0x3000
 8003f54:	4604      	mov	r4, r0
 8003f56:	430a      	orrs	r2, r1
 8003f58:	611a      	str	r2, [r3, #16]
 8003f5a:	6925      	ldr	r5, [r4, #16]
 8003f5c:	68a2      	ldr	r2, [r4, #8]
 8003f5e:	68d9      	ldr	r1, [r3, #12]
 8003f60:	69c0      	ldr	r0, [r0, #28]
 8003f62:	432a      	orrs	r2, r5
 8003f64:	6965      	ldr	r5, [r4, #20]
 8003f66:	f421 4116 	bic.w	r1, r1, #38400	; 0x9600
 8003f6a:	432a      	orrs	r2, r5
 8003f6c:	f021 010c 	bic.w	r1, r1, #12
 8003f70:	4302      	orrs	r2, r0
 8003f72:	430a      	orrs	r2, r1
 8003f74:	60da      	str	r2, [r3, #12]
 8003f76:	695a      	ldr	r2, [r3, #20]
 8003f78:	69a1      	ldr	r1, [r4, #24]
 8003f7a:	f422 7240 	bic.w	r2, r2, #768	; 0x300
 8003f7e:	430a      	orrs	r2, r1
 8003f80:	f5b0 4f00 	cmp.w	r0, #32768	; 0x8000
 8003f84:	615a      	str	r2, [r3, #20]
 8003f86:	4a26      	ldr	r2, [pc, #152]	; (8004020 <UART_SetConfig+0xd8>)
 8003f88:	d129      	bne.n	8003fde <UART_SetConfig+0x96>
 8003f8a:	4293      	cmp	r3, r2
 8003f8c:	d003      	beq.n	8003f96 <UART_SetConfig+0x4e>
 8003f8e:	f502 6280 	add.w	r2, r2, #1024	; 0x400
 8003f92:	4293      	cmp	r3, r2
 8003f94:	d120      	bne.n	8003fd8 <UART_SetConfig+0x90>
 8003f96:	f7ff f8c1 	bl	800311c <HAL_RCC_GetPCLK2Freq>
 8003f9a:	6862      	ldr	r2, [r4, #4]
 8003f9c:	2600      	movs	r6, #0
 8003f9e:	1892      	adds	r2, r2, r2
 8003fa0:	f04f 0119 	mov.w	r1, #25
 8003fa4:	eb46 0306 	adc.w	r3, r6, r6
 8003fa8:	fba0 0101 	umull	r0, r1, r0, r1
 8003fac:	f7fc fe6c 	bl	8000c88 <__aeabi_uldivmod>
 8003fb0:	2164      	movs	r1, #100	; 0x64
 8003fb2:	fbb0 f5f1 	udiv	r5, r0, r1
 8003fb6:	fb01 0315 	mls	r3, r1, r5, r0
 8003fba:	00db      	lsls	r3, r3, #3
 8003fbc:	3332      	adds	r3, #50	; 0x32
 8003fbe:	fbb3 f3f1 	udiv	r3, r3, r1
 8003fc2:	f003 0207 	and.w	r2, r3, #7
 8003fc6:	005b      	lsls	r3, r3, #1
 8003fc8:	6821      	ldr	r1, [r4, #0]
 8003fca:	eb02 1205 	add.w	r2, r2, r5, lsl #4
 8003fce:	f403 73f8 	and.w	r3, r3, #496	; 0x1f0
 8003fd2:	4413      	add	r3, r2
 8003fd4:	608b      	str	r3, [r1, #8]
 8003fd6:	bd70      	pop	{r4, r5, r6, pc}
 8003fd8:	f7ff f890 	bl	80030fc <HAL_RCC_GetPCLK1Freq>
 8003fdc:	e7dd      	b.n	8003f9a <UART_SetConfig+0x52>
 8003fde:	4293      	cmp	r3, r2
 8003fe0:	d002      	beq.n	8003fe8 <UART_SetConfig+0xa0>
 8003fe2:	4a10      	ldr	r2, [pc, #64]	; (8004024 <UART_SetConfig+0xdc>)
 8003fe4:	4293      	cmp	r3, r2
 8003fe6:	d117      	bne.n	8004018 <UART_SetConfig+0xd0>
 8003fe8:	f7ff f898 	bl	800311c <HAL_RCC_GetPCLK2Freq>
 8003fec:	6863      	ldr	r3, [r4, #4]
 8003fee:	2119      	movs	r1, #25
 8003ff0:	009a      	lsls	r2, r3, #2
 8003ff2:	fba0 0101 	umull	r0, r1, r0, r1
 8003ff6:	0f9b      	lsrs	r3, r3, #30
 8003ff8:	f7fc fe46 	bl	8000c88 <__aeabi_uldivmod>
 8003ffc:	2264      	movs	r2, #100	; 0x64
 8003ffe:	fbb0 f1f2 	udiv	r1, r0, r2
 8004002:	fb02 0311 	mls	r3, r2, r1, r0
 8004006:	6824      	ldr	r4, [r4, #0]
 8004008:	011b      	lsls	r3, r3, #4
 800400a:	3332      	adds	r3, #50	; 0x32
 800400c:	fbb3 f3f2 	udiv	r3, r3, r2
 8004010:	eb03 1301 	add.w	r3, r3, r1, lsl #4
 8004014:	60a3      	str	r3, [r4, #8]
 8004016:	e7de      	b.n	8003fd6 <UART_SetConfig+0x8e>
 8004018:	f7ff f870 	bl	80030fc <HAL_RCC_GetPCLK1Freq>
 800401c:	e7e6      	b.n	8003fec <UART_SetConfig+0xa4>
 800401e:	bf00      	nop
 8004020:	40011000 	.word	0x40011000
 8004024:	40011400 	.word	0x40011400

08004028 <UART_WaitOnFlagUntilTimeout.constprop.3>:
 8004028:	b5f8      	push	{r3, r4, r5, r6, r7, lr}
 800402a:	4604      	mov	r4, r0
 800402c:	460e      	mov	r6, r1
 800402e:	4617      	mov	r7, r2
 8004030:	461d      	mov	r5, r3
 8004032:	6821      	ldr	r1, [r4, #0]
 8004034:	680b      	ldr	r3, [r1, #0]
 8004036:	ea36 0303 	bics.w	r3, r6, r3
 800403a:	d101      	bne.n	8004040 <UART_WaitOnFlagUntilTimeout.constprop.3+0x18>
 800403c:	2000      	movs	r0, #0
 800403e:	e014      	b.n	800406a <UART_WaitOnFlagUntilTimeout.constprop.3+0x42>
 8004040:	1c6b      	adds	r3, r5, #1
 8004042:	d0f7      	beq.n	8004034 <UART_WaitOnFlagUntilTimeout.constprop.3+0xc>
 8004044:	b995      	cbnz	r5, 800406c <UART_WaitOnFlagUntilTimeout.constprop.3+0x44>
 8004046:	6823      	ldr	r3, [r4, #0]
 8004048:	68da      	ldr	r2, [r3, #12]
 800404a:	f422 72d0 	bic.w	r2, r2, #416	; 0x1a0
 800404e:	60da      	str	r2, [r3, #12]
 8004050:	695a      	ldr	r2, [r3, #20]
 8004052:	f022 0201 	bic.w	r2, r2, #1
 8004056:	615a      	str	r2, [r3, #20]
 8004058:	2320      	movs	r3, #32
 800405a:	f884 3039 	strb.w	r3, [r4, #57]	; 0x39
 800405e:	f884 303a 	strb.w	r3, [r4, #58]	; 0x3a
 8004062:	2300      	movs	r3, #0
 8004064:	f884 3038 	strb.w	r3, [r4, #56]	; 0x38
 8004068:	2003      	movs	r0, #3
 800406a:	bdf8      	pop	{r3, r4, r5, r6, r7, pc}
 800406c:	f7fe fb08 	bl	8002680 <HAL_GetTick>
 8004070:	1bc0      	subs	r0, r0, r7
 8004072:	4285      	cmp	r5, r0
 8004074:	d2dd      	bcs.n	8004032 <UART_WaitOnFlagUntilTimeout.constprop.3+0xa>
 8004076:	e7e6      	b.n	8004046 <UART_WaitOnFlagUntilTimeout.constprop.3+0x1e>

08004078 <HAL_UART_Init>:
 8004078:	b510      	push	{r4, lr}
 800407a:	4604      	mov	r4, r0
 800407c:	b340      	cbz	r0, 80040d0 <HAL_UART_Init+0x58>
 800407e:	f890 3039 	ldrb.w	r3, [r0, #57]	; 0x39
 8004082:	f003 02ff 	and.w	r2, r3, #255	; 0xff
 8004086:	b91b      	cbnz	r3, 8004090 <HAL_UART_Init+0x18>
 8004088:	f880 2038 	strb.w	r2, [r0, #56]	; 0x38
 800408c:	f7fe fa36 	bl	80024fc <HAL_UART_MspInit>
 8004090:	6822      	ldr	r2, [r4, #0]
 8004092:	2324      	movs	r3, #36	; 0x24
 8004094:	f884 3039 	strb.w	r3, [r4, #57]	; 0x39
 8004098:	68d3      	ldr	r3, [r2, #12]
 800409a:	f423 5300 	bic.w	r3, r3, #8192	; 0x2000
 800409e:	60d3      	str	r3, [r2, #12]
 80040a0:	4620      	mov	r0, r4
 80040a2:	f7ff ff51 	bl	8003f48 <UART_SetConfig>
 80040a6:	6823      	ldr	r3, [r4, #0]
 80040a8:	691a      	ldr	r2, [r3, #16]
 80040aa:	f422 4290 	bic.w	r2, r2, #18432	; 0x4800
 80040ae:	611a      	str	r2, [r3, #16]
 80040b0:	695a      	ldr	r2, [r3, #20]
 80040b2:	f022 022a 	bic.w	r2, r2, #42	; 0x2a
 80040b6:	615a      	str	r2, [r3, #20]
 80040b8:	68da      	ldr	r2, [r3, #12]
 80040ba:	f442 5200 	orr.w	r2, r2, #8192	; 0x2000
 80040be:	60da      	str	r2, [r3, #12]
 80040c0:	2000      	movs	r0, #0
 80040c2:	2320      	movs	r3, #32
 80040c4:	63e0      	str	r0, [r4, #60]	; 0x3c
 80040c6:	f884 3039 	strb.w	r3, [r4, #57]	; 0x39
 80040ca:	f884 303a 	strb.w	r3, [r4, #58]	; 0x3a
 80040ce:	bd10      	pop	{r4, pc}
 80040d0:	2001      	movs	r0, #1
 80040d2:	e7fc      	b.n	80040ce <HAL_UART_Init+0x56>

080040d4 <HAL_UART_Transmit>:
 80040d4:	e92d 43f8 	stmdb	sp!, {r3, r4, r5, r6, r7, r8, r9, lr}
 80040d8:	461f      	mov	r7, r3
 80040da:	f890 3039 	ldrb.w	r3, [r0, #57]	; 0x39
 80040de:	2b20      	cmp	r3, #32
 80040e0:	4604      	mov	r4, r0
 80040e2:	460d      	mov	r5, r1
 80040e4:	4690      	mov	r8, r2
 80040e6:	d14f      	bne.n	8004188 <HAL_UART_Transmit+0xb4>
 80040e8:	2900      	cmp	r1, #0
 80040ea:	d04b      	beq.n	8004184 <HAL_UART_Transmit+0xb0>
 80040ec:	2a00      	cmp	r2, #0
 80040ee:	d049      	beq.n	8004184 <HAL_UART_Transmit+0xb0>
 80040f0:	f890 3038 	ldrb.w	r3, [r0, #56]	; 0x38
 80040f4:	2b01      	cmp	r3, #1
 80040f6:	d047      	beq.n	8004188 <HAL_UART_Transmit+0xb4>
 80040f8:	2301      	movs	r3, #1
 80040fa:	f880 3038 	strb.w	r3, [r0, #56]	; 0x38
 80040fe:	f04f 0900 	mov.w	r9, #0
 8004102:	2321      	movs	r3, #33	; 0x21
 8004104:	f8c0 903c 	str.w	r9, [r0, #60]	; 0x3c
 8004108:	f880 3039 	strb.w	r3, [r0, #57]	; 0x39
 800410c:	f7fe fab8 	bl	8002680 <HAL_GetTick>
 8004110:	f8a4 8024 	strh.w	r8, [r4, #36]	; 0x24
 8004114:	4606      	mov	r6, r0
 8004116:	f8a4 8026 	strh.w	r8, [r4, #38]	; 0x26
 800411a:	f884 9038 	strb.w	r9, [r4, #56]	; 0x38
 800411e:	8ce3      	ldrh	r3, [r4, #38]	; 0x26
 8004120:	b29b      	uxth	r3, r3
 8004122:	b953      	cbnz	r3, 800413a <HAL_UART_Transmit+0x66>
 8004124:	463b      	mov	r3, r7
 8004126:	4632      	mov	r2, r6
 8004128:	2140      	movs	r1, #64	; 0x40
 800412a:	4620      	mov	r0, r4
 800412c:	f7ff ff7c 	bl	8004028 <UART_WaitOnFlagUntilTimeout.constprop.3>
 8004130:	b998      	cbnz	r0, 800415a <HAL_UART_Transmit+0x86>
 8004132:	2320      	movs	r3, #32
 8004134:	f884 3039 	strb.w	r3, [r4, #57]	; 0x39
 8004138:	e010      	b.n	800415c <HAL_UART_Transmit+0x88>
 800413a:	8ce3      	ldrh	r3, [r4, #38]	; 0x26
 800413c:	3b01      	subs	r3, #1
 800413e:	b29b      	uxth	r3, r3
 8004140:	84e3      	strh	r3, [r4, #38]	; 0x26
 8004142:	68a3      	ldr	r3, [r4, #8]
 8004144:	f5b3 5f80 	cmp.w	r3, #4096	; 0x1000
 8004148:	4632      	mov	r2, r6
 800414a:	463b      	mov	r3, r7
 800414c:	f04f 0180 	mov.w	r1, #128	; 0x80
 8004150:	4620      	mov	r0, r4
 8004152:	d10e      	bne.n	8004172 <HAL_UART_Transmit+0x9e>
 8004154:	f7ff ff68 	bl	8004028 <UART_WaitOnFlagUntilTimeout.constprop.3>
 8004158:	b110      	cbz	r0, 8004160 <HAL_UART_Transmit+0x8c>
 800415a:	2003      	movs	r0, #3
 800415c:	e8bd 83f8 	ldmia.w	sp!, {r3, r4, r5, r6, r7, r8, r9, pc}
 8004160:	882b      	ldrh	r3, [r5, #0]
 8004162:	6822      	ldr	r2, [r4, #0]
 8004164:	f3c3 0308 	ubfx	r3, r3, #0, #9
 8004168:	6053      	str	r3, [r2, #4]
 800416a:	6923      	ldr	r3, [r4, #16]
 800416c:	b943      	cbnz	r3, 8004180 <HAL_UART_Transmit+0xac>
 800416e:	3502      	adds	r5, #2
 8004170:	e7d5      	b.n	800411e <HAL_UART_Transmit+0x4a>
 8004172:	f7ff ff59 	bl	8004028 <UART_WaitOnFlagUntilTimeout.constprop.3>
 8004176:	2800      	cmp	r0, #0
 8004178:	d1ef      	bne.n	800415a <HAL_UART_Transmit+0x86>
 800417a:	6823      	ldr	r3, [r4, #0]
 800417c:	782a      	ldrb	r2, [r5, #0]
 800417e:	605a      	str	r2, [r3, #4]
 8004180:	3501      	adds	r5, #1
 8004182:	e7cc      	b.n	800411e <HAL_UART_Transmit+0x4a>
 8004184:	2001      	movs	r0, #1
 8004186:	e7e9      	b.n	800415c <HAL_UART_Transmit+0x88>
 8004188:	2002      	movs	r0, #2
 800418a:	e7e7      	b.n	800415c <HAL_UART_Transmit+0x88>

0800418c <HAL_UART_Receive_IT>:
 800418c:	f890 303a 	ldrb.w	r3, [r0, #58]	; 0x3a
 8004190:	2b20      	cmp	r3, #32
 8004192:	d120      	bne.n	80041d6 <HAL_UART_Receive_IT+0x4a>
 8004194:	b1e9      	cbz	r1, 80041d2 <HAL_UART_Receive_IT+0x46>
 8004196:	b1e2      	cbz	r2, 80041d2 <HAL_UART_Receive_IT+0x46>
 8004198:	f890 3038 	ldrb.w	r3, [r0, #56]	; 0x38
 800419c:	2b01      	cmp	r3, #1
 800419e:	d01a      	beq.n	80041d6 <HAL_UART_Receive_IT+0x4a>
 80041a0:	85c2      	strh	r2, [r0, #46]	; 0x2e
 80041a2:	8582      	strh	r2, [r0, #44]	; 0x2c
 80041a4:	2300      	movs	r3, #0
 80041a6:	2222      	movs	r2, #34	; 0x22
 80041a8:	63c3      	str	r3, [r0, #60]	; 0x3c
 80041aa:	f880 203a 	strb.w	r2, [r0, #58]	; 0x3a
 80041ae:	6802      	ldr	r2, [r0, #0]
 80041b0:	6281      	str	r1, [r0, #40]	; 0x28
 80041b2:	68d1      	ldr	r1, [r2, #12]
 80041b4:	f880 3038 	strb.w	r3, [r0, #56]	; 0x38
 80041b8:	f441 7180 	orr.w	r1, r1, #256	; 0x100
 80041bc:	60d1      	str	r1, [r2, #12]
 80041be:	6951      	ldr	r1, [r2, #20]
 80041c0:	f041 0101 	orr.w	r1, r1, #1
 80041c4:	6151      	str	r1, [r2, #20]
 80041c6:	68d1      	ldr	r1, [r2, #12]
 80041c8:	f041 0120 	orr.w	r1, r1, #32
 80041cc:	60d1      	str	r1, [r2, #12]
 80041ce:	4618      	mov	r0, r3
 80041d0:	4770      	bx	lr
 80041d2:	2001      	movs	r0, #1
 80041d4:	4770      	bx	lr
 80041d6:	2002      	movs	r0, #2
 80041d8:	4770      	bx	lr

080041da <HAL_UART_TxCpltCallback>:
 80041da:	4770      	bx	lr

080041dc <HAL_UART_RxCpltCallback>:
 80041dc:	4770      	bx	lr

080041de <UART_Receive_IT>:
 80041de:	f890 303a 	ldrb.w	r3, [r0, #58]	; 0x3a
 80041e2:	2b22      	cmp	r3, #34	; 0x22
 80041e4:	b510      	push	{r4, lr}
 80041e6:	d133      	bne.n	8004250 <UART_Receive_IT+0x72>
 80041e8:	6881      	ldr	r1, [r0, #8]
 80041ea:	6904      	ldr	r4, [r0, #16]
 80041ec:	6a83      	ldr	r3, [r0, #40]	; 0x28
 80041ee:	6802      	ldr	r2, [r0, #0]
 80041f0:	f5b1 5f80 	cmp.w	r1, #4096	; 0x1000
 80041f4:	d123      	bne.n	800423e <UART_Receive_IT+0x60>
 80041f6:	6852      	ldr	r2, [r2, #4]
 80041f8:	b9ec      	cbnz	r4, 8004236 <UART_Receive_IT+0x58>
 80041fa:	f3c2 0208 	ubfx	r2, r2, #0, #9
 80041fe:	f823 2b02 	strh.w	r2, [r3], #2
 8004202:	6283      	str	r3, [r0, #40]	; 0x28
 8004204:	8dc4      	ldrh	r4, [r0, #46]	; 0x2e
 8004206:	3c01      	subs	r4, #1
 8004208:	b2a4      	uxth	r4, r4
 800420a:	85c4      	strh	r4, [r0, #46]	; 0x2e
 800420c:	b98c      	cbnz	r4, 8004232 <UART_Receive_IT+0x54>
 800420e:	6803      	ldr	r3, [r0, #0]
 8004210:	68da      	ldr	r2, [r3, #12]
 8004212:	f022 0220 	bic.w	r2, r2, #32
 8004216:	60da      	str	r2, [r3, #12]
 8004218:	68da      	ldr	r2, [r3, #12]
 800421a:	f422 7280 	bic.w	r2, r2, #256	; 0x100
 800421e:	60da      	str	r2, [r3, #12]
 8004220:	695a      	ldr	r2, [r3, #20]
 8004222:	f022 0201 	bic.w	r2, r2, #1
 8004226:	615a      	str	r2, [r3, #20]
 8004228:	2320      	movs	r3, #32
 800422a:	f880 303a 	strb.w	r3, [r0, #58]	; 0x3a
 800422e:	f7ff ffd5 	bl	80041dc <HAL_UART_RxCpltCallback>
 8004232:	2000      	movs	r0, #0
 8004234:	e00d      	b.n	8004252 <UART_Receive_IT+0x74>
 8004236:	b2d2      	uxtb	r2, r2
 8004238:	f823 2b01 	strh.w	r2, [r3], #1
 800423c:	e7e1      	b.n	8004202 <UART_Receive_IT+0x24>
 800423e:	1c59      	adds	r1, r3, #1
 8004240:	6852      	ldr	r2, [r2, #4]
 8004242:	6281      	str	r1, [r0, #40]	; 0x28
 8004244:	b90c      	cbnz	r4, 800424a <UART_Receive_IT+0x6c>
 8004246:	701a      	strb	r2, [r3, #0]
 8004248:	e7dc      	b.n	8004204 <UART_Receive_IT+0x26>
 800424a:	f002 027f 	and.w	r2, r2, #127	; 0x7f
 800424e:	e7fa      	b.n	8004246 <UART_Receive_IT+0x68>
 8004250:	2002      	movs	r0, #2
 8004252:	bd10      	pop	{r4, pc}

08004254 <HAL_UART_ErrorCallback>:
 8004254:	4770      	bx	lr
	...

08004258 <HAL_UART_IRQHandler>:
 8004258:	6803      	ldr	r3, [r0, #0]
 800425a:	681a      	ldr	r2, [r3, #0]
 800425c:	68d9      	ldr	r1, [r3, #12]
 800425e:	b570      	push	{r4, r5, r6, lr}
 8004260:	0716      	lsls	r6, r2, #28
 8004262:	4604      	mov	r4, r0
 8004264:	695d      	ldr	r5, [r3, #20]
 8004266:	d107      	bne.n	8004278 <HAL_UART_IRQHandler+0x20>
 8004268:	0696      	lsls	r6, r2, #26
 800426a:	d55a      	bpl.n	8004322 <HAL_UART_IRQHandler+0xca>
 800426c:	068d      	lsls	r5, r1, #26
 800426e:	d558      	bpl.n	8004322 <HAL_UART_IRQHandler+0xca>
 8004270:	e8bd 4070 	ldmia.w	sp!, {r4, r5, r6, lr}
 8004274:	f7ff bfb3 	b.w	80041de <UART_Receive_IT>
 8004278:	f015 0501 	ands.w	r5, r5, #1
 800427c:	d102      	bne.n	8004284 <HAL_UART_IRQHandler+0x2c>
 800427e:	f411 7f90 	tst.w	r1, #288	; 0x120
 8004282:	d04e      	beq.n	8004322 <HAL_UART_IRQHandler+0xca>
 8004284:	07d0      	lsls	r0, r2, #31
 8004286:	d505      	bpl.n	8004294 <HAL_UART_IRQHandler+0x3c>
 8004288:	05cb      	lsls	r3, r1, #23
 800428a:	bf42      	ittt	mi
 800428c:	6be3      	ldrmi	r3, [r4, #60]	; 0x3c
 800428e:	f043 0301 	orrmi.w	r3, r3, #1
 8004292:	63e3      	strmi	r3, [r4, #60]	; 0x3c
 8004294:	0756      	lsls	r6, r2, #29
 8004296:	d504      	bpl.n	80042a2 <HAL_UART_IRQHandler+0x4a>
 8004298:	b11d      	cbz	r5, 80042a2 <HAL_UART_IRQHandler+0x4a>
 800429a:	6be3      	ldr	r3, [r4, #60]	; 0x3c
 800429c:	f043 0302 	orr.w	r3, r3, #2
 80042a0:	63e3      	str	r3, [r4, #60]	; 0x3c
 80042a2:	0790      	lsls	r0, r2, #30
 80042a4:	d504      	bpl.n	80042b0 <HAL_UART_IRQHandler+0x58>
 80042a6:	b11d      	cbz	r5, 80042b0 <HAL_UART_IRQHandler+0x58>
 80042a8:	6be3      	ldr	r3, [r4, #60]	; 0x3c
 80042aa:	f043 0304 	orr.w	r3, r3, #4
 80042ae:	63e3      	str	r3, [r4, #60]	; 0x3c
 80042b0:	0713      	lsls	r3, r2, #28
 80042b2:	d506      	bpl.n	80042c2 <HAL_UART_IRQHandler+0x6a>
 80042b4:	068e      	lsls	r6, r1, #26
 80042b6:	d400      	bmi.n	80042ba <HAL_UART_IRQHandler+0x62>
 80042b8:	b11d      	cbz	r5, 80042c2 <HAL_UART_IRQHandler+0x6a>
 80042ba:	6be3      	ldr	r3, [r4, #60]	; 0x3c
 80042bc:	f043 0308 	orr.w	r3, r3, #8
 80042c0:	63e3      	str	r3, [r4, #60]	; 0x3c
 80042c2:	6be3      	ldr	r3, [r4, #60]	; 0x3c
 80042c4:	b343      	cbz	r3, 8004318 <HAL_UART_IRQHandler+0xc0>
 80042c6:	0695      	lsls	r5, r2, #26
 80042c8:	d504      	bpl.n	80042d4 <HAL_UART_IRQHandler+0x7c>
 80042ca:	0688      	lsls	r0, r1, #26
 80042cc:	d502      	bpl.n	80042d4 <HAL_UART_IRQHandler+0x7c>
 80042ce:	4620      	mov	r0, r4
 80042d0:	f7ff ff85 	bl	80041de <UART_Receive_IT>
 80042d4:	6823      	ldr	r3, [r4, #0]
 80042d6:	695d      	ldr	r5, [r3, #20]
 80042d8:	6be2      	ldr	r2, [r4, #60]	; 0x3c
 80042da:	0711      	lsls	r1, r2, #28
 80042dc:	4620      	mov	r0, r4
 80042de:	d402      	bmi.n	80042e6 <HAL_UART_IRQHandler+0x8e>
 80042e0:	f015 0540 	ands.w	r5, r5, #64	; 0x40
 80042e4:	d019      	beq.n	800431a <HAL_UART_IRQHandler+0xc2>
 80042e6:	f7ff fe21 	bl	8003f2c <UART_EndRxTransfer>
 80042ea:	6823      	ldr	r3, [r4, #0]
 80042ec:	695a      	ldr	r2, [r3, #20]
 80042ee:	0652      	lsls	r2, r2, #25
 80042f0:	d50f      	bpl.n	8004312 <HAL_UART_IRQHandler+0xba>
 80042f2:	695a      	ldr	r2, [r3, #20]
 80042f4:	6b60      	ldr	r0, [r4, #52]	; 0x34
 80042f6:	f022 0240 	bic.w	r2, r2, #64	; 0x40
 80042fa:	615a      	str	r2, [r3, #20]
 80042fc:	b148      	cbz	r0, 8004312 <HAL_UART_IRQHandler+0xba>
 80042fe:	4b26      	ldr	r3, [pc, #152]	; (8004398 <HAL_UART_IRQHandler+0x140>)
 8004300:	6503      	str	r3, [r0, #80]	; 0x50
 8004302:	f7fe fd33 	bl	8002d6c <HAL_DMA_Abort_IT>
 8004306:	b138      	cbz	r0, 8004318 <HAL_UART_IRQHandler+0xc0>
 8004308:	6b60      	ldr	r0, [r4, #52]	; 0x34
 800430a:	e8bd 4070 	ldmia.w	sp!, {r4, r5, r6, lr}
 800430e:	6d03      	ldr	r3, [r0, #80]	; 0x50
 8004310:	4718      	bx	r3
 8004312:	4620      	mov	r0, r4
 8004314:	f7ff ff9e 	bl	8004254 <HAL_UART_ErrorCallback>
 8004318:	bd70      	pop	{r4, r5, r6, pc}
 800431a:	f7ff ff9b 	bl	8004254 <HAL_UART_ErrorCallback>
 800431e:	63e5      	str	r5, [r4, #60]	; 0x3c
 8004320:	e7fa      	b.n	8004318 <HAL_UART_IRQHandler+0xc0>
 8004322:	0616      	lsls	r6, r2, #24
 8004324:	d528      	bpl.n	8004378 <HAL_UART_IRQHandler+0x120>
 8004326:	060d      	lsls	r5, r1, #24
 8004328:	d526      	bpl.n	8004378 <HAL_UART_IRQHandler+0x120>
 800432a:	f894 2039 	ldrb.w	r2, [r4, #57]	; 0x39
 800432e:	2a21      	cmp	r2, #33	; 0x21
 8004330:	d1f2      	bne.n	8004318 <HAL_UART_IRQHandler+0xc0>
 8004332:	68a1      	ldr	r1, [r4, #8]
 8004334:	6a22      	ldr	r2, [r4, #32]
 8004336:	f5b1 5f80 	cmp.w	r1, #4096	; 0x1000
 800433a:	d118      	bne.n	800436e <HAL_UART_IRQHandler+0x116>
 800433c:	8811      	ldrh	r1, [r2, #0]
 800433e:	f3c1 0108 	ubfx	r1, r1, #0, #9
 8004342:	6059      	str	r1, [r3, #4]
 8004344:	6921      	ldr	r1, [r4, #16]
 8004346:	b981      	cbnz	r1, 800436a <HAL_UART_IRQHandler+0x112>
 8004348:	3202      	adds	r2, #2
 800434a:	6222      	str	r2, [r4, #32]
 800434c:	8ce2      	ldrh	r2, [r4, #38]	; 0x26
 800434e:	3a01      	subs	r2, #1
 8004350:	b292      	uxth	r2, r2
 8004352:	84e2      	strh	r2, [r4, #38]	; 0x26
 8004354:	2a00      	cmp	r2, #0
 8004356:	d1df      	bne.n	8004318 <HAL_UART_IRQHandler+0xc0>
 8004358:	68da      	ldr	r2, [r3, #12]
 800435a:	f022 0280 	bic.w	r2, r2, #128	; 0x80
 800435e:	60da      	str	r2, [r3, #12]
 8004360:	68da      	ldr	r2, [r3, #12]
 8004362:	f042 0240 	orr.w	r2, r2, #64	; 0x40
 8004366:	60da      	str	r2, [r3, #12]
 8004368:	e7d6      	b.n	8004318 <HAL_UART_IRQHandler+0xc0>
 800436a:	3201      	adds	r2, #1
 800436c:	e7ed      	b.n	800434a <HAL_UART_IRQHandler+0xf2>
 800436e:	1c51      	adds	r1, r2, #1
 8004370:	6221      	str	r1, [r4, #32]
 8004372:	7812      	ldrb	r2, [r2, #0]
 8004374:	605a      	str	r2, [r3, #4]
 8004376:	e7e9      	b.n	800434c <HAL_UART_IRQHandler+0xf4>
 8004378:	0650      	lsls	r0, r2, #25
 800437a:	d5cd      	bpl.n	8004318 <HAL_UART_IRQHandler+0xc0>
 800437c:	064a      	lsls	r2, r1, #25
 800437e:	d5cb      	bpl.n	8004318 <HAL_UART_IRQHandler+0xc0>
 8004380:	68da      	ldr	r2, [r3, #12]
 8004382:	f022 0240 	bic.w	r2, r2, #64	; 0x40
 8004386:	60da      	str	r2, [r3, #12]
 8004388:	2320      	movs	r3, #32
 800438a:	f884 3039 	strb.w	r3, [r4, #57]	; 0x39
 800438e:	4620      	mov	r0, r4
 8004390:	f7ff ff23 	bl	80041da <HAL_UART_TxCpltCallback>
 8004394:	e7c0      	b.n	8004318 <HAL_UART_IRQHandler+0xc0>
 8004396:	bf00      	nop
 8004398:	0800439d 	.word	0x0800439d

0800439c <UART_DMAAbortOnError>:
 800439c:	b508      	push	{r3, lr}
 800439e:	6b80      	ldr	r0, [r0, #56]	; 0x38
 80043a0:	2300      	movs	r3, #0
 80043a2:	85c3      	strh	r3, [r0, #46]	; 0x2e
 80043a4:	84c3      	strh	r3, [r0, #38]	; 0x26
 80043a6:	f7ff ff55 	bl	8004254 <HAL_UART_ErrorCallback>
 80043aa:	bd08      	pop	{r3, pc}

080043ac <fmod>:
 80043ac:	e92d 43f0 	stmdb	sp!, {r4, r5, r6, r7, r8, r9, lr}
 80043b0:	ed2d 8b02 	vpush	{d8}
 80043b4:	b08b      	sub	sp, #44	; 0x2c
 80043b6:	ec55 4b10 	vmov	r4, r5, d0
 80043ba:	ec57 6b11 	vmov	r6, r7, d1
 80043be:	f000 f859 	bl	8004474 <__ieee754_fmod>
 80043c2:	4b2a      	ldr	r3, [pc, #168]	; (800446c <fmod+0xc0>)
 80043c4:	eeb0 8a40 	vmov.f32	s16, s0
 80043c8:	eef0 8a60 	vmov.f32	s17, s1
 80043cc:	f993 8000 	ldrsb.w	r8, [r3]
 80043d0:	f1b8 3fff 	cmp.w	r8, #4294967295
 80043d4:	d030      	beq.n	8004438 <fmod+0x8c>
 80043d6:	4632      	mov	r2, r6
 80043d8:	463b      	mov	r3, r7
 80043da:	4630      	mov	r0, r6
 80043dc:	4639      	mov	r1, r7
 80043de:	f7fc fbc5 	bl	8000b6c <__aeabi_dcmpun>
 80043e2:	bb48      	cbnz	r0, 8004438 <fmod+0x8c>
 80043e4:	4622      	mov	r2, r4
 80043e6:	462b      	mov	r3, r5
 80043e8:	4620      	mov	r0, r4
 80043ea:	4629      	mov	r1, r5
 80043ec:	f7fc fbbe 	bl	8000b6c <__aeabi_dcmpun>
 80043f0:	4681      	mov	r9, r0
 80043f2:	bb08      	cbnz	r0, 8004438 <fmod+0x8c>
 80043f4:	2200      	movs	r2, #0
 80043f6:	2300      	movs	r3, #0
 80043f8:	4630      	mov	r0, r6
 80043fa:	4639      	mov	r1, r7
 80043fc:	f7fc fb84 	bl	8000b08 <__aeabi_dcmpeq>
 8004400:	b1d0      	cbz	r0, 8004438 <fmod+0x8c>
 8004402:	2301      	movs	r3, #1
 8004404:	9300      	str	r3, [sp, #0]
 8004406:	4b1a      	ldr	r3, [pc, #104]	; (8004470 <fmod+0xc4>)
 8004408:	9301      	str	r3, [sp, #4]
 800440a:	e9cd 4502 	strd	r4, r5, [sp, #8]
 800440e:	e9cd 6704 	strd	r6, r7, [sp, #16]
 8004412:	f8cd 9020 	str.w	r9, [sp, #32]
 8004416:	f1b8 0f00 	cmp.w	r8, #0
 800441a:	d116      	bne.n	800444a <fmod+0x9e>
 800441c:	e9cd 4506 	strd	r4, r5, [sp, #24]
 8004420:	4668      	mov	r0, sp
 8004422:	f000 f939 	bl	8004698 <matherr>
 8004426:	b1d8      	cbz	r0, 8004460 <fmod+0xb4>
 8004428:	9b08      	ldr	r3, [sp, #32]
 800442a:	b11b      	cbz	r3, 8004434 <fmod+0x88>
 800442c:	f000 f936 	bl	800469c <__errno>
 8004430:	9b08      	ldr	r3, [sp, #32]
 8004432:	6003      	str	r3, [r0, #0]
 8004434:	ed9d 8b06 	vldr	d8, [sp, #24]
 8004438:	eeb0 0a48 	vmov.f32	s0, s16
 800443c:	eef0 0a68 	vmov.f32	s1, s17
 8004440:	b00b      	add	sp, #44	; 0x2c
 8004442:	ecbd 8b02 	vpop	{d8}
 8004446:	e8bd 83f0 	ldmia.w	sp!, {r4, r5, r6, r7, r8, r9, pc}
 800444a:	2200      	movs	r2, #0
 800444c:	2300      	movs	r3, #0
 800444e:	4610      	mov	r0, r2
 8004450:	4619      	mov	r1, r3
 8004452:	f7fc fa1b 	bl	800088c <__aeabi_ddiv>
 8004456:	f1b8 0f02 	cmp.w	r8, #2
 800445a:	e9cd 0106 	strd	r0, r1, [sp, #24]
 800445e:	d1df      	bne.n	8004420 <fmod+0x74>
 8004460:	f000 f91c 	bl	800469c <__errno>
 8004464:	2321      	movs	r3, #33	; 0x21
 8004466:	6003      	str	r3, [r0, #0]
 8004468:	e7de      	b.n	8004428 <fmod+0x7c>
 800446a:	bf00      	nop
 800446c:	2000000c 	.word	0x2000000c
 8004470:	08008a4d 	.word	0x08008a4d

08004474 <__ieee754_fmod>:
 8004474:	e92d 43f8 	stmdb	sp!, {r3, r4, r5, r6, r7, r8, r9, lr}
 8004478:	ec53 2b11 	vmov	r2, r3, d1
 800447c:	f023 4e00 	bic.w	lr, r3, #2147483648	; 0x80000000
 8004480:	ea5e 0402 	orrs.w	r4, lr, r2
 8004484:	ec51 0b10 	vmov	r0, r1, d0
 8004488:	461e      	mov	r6, r3
 800448a:	ee11 5a10 	vmov	r5, s2
 800448e:	4694      	mov	ip, r2
 8004490:	d00c      	beq.n	80044ac <__ieee754_fmod+0x38>
 8004492:	4c7a      	ldr	r4, [pc, #488]	; (800467c <__ieee754_fmod+0x208>)
 8004494:	f021 4800 	bic.w	r8, r1, #2147483648	; 0x80000000
 8004498:	45a0      	cmp	r8, r4
 800449a:	4689      	mov	r9, r1
 800449c:	dc06      	bgt.n	80044ac <__ieee754_fmod+0x38>
 800449e:	4254      	negs	r4, r2
 80044a0:	4314      	orrs	r4, r2
 80044a2:	4f77      	ldr	r7, [pc, #476]	; (8004680 <__ieee754_fmod+0x20c>)
 80044a4:	ea4e 74d4 	orr.w	r4, lr, r4, lsr #31
 80044a8:	42bc      	cmp	r4, r7
 80044aa:	d909      	bls.n	80044c0 <__ieee754_fmod+0x4c>
 80044ac:	f7fc f8c4 	bl	8000638 <__aeabi_dmul>
 80044b0:	4602      	mov	r2, r0
 80044b2:	460b      	mov	r3, r1
 80044b4:	f7fc f9ea 	bl	800088c <__aeabi_ddiv>
 80044b8:	ec41 0b10 	vmov	d0, r0, r1
 80044bc:	e8bd 83f8 	ldmia.w	sp!, {r3, r4, r5, r6, r7, r8, r9, pc}
 80044c0:	45f0      	cmp	r8, lr
 80044c2:	ee10 2a10 	vmov	r2, s0
 80044c6:	4607      	mov	r7, r0
 80044c8:	f001 4400 	and.w	r4, r1, #2147483648	; 0x80000000
 80044cc:	dc0a      	bgt.n	80044e4 <__ieee754_fmod+0x70>
 80044ce:	dbf3      	blt.n	80044b8 <__ieee754_fmod+0x44>
 80044d0:	42a8      	cmp	r0, r5
 80044d2:	d3f1      	bcc.n	80044b8 <__ieee754_fmod+0x44>
 80044d4:	d106      	bne.n	80044e4 <__ieee754_fmod+0x70>
 80044d6:	496b      	ldr	r1, [pc, #428]	; (8004684 <__ieee754_fmod+0x210>)
 80044d8:	0fe4      	lsrs	r4, r4, #31
 80044da:	eb01 04c4 	add.w	r4, r1, r4, lsl #3
 80044de:	e9d4 0100 	ldrd	r0, r1, [r4]
 80044e2:	e7e9      	b.n	80044b8 <__ieee754_fmod+0x44>
 80044e4:	4b68      	ldr	r3, [pc, #416]	; (8004688 <__ieee754_fmod+0x214>)
 80044e6:	4598      	cmp	r8, r3
 80044e8:	dc49      	bgt.n	800457e <__ieee754_fmod+0x10a>
 80044ea:	f1b8 0f00 	cmp.w	r8, #0
 80044ee:	d13d      	bne.n	800456c <__ieee754_fmod+0xf8>
 80044f0:	4866      	ldr	r0, [pc, #408]	; (800468c <__ieee754_fmod+0x218>)
 80044f2:	4611      	mov	r1, r2
 80044f4:	2900      	cmp	r1, #0
 80044f6:	dc36      	bgt.n	8004566 <__ieee754_fmod+0xf2>
 80044f8:	459e      	cmp	lr, r3
 80044fa:	dc51      	bgt.n	80045a0 <__ieee754_fmod+0x12c>
 80044fc:	f1be 0f00 	cmp.w	lr, #0
 8004500:	d145      	bne.n	800458e <__ieee754_fmod+0x11a>
 8004502:	4b62      	ldr	r3, [pc, #392]	; (800468c <__ieee754_fmod+0x218>)
 8004504:	4629      	mov	r1, r5
 8004506:	2900      	cmp	r1, #0
 8004508:	dc3e      	bgt.n	8004588 <__ieee754_fmod+0x114>
 800450a:	4961      	ldr	r1, [pc, #388]	; (8004690 <__ieee754_fmod+0x21c>)
 800450c:	4288      	cmp	r0, r1
 800450e:	db4c      	blt.n	80045aa <__ieee754_fmod+0x136>
 8004510:	f3c9 0113 	ubfx	r1, r9, #0, #20
 8004514:	f441 1180 	orr.w	r1, r1, #1048576	; 0x100000
 8004518:	4a5d      	ldr	r2, [pc, #372]	; (8004690 <__ieee754_fmod+0x21c>)
 800451a:	4293      	cmp	r3, r2
 800451c:	db59      	blt.n	80045d2 <__ieee754_fmod+0x15e>
 800451e:	f3c6 0613 	ubfx	r6, r6, #0, #20
 8004522:	f446 1680 	orr.w	r6, r6, #1048576	; 0x100000
 8004526:	1ac0      	subs	r0, r0, r3
 8004528:	1b8a      	subs	r2, r1, r6
 800452a:	eba7 050c 	sub.w	r5, r7, ip
 800452e:	2800      	cmp	r0, #0
 8004530:	d166      	bne.n	8004600 <__ieee754_fmod+0x18c>
 8004532:	4567      	cmp	r7, ip
 8004534:	bf38      	it	cc
 8004536:	f102 32ff 	addcc.w	r2, r2, #4294967295
 800453a:	2a00      	cmp	r2, #0
 800453c:	bfbc      	itt	lt
 800453e:	463d      	movlt	r5, r7
 8004540:	460a      	movlt	r2, r1
 8004542:	ea52 0105 	orrs.w	r1, r2, r5
 8004546:	d0c6      	beq.n	80044d6 <__ieee754_fmod+0x62>
 8004548:	494f      	ldr	r1, [pc, #316]	; (8004688 <__ieee754_fmod+0x214>)
 800454a:	428a      	cmp	r2, r1
 800454c:	dd6d      	ble.n	800462a <__ieee754_fmod+0x1b6>
 800454e:	4950      	ldr	r1, [pc, #320]	; (8004690 <__ieee754_fmod+0x21c>)
 8004550:	428b      	cmp	r3, r1
 8004552:	db70      	blt.n	8004636 <__ieee754_fmod+0x1c2>
 8004554:	f5a2 1280 	sub.w	r2, r2, #1048576	; 0x100000
 8004558:	f203 33ff 	addw	r3, r3, #1023	; 0x3ff
 800455c:	4314      	orrs	r4, r2
 800455e:	ea44 5103 	orr.w	r1, r4, r3, lsl #20
 8004562:	4628      	mov	r0, r5
 8004564:	e7a8      	b.n	80044b8 <__ieee754_fmod+0x44>
 8004566:	3801      	subs	r0, #1
 8004568:	0049      	lsls	r1, r1, #1
 800456a:	e7c3      	b.n	80044f4 <__ieee754_fmod+0x80>
 800456c:	4848      	ldr	r0, [pc, #288]	; (8004690 <__ieee754_fmod+0x21c>)
 800456e:	ea4f 21c8 	mov.w	r1, r8, lsl #11
 8004572:	0049      	lsls	r1, r1, #1
 8004574:	2900      	cmp	r1, #0
 8004576:	f100 30ff 	add.w	r0, r0, #4294967295
 800457a:	dcfa      	bgt.n	8004572 <__ieee754_fmod+0xfe>
 800457c:	e7bc      	b.n	80044f8 <__ieee754_fmod+0x84>
 800457e:	ea4f 5028 	mov.w	r0, r8, asr #20
 8004582:	f2a0 30ff 	subw	r0, r0, #1023	; 0x3ff
 8004586:	e7b7      	b.n	80044f8 <__ieee754_fmod+0x84>
 8004588:	3b01      	subs	r3, #1
 800458a:	0049      	lsls	r1, r1, #1
 800458c:	e7bb      	b.n	8004506 <__ieee754_fmod+0x92>
 800458e:	4b40      	ldr	r3, [pc, #256]	; (8004690 <__ieee754_fmod+0x21c>)
 8004590:	ea4f 21ce 	mov.w	r1, lr, lsl #11
 8004594:	0049      	lsls	r1, r1, #1
 8004596:	2900      	cmp	r1, #0
 8004598:	f103 33ff 	add.w	r3, r3, #4294967295
 800459c:	dcfa      	bgt.n	8004594 <__ieee754_fmod+0x120>
 800459e:	e7b4      	b.n	800450a <__ieee754_fmod+0x96>
 80045a0:	ea4f 532e 	mov.w	r3, lr, asr #20
 80045a4:	f2a3 33ff 	subw	r3, r3, #1023	; 0x3ff
 80045a8:	e7af      	b.n	800450a <__ieee754_fmod+0x96>
 80045aa:	1a0f      	subs	r7, r1, r0
 80045ac:	2f1f      	cmp	r7, #31
 80045ae:	dc0a      	bgt.n	80045c6 <__ieee754_fmod+0x152>
 80045b0:	f200 411e 	addw	r1, r0, #1054	; 0x41e
 80045b4:	fa08 f807 	lsl.w	r8, r8, r7
 80045b8:	fa22 f101 	lsr.w	r1, r2, r1
 80045bc:	ea41 0108 	orr.w	r1, r1, r8
 80045c0:	fa02 f707 	lsl.w	r7, r2, r7
 80045c4:	e7a8      	b.n	8004518 <__ieee754_fmod+0xa4>
 80045c6:	4933      	ldr	r1, [pc, #204]	; (8004694 <__ieee754_fmod+0x220>)
 80045c8:	1a09      	subs	r1, r1, r0
 80045ca:	fa02 f101 	lsl.w	r1, r2, r1
 80045ce:	2700      	movs	r7, #0
 80045d0:	e7a2      	b.n	8004518 <__ieee754_fmod+0xa4>
 80045d2:	eba2 0c03 	sub.w	ip, r2, r3
 80045d6:	f1bc 0f1f 	cmp.w	ip, #31
 80045da:	dc0a      	bgt.n	80045f2 <__ieee754_fmod+0x17e>
 80045dc:	f203 461e 	addw	r6, r3, #1054	; 0x41e
 80045e0:	fa0e fe0c 	lsl.w	lr, lr, ip
 80045e4:	fa25 f606 	lsr.w	r6, r5, r6
 80045e8:	ea46 060e 	orr.w	r6, r6, lr
 80045ec:	fa05 fc0c 	lsl.w	ip, r5, ip
 80045f0:	e799      	b.n	8004526 <__ieee754_fmod+0xb2>
 80045f2:	4e28      	ldr	r6, [pc, #160]	; (8004694 <__ieee754_fmod+0x220>)
 80045f4:	1af6      	subs	r6, r6, r3
 80045f6:	fa05 f606 	lsl.w	r6, r5, r6
 80045fa:	f04f 0c00 	mov.w	ip, #0
 80045fe:	e792      	b.n	8004526 <__ieee754_fmod+0xb2>
 8004600:	4567      	cmp	r7, ip
 8004602:	bf38      	it	cc
 8004604:	f102 32ff 	addcc.w	r2, r2, #4294967295
 8004608:	2a00      	cmp	r2, #0
 800460a:	da05      	bge.n	8004618 <__ieee754_fmod+0x1a4>
 800460c:	0ffa      	lsrs	r2, r7, #31
 800460e:	eb02 0141 	add.w	r1, r2, r1, lsl #1
 8004612:	007f      	lsls	r7, r7, #1
 8004614:	3801      	subs	r0, #1
 8004616:	e787      	b.n	8004528 <__ieee754_fmod+0xb4>
 8004618:	ea52 0105 	orrs.w	r1, r2, r5
 800461c:	f43f af5b 	beq.w	80044d6 <__ieee754_fmod+0x62>
 8004620:	0fe9      	lsrs	r1, r5, #31
 8004622:	eb01 0142 	add.w	r1, r1, r2, lsl #1
 8004626:	006f      	lsls	r7, r5, #1
 8004628:	e7f4      	b.n	8004614 <__ieee754_fmod+0x1a0>
 800462a:	0fe8      	lsrs	r0, r5, #31
 800462c:	eb00 0242 	add.w	r2, r0, r2, lsl #1
 8004630:	006d      	lsls	r5, r5, #1
 8004632:	3b01      	subs	r3, #1
 8004634:	e789      	b.n	800454a <__ieee754_fmod+0xd6>
 8004636:	1ac9      	subs	r1, r1, r3
 8004638:	2914      	cmp	r1, #20
 800463a:	dc0a      	bgt.n	8004652 <__ieee754_fmod+0x1de>
 800463c:	f203 431e 	addw	r3, r3, #1054	; 0x41e
 8004640:	fa02 f303 	lsl.w	r3, r2, r3
 8004644:	40cd      	lsrs	r5, r1
 8004646:	432b      	orrs	r3, r5
 8004648:	410a      	asrs	r2, r1
 800464a:	ea42 0104 	orr.w	r1, r2, r4
 800464e:	4618      	mov	r0, r3
 8004650:	e732      	b.n	80044b8 <__ieee754_fmod+0x44>
 8004652:	291f      	cmp	r1, #31
 8004654:	dc07      	bgt.n	8004666 <__ieee754_fmod+0x1f2>
 8004656:	f203 431e 	addw	r3, r3, #1054	; 0x41e
 800465a:	40cd      	lsrs	r5, r1
 800465c:	fa02 f303 	lsl.w	r3, r2, r3
 8004660:	432b      	orrs	r3, r5
 8004662:	4622      	mov	r2, r4
 8004664:	e7f1      	b.n	800464a <__ieee754_fmod+0x1d6>
 8004666:	f1c3 437f 	rsb	r3, r3, #4278190080	; 0xff000000
 800466a:	f503 037f 	add.w	r3, r3, #16711680	; 0xff0000
 800466e:	f503 437b 	add.w	r3, r3, #64256	; 0xfb00
 8004672:	33e2      	adds	r3, #226	; 0xe2
 8004674:	fa42 f303 	asr.w	r3, r2, r3
 8004678:	e7f3      	b.n	8004662 <__ieee754_fmod+0x1ee>
 800467a:	bf00      	nop
 800467c:	7fefffff 	.word	0x7fefffff
 8004680:	7ff00000 	.word	0x7ff00000
 8004684:	08008a58 	.word	0x08008a58
 8004688:	000fffff 	.word	0x000fffff
 800468c:	fffffbed 	.word	0xfffffbed
 8004690:	fffffc02 	.word	0xfffffc02
 8004694:	fffffbe2 	.word	0xfffffbe2

08004698 <matherr>:
 8004698:	2000      	movs	r0, #0
 800469a:	4770      	bx	lr

0800469c <__errno>:
 800469c:	4b01      	ldr	r3, [pc, #4]	; (80046a4 <__errno+0x8>)
 800469e:	6818      	ldr	r0, [r3, #0]
 80046a0:	4770      	bx	lr
 80046a2:	bf00      	nop
 80046a4:	20000010 	.word	0x20000010

080046a8 <__libc_init_array>:
 80046a8:	b570      	push	{r4, r5, r6, lr}
 80046aa:	4e0d      	ldr	r6, [pc, #52]	; (80046e0 <__libc_init_array+0x38>)
 80046ac:	4c0d      	ldr	r4, [pc, #52]	; (80046e4 <__libc_init_array+0x3c>)
 80046ae:	1ba4      	subs	r4, r4, r6
 80046b0:	10a4      	asrs	r4, r4, #2
 80046b2:	2500      	movs	r5, #0
 80046b4:	42a5      	cmp	r5, r4
 80046b6:	d109      	bne.n	80046cc <__libc_init_array+0x24>
 80046b8:	4e0b      	ldr	r6, [pc, #44]	; (80046e8 <__libc_init_array+0x40>)
 80046ba:	4c0c      	ldr	r4, [pc, #48]	; (80046ec <__libc_init_array+0x44>)
 80046bc:	f003 ffe6 	bl	800868c <_init>
 80046c0:	1ba4      	subs	r4, r4, r6
 80046c2:	10a4      	asrs	r4, r4, #2
 80046c4:	2500      	movs	r5, #0
 80046c6:	42a5      	cmp	r5, r4
 80046c8:	d105      	bne.n	80046d6 <__libc_init_array+0x2e>
 80046ca:	bd70      	pop	{r4, r5, r6, pc}
 80046cc:	f856 3025 	ldr.w	r3, [r6, r5, lsl #2]
 80046d0:	4798      	blx	r3
 80046d2:	3501      	adds	r5, #1
 80046d4:	e7ee      	b.n	80046b4 <__libc_init_array+0xc>
 80046d6:	f856 3025 	ldr.w	r3, [r6, r5, lsl #2]
 80046da:	4798      	blx	r3
 80046dc:	3501      	adds	r5, #1
 80046de:	e7f2      	b.n	80046c6 <__libc_init_array+0x1e>
 80046e0:	08008ce0 	.word	0x08008ce0
 80046e4:	08008ce0 	.word	0x08008ce0
 80046e8:	08008ce0 	.word	0x08008ce0
 80046ec:	08008ce8 	.word	0x08008ce8

080046f0 <memcpy>:
 80046f0:	b510      	push	{r4, lr}
 80046f2:	1e43      	subs	r3, r0, #1
 80046f4:	440a      	add	r2, r1
 80046f6:	4291      	cmp	r1, r2
 80046f8:	d100      	bne.n	80046fc <memcpy+0xc>
 80046fa:	bd10      	pop	{r4, pc}
 80046fc:	f811 4b01 	ldrb.w	r4, [r1], #1
 8004700:	f803 4f01 	strb.w	r4, [r3, #1]!
 8004704:	e7f7      	b.n	80046f6 <memcpy+0x6>

08004706 <memmove>:
 8004706:	4288      	cmp	r0, r1
 8004708:	b510      	push	{r4, lr}
 800470a:	eb01 0302 	add.w	r3, r1, r2
 800470e:	d807      	bhi.n	8004720 <memmove+0x1a>
 8004710:	1e42      	subs	r2, r0, #1
 8004712:	4299      	cmp	r1, r3
 8004714:	d00a      	beq.n	800472c <memmove+0x26>
 8004716:	f811 4b01 	ldrb.w	r4, [r1], #1
 800471a:	f802 4f01 	strb.w	r4, [r2, #1]!
 800471e:	e7f8      	b.n	8004712 <memmove+0xc>
 8004720:	4283      	cmp	r3, r0
 8004722:	d9f5      	bls.n	8004710 <memmove+0xa>
 8004724:	1881      	adds	r1, r0, r2
 8004726:	1ad2      	subs	r2, r2, r3
 8004728:	42d3      	cmn	r3, r2
 800472a:	d100      	bne.n	800472e <memmove+0x28>
 800472c:	bd10      	pop	{r4, pc}
 800472e:	f813 4d01 	ldrb.w	r4, [r3, #-1]!
 8004732:	f801 4d01 	strb.w	r4, [r1, #-1]!
 8004736:	e7f7      	b.n	8004728 <memmove+0x22>

08004738 <memset>:
 8004738:	4402      	add	r2, r0
 800473a:	4603      	mov	r3, r0
 800473c:	4293      	cmp	r3, r2
 800473e:	d100      	bne.n	8004742 <memset+0xa>
 8004740:	4770      	bx	lr
 8004742:	f803 1b01 	strb.w	r1, [r3], #1
 8004746:	e7f9      	b.n	800473c <memset+0x4>

08004748 <printf>:
 8004748:	b40f      	push	{r0, r1, r2, r3}
 800474a:	b507      	push	{r0, r1, r2, lr}
 800474c:	4906      	ldr	r1, [pc, #24]	; (8004768 <printf+0x20>)
 800474e:	ab04      	add	r3, sp, #16
 8004750:	6808      	ldr	r0, [r1, #0]
 8004752:	f853 2b04 	ldr.w	r2, [r3], #4
 8004756:	6881      	ldr	r1, [r0, #8]
 8004758:	9301      	str	r3, [sp, #4]
 800475a:	f000 f855 	bl	8004808 <_vfprintf_r>
 800475e:	b003      	add	sp, #12
 8004760:	f85d eb04 	ldr.w	lr, [sp], #4
 8004764:	b004      	add	sp, #16
 8004766:	4770      	bx	lr
 8004768:	20000010 	.word	0x20000010

0800476c <_puts_r>:
 800476c:	b530      	push	{r4, r5, lr}
 800476e:	4605      	mov	r5, r0
 8004770:	b089      	sub	sp, #36	; 0x24
 8004772:	4608      	mov	r0, r1
 8004774:	460c      	mov	r4, r1
 8004776:	f7fb fd4b 	bl	8000210 <strlen>
 800477a:	4b1e      	ldr	r3, [pc, #120]	; (80047f4 <_puts_r+0x88>)
 800477c:	9306      	str	r3, [sp, #24]
 800477e:	2301      	movs	r3, #1
 8004780:	e9cd 4004 	strd	r4, r0, [sp, #16]
 8004784:	9307      	str	r3, [sp, #28]
 8004786:	4418      	add	r0, r3
 8004788:	ab04      	add	r3, sp, #16
 800478a:	9301      	str	r3, [sp, #4]
 800478c:	2302      	movs	r3, #2
 800478e:	9302      	str	r3, [sp, #8]
 8004790:	6bab      	ldr	r3, [r5, #56]	; 0x38
 8004792:	9003      	str	r0, [sp, #12]
 8004794:	68ac      	ldr	r4, [r5, #8]
 8004796:	b913      	cbnz	r3, 800479e <_puts_r+0x32>
 8004798:	4628      	mov	r0, r5
 800479a:	f002 fa7f 	bl	8006c9c <__sinit>
 800479e:	6e63      	ldr	r3, [r4, #100]	; 0x64
 80047a0:	07db      	lsls	r3, r3, #31
 80047a2:	d405      	bmi.n	80047b0 <_puts_r+0x44>
 80047a4:	89a3      	ldrh	r3, [r4, #12]
 80047a6:	0598      	lsls	r0, r3, #22
 80047a8:	d402      	bmi.n	80047b0 <_puts_r+0x44>
 80047aa:	6da0      	ldr	r0, [r4, #88]	; 0x58
 80047ac:	f002 fd3e 	bl	800722c <__retarget_lock_acquire_recursive>
 80047b0:	f9b4 300c 	ldrsh.w	r3, [r4, #12]
 80047b4:	0499      	lsls	r1, r3, #18
 80047b6:	d406      	bmi.n	80047c6 <_puts_r+0x5a>
 80047b8:	f443 5300 	orr.w	r3, r3, #8192	; 0x2000
 80047bc:	81a3      	strh	r3, [r4, #12]
 80047be:	6e63      	ldr	r3, [r4, #100]	; 0x64
 80047c0:	f423 5300 	bic.w	r3, r3, #8192	; 0x2000
 80047c4:	6663      	str	r3, [r4, #100]	; 0x64
 80047c6:	4628      	mov	r0, r5
 80047c8:	aa01      	add	r2, sp, #4
 80047ca:	4621      	mov	r1, r4
 80047cc:	f002 fbb2 	bl	8006f34 <__sfvwrite_r>
 80047d0:	6e63      	ldr	r3, [r4, #100]	; 0x64
 80047d2:	2800      	cmp	r0, #0
 80047d4:	bf0c      	ite	eq
 80047d6:	250a      	moveq	r5, #10
 80047d8:	f04f 35ff 	movne.w	r5, #4294967295
 80047dc:	07da      	lsls	r2, r3, #31
 80047de:	d405      	bmi.n	80047ec <_puts_r+0x80>
 80047e0:	89a3      	ldrh	r3, [r4, #12]
 80047e2:	059b      	lsls	r3, r3, #22
 80047e4:	d402      	bmi.n	80047ec <_puts_r+0x80>
 80047e6:	6da0      	ldr	r0, [r4, #88]	; 0x58
 80047e8:	f002 fd21 	bl	800722e <__retarget_lock_release_recursive>
 80047ec:	4628      	mov	r0, r5
 80047ee:	b009      	add	sp, #36	; 0x24
 80047f0:	bd30      	pop	{r4, r5, pc}
 80047f2:	bf00      	nop
 80047f4:	08008833 	.word	0x08008833

080047f8 <puts>:
 80047f8:	4b02      	ldr	r3, [pc, #8]	; (8004804 <puts+0xc>)
 80047fa:	4601      	mov	r1, r0
 80047fc:	6818      	ldr	r0, [r3, #0]
 80047fe:	f7ff bfb5 	b.w	800476c <_puts_r>
 8004802:	bf00      	nop
 8004804:	20000010 	.word	0x20000010

08004808 <_vfprintf_r>:
 8004808:	e92d 4ff0 	stmdb	sp!, {r4, r5, r6, r7, r8, r9, sl, fp, lr}
 800480c:	b0d3      	sub	sp, #332	; 0x14c
 800480e:	4688      	mov	r8, r1
 8004810:	4691      	mov	r9, r2
 8004812:	461c      	mov	r4, r3
 8004814:	461e      	mov	r6, r3
 8004816:	4683      	mov	fp, r0
 8004818:	f002 fcf8 	bl	800720c <_localeconv_r>
 800481c:	6803      	ldr	r3, [r0, #0]
 800481e:	9316      	str	r3, [sp, #88]	; 0x58
 8004820:	4618      	mov	r0, r3
 8004822:	f7fb fcf5 	bl	8000210 <strlen>
 8004826:	900d      	str	r0, [sp, #52]	; 0x34
 8004828:	f1bb 0f00 	cmp.w	fp, #0
 800482c:	d005      	beq.n	800483a <_vfprintf_r+0x32>
 800482e:	f8db 3038 	ldr.w	r3, [fp, #56]	; 0x38
 8004832:	b913      	cbnz	r3, 800483a <_vfprintf_r+0x32>
 8004834:	4658      	mov	r0, fp
 8004836:	f002 fa31 	bl	8006c9c <__sinit>
 800483a:	f8d8 3064 	ldr.w	r3, [r8, #100]	; 0x64
 800483e:	07d8      	lsls	r0, r3, #31
 8004840:	d407      	bmi.n	8004852 <_vfprintf_r+0x4a>
 8004842:	f8b8 300c 	ldrh.w	r3, [r8, #12]
 8004846:	0599      	lsls	r1, r3, #22
 8004848:	d403      	bmi.n	8004852 <_vfprintf_r+0x4a>
 800484a:	f8d8 0058 	ldr.w	r0, [r8, #88]	; 0x58
 800484e:	f002 fced 	bl	800722c <__retarget_lock_acquire_recursive>
 8004852:	f9b8 300c 	ldrsh.w	r3, [r8, #12]
 8004856:	049a      	lsls	r2, r3, #18
 8004858:	d409      	bmi.n	800486e <_vfprintf_r+0x66>
 800485a:	f443 5300 	orr.w	r3, r3, #8192	; 0x2000
 800485e:	f8a8 300c 	strh.w	r3, [r8, #12]
 8004862:	f8d8 3064 	ldr.w	r3, [r8, #100]	; 0x64
 8004866:	f423 5300 	bic.w	r3, r3, #8192	; 0x2000
 800486a:	f8c8 3064 	str.w	r3, [r8, #100]	; 0x64
 800486e:	f8b8 300c 	ldrh.w	r3, [r8, #12]
 8004872:	071f      	lsls	r7, r3, #28
 8004874:	d502      	bpl.n	800487c <_vfprintf_r+0x74>
 8004876:	f8d8 3010 	ldr.w	r3, [r8, #16]
 800487a:	b9a3      	cbnz	r3, 80048a6 <_vfprintf_r+0x9e>
 800487c:	4641      	mov	r1, r8
 800487e:	4658      	mov	r0, fp
 8004880:	f001 fa74 	bl	8005d6c <__swsetup_r>
 8004884:	b178      	cbz	r0, 80048a6 <_vfprintf_r+0x9e>
 8004886:	f8d8 3064 	ldr.w	r3, [r8, #100]	; 0x64
 800488a:	07dd      	lsls	r5, r3, #31
 800488c:	d407      	bmi.n	800489e <_vfprintf_r+0x96>
 800488e:	f8b8 300c 	ldrh.w	r3, [r8, #12]
 8004892:	059c      	lsls	r4, r3, #22
 8004894:	d403      	bmi.n	800489e <_vfprintf_r+0x96>
 8004896:	f8d8 0058 	ldr.w	r0, [r8, #88]	; 0x58
 800489a:	f002 fcc8 	bl	800722e <__retarget_lock_release_recursive>
 800489e:	f04f 33ff 	mov.w	r3, #4294967295
 80048a2:	930e      	str	r3, [sp, #56]	; 0x38
 80048a4:	e01a      	b.n	80048dc <_vfprintf_r+0xd4>
 80048a6:	f8b8 300c 	ldrh.w	r3, [r8, #12]
 80048aa:	f003 021a 	and.w	r2, r3, #26
 80048ae:	2a0a      	cmp	r2, #10
 80048b0:	d118      	bne.n	80048e4 <_vfprintf_r+0xdc>
 80048b2:	f9b8 200e 	ldrsh.w	r2, [r8, #14]
 80048b6:	2a00      	cmp	r2, #0
 80048b8:	db14      	blt.n	80048e4 <_vfprintf_r+0xdc>
 80048ba:	f8d8 2064 	ldr.w	r2, [r8, #100]	; 0x64
 80048be:	07d0      	lsls	r0, r2, #31
 80048c0:	d405      	bmi.n	80048ce <_vfprintf_r+0xc6>
 80048c2:	0599      	lsls	r1, r3, #22
 80048c4:	d403      	bmi.n	80048ce <_vfprintf_r+0xc6>
 80048c6:	f8d8 0058 	ldr.w	r0, [r8, #88]	; 0x58
 80048ca:	f002 fcb0 	bl	800722e <__retarget_lock_release_recursive>
 80048ce:	4623      	mov	r3, r4
 80048d0:	464a      	mov	r2, r9
 80048d2:	4641      	mov	r1, r8
 80048d4:	4658      	mov	r0, fp
 80048d6:	f001 fa09 	bl	8005cec <__sbprintf>
 80048da:	900e      	str	r0, [sp, #56]	; 0x38
 80048dc:	980e      	ldr	r0, [sp, #56]	; 0x38
 80048de:	b053      	add	sp, #332	; 0x14c
 80048e0:	e8bd 8ff0 	ldmia.w	sp!, {r4, r5, r6, r7, r8, r9, sl, fp, pc}
 80048e4:	ed9f 7bc8 	vldr	d7, [pc, #800]	; 8004c08 <_vfprintf_r+0x400>
 80048e8:	2300      	movs	r3, #0
 80048ea:	e9cd 3327 	strd	r3, r3, [sp, #156]	; 0x9c
 80048ee:	ed8d 7b0a 	vstr	d7, [sp, #40]	; 0x28
 80048f2:	e9cd 3317 	strd	r3, r3, [sp, #92]	; 0x5c
 80048f6:	ac29      	add	r4, sp, #164	; 0xa4
 80048f8:	9426      	str	r4, [sp, #152]	; 0x98
 80048fa:	9304      	str	r3, [sp, #16]
 80048fc:	9308      	str	r3, [sp, #32]
 80048fe:	9312      	str	r3, [sp, #72]	; 0x48
 8004900:	9319      	str	r3, [sp, #100]	; 0x64
 8004902:	930e      	str	r3, [sp, #56]	; 0x38
 8004904:	464d      	mov	r5, r9
 8004906:	462b      	mov	r3, r5
 8004908:	f813 2b01 	ldrb.w	r2, [r3], #1
 800490c:	b112      	cbz	r2, 8004914 <_vfprintf_r+0x10c>
 800490e:	2a25      	cmp	r2, #37	; 0x25
 8004910:	f040 80e4 	bne.w	8004adc <_vfprintf_r+0x2d4>
 8004914:	ebb5 0709 	subs.w	r7, r5, r9
 8004918:	d00e      	beq.n	8004938 <_vfprintf_r+0x130>
 800491a:	9b28      	ldr	r3, [sp, #160]	; 0xa0
 800491c:	443b      	add	r3, r7
 800491e:	9328      	str	r3, [sp, #160]	; 0xa0
 8004920:	9b27      	ldr	r3, [sp, #156]	; 0x9c
 8004922:	3301      	adds	r3, #1
 8004924:	2b07      	cmp	r3, #7
 8004926:	e9c4 9700 	strd	r9, r7, [r4]
 800492a:	9327      	str	r3, [sp, #156]	; 0x9c
 800492c:	f300 80d8 	bgt.w	8004ae0 <_vfprintf_r+0x2d8>
 8004930:	3408      	adds	r4, #8
 8004932:	9b0e      	ldr	r3, [sp, #56]	; 0x38
 8004934:	443b      	add	r3, r7
 8004936:	930e      	str	r3, [sp, #56]	; 0x38
 8004938:	782b      	ldrb	r3, [r5, #0]
 800493a:	2b00      	cmp	r3, #0
 800493c:	f001 81c2 	beq.w	8005cc4 <_vfprintf_r+0x14bc>
 8004940:	1c6b      	adds	r3, r5, #1
 8004942:	930c      	str	r3, [sp, #48]	; 0x30
 8004944:	2300      	movs	r3, #0
 8004946:	f88d 307b 	strb.w	r3, [sp, #123]	; 0x7b
 800494a:	f04f 35ff 	mov.w	r5, #4294967295
 800494e:	930f      	str	r3, [sp, #60]	; 0x3c
 8004950:	469a      	mov	sl, r3
 8004952:	270a      	movs	r7, #10
 8004954:	9b0c      	ldr	r3, [sp, #48]	; 0x30
 8004956:	781b      	ldrb	r3, [r3, #0]
 8004958:	9306      	str	r3, [sp, #24]
 800495a:	9b0c      	ldr	r3, [sp, #48]	; 0x30
 800495c:	3301      	adds	r3, #1
 800495e:	930c      	str	r3, [sp, #48]	; 0x30
 8004960:	9b06      	ldr	r3, [sp, #24]
 8004962:	3b20      	subs	r3, #32
 8004964:	2b5a      	cmp	r3, #90	; 0x5a
 8004966:	f200 862f 	bhi.w	80055c8 <_vfprintf_r+0xdc0>
 800496a:	a201      	add	r2, pc, #4	; (adr r2, 8004970 <_vfprintf_r+0x168>)
 800496c:	f852 f023 	ldr.w	pc, [r2, r3, lsl #2]
 8004970:	08004b73 	.word	0x08004b73
 8004974:	080055c9 	.word	0x080055c9
 8004978:	080055c9 	.word	0x080055c9
 800497c:	08004b85 	.word	0x08004b85
 8004980:	080055c9 	.word	0x080055c9
 8004984:	080055c9 	.word	0x080055c9
 8004988:	080055c9 	.word	0x080055c9
 800498c:	08004b39 	.word	0x08004b39
 8004990:	080055c9 	.word	0x080055c9
 8004994:	080055c9 	.word	0x080055c9
 8004998:	08004b8b 	.word	0x08004b8b
 800499c:	08004ba3 	.word	0x08004ba3
 80049a0:	080055c9 	.word	0x080055c9
 80049a4:	08004b9d 	.word	0x08004b9d
 80049a8:	08004ba7 	.word	0x08004ba7
 80049ac:	080055c9 	.word	0x080055c9
 80049b0:	08004bdb 	.word	0x08004bdb
 80049b4:	08004be1 	.word	0x08004be1
 80049b8:	08004be1 	.word	0x08004be1
 80049bc:	08004be1 	.word	0x08004be1
 80049c0:	08004be1 	.word	0x08004be1
 80049c4:	08004be1 	.word	0x08004be1
 80049c8:	08004be1 	.word	0x08004be1
 80049cc:	08004be1 	.word	0x08004be1
 80049d0:	08004be1 	.word	0x08004be1
 80049d4:	08004be1 	.word	0x08004be1
 80049d8:	080055c9 	.word	0x080055c9
 80049dc:	080055c9 	.word	0x080055c9
 80049e0:	080055c9 	.word	0x080055c9
 80049e4:	080055c9 	.word	0x080055c9
 80049e8:	080055c9 	.word	0x080055c9
 80049ec:	080055c9 	.word	0x080055c9
 80049f0:	080055c9 	.word	0x080055c9
 80049f4:	08004cdf 	.word	0x08004cdf
 80049f8:	080055c9 	.word	0x080055c9
 80049fc:	08004c49 	.word	0x08004c49
 8004a00:	08004c6b 	.word	0x08004c6b
 8004a04:	08004cdf 	.word	0x08004cdf
 8004a08:	08004cdf 	.word	0x08004cdf
 8004a0c:	08004cdf 	.word	0x08004cdf
 8004a10:	080055c9 	.word	0x080055c9
 8004a14:	080055c9 	.word	0x080055c9
 8004a18:	080055c9 	.word	0x080055c9
 8004a1c:	080055c9 	.word	0x080055c9
 8004a20:	08004c01 	.word	0x08004c01
 8004a24:	080055c9 	.word	0x080055c9
 8004a28:	080055c9 	.word	0x080055c9
 8004a2c:	080051c5 	.word	0x080051c5
 8004a30:	080055c9 	.word	0x080055c9
 8004a34:	080055c9 	.word	0x080055c9
 8004a38:	080055c9 	.word	0x080055c9
 8004a3c:	08005251 	.word	0x08005251
 8004a40:	080055c9 	.word	0x080055c9
 8004a44:	08005435 	.word	0x08005435
 8004a48:	080055c9 	.word	0x080055c9
 8004a4c:	080055c9 	.word	0x080055c9
 8004a50:	08004af9 	.word	0x08004af9
 8004a54:	080055c9 	.word	0x080055c9
 8004a58:	080055c9 	.word	0x080055c9
 8004a5c:	080055c9 	.word	0x080055c9
 8004a60:	080055c9 	.word	0x080055c9
 8004a64:	080055c9 	.word	0x080055c9
 8004a68:	080055c9 	.word	0x080055c9
 8004a6c:	080055c9 	.word	0x080055c9
 8004a70:	080055c9 	.word	0x080055c9
 8004a74:	08004cdf 	.word	0x08004cdf
 8004a78:	080055c9 	.word	0x080055c9
 8004a7c:	08004c49 	.word	0x08004c49
 8004a80:	08004c6f 	.word	0x08004c6f
 8004a84:	08004cdf 	.word	0x08004cdf
 8004a88:	08004cdf 	.word	0x08004cdf
 8004a8c:	08004cdf 	.word	0x08004cdf
 8004a90:	08004c15 	.word	0x08004c15
 8004a94:	08004c6f 	.word	0x08004c6f
 8004a98:	08004c3d 	.word	0x08004c3d
 8004a9c:	080055c9 	.word	0x080055c9
 8004aa0:	08004c2f 	.word	0x08004c2f
 8004aa4:	080055c9 	.word	0x080055c9
 8004aa8:	0800517f 	.word	0x0800517f
 8004aac:	080051c9 	.word	0x080051c9
 8004ab0:	08005231 	.word	0x08005231
 8004ab4:	08004c3d 	.word	0x08004c3d
 8004ab8:	080055c9 	.word	0x080055c9
 8004abc:	08005251 	.word	0x08005251
 8004ac0:	08004955 	.word	0x08004955
 8004ac4:	08005439 	.word	0x08005439
 8004ac8:	080055c9 	.word	0x080055c9
 8004acc:	080055c9 	.word	0x080055c9
 8004ad0:	08005477 	.word	0x08005477
 8004ad4:	080055c9 	.word	0x080055c9
 8004ad8:	08004955 	.word	0x08004955
 8004adc:	461d      	mov	r5, r3
 8004ade:	e712      	b.n	8004906 <_vfprintf_r+0xfe>
 8004ae0:	aa26      	add	r2, sp, #152	; 0x98
 8004ae2:	4641      	mov	r1, r8
 8004ae4:	4658      	mov	r0, fp
 8004ae6:	f003 fb54 	bl	8008192 <__sprint_r>
 8004aea:	2800      	cmp	r0, #0
 8004aec:	f040 8161 	bne.w	8004db2 <_vfprintf_r+0x5aa>
 8004af0:	ac29      	add	r4, sp, #164	; 0xa4
 8004af2:	e71e      	b.n	8004932 <_vfprintf_r+0x12a>
 8004af4:	461e      	mov	r6, r3
 8004af6:	e72d      	b.n	8004954 <_vfprintf_r+0x14c>
 8004af8:	4b45      	ldr	r3, [pc, #276]	; (8004c10 <_vfprintf_r+0x408>)
 8004afa:	9318      	str	r3, [sp, #96]	; 0x60
 8004afc:	f01a 0f20 	tst.w	sl, #32
 8004b00:	f000 84bc 	beq.w	800547c <_vfprintf_r+0xc74>
 8004b04:	3607      	adds	r6, #7
 8004b06:	f026 0607 	bic.w	r6, r6, #7
 8004b0a:	f106 0308 	add.w	r3, r6, #8
 8004b0e:	e9d6 6700 	ldrd	r6, r7, [r6]
 8004b12:	9309      	str	r3, [sp, #36]	; 0x24
 8004b14:	f01a 0f01 	tst.w	sl, #1
 8004b18:	d00a      	beq.n	8004b30 <_vfprintf_r+0x328>
 8004b1a:	ea56 0307 	orrs.w	r3, r6, r7
 8004b1e:	d007      	beq.n	8004b30 <_vfprintf_r+0x328>
 8004b20:	2330      	movs	r3, #48	; 0x30
 8004b22:	f88d 307c 	strb.w	r3, [sp, #124]	; 0x7c
 8004b26:	9b06      	ldr	r3, [sp, #24]
 8004b28:	f88d 307d 	strb.w	r3, [sp, #125]	; 0x7d
 8004b2c:	f04a 0a02 	orr.w	sl, sl, #2
 8004b30:	f42a 6a80 	bic.w	sl, sl, #1024	; 0x400
 8004b34:	2302      	movs	r3, #2
 8004b36:	e355      	b.n	80051e4 <_vfprintf_r+0x9dc>
 8004b38:	4658      	mov	r0, fp
 8004b3a:	f002 fb67 	bl	800720c <_localeconv_r>
 8004b3e:	6843      	ldr	r3, [r0, #4]
 8004b40:	9319      	str	r3, [sp, #100]	; 0x64
 8004b42:	4618      	mov	r0, r3
 8004b44:	f7fb fb64 	bl	8000210 <strlen>
 8004b48:	9012      	str	r0, [sp, #72]	; 0x48
 8004b4a:	4658      	mov	r0, fp
 8004b4c:	f002 fb5e 	bl	800720c <_localeconv_r>
 8004b50:	6883      	ldr	r3, [r0, #8]
 8004b52:	9308      	str	r3, [sp, #32]
 8004b54:	9b12      	ldr	r3, [sp, #72]	; 0x48
 8004b56:	2b00      	cmp	r3, #0
 8004b58:	f43f aefc 	beq.w	8004954 <_vfprintf_r+0x14c>
 8004b5c:	9b08      	ldr	r3, [sp, #32]
 8004b5e:	2b00      	cmp	r3, #0
 8004b60:	f43f aef8 	beq.w	8004954 <_vfprintf_r+0x14c>
 8004b64:	781b      	ldrb	r3, [r3, #0]
 8004b66:	2b00      	cmp	r3, #0
 8004b68:	f43f aef4 	beq.w	8004954 <_vfprintf_r+0x14c>
 8004b6c:	f44a 6a80 	orr.w	sl, sl, #1024	; 0x400
 8004b70:	e6f0      	b.n	8004954 <_vfprintf_r+0x14c>
 8004b72:	f89d 307b 	ldrb.w	r3, [sp, #123]	; 0x7b
 8004b76:	2b00      	cmp	r3, #0
 8004b78:	f47f aeec 	bne.w	8004954 <_vfprintf_r+0x14c>
 8004b7c:	2320      	movs	r3, #32
 8004b7e:	f88d 307b 	strb.w	r3, [sp, #123]	; 0x7b
 8004b82:	e6e7      	b.n	8004954 <_vfprintf_r+0x14c>
 8004b84:	f04a 0a01 	orr.w	sl, sl, #1
 8004b88:	e6e4      	b.n	8004954 <_vfprintf_r+0x14c>
 8004b8a:	6832      	ldr	r2, [r6, #0]
 8004b8c:	920f      	str	r2, [sp, #60]	; 0x3c
 8004b8e:	2a00      	cmp	r2, #0
 8004b90:	f106 0304 	add.w	r3, r6, #4
 8004b94:	daae      	bge.n	8004af4 <_vfprintf_r+0x2ec>
 8004b96:	4252      	negs	r2, r2
 8004b98:	920f      	str	r2, [sp, #60]	; 0x3c
 8004b9a:	461e      	mov	r6, r3
 8004b9c:	f04a 0a04 	orr.w	sl, sl, #4
 8004ba0:	e6d8      	b.n	8004954 <_vfprintf_r+0x14c>
 8004ba2:	232b      	movs	r3, #43	; 0x2b
 8004ba4:	e7eb      	b.n	8004b7e <_vfprintf_r+0x376>
 8004ba6:	9a0c      	ldr	r2, [sp, #48]	; 0x30
 8004ba8:	9b0c      	ldr	r3, [sp, #48]	; 0x30
 8004baa:	7812      	ldrb	r2, [r2, #0]
 8004bac:	9206      	str	r2, [sp, #24]
 8004bae:	2a2a      	cmp	r2, #42	; 0x2a
 8004bb0:	f103 0301 	add.w	r3, r3, #1
 8004bb4:	d10f      	bne.n	8004bd6 <_vfprintf_r+0x3ce>
 8004bb6:	6835      	ldr	r5, [r6, #0]
 8004bb8:	930c      	str	r3, [sp, #48]	; 0x30
 8004bba:	ea45 75e5 	orr.w	r5, r5, r5, asr #31
 8004bbe:	3604      	adds	r6, #4
 8004bc0:	e6c8      	b.n	8004954 <_vfprintf_r+0x14c>
 8004bc2:	fb07 2505 	mla	r5, r7, r5, r2
 8004bc6:	f813 2b01 	ldrb.w	r2, [r3], #1
 8004bca:	9206      	str	r2, [sp, #24]
 8004bcc:	9a06      	ldr	r2, [sp, #24]
 8004bce:	3a30      	subs	r2, #48	; 0x30
 8004bd0:	2a09      	cmp	r2, #9
 8004bd2:	d9f6      	bls.n	8004bc2 <_vfprintf_r+0x3ba>
 8004bd4:	e6c3      	b.n	800495e <_vfprintf_r+0x156>
 8004bd6:	2500      	movs	r5, #0
 8004bd8:	e7f8      	b.n	8004bcc <_vfprintf_r+0x3c4>
 8004bda:	f04a 0a80 	orr.w	sl, sl, #128	; 0x80
 8004bde:	e6b9      	b.n	8004954 <_vfprintf_r+0x14c>
 8004be0:	2200      	movs	r2, #0
 8004be2:	9b0c      	ldr	r3, [sp, #48]	; 0x30
 8004be4:	920f      	str	r2, [sp, #60]	; 0x3c
 8004be6:	9a06      	ldr	r2, [sp, #24]
 8004be8:	990f      	ldr	r1, [sp, #60]	; 0x3c
 8004bea:	3a30      	subs	r2, #48	; 0x30
 8004bec:	fb07 2201 	mla	r2, r7, r1, r2
 8004bf0:	920f      	str	r2, [sp, #60]	; 0x3c
 8004bf2:	f813 2b01 	ldrb.w	r2, [r3], #1
 8004bf6:	9206      	str	r2, [sp, #24]
 8004bf8:	3a30      	subs	r2, #48	; 0x30
 8004bfa:	2a09      	cmp	r2, #9
 8004bfc:	d9f3      	bls.n	8004be6 <_vfprintf_r+0x3de>
 8004bfe:	e6ae      	b.n	800495e <_vfprintf_r+0x156>
 8004c00:	f04a 0a08 	orr.w	sl, sl, #8
 8004c04:	e6a6      	b.n	8004954 <_vfprintf_r+0x14c>
 8004c06:	bf00      	nop
	...
 8004c10:	08008a8d 	.word	0x08008a8d
 8004c14:	9b0c      	ldr	r3, [sp, #48]	; 0x30
 8004c16:	781b      	ldrb	r3, [r3, #0]
 8004c18:	2b68      	cmp	r3, #104	; 0x68
 8004c1a:	bf01      	itttt	eq
 8004c1c:	9b0c      	ldreq	r3, [sp, #48]	; 0x30
 8004c1e:	3301      	addeq	r3, #1
 8004c20:	930c      	streq	r3, [sp, #48]	; 0x30
 8004c22:	f44a 7a00 	orreq.w	sl, sl, #512	; 0x200
 8004c26:	bf18      	it	ne
 8004c28:	f04a 0a40 	orrne.w	sl, sl, #64	; 0x40
 8004c2c:	e692      	b.n	8004954 <_vfprintf_r+0x14c>
 8004c2e:	9b0c      	ldr	r3, [sp, #48]	; 0x30
 8004c30:	781b      	ldrb	r3, [r3, #0]
 8004c32:	2b6c      	cmp	r3, #108	; 0x6c
 8004c34:	d105      	bne.n	8004c42 <_vfprintf_r+0x43a>
 8004c36:	9b0c      	ldr	r3, [sp, #48]	; 0x30
 8004c38:	3301      	adds	r3, #1
 8004c3a:	930c      	str	r3, [sp, #48]	; 0x30
 8004c3c:	f04a 0a20 	orr.w	sl, sl, #32
 8004c40:	e688      	b.n	8004954 <_vfprintf_r+0x14c>
 8004c42:	f04a 0a10 	orr.w	sl, sl, #16
 8004c46:	e685      	b.n	8004954 <_vfprintf_r+0x14c>
 8004c48:	1d33      	adds	r3, r6, #4
 8004c4a:	9309      	str	r3, [sp, #36]	; 0x24
 8004c4c:	2000      	movs	r0, #0
 8004c4e:	6833      	ldr	r3, [r6, #0]
 8004c50:	f88d 30e4 	strb.w	r3, [sp, #228]	; 0xe4
 8004c54:	f88d 007b 	strb.w	r0, [sp, #123]	; 0x7b
 8004c58:	9003      	str	r0, [sp, #12]
 8004c5a:	2501      	movs	r5, #1
 8004c5c:	9010      	str	r0, [sp, #64]	; 0x40
 8004c5e:	4607      	mov	r7, r0
 8004c60:	9007      	str	r0, [sp, #28]
 8004c62:	4606      	mov	r6, r0
 8004c64:	f10d 09e4 	add.w	r9, sp, #228	; 0xe4
 8004c68:	e30b      	b.n	8005282 <_vfprintf_r+0xa7a>
 8004c6a:	f04a 0a10 	orr.w	sl, sl, #16
 8004c6e:	f01a 0f20 	tst.w	sl, #32
 8004c72:	d021      	beq.n	8004cb8 <_vfprintf_r+0x4b0>
 8004c74:	3607      	adds	r6, #7
 8004c76:	f026 0607 	bic.w	r6, r6, #7
 8004c7a:	f106 0308 	add.w	r3, r6, #8
 8004c7e:	e9d6 6700 	ldrd	r6, r7, [r6]
 8004c82:	9309      	str	r3, [sp, #36]	; 0x24
 8004c84:	2e00      	cmp	r6, #0
 8004c86:	f177 0300 	sbcs.w	r3, r7, #0
 8004c8a:	da06      	bge.n	8004c9a <_vfprintf_r+0x492>
 8004c8c:	4276      	negs	r6, r6
 8004c8e:	f04f 032d 	mov.w	r3, #45	; 0x2d
 8004c92:	eb67 0747 	sbc.w	r7, r7, r7, lsl #1
 8004c96:	f88d 307b 	strb.w	r3, [sp, #123]	; 0x7b
 8004c9a:	1c6b      	adds	r3, r5, #1
 8004c9c:	f040 8401 	bne.w	80054a2 <_vfprintf_r+0xc9a>
 8004ca0:	2f00      	cmp	r7, #0
 8004ca2:	bf08      	it	eq
 8004ca4:	2e0a      	cmpeq	r6, #10
 8004ca6:	f080 8431 	bcs.w	800550c <_vfprintf_r+0xd04>
 8004caa:	f50d 79a4 	add.w	r9, sp, #328	; 0x148
 8004cae:	3630      	adds	r6, #48	; 0x30
 8004cb0:	f809 6d01 	strb.w	r6, [r9, #-1]!
 8004cb4:	f000 bc18 	b.w	80054e8 <_vfprintf_r+0xce0>
 8004cb8:	1d33      	adds	r3, r6, #4
 8004cba:	f01a 0f10 	tst.w	sl, #16
 8004cbe:	9309      	str	r3, [sp, #36]	; 0x24
 8004cc0:	d002      	beq.n	8004cc8 <_vfprintf_r+0x4c0>
 8004cc2:	6836      	ldr	r6, [r6, #0]
 8004cc4:	17f7      	asrs	r7, r6, #31
 8004cc6:	e7dd      	b.n	8004c84 <_vfprintf_r+0x47c>
 8004cc8:	f01a 0f40 	tst.w	sl, #64	; 0x40
 8004ccc:	6836      	ldr	r6, [r6, #0]
 8004cce:	d001      	beq.n	8004cd4 <_vfprintf_r+0x4cc>
 8004cd0:	b236      	sxth	r6, r6
 8004cd2:	e7f7      	b.n	8004cc4 <_vfprintf_r+0x4bc>
 8004cd4:	f41a 7f00 	tst.w	sl, #512	; 0x200
 8004cd8:	bf18      	it	ne
 8004cda:	b276      	sxtbne	r6, r6
 8004cdc:	e7f2      	b.n	8004cc4 <_vfprintf_r+0x4bc>
 8004cde:	3607      	adds	r6, #7
 8004ce0:	f026 0607 	bic.w	r6, r6, #7
 8004ce4:	ed96 7b00 	vldr	d7, [r6]
 8004ce8:	f106 0308 	add.w	r3, r6, #8
 8004cec:	ed8d 7b0a 	vstr	d7, [sp, #40]	; 0x28
 8004cf0:	9309      	str	r3, [sp, #36]	; 0x24
 8004cf2:	9b0a      	ldr	r3, [sp, #40]	; 0x28
 8004cf4:	931a      	str	r3, [sp, #104]	; 0x68
 8004cf6:	9b0b      	ldr	r3, [sp, #44]	; 0x2c
 8004cf8:	f023 4300 	bic.w	r3, r3, #2147483648	; 0x80000000
 8004cfc:	931b      	str	r3, [sp, #108]	; 0x6c
 8004cfe:	f04f 32ff 	mov.w	r2, #4294967295
 8004d02:	4bb0      	ldr	r3, [pc, #704]	; (8004fc4 <_vfprintf_r+0x7bc>)
 8004d04:	e9dd 011a 	ldrd	r0, r1, [sp, #104]	; 0x68
 8004d08:	f7fb ff30 	bl	8000b6c <__aeabi_dcmpun>
 8004d0c:	b9f8      	cbnz	r0, 8004d4e <_vfprintf_r+0x546>
 8004d0e:	f04f 32ff 	mov.w	r2, #4294967295
 8004d12:	4bac      	ldr	r3, [pc, #688]	; (8004fc4 <_vfprintf_r+0x7bc>)
 8004d14:	e9dd 011a 	ldrd	r0, r1, [sp, #104]	; 0x68
 8004d18:	f7fb ff0a 	bl	8000b30 <__aeabi_dcmple>
 8004d1c:	b9b8      	cbnz	r0, 8004d4e <_vfprintf_r+0x546>
 8004d1e:	2200      	movs	r2, #0
 8004d20:	2300      	movs	r3, #0
 8004d22:	e9dd 010a 	ldrd	r0, r1, [sp, #40]	; 0x28
 8004d26:	f7fb fef9 	bl	8000b1c <__aeabi_dcmplt>
 8004d2a:	b110      	cbz	r0, 8004d32 <_vfprintf_r+0x52a>
 8004d2c:	232d      	movs	r3, #45	; 0x2d
 8004d2e:	f88d 307b 	strb.w	r3, [sp, #123]	; 0x7b
 8004d32:	4aa5      	ldr	r2, [pc, #660]	; (8004fc8 <_vfprintf_r+0x7c0>)
 8004d34:	4ba5      	ldr	r3, [pc, #660]	; (8004fcc <_vfprintf_r+0x7c4>)
 8004d36:	9906      	ldr	r1, [sp, #24]
 8004d38:	2947      	cmp	r1, #71	; 0x47
 8004d3a:	bfcc      	ite	gt
 8004d3c:	4691      	movgt	r9, r2
 8004d3e:	4699      	movle	r9, r3
 8004d40:	2300      	movs	r3, #0
 8004d42:	f02a 0a80 	bic.w	sl, sl, #128	; 0x80
 8004d46:	9303      	str	r3, [sp, #12]
 8004d48:	2503      	movs	r5, #3
 8004d4a:	9310      	str	r3, [sp, #64]	; 0x40
 8004d4c:	e3d2      	b.n	80054f4 <_vfprintf_r+0xcec>
 8004d4e:	e9dd 230a 	ldrd	r2, r3, [sp, #40]	; 0x28
 8004d52:	4610      	mov	r0, r2
 8004d54:	4619      	mov	r1, r3
 8004d56:	f7fb ff09 	bl	8000b6c <__aeabi_dcmpun>
 8004d5a:	b140      	cbz	r0, 8004d6e <_vfprintf_r+0x566>
 8004d5c:	9b0b      	ldr	r3, [sp, #44]	; 0x2c
 8004d5e:	4a9c      	ldr	r2, [pc, #624]	; (8004fd0 <_vfprintf_r+0x7c8>)
 8004d60:	2b00      	cmp	r3, #0
 8004d62:	bfbc      	itt	lt
 8004d64:	232d      	movlt	r3, #45	; 0x2d
 8004d66:	f88d 307b 	strblt.w	r3, [sp, #123]	; 0x7b
 8004d6a:	4b9a      	ldr	r3, [pc, #616]	; (8004fd4 <_vfprintf_r+0x7cc>)
 8004d6c:	e7e3      	b.n	8004d36 <_vfprintf_r+0x52e>
 8004d6e:	9b06      	ldr	r3, [sp, #24]
 8004d70:	f023 0320 	bic.w	r3, r3, #32
 8004d74:	2b41      	cmp	r3, #65	; 0x41
 8004d76:	9307      	str	r3, [sp, #28]
 8004d78:	d12d      	bne.n	8004dd6 <_vfprintf_r+0x5ce>
 8004d7a:	2330      	movs	r3, #48	; 0x30
 8004d7c:	f88d 307c 	strb.w	r3, [sp, #124]	; 0x7c
 8004d80:	9b06      	ldr	r3, [sp, #24]
 8004d82:	2b61      	cmp	r3, #97	; 0x61
 8004d84:	bf14      	ite	ne
 8004d86:	2358      	movne	r3, #88	; 0x58
 8004d88:	2378      	moveq	r3, #120	; 0x78
 8004d8a:	2d63      	cmp	r5, #99	; 0x63
 8004d8c:	f88d 307d 	strb.w	r3, [sp, #125]	; 0x7d
 8004d90:	f04a 0a02 	orr.w	sl, sl, #2
 8004d94:	dd2a      	ble.n	8004dec <_vfprintf_r+0x5e4>
 8004d96:	1c69      	adds	r1, r5, #1
 8004d98:	4658      	mov	r0, fp
 8004d9a:	f002 fab5 	bl	8007308 <_malloc_r>
 8004d9e:	4681      	mov	r9, r0
 8004da0:	2800      	cmp	r0, #0
 8004da2:	f040 8121 	bne.w	8004fe8 <_vfprintf_r+0x7e0>
 8004da6:	f8b8 300c 	ldrh.w	r3, [r8, #12]
 8004daa:	f043 0340 	orr.w	r3, r3, #64	; 0x40
 8004dae:	f8a8 300c 	strh.w	r3, [r8, #12]
 8004db2:	f8d8 3064 	ldr.w	r3, [r8, #100]	; 0x64
 8004db6:	07d8      	lsls	r0, r3, #31
 8004db8:	d407      	bmi.n	8004dca <_vfprintf_r+0x5c2>
 8004dba:	f8b8 300c 	ldrh.w	r3, [r8, #12]
 8004dbe:	0599      	lsls	r1, r3, #22
 8004dc0:	d403      	bmi.n	8004dca <_vfprintf_r+0x5c2>
 8004dc2:	f8d8 0058 	ldr.w	r0, [r8, #88]	; 0x58
 8004dc6:	f002 fa32 	bl	800722e <__retarget_lock_release_recursive>
 8004dca:	f8b8 300c 	ldrh.w	r3, [r8, #12]
 8004dce:	065a      	lsls	r2, r3, #25
 8004dd0:	f57f ad84 	bpl.w	80048dc <_vfprintf_r+0xd4>
 8004dd4:	e563      	b.n	800489e <_vfprintf_r+0x96>
 8004dd6:	1c6a      	adds	r2, r5, #1
 8004dd8:	f000 8108 	beq.w	8004fec <_vfprintf_r+0x7e4>
 8004ddc:	9b07      	ldr	r3, [sp, #28]
 8004dde:	2b47      	cmp	r3, #71	; 0x47
 8004de0:	d102      	bne.n	8004de8 <_vfprintf_r+0x5e0>
 8004de2:	2d00      	cmp	r5, #0
 8004de4:	f000 8105 	beq.w	8004ff2 <_vfprintf_r+0x7ea>
 8004de8:	9003      	str	r0, [sp, #12]
 8004dea:	e002      	b.n	8004df2 <_vfprintf_r+0x5ea>
 8004dec:	9003      	str	r0, [sp, #12]
 8004dee:	f10d 09e4 	add.w	r9, sp, #228	; 0xe4
 8004df2:	f44a 7380 	orr.w	r3, sl, #256	; 0x100
 8004df6:	9310      	str	r3, [sp, #64]	; 0x40
 8004df8:	9b0b      	ldr	r3, [sp, #44]	; 0x2c
 8004dfa:	2b00      	cmp	r3, #0
 8004dfc:	f280 80fc 	bge.w	8004ff8 <_vfprintf_r+0x7f0>
 8004e00:	9b0a      	ldr	r3, [sp, #40]	; 0x28
 8004e02:	9314      	str	r3, [sp, #80]	; 0x50
 8004e04:	9b0b      	ldr	r3, [sp, #44]	; 0x2c
 8004e06:	f103 4300 	add.w	r3, r3, #2147483648	; 0x80000000
 8004e0a:	9315      	str	r3, [sp, #84]	; 0x54
 8004e0c:	232d      	movs	r3, #45	; 0x2d
 8004e0e:	9313      	str	r3, [sp, #76]	; 0x4c
 8004e10:	9b07      	ldr	r3, [sp, #28]
 8004e12:	2b41      	cmp	r3, #65	; 0x41
 8004e14:	f040 8104 	bne.w	8005020 <_vfprintf_r+0x818>
 8004e18:	a820      	add	r0, sp, #128	; 0x80
 8004e1a:	ed9d 0b14 	vldr	d0, [sp, #80]	; 0x50
 8004e1e:	f003 f90d 	bl	800803c <frexp>
 8004e22:	2200      	movs	r2, #0
 8004e24:	f04f 537f 	mov.w	r3, #1069547520	; 0x3fc00000
 8004e28:	ec51 0b10 	vmov	r0, r1, d0
 8004e2c:	f7fb fc04 	bl	8000638 <__aeabi_dmul>
 8004e30:	2200      	movs	r2, #0
 8004e32:	2300      	movs	r3, #0
 8004e34:	e9cd 0104 	strd	r0, r1, [sp, #16]
 8004e38:	f7fb fe66 	bl	8000b08 <__aeabi_dcmpeq>
 8004e3c:	b108      	cbz	r0, 8004e42 <_vfprintf_r+0x63a>
 8004e3e:	2301      	movs	r3, #1
 8004e40:	9320      	str	r3, [sp, #128]	; 0x80
 8004e42:	4f65      	ldr	r7, [pc, #404]	; (8004fd8 <_vfprintf_r+0x7d0>)
 8004e44:	4b65      	ldr	r3, [pc, #404]	; (8004fdc <_vfprintf_r+0x7d4>)
 8004e46:	9a06      	ldr	r2, [sp, #24]
 8004e48:	2a61      	cmp	r2, #97	; 0x61
 8004e4a:	bf08      	it	eq
 8004e4c:	461f      	moveq	r7, r3
 8004e4e:	9711      	str	r7, [sp, #68]	; 0x44
 8004e50:	464e      	mov	r6, r9
 8004e52:	1e6f      	subs	r7, r5, #1
 8004e54:	2200      	movs	r2, #0
 8004e56:	4b62      	ldr	r3, [pc, #392]	; (8004fe0 <_vfprintf_r+0x7d8>)
 8004e58:	e9dd 0104 	ldrd	r0, r1, [sp, #16]
 8004e5c:	f7fb fbec 	bl	8000638 <__aeabi_dmul>
 8004e60:	e9cd 0104 	strd	r0, r1, [sp, #16]
 8004e64:	f7fb fe98 	bl	8000b98 <__aeabi_d2iz>
 8004e68:	901c      	str	r0, [sp, #112]	; 0x70
 8004e6a:	f7fb fb7b 	bl	8000564 <__aeabi_i2d>
 8004e6e:	4602      	mov	r2, r0
 8004e70:	460b      	mov	r3, r1
 8004e72:	e9dd 0104 	ldrd	r0, r1, [sp, #16]
 8004e76:	f7fb fa27 	bl	80002c8 <__aeabi_dsub>
 8004e7a:	9b11      	ldr	r3, [sp, #68]	; 0x44
 8004e7c:	9a1c      	ldr	r2, [sp, #112]	; 0x70
 8004e7e:	971d      	str	r7, [sp, #116]	; 0x74
 8004e80:	5c9b      	ldrb	r3, [r3, r2]
 8004e82:	f806 3b01 	strb.w	r3, [r6], #1
 8004e86:	1c7b      	adds	r3, r7, #1
 8004e88:	e9cd 0104 	strd	r0, r1, [sp, #16]
 8004e8c:	d006      	beq.n	8004e9c <_vfprintf_r+0x694>
 8004e8e:	2200      	movs	r2, #0
 8004e90:	2300      	movs	r3, #0
 8004e92:	3f01      	subs	r7, #1
 8004e94:	f7fb fe38 	bl	8000b08 <__aeabi_dcmpeq>
 8004e98:	2800      	cmp	r0, #0
 8004e9a:	d0db      	beq.n	8004e54 <_vfprintf_r+0x64c>
 8004e9c:	2200      	movs	r2, #0
 8004e9e:	4b51      	ldr	r3, [pc, #324]	; (8004fe4 <_vfprintf_r+0x7dc>)
 8004ea0:	e9dd 0104 	ldrd	r0, r1, [sp, #16]
 8004ea4:	f7fb fe58 	bl	8000b58 <__aeabi_dcmpgt>
 8004ea8:	b960      	cbnz	r0, 8004ec4 <_vfprintf_r+0x6bc>
 8004eaa:	2200      	movs	r2, #0
 8004eac:	4b4d      	ldr	r3, [pc, #308]	; (8004fe4 <_vfprintf_r+0x7dc>)
 8004eae:	e9dd 0104 	ldrd	r0, r1, [sp, #16]
 8004eb2:	f7fb fe29 	bl	8000b08 <__aeabi_dcmpeq>
 8004eb6:	2800      	cmp	r0, #0
 8004eb8:	f000 80ad 	beq.w	8005016 <_vfprintf_r+0x80e>
 8004ebc:	9b1c      	ldr	r3, [sp, #112]	; 0x70
 8004ebe:	07df      	lsls	r7, r3, #31
 8004ec0:	f140 80a9 	bpl.w	8005016 <_vfprintf_r+0x80e>
 8004ec4:	9b11      	ldr	r3, [sp, #68]	; 0x44
 8004ec6:	9624      	str	r6, [sp, #144]	; 0x90
 8004ec8:	7bd9      	ldrb	r1, [r3, #15]
 8004eca:	2030      	movs	r0, #48	; 0x30
 8004ecc:	9a24      	ldr	r2, [sp, #144]	; 0x90
 8004ece:	1e53      	subs	r3, r2, #1
 8004ed0:	9324      	str	r3, [sp, #144]	; 0x90
 8004ed2:	f812 3c01 	ldrb.w	r3, [r2, #-1]
 8004ed6:	428b      	cmp	r3, r1
 8004ed8:	f000 8094 	beq.w	8005004 <_vfprintf_r+0x7fc>
 8004edc:	2b39      	cmp	r3, #57	; 0x39
 8004ede:	bf0b      	itete	eq
 8004ee0:	9b11      	ldreq	r3, [sp, #68]	; 0x44
 8004ee2:	3301      	addne	r3, #1
 8004ee4:	7a9b      	ldrbeq	r3, [r3, #10]
 8004ee6:	b2db      	uxtbne	r3, r3
 8004ee8:	f802 3c01 	strb.w	r3, [r2, #-1]
 8004eec:	4633      	mov	r3, r6
 8004eee:	eba3 0309 	sub.w	r3, r3, r9
 8004ef2:	9304      	str	r3, [sp, #16]
 8004ef4:	9b07      	ldr	r3, [sp, #28]
 8004ef6:	9e20      	ldr	r6, [sp, #128]	; 0x80
 8004ef8:	2b47      	cmp	r3, #71	; 0x47
 8004efa:	f040 80d6 	bne.w	80050aa <_vfprintf_r+0x8a2>
 8004efe:	1cf0      	adds	r0, r6, #3
 8004f00:	db02      	blt.n	8004f08 <_vfprintf_r+0x700>
 8004f02:	42b5      	cmp	r5, r6
 8004f04:	f280 80fc 	bge.w	8005100 <_vfprintf_r+0x8f8>
 8004f08:	9b06      	ldr	r3, [sp, #24]
 8004f0a:	3b02      	subs	r3, #2
 8004f0c:	9306      	str	r3, [sp, #24]
 8004f0e:	9906      	ldr	r1, [sp, #24]
 8004f10:	f89d 2018 	ldrb.w	r2, [sp, #24]
 8004f14:	f021 0120 	bic.w	r1, r1, #32
 8004f18:	2941      	cmp	r1, #65	; 0x41
 8004f1a:	bf08      	it	eq
 8004f1c:	320f      	addeq	r2, #15
 8004f1e:	f106 33ff 	add.w	r3, r6, #4294967295
 8004f22:	bf06      	itte	eq
 8004f24:	b2d2      	uxtbeq	r2, r2
 8004f26:	2101      	moveq	r1, #1
 8004f28:	2100      	movne	r1, #0
 8004f2a:	2b00      	cmp	r3, #0
 8004f2c:	9320      	str	r3, [sp, #128]	; 0x80
 8004f2e:	bfb8      	it	lt
 8004f30:	f1c6 0301 	rsblt	r3, r6, #1
 8004f34:	f88d 2088 	strb.w	r2, [sp, #136]	; 0x88
 8004f38:	bfb4      	ite	lt
 8004f3a:	222d      	movlt	r2, #45	; 0x2d
 8004f3c:	222b      	movge	r2, #43	; 0x2b
 8004f3e:	2b09      	cmp	r3, #9
 8004f40:	f88d 2089 	strb.w	r2, [sp, #137]	; 0x89
 8004f44:	f340 80c8 	ble.w	80050d8 <_vfprintf_r+0x8d0>
 8004f48:	f10d 0297 	add.w	r2, sp, #151	; 0x97
 8004f4c:	250a      	movs	r5, #10
 8004f4e:	fb93 f0f5 	sdiv	r0, r3, r5
 8004f52:	fb05 3310 	mls	r3, r5, r0, r3
 8004f56:	3330      	adds	r3, #48	; 0x30
 8004f58:	2809      	cmp	r0, #9
 8004f5a:	f802 3c01 	strb.w	r3, [r2, #-1]
 8004f5e:	f102 31ff 	add.w	r1, r2, #4294967295
 8004f62:	4603      	mov	r3, r0
 8004f64:	f300 80b1 	bgt.w	80050ca <_vfprintf_r+0x8c2>
 8004f68:	3330      	adds	r3, #48	; 0x30
 8004f6a:	f801 3c01 	strb.w	r3, [r1, #-1]
 8004f6e:	3a02      	subs	r2, #2
 8004f70:	f10d 038a 	add.w	r3, sp, #138	; 0x8a
 8004f74:	f10d 0097 	add.w	r0, sp, #151	; 0x97
 8004f78:	4282      	cmp	r2, r0
 8004f7a:	4619      	mov	r1, r3
 8004f7c:	f0c0 80a7 	bcc.w	80050ce <_vfprintf_r+0x8c6>
 8004f80:	9a04      	ldr	r2, [sp, #16]
 8004f82:	ab22      	add	r3, sp, #136	; 0x88
 8004f84:	1acb      	subs	r3, r1, r3
 8004f86:	2a01      	cmp	r2, #1
 8004f88:	9317      	str	r3, [sp, #92]	; 0x5c
 8004f8a:	eb03 0502 	add.w	r5, r3, r2
 8004f8e:	dc02      	bgt.n	8004f96 <_vfprintf_r+0x78e>
 8004f90:	f01a 0f01 	tst.w	sl, #1
 8004f94:	d001      	beq.n	8004f9a <_vfprintf_r+0x792>
 8004f96:	9b0d      	ldr	r3, [sp, #52]	; 0x34
 8004f98:	441d      	add	r5, r3
 8004f9a:	f42a 6380 	bic.w	r3, sl, #1024	; 0x400
 8004f9e:	2700      	movs	r7, #0
 8004fa0:	f443 7380 	orr.w	r3, r3, #256	; 0x100
 8004fa4:	9310      	str	r3, [sp, #64]	; 0x40
 8004fa6:	9707      	str	r7, [sp, #28]
 8004fa8:	463e      	mov	r6, r7
 8004faa:	9b13      	ldr	r3, [sp, #76]	; 0x4c
 8004fac:	2b00      	cmp	r3, #0
 8004fae:	f000 8317 	beq.w	80055e0 <_vfprintf_r+0xdd8>
 8004fb2:	232d      	movs	r3, #45	; 0x2d
 8004fb4:	f8dd a040 	ldr.w	sl, [sp, #64]	; 0x40
 8004fb8:	f88d 307b 	strb.w	r3, [sp, #123]	; 0x7b
 8004fbc:	2300      	movs	r3, #0
 8004fbe:	9310      	str	r3, [sp, #64]	; 0x40
 8004fc0:	e15f      	b.n	8005282 <_vfprintf_r+0xa7a>
 8004fc2:	bf00      	nop
 8004fc4:	7fefffff 	.word	0x7fefffff
 8004fc8:	08008a70 	.word	0x08008a70
 8004fcc:	08008a6c 	.word	0x08008a6c
 8004fd0:	08008a78 	.word	0x08008a78
 8004fd4:	08008a74 	.word	0x08008a74
 8004fd8:	08008a8d 	.word	0x08008a8d
 8004fdc:	08008a7c 	.word	0x08008a7c
 8004fe0:	40300000 	.word	0x40300000
 8004fe4:	3fe00000 	.word	0x3fe00000
 8004fe8:	9003      	str	r0, [sp, #12]
 8004fea:	e702      	b.n	8004df2 <_vfprintf_r+0x5ea>
 8004fec:	9003      	str	r0, [sp, #12]
 8004fee:	2506      	movs	r5, #6
 8004ff0:	e6ff      	b.n	8004df2 <_vfprintf_r+0x5ea>
 8004ff2:	9503      	str	r5, [sp, #12]
 8004ff4:	2501      	movs	r5, #1
 8004ff6:	e6fc      	b.n	8004df2 <_vfprintf_r+0x5ea>
 8004ff8:	ed9d 7b0a 	vldr	d7, [sp, #40]	; 0x28
 8004ffc:	2300      	movs	r3, #0
 8004ffe:	ed8d 7b14 	vstr	d7, [sp, #80]	; 0x50
 8005002:	e704      	b.n	8004e0e <_vfprintf_r+0x606>
 8005004:	f802 0c01 	strb.w	r0, [r2, #-1]
 8005008:	e760      	b.n	8004ecc <_vfprintf_r+0x6c4>
 800500a:	f803 1b01 	strb.w	r1, [r3], #1
 800500e:	1af2      	subs	r2, r6, r3
 8005010:	2a00      	cmp	r2, #0
 8005012:	dafa      	bge.n	800500a <_vfprintf_r+0x802>
 8005014:	e76b      	b.n	8004eee <_vfprintf_r+0x6e6>
 8005016:	9a1d      	ldr	r2, [sp, #116]	; 0x74
 8005018:	4633      	mov	r3, r6
 800501a:	2130      	movs	r1, #48	; 0x30
 800501c:	4416      	add	r6, r2
 800501e:	e7f6      	b.n	800500e <_vfprintf_r+0x806>
 8005020:	9b07      	ldr	r3, [sp, #28]
 8005022:	2b46      	cmp	r3, #70	; 0x46
 8005024:	d004      	beq.n	8005030 <_vfprintf_r+0x828>
 8005026:	2b45      	cmp	r3, #69	; 0x45
 8005028:	d13a      	bne.n	80050a0 <_vfprintf_r+0x898>
 800502a:	1c6e      	adds	r6, r5, #1
 800502c:	2102      	movs	r1, #2
 800502e:	e001      	b.n	8005034 <_vfprintf_r+0x82c>
 8005030:	462e      	mov	r6, r5
 8005032:	2103      	movs	r1, #3
 8005034:	ab24      	add	r3, sp, #144	; 0x90
 8005036:	9301      	str	r3, [sp, #4]
 8005038:	ab21      	add	r3, sp, #132	; 0x84
 800503a:	9300      	str	r3, [sp, #0]
 800503c:	4632      	mov	r2, r6
 800503e:	ab20      	add	r3, sp, #128	; 0x80
 8005040:	ed9d 0b14 	vldr	d0, [sp, #80]	; 0x50
 8005044:	4658      	mov	r0, fp
 8005046:	f000 ff87 	bl	8005f58 <_dtoa_r>
 800504a:	9b07      	ldr	r3, [sp, #28]
 800504c:	2b47      	cmp	r3, #71	; 0x47
 800504e:	4681      	mov	r9, r0
 8005050:	d102      	bne.n	8005058 <_vfprintf_r+0x850>
 8005052:	f01a 0f01 	tst.w	sl, #1
 8005056:	d026      	beq.n	80050a6 <_vfprintf_r+0x89e>
 8005058:	9b07      	ldr	r3, [sp, #28]
 800505a:	2b46      	cmp	r3, #70	; 0x46
 800505c:	eb09 0706 	add.w	r7, r9, r6
 8005060:	d10f      	bne.n	8005082 <_vfprintf_r+0x87a>
 8005062:	f899 3000 	ldrb.w	r3, [r9]
 8005066:	2b30      	cmp	r3, #48	; 0x30
 8005068:	d109      	bne.n	800507e <_vfprintf_r+0x876>
 800506a:	2200      	movs	r2, #0
 800506c:	2300      	movs	r3, #0
 800506e:	e9dd 0114 	ldrd	r0, r1, [sp, #80]	; 0x50
 8005072:	f7fb fd49 	bl	8000b08 <__aeabi_dcmpeq>
 8005076:	b910      	cbnz	r0, 800507e <_vfprintf_r+0x876>
 8005078:	f1c6 0601 	rsb	r6, r6, #1
 800507c:	9620      	str	r6, [sp, #128]	; 0x80
 800507e:	9b20      	ldr	r3, [sp, #128]	; 0x80
 8005080:	441f      	add	r7, r3
 8005082:	2200      	movs	r2, #0
 8005084:	2300      	movs	r3, #0
 8005086:	e9dd 0114 	ldrd	r0, r1, [sp, #80]	; 0x50
 800508a:	f7fb fd3d 	bl	8000b08 <__aeabi_dcmpeq>
 800508e:	b948      	cbnz	r0, 80050a4 <_vfprintf_r+0x89c>
 8005090:	2230      	movs	r2, #48	; 0x30
 8005092:	9b24      	ldr	r3, [sp, #144]	; 0x90
 8005094:	429f      	cmp	r7, r3
 8005096:	d906      	bls.n	80050a6 <_vfprintf_r+0x89e>
 8005098:	1c59      	adds	r1, r3, #1
 800509a:	9124      	str	r1, [sp, #144]	; 0x90
 800509c:	701a      	strb	r2, [r3, #0]
 800509e:	e7f8      	b.n	8005092 <_vfprintf_r+0x88a>
 80050a0:	462e      	mov	r6, r5
 80050a2:	e7c3      	b.n	800502c <_vfprintf_r+0x824>
 80050a4:	9724      	str	r7, [sp, #144]	; 0x90
 80050a6:	9b24      	ldr	r3, [sp, #144]	; 0x90
 80050a8:	e721      	b.n	8004eee <_vfprintf_r+0x6e6>
 80050aa:	9b07      	ldr	r3, [sp, #28]
 80050ac:	2b46      	cmp	r3, #70	; 0x46
 80050ae:	f47f af2e 	bne.w	8004f0e <_vfprintf_r+0x706>
 80050b2:	2e00      	cmp	r6, #0
 80050b4:	dd1d      	ble.n	80050f2 <_vfprintf_r+0x8ea>
 80050b6:	b915      	cbnz	r5, 80050be <_vfprintf_r+0x8b6>
 80050b8:	f01a 0f01 	tst.w	sl, #1
 80050bc:	d034      	beq.n	8005128 <_vfprintf_r+0x920>
 80050be:	9b0d      	ldr	r3, [sp, #52]	; 0x34
 80050c0:	18f3      	adds	r3, r6, r3
 80050c2:	441d      	add	r5, r3
 80050c4:	2366      	movs	r3, #102	; 0x66
 80050c6:	9306      	str	r3, [sp, #24]
 80050c8:	e033      	b.n	8005132 <_vfprintf_r+0x92a>
 80050ca:	460a      	mov	r2, r1
 80050cc:	e73f      	b.n	8004f4e <_vfprintf_r+0x746>
 80050ce:	f812 1b01 	ldrb.w	r1, [r2], #1
 80050d2:	f803 1b01 	strb.w	r1, [r3], #1
 80050d6:	e74f      	b.n	8004f78 <_vfprintf_r+0x770>
 80050d8:	b941      	cbnz	r1, 80050ec <_vfprintf_r+0x8e4>
 80050da:	2230      	movs	r2, #48	; 0x30
 80050dc:	f88d 208a 	strb.w	r2, [sp, #138]	; 0x8a
 80050e0:	f10d 028b 	add.w	r2, sp, #139	; 0x8b
 80050e4:	3330      	adds	r3, #48	; 0x30
 80050e6:	1c51      	adds	r1, r2, #1
 80050e8:	7013      	strb	r3, [r2, #0]
 80050ea:	e749      	b.n	8004f80 <_vfprintf_r+0x778>
 80050ec:	f10d 028a 	add.w	r2, sp, #138	; 0x8a
 80050f0:	e7f8      	b.n	80050e4 <_vfprintf_r+0x8dc>
 80050f2:	b915      	cbnz	r5, 80050fa <_vfprintf_r+0x8f2>
 80050f4:	f01a 0f01 	tst.w	sl, #1
 80050f8:	d018      	beq.n	800512c <_vfprintf_r+0x924>
 80050fa:	9b0d      	ldr	r3, [sp, #52]	; 0x34
 80050fc:	3301      	adds	r3, #1
 80050fe:	e7e0      	b.n	80050c2 <_vfprintf_r+0x8ba>
 8005100:	9b04      	ldr	r3, [sp, #16]
 8005102:	42b3      	cmp	r3, r6
 8005104:	dc06      	bgt.n	8005114 <_vfprintf_r+0x90c>
 8005106:	f01a 0f01 	tst.w	sl, #1
 800510a:	d025      	beq.n	8005158 <_vfprintf_r+0x950>
 800510c:	9b0d      	ldr	r3, [sp, #52]	; 0x34
 800510e:	18f5      	adds	r5, r6, r3
 8005110:	2367      	movs	r3, #103	; 0x67
 8005112:	e7d8      	b.n	80050c6 <_vfprintf_r+0x8be>
 8005114:	9b04      	ldr	r3, [sp, #16]
 8005116:	9a0d      	ldr	r2, [sp, #52]	; 0x34
 8005118:	2e00      	cmp	r6, #0
 800511a:	eb03 0502 	add.w	r5, r3, r2
 800511e:	dcf7      	bgt.n	8005110 <_vfprintf_r+0x908>
 8005120:	f1c6 0301 	rsb	r3, r6, #1
 8005124:	441d      	add	r5, r3
 8005126:	e7f3      	b.n	8005110 <_vfprintf_r+0x908>
 8005128:	4635      	mov	r5, r6
 800512a:	e7cb      	b.n	80050c4 <_vfprintf_r+0x8bc>
 800512c:	2366      	movs	r3, #102	; 0x66
 800512e:	9306      	str	r3, [sp, #24]
 8005130:	2501      	movs	r5, #1
 8005132:	f41a 6380 	ands.w	r3, sl, #1024	; 0x400
 8005136:	9307      	str	r3, [sp, #28]
 8005138:	d01f      	beq.n	800517a <_vfprintf_r+0x972>
 800513a:	2700      	movs	r7, #0
 800513c:	2e00      	cmp	r6, #0
 800513e:	9707      	str	r7, [sp, #28]
 8005140:	f77f af33 	ble.w	8004faa <_vfprintf_r+0x7a2>
 8005144:	9b08      	ldr	r3, [sp, #32]
 8005146:	781b      	ldrb	r3, [r3, #0]
 8005148:	2bff      	cmp	r3, #255	; 0xff
 800514a:	d107      	bne.n	800515c <_vfprintf_r+0x954>
 800514c:	9b07      	ldr	r3, [sp, #28]
 800514e:	9a12      	ldr	r2, [sp, #72]	; 0x48
 8005150:	443b      	add	r3, r7
 8005152:	fb02 5503 	mla	r5, r2, r3, r5
 8005156:	e728      	b.n	8004faa <_vfprintf_r+0x7a2>
 8005158:	4635      	mov	r5, r6
 800515a:	e7d9      	b.n	8005110 <_vfprintf_r+0x908>
 800515c:	42b3      	cmp	r3, r6
 800515e:	daf5      	bge.n	800514c <_vfprintf_r+0x944>
 8005160:	1af6      	subs	r6, r6, r3
 8005162:	9b08      	ldr	r3, [sp, #32]
 8005164:	785b      	ldrb	r3, [r3, #1]
 8005166:	b133      	cbz	r3, 8005176 <_vfprintf_r+0x96e>
 8005168:	9b07      	ldr	r3, [sp, #28]
 800516a:	3301      	adds	r3, #1
 800516c:	9307      	str	r3, [sp, #28]
 800516e:	9b08      	ldr	r3, [sp, #32]
 8005170:	3301      	adds	r3, #1
 8005172:	9308      	str	r3, [sp, #32]
 8005174:	e7e6      	b.n	8005144 <_vfprintf_r+0x93c>
 8005176:	3701      	adds	r7, #1
 8005178:	e7e4      	b.n	8005144 <_vfprintf_r+0x93c>
 800517a:	9f07      	ldr	r7, [sp, #28]
 800517c:	e715      	b.n	8004faa <_vfprintf_r+0x7a2>
 800517e:	4632      	mov	r2, r6
 8005180:	f01a 0f20 	tst.w	sl, #32
 8005184:	f852 3b04 	ldr.w	r3, [r2], #4
 8005188:	9209      	str	r2, [sp, #36]	; 0x24
 800518a:	d009      	beq.n	80051a0 <_vfprintf_r+0x998>
 800518c:	9a0e      	ldr	r2, [sp, #56]	; 0x38
 800518e:	4610      	mov	r0, r2
 8005190:	17d1      	asrs	r1, r2, #31
 8005192:	e9c3 0100 	strd	r0, r1, [r3]
 8005196:	9e09      	ldr	r6, [sp, #36]	; 0x24
 8005198:	f8dd 9030 	ldr.w	r9, [sp, #48]	; 0x30
 800519c:	f7ff bbb2 	b.w	8004904 <_vfprintf_r+0xfc>
 80051a0:	f01a 0f10 	tst.w	sl, #16
 80051a4:	d002      	beq.n	80051ac <_vfprintf_r+0x9a4>
 80051a6:	9a0e      	ldr	r2, [sp, #56]	; 0x38
 80051a8:	601a      	str	r2, [r3, #0]
 80051aa:	e7f4      	b.n	8005196 <_vfprintf_r+0x98e>
 80051ac:	f01a 0f40 	tst.w	sl, #64	; 0x40
 80051b0:	d002      	beq.n	80051b8 <_vfprintf_r+0x9b0>
 80051b2:	9a0e      	ldr	r2, [sp, #56]	; 0x38
 80051b4:	801a      	strh	r2, [r3, #0]
 80051b6:	e7ee      	b.n	8005196 <_vfprintf_r+0x98e>
 80051b8:	f41a 7f00 	tst.w	sl, #512	; 0x200
 80051bc:	d0f3      	beq.n	80051a6 <_vfprintf_r+0x99e>
 80051be:	9a0e      	ldr	r2, [sp, #56]	; 0x38
 80051c0:	701a      	strb	r2, [r3, #0]
 80051c2:	e7e8      	b.n	8005196 <_vfprintf_r+0x98e>
 80051c4:	f04a 0a10 	orr.w	sl, sl, #16
 80051c8:	f01a 0f20 	tst.w	sl, #32
 80051cc:	d01e      	beq.n	800520c <_vfprintf_r+0xa04>
 80051ce:	3607      	adds	r6, #7
 80051d0:	f026 0607 	bic.w	r6, r6, #7
 80051d4:	f106 0308 	add.w	r3, r6, #8
 80051d8:	e9d6 6700 	ldrd	r6, r7, [r6]
 80051dc:	9309      	str	r3, [sp, #36]	; 0x24
 80051de:	f42a 6a80 	bic.w	sl, sl, #1024	; 0x400
 80051e2:	2300      	movs	r3, #0
 80051e4:	2200      	movs	r2, #0
 80051e6:	f88d 207b 	strb.w	r2, [sp, #123]	; 0x7b
 80051ea:	1c6a      	adds	r2, r5, #1
 80051ec:	f000 815c 	beq.w	80054a8 <_vfprintf_r+0xca0>
 80051f0:	4652      	mov	r2, sl
 80051f2:	ea56 0107 	orrs.w	r1, r6, r7
 80051f6:	f02a 0a80 	bic.w	sl, sl, #128	; 0x80
 80051fa:	f040 8155 	bne.w	80054a8 <_vfprintf_r+0xca0>
 80051fe:	2d00      	cmp	r5, #0
 8005200:	f000 81d8 	beq.w	80055b4 <_vfprintf_r+0xdac>
 8005204:	2b01      	cmp	r3, #1
 8005206:	f040 8152 	bne.w	80054ae <_vfprintf_r+0xca6>
 800520a:	e54e      	b.n	8004caa <_vfprintf_r+0x4a2>
 800520c:	1d33      	adds	r3, r6, #4
 800520e:	f01a 0f10 	tst.w	sl, #16
 8005212:	9309      	str	r3, [sp, #36]	; 0x24
 8005214:	d001      	beq.n	800521a <_vfprintf_r+0xa12>
 8005216:	6836      	ldr	r6, [r6, #0]
 8005218:	e003      	b.n	8005222 <_vfprintf_r+0xa1a>
 800521a:	f01a 0f40 	tst.w	sl, #64	; 0x40
 800521e:	d002      	beq.n	8005226 <_vfprintf_r+0xa1e>
 8005220:	8836      	ldrh	r6, [r6, #0]
 8005222:	2700      	movs	r7, #0
 8005224:	e7db      	b.n	80051de <_vfprintf_r+0x9d6>
 8005226:	f41a 7f00 	tst.w	sl, #512	; 0x200
 800522a:	d0f4      	beq.n	8005216 <_vfprintf_r+0xa0e>
 800522c:	7836      	ldrb	r6, [r6, #0]
 800522e:	e7f8      	b.n	8005222 <_vfprintf_r+0xa1a>
 8005230:	1d33      	adds	r3, r6, #4
 8005232:	9309      	str	r3, [sp, #36]	; 0x24
 8005234:	f647 0330 	movw	r3, #30768	; 0x7830
 8005238:	f8ad 307c 	strh.w	r3, [sp, #124]	; 0x7c
 800523c:	2278      	movs	r2, #120	; 0x78
 800523e:	4bb0      	ldr	r3, [pc, #704]	; (8005500 <_vfprintf_r+0xcf8>)
 8005240:	9318      	str	r3, [sp, #96]	; 0x60
 8005242:	6836      	ldr	r6, [r6, #0]
 8005244:	9206      	str	r2, [sp, #24]
 8005246:	2700      	movs	r7, #0
 8005248:	f04a 0a02 	orr.w	sl, sl, #2
 800524c:	2302      	movs	r3, #2
 800524e:	e7c9      	b.n	80051e4 <_vfprintf_r+0x9dc>
 8005250:	1d33      	adds	r3, r6, #4
 8005252:	f8d6 9000 	ldr.w	r9, [r6]
 8005256:	9309      	str	r3, [sp, #36]	; 0x24
 8005258:	2600      	movs	r6, #0
 800525a:	1c69      	adds	r1, r5, #1
 800525c:	f88d 607b 	strb.w	r6, [sp, #123]	; 0x7b
 8005260:	f000 80e1 	beq.w	8005426 <_vfprintf_r+0xc1e>
 8005264:	462a      	mov	r2, r5
 8005266:	4631      	mov	r1, r6
 8005268:	4648      	mov	r0, r9
 800526a:	f7fa ffd9 	bl	8000220 <memchr>
 800526e:	9003      	str	r0, [sp, #12]
 8005270:	2800      	cmp	r0, #0
 8005272:	f000 81b9 	beq.w	80055e8 <_vfprintf_r+0xde0>
 8005276:	eba0 0509 	sub.w	r5, r0, r9
 800527a:	9603      	str	r6, [sp, #12]
 800527c:	9610      	str	r6, [sp, #64]	; 0x40
 800527e:	4637      	mov	r7, r6
 8005280:	9607      	str	r6, [sp, #28]
 8005282:	9b10      	ldr	r3, [sp, #64]	; 0x40
 8005284:	42ab      	cmp	r3, r5
 8005286:	bfb8      	it	lt
 8005288:	462b      	movlt	r3, r5
 800528a:	9311      	str	r3, [sp, #68]	; 0x44
 800528c:	f89d 307b 	ldrb.w	r3, [sp, #123]	; 0x7b
 8005290:	b113      	cbz	r3, 8005298 <_vfprintf_r+0xa90>
 8005292:	9b11      	ldr	r3, [sp, #68]	; 0x44
 8005294:	3301      	adds	r3, #1
 8005296:	9311      	str	r3, [sp, #68]	; 0x44
 8005298:	f01a 0302 	ands.w	r3, sl, #2
 800529c:	931c      	str	r3, [sp, #112]	; 0x70
 800529e:	bf1e      	ittt	ne
 80052a0:	9b11      	ldrne	r3, [sp, #68]	; 0x44
 80052a2:	3302      	addne	r3, #2
 80052a4:	9311      	strne	r3, [sp, #68]	; 0x44
 80052a6:	f01a 0384 	ands.w	r3, sl, #132	; 0x84
 80052aa:	931d      	str	r3, [sp, #116]	; 0x74
 80052ac:	d122      	bne.n	80052f4 <_vfprintf_r+0xaec>
 80052ae:	9b0f      	ldr	r3, [sp, #60]	; 0x3c
 80052b0:	9a11      	ldr	r2, [sp, #68]	; 0x44
 80052b2:	1a9b      	subs	r3, r3, r2
 80052b4:	2b00      	cmp	r3, #0
 80052b6:	9313      	str	r3, [sp, #76]	; 0x4c
 80052b8:	dd1c      	ble.n	80052f4 <_vfprintf_r+0xaec>
 80052ba:	9813      	ldr	r0, [sp, #76]	; 0x4c
 80052bc:	e9dd 2327 	ldrd	r2, r3, [sp, #156]	; 0x9c
 80052c0:	2810      	cmp	r0, #16
 80052c2:	4890      	ldr	r0, [pc, #576]	; (8005504 <_vfprintf_r+0xcfc>)
 80052c4:	6020      	str	r0, [r4, #0]
 80052c6:	f102 0201 	add.w	r2, r2, #1
 80052ca:	f104 0108 	add.w	r1, r4, #8
 80052ce:	f300 818e 	bgt.w	80055ee <_vfprintf_r+0xde6>
 80052d2:	9813      	ldr	r0, [sp, #76]	; 0x4c
 80052d4:	6060      	str	r0, [r4, #4]
 80052d6:	4403      	add	r3, r0
 80052d8:	2a07      	cmp	r2, #7
 80052da:	e9cd 2327 	strd	r2, r3, [sp, #156]	; 0x9c
 80052de:	f340 819b 	ble.w	8005618 <_vfprintf_r+0xe10>
 80052e2:	aa26      	add	r2, sp, #152	; 0x98
 80052e4:	4641      	mov	r1, r8
 80052e6:	4658      	mov	r0, fp
 80052e8:	f002 ff53 	bl	8008192 <__sprint_r>
 80052ec:	2800      	cmp	r0, #0
 80052ee:	f040 84c7 	bne.w	8005c80 <_vfprintf_r+0x1478>
 80052f2:	ac29      	add	r4, sp, #164	; 0xa4
 80052f4:	f89d 307b 	ldrb.w	r3, [sp, #123]	; 0x7b
 80052f8:	b173      	cbz	r3, 8005318 <_vfprintf_r+0xb10>
 80052fa:	f10d 037b 	add.w	r3, sp, #123	; 0x7b
 80052fe:	6023      	str	r3, [r4, #0]
 8005300:	2301      	movs	r3, #1
 8005302:	6063      	str	r3, [r4, #4]
 8005304:	9b28      	ldr	r3, [sp, #160]	; 0xa0
 8005306:	3301      	adds	r3, #1
 8005308:	9328      	str	r3, [sp, #160]	; 0xa0
 800530a:	9b27      	ldr	r3, [sp, #156]	; 0x9c
 800530c:	3301      	adds	r3, #1
 800530e:	2b07      	cmp	r3, #7
 8005310:	9327      	str	r3, [sp, #156]	; 0x9c
 8005312:	f300 8183 	bgt.w	800561c <_vfprintf_r+0xe14>
 8005316:	3408      	adds	r4, #8
 8005318:	9b1c      	ldr	r3, [sp, #112]	; 0x70
 800531a:	b16b      	cbz	r3, 8005338 <_vfprintf_r+0xb30>
 800531c:	ab1f      	add	r3, sp, #124	; 0x7c
 800531e:	6023      	str	r3, [r4, #0]
 8005320:	2302      	movs	r3, #2
 8005322:	6063      	str	r3, [r4, #4]
 8005324:	9b28      	ldr	r3, [sp, #160]	; 0xa0
 8005326:	3302      	adds	r3, #2
 8005328:	9328      	str	r3, [sp, #160]	; 0xa0
 800532a:	9b27      	ldr	r3, [sp, #156]	; 0x9c
 800532c:	3301      	adds	r3, #1
 800532e:	2b07      	cmp	r3, #7
 8005330:	9327      	str	r3, [sp, #156]	; 0x9c
 8005332:	f300 817d 	bgt.w	8005630 <_vfprintf_r+0xe28>
 8005336:	3408      	adds	r4, #8
 8005338:	9b1d      	ldr	r3, [sp, #116]	; 0x74
 800533a:	2b80      	cmp	r3, #128	; 0x80
 800533c:	d122      	bne.n	8005384 <_vfprintf_r+0xb7c>
 800533e:	9b0f      	ldr	r3, [sp, #60]	; 0x3c
 8005340:	9a11      	ldr	r2, [sp, #68]	; 0x44
 8005342:	1a9b      	subs	r3, r3, r2
 8005344:	2b00      	cmp	r3, #0
 8005346:	9313      	str	r3, [sp, #76]	; 0x4c
 8005348:	dd1c      	ble.n	8005384 <_vfprintf_r+0xb7c>
 800534a:	9813      	ldr	r0, [sp, #76]	; 0x4c
 800534c:	e9dd 2327 	ldrd	r2, r3, [sp, #156]	; 0x9c
 8005350:	2810      	cmp	r0, #16
 8005352:	486d      	ldr	r0, [pc, #436]	; (8005508 <_vfprintf_r+0xd00>)
 8005354:	6020      	str	r0, [r4, #0]
 8005356:	f102 0201 	add.w	r2, r2, #1
 800535a:	f104 0108 	add.w	r1, r4, #8
 800535e:	f300 8171 	bgt.w	8005644 <_vfprintf_r+0xe3c>
 8005362:	9813      	ldr	r0, [sp, #76]	; 0x4c
 8005364:	6060      	str	r0, [r4, #4]
 8005366:	4403      	add	r3, r0
 8005368:	2a07      	cmp	r2, #7
 800536a:	e9cd 2327 	strd	r2, r3, [sp, #156]	; 0x9c
 800536e:	f340 817e 	ble.w	800566e <_vfprintf_r+0xe66>
 8005372:	aa26      	add	r2, sp, #152	; 0x98
 8005374:	4641      	mov	r1, r8
 8005376:	4658      	mov	r0, fp
 8005378:	f002 ff0b 	bl	8008192 <__sprint_r>
 800537c:	2800      	cmp	r0, #0
 800537e:	f040 847f 	bne.w	8005c80 <_vfprintf_r+0x1478>
 8005382:	ac29      	add	r4, sp, #164	; 0xa4
 8005384:	9b10      	ldr	r3, [sp, #64]	; 0x40
 8005386:	1b5b      	subs	r3, r3, r5
 8005388:	2b00      	cmp	r3, #0
 800538a:	9310      	str	r3, [sp, #64]	; 0x40
 800538c:	dd1c      	ble.n	80053c8 <_vfprintf_r+0xbc0>
 800538e:	9810      	ldr	r0, [sp, #64]	; 0x40
 8005390:	e9dd 2327 	ldrd	r2, r3, [sp, #156]	; 0x9c
 8005394:	2810      	cmp	r0, #16
 8005396:	485c      	ldr	r0, [pc, #368]	; (8005508 <_vfprintf_r+0xd00>)
 8005398:	6020      	str	r0, [r4, #0]
 800539a:	f102 0201 	add.w	r2, r2, #1
 800539e:	f104 0108 	add.w	r1, r4, #8
 80053a2:	f300 8166 	bgt.w	8005672 <_vfprintf_r+0xe6a>
 80053a6:	9810      	ldr	r0, [sp, #64]	; 0x40
 80053a8:	6060      	str	r0, [r4, #4]
 80053aa:	4403      	add	r3, r0
 80053ac:	2a07      	cmp	r2, #7
 80053ae:	e9cd 2327 	strd	r2, r3, [sp, #156]	; 0x9c
 80053b2:	f340 8173 	ble.w	800569c <_vfprintf_r+0xe94>
 80053b6:	aa26      	add	r2, sp, #152	; 0x98
 80053b8:	4641      	mov	r1, r8
 80053ba:	4658      	mov	r0, fp
 80053bc:	f002 fee9 	bl	8008192 <__sprint_r>
 80053c0:	2800      	cmp	r0, #0
 80053c2:	f040 845d 	bne.w	8005c80 <_vfprintf_r+0x1478>
 80053c6:	ac29      	add	r4, sp, #164	; 0xa4
 80053c8:	9b28      	ldr	r3, [sp, #160]	; 0xa0
 80053ca:	9310      	str	r3, [sp, #64]	; 0x40
 80053cc:	f41a 7f80 	tst.w	sl, #256	; 0x100
 80053d0:	f040 8166 	bne.w	80056a0 <_vfprintf_r+0xe98>
 80053d4:	e9c4 9500 	strd	r9, r5, [r4]
 80053d8:	441d      	add	r5, r3
 80053da:	9528      	str	r5, [sp, #160]	; 0xa0
 80053dc:	9b27      	ldr	r3, [sp, #156]	; 0x9c
 80053de:	3301      	adds	r3, #1
 80053e0:	2b07      	cmp	r3, #7
 80053e2:	9327      	str	r3, [sp, #156]	; 0x9c
 80053e4:	f300 81a2 	bgt.w	800572c <_vfprintf_r+0xf24>
 80053e8:	3408      	adds	r4, #8
 80053ea:	f01a 0f04 	tst.w	sl, #4
 80053ee:	f040 8429 	bne.w	8005c44 <_vfprintf_r+0x143c>
 80053f2:	e9dd 320e 	ldrd	r3, r2, [sp, #56]	; 0x38
 80053f6:	9911      	ldr	r1, [sp, #68]	; 0x44
 80053f8:	428a      	cmp	r2, r1
 80053fa:	bfac      	ite	ge
 80053fc:	189b      	addge	r3, r3, r2
 80053fe:	185b      	addlt	r3, r3, r1
 8005400:	930e      	str	r3, [sp, #56]	; 0x38
 8005402:	9b28      	ldr	r3, [sp, #160]	; 0xa0
 8005404:	b13b      	cbz	r3, 8005416 <_vfprintf_r+0xc0e>
 8005406:	aa26      	add	r2, sp, #152	; 0x98
 8005408:	4641      	mov	r1, r8
 800540a:	4658      	mov	r0, fp
 800540c:	f002 fec1 	bl	8008192 <__sprint_r>
 8005410:	2800      	cmp	r0, #0
 8005412:	f040 8435 	bne.w	8005c80 <_vfprintf_r+0x1478>
 8005416:	2300      	movs	r3, #0
 8005418:	9327      	str	r3, [sp, #156]	; 0x9c
 800541a:	9b03      	ldr	r3, [sp, #12]
 800541c:	2b00      	cmp	r3, #0
 800541e:	f040 844b 	bne.w	8005cb8 <_vfprintf_r+0x14b0>
 8005422:	ac29      	add	r4, sp, #164	; 0xa4
 8005424:	e6b7      	b.n	8005196 <_vfprintf_r+0x98e>
 8005426:	4648      	mov	r0, r9
 8005428:	f7fa fef2 	bl	8000210 <strlen>
 800542c:	9603      	str	r6, [sp, #12]
 800542e:	4605      	mov	r5, r0
 8005430:	4633      	mov	r3, r6
 8005432:	e48a      	b.n	8004d4a <_vfprintf_r+0x542>
 8005434:	f04a 0a10 	orr.w	sl, sl, #16
 8005438:	f01a 0f20 	tst.w	sl, #32
 800543c:	d009      	beq.n	8005452 <_vfprintf_r+0xc4a>
 800543e:	3607      	adds	r6, #7
 8005440:	f026 0607 	bic.w	r6, r6, #7
 8005444:	f106 0308 	add.w	r3, r6, #8
 8005448:	e9d6 6700 	ldrd	r6, r7, [r6]
 800544c:	9309      	str	r3, [sp, #36]	; 0x24
 800544e:	2301      	movs	r3, #1
 8005450:	e6c8      	b.n	80051e4 <_vfprintf_r+0x9dc>
 8005452:	1d33      	adds	r3, r6, #4
 8005454:	f01a 0f10 	tst.w	sl, #16
 8005458:	9309      	str	r3, [sp, #36]	; 0x24
 800545a:	d001      	beq.n	8005460 <_vfprintf_r+0xc58>
 800545c:	6836      	ldr	r6, [r6, #0]
 800545e:	e003      	b.n	8005468 <_vfprintf_r+0xc60>
 8005460:	f01a 0f40 	tst.w	sl, #64	; 0x40
 8005464:	d002      	beq.n	800546c <_vfprintf_r+0xc64>
 8005466:	8836      	ldrh	r6, [r6, #0]
 8005468:	2700      	movs	r7, #0
 800546a:	e7f0      	b.n	800544e <_vfprintf_r+0xc46>
 800546c:	f41a 7f00 	tst.w	sl, #512	; 0x200
 8005470:	d0f4      	beq.n	800545c <_vfprintf_r+0xc54>
 8005472:	7836      	ldrb	r6, [r6, #0]
 8005474:	e7f8      	b.n	8005468 <_vfprintf_r+0xc60>
 8005476:	4b22      	ldr	r3, [pc, #136]	; (8005500 <_vfprintf_r+0xcf8>)
 8005478:	f7ff bb3f 	b.w	8004afa <_vfprintf_r+0x2f2>
 800547c:	1d33      	adds	r3, r6, #4
 800547e:	f01a 0f10 	tst.w	sl, #16
 8005482:	9309      	str	r3, [sp, #36]	; 0x24
 8005484:	d001      	beq.n	800548a <_vfprintf_r+0xc82>
 8005486:	6836      	ldr	r6, [r6, #0]
 8005488:	e003      	b.n	8005492 <_vfprintf_r+0xc8a>
 800548a:	f01a 0f40 	tst.w	sl, #64	; 0x40
 800548e:	d003      	beq.n	8005498 <_vfprintf_r+0xc90>
 8005490:	8836      	ldrh	r6, [r6, #0]
 8005492:	2700      	movs	r7, #0
 8005494:	f7ff bb3e 	b.w	8004b14 <_vfprintf_r+0x30c>
 8005498:	f41a 7f00 	tst.w	sl, #512	; 0x200
 800549c:	d0f3      	beq.n	8005486 <_vfprintf_r+0xc7e>
 800549e:	7836      	ldrb	r6, [r6, #0]
 80054a0:	e7f7      	b.n	8005492 <_vfprintf_r+0xc8a>
 80054a2:	4652      	mov	r2, sl
 80054a4:	2301      	movs	r3, #1
 80054a6:	e6a4      	b.n	80051f2 <_vfprintf_r+0x9ea>
 80054a8:	2b01      	cmp	r3, #1
 80054aa:	f43f abf9 	beq.w	8004ca0 <_vfprintf_r+0x498>
 80054ae:	2b02      	cmp	r3, #2
 80054b0:	d06e      	beq.n	8005590 <_vfprintf_r+0xd88>
 80054b2:	ab52      	add	r3, sp, #328	; 0x148
 80054b4:	08f1      	lsrs	r1, r6, #3
 80054b6:	ea41 7147 	orr.w	r1, r1, r7, lsl #29
 80054ba:	08f8      	lsrs	r0, r7, #3
 80054bc:	f006 0207 	and.w	r2, r6, #7
 80054c0:	4607      	mov	r7, r0
 80054c2:	460e      	mov	r6, r1
 80054c4:	3230      	adds	r2, #48	; 0x30
 80054c6:	ea56 0107 	orrs.w	r1, r6, r7
 80054ca:	f103 39ff 	add.w	r9, r3, #4294967295
 80054ce:	f803 2c01 	strb.w	r2, [r3, #-1]
 80054d2:	d113      	bne.n	80054fc <_vfprintf_r+0xcf4>
 80054d4:	f01a 0f01 	tst.w	sl, #1
 80054d8:	d006      	beq.n	80054e8 <_vfprintf_r+0xce0>
 80054da:	2a30      	cmp	r2, #48	; 0x30
 80054dc:	d004      	beq.n	80054e8 <_vfprintf_r+0xce0>
 80054de:	2230      	movs	r2, #48	; 0x30
 80054e0:	f809 2c01 	strb.w	r2, [r9, #-1]
 80054e4:	f1a3 0902 	sub.w	r9, r3, #2
 80054e8:	ab52      	add	r3, sp, #328	; 0x148
 80054ea:	9510      	str	r5, [sp, #64]	; 0x40
 80054ec:	eba3 0509 	sub.w	r5, r3, r9
 80054f0:	2300      	movs	r3, #0
 80054f2:	9303      	str	r3, [sp, #12]
 80054f4:	461f      	mov	r7, r3
 80054f6:	9307      	str	r3, [sp, #28]
 80054f8:	461e      	mov	r6, r3
 80054fa:	e6c2      	b.n	8005282 <_vfprintf_r+0xa7a>
 80054fc:	464b      	mov	r3, r9
 80054fe:	e7d9      	b.n	80054b4 <_vfprintf_r+0xcac>
 8005500:	08008a7c 	.word	0x08008a7c
 8005504:	08008a9e 	.word	0x08008a9e
 8005508:	08008aae 	.word	0x08008aae
 800550c:	2300      	movs	r3, #0
 800550e:	9304      	str	r3, [sp, #16]
 8005510:	ab52      	add	r3, sp, #328	; 0x148
 8005512:	9303      	str	r3, [sp, #12]
 8005514:	f40a 6380 	and.w	r3, sl, #1024	; 0x400
 8005518:	9307      	str	r3, [sp, #28]
 800551a:	9b03      	ldr	r3, [sp, #12]
 800551c:	220a      	movs	r2, #10
 800551e:	f103 39ff 	add.w	r9, r3, #4294967295
 8005522:	4630      	mov	r0, r6
 8005524:	2300      	movs	r3, #0
 8005526:	4639      	mov	r1, r7
 8005528:	f7fb fbae 	bl	8000c88 <__aeabi_uldivmod>
 800552c:	9b03      	ldr	r3, [sp, #12]
 800552e:	3230      	adds	r2, #48	; 0x30
 8005530:	f803 2c01 	strb.w	r2, [r3, #-1]
 8005534:	9b04      	ldr	r3, [sp, #16]
 8005536:	3301      	adds	r3, #1
 8005538:	9304      	str	r3, [sp, #16]
 800553a:	9b07      	ldr	r3, [sp, #28]
 800553c:	b1d3      	cbz	r3, 8005574 <_vfprintf_r+0xd6c>
 800553e:	9b08      	ldr	r3, [sp, #32]
 8005540:	9a04      	ldr	r2, [sp, #16]
 8005542:	781b      	ldrb	r3, [r3, #0]
 8005544:	429a      	cmp	r2, r3
 8005546:	d115      	bne.n	8005574 <_vfprintf_r+0xd6c>
 8005548:	2aff      	cmp	r2, #255	; 0xff
 800554a:	d013      	beq.n	8005574 <_vfprintf_r+0xd6c>
 800554c:	2f00      	cmp	r7, #0
 800554e:	bf08      	it	eq
 8005550:	2e0a      	cmpeq	r6, #10
 8005552:	d30f      	bcc.n	8005574 <_vfprintf_r+0xd6c>
 8005554:	9b12      	ldr	r3, [sp, #72]	; 0x48
 8005556:	9919      	ldr	r1, [sp, #100]	; 0x64
 8005558:	eba9 0903 	sub.w	r9, r9, r3
 800555c:	461a      	mov	r2, r3
 800555e:	4648      	mov	r0, r9
 8005560:	f002 fdf5 	bl	800814e <strncpy>
 8005564:	9b08      	ldr	r3, [sp, #32]
 8005566:	785b      	ldrb	r3, [r3, #1]
 8005568:	b11b      	cbz	r3, 8005572 <_vfprintf_r+0xd6a>
 800556a:	9b08      	ldr	r3, [sp, #32]
 800556c:	3301      	adds	r3, #1
 800556e:	9308      	str	r3, [sp, #32]
 8005570:	2300      	movs	r3, #0
 8005572:	9304      	str	r3, [sp, #16]
 8005574:	2300      	movs	r3, #0
 8005576:	4630      	mov	r0, r6
 8005578:	4639      	mov	r1, r7
 800557a:	220a      	movs	r2, #10
 800557c:	f7fb fb84 	bl	8000c88 <__aeabi_uldivmod>
 8005580:	4606      	mov	r6, r0
 8005582:	460f      	mov	r7, r1
 8005584:	ea56 0307 	orrs.w	r3, r6, r7
 8005588:	d0ae      	beq.n	80054e8 <_vfprintf_r+0xce0>
 800558a:	f8cd 900c 	str.w	r9, [sp, #12]
 800558e:	e7c4      	b.n	800551a <_vfprintf_r+0xd12>
 8005590:	f50d 79a4 	add.w	r9, sp, #328	; 0x148
 8005594:	f006 030f 	and.w	r3, r6, #15
 8005598:	9a18      	ldr	r2, [sp, #96]	; 0x60
 800559a:	5cd3      	ldrb	r3, [r2, r3]
 800559c:	f809 3d01 	strb.w	r3, [r9, #-1]!
 80055a0:	0933      	lsrs	r3, r6, #4
 80055a2:	ea43 7307 	orr.w	r3, r3, r7, lsl #28
 80055a6:	093a      	lsrs	r2, r7, #4
 80055a8:	461e      	mov	r6, r3
 80055aa:	4617      	mov	r7, r2
 80055ac:	ea56 0307 	orrs.w	r3, r6, r7
 80055b0:	d1f0      	bne.n	8005594 <_vfprintf_r+0xd8c>
 80055b2:	e799      	b.n	80054e8 <_vfprintf_r+0xce0>
 80055b4:	f50d 79a4 	add.w	r9, sp, #328	; 0x148
 80055b8:	2b00      	cmp	r3, #0
 80055ba:	d195      	bne.n	80054e8 <_vfprintf_r+0xce0>
 80055bc:	07d6      	lsls	r6, r2, #31
 80055be:	bf44      	itt	mi
 80055c0:	2330      	movmi	r3, #48	; 0x30
 80055c2:	f809 3d01 	strbmi.w	r3, [r9, #-1]!
 80055c6:	e78f      	b.n	80054e8 <_vfprintf_r+0xce0>
 80055c8:	9b06      	ldr	r3, [sp, #24]
 80055ca:	2b00      	cmp	r3, #0
 80055cc:	f000 837a 	beq.w	8005cc4 <_vfprintf_r+0x14bc>
 80055d0:	2000      	movs	r0, #0
 80055d2:	f88d 30e4 	strb.w	r3, [sp, #228]	; 0xe4
 80055d6:	f88d 007b 	strb.w	r0, [sp, #123]	; 0x7b
 80055da:	9609      	str	r6, [sp, #36]	; 0x24
 80055dc:	f7ff bb3c 	b.w	8004c58 <_vfprintf_r+0x450>
 80055e0:	f8dd a040 	ldr.w	sl, [sp, #64]	; 0x40
 80055e4:	9b13      	ldr	r3, [sp, #76]	; 0x4c
 80055e6:	e4ea      	b.n	8004fbe <_vfprintf_r+0x7b6>
 80055e8:	9b03      	ldr	r3, [sp, #12]
 80055ea:	f7ff bbae 	b.w	8004d4a <_vfprintf_r+0x542>
 80055ee:	2010      	movs	r0, #16
 80055f0:	4403      	add	r3, r0
 80055f2:	2a07      	cmp	r2, #7
 80055f4:	6060      	str	r0, [r4, #4]
 80055f6:	e9cd 2327 	strd	r2, r3, [sp, #156]	; 0x9c
 80055fa:	dd08      	ble.n	800560e <_vfprintf_r+0xe06>
 80055fc:	aa26      	add	r2, sp, #152	; 0x98
 80055fe:	4641      	mov	r1, r8
 8005600:	4658      	mov	r0, fp
 8005602:	f002 fdc6 	bl	8008192 <__sprint_r>
 8005606:	2800      	cmp	r0, #0
 8005608:	f040 833a 	bne.w	8005c80 <_vfprintf_r+0x1478>
 800560c:	a929      	add	r1, sp, #164	; 0xa4
 800560e:	9b13      	ldr	r3, [sp, #76]	; 0x4c
 8005610:	3b10      	subs	r3, #16
 8005612:	9313      	str	r3, [sp, #76]	; 0x4c
 8005614:	460c      	mov	r4, r1
 8005616:	e650      	b.n	80052ba <_vfprintf_r+0xab2>
 8005618:	460c      	mov	r4, r1
 800561a:	e66b      	b.n	80052f4 <_vfprintf_r+0xaec>
 800561c:	aa26      	add	r2, sp, #152	; 0x98
 800561e:	4641      	mov	r1, r8
 8005620:	4658      	mov	r0, fp
 8005622:	f002 fdb6 	bl	8008192 <__sprint_r>
 8005626:	2800      	cmp	r0, #0
 8005628:	f040 832a 	bne.w	8005c80 <_vfprintf_r+0x1478>
 800562c:	ac29      	add	r4, sp, #164	; 0xa4
 800562e:	e673      	b.n	8005318 <_vfprintf_r+0xb10>
 8005630:	aa26      	add	r2, sp, #152	; 0x98
 8005632:	4641      	mov	r1, r8
 8005634:	4658      	mov	r0, fp
 8005636:	f002 fdac 	bl	8008192 <__sprint_r>
 800563a:	2800      	cmp	r0, #0
 800563c:	f040 8320 	bne.w	8005c80 <_vfprintf_r+0x1478>
 8005640:	ac29      	add	r4, sp, #164	; 0xa4
 8005642:	e679      	b.n	8005338 <_vfprintf_r+0xb30>
 8005644:	2010      	movs	r0, #16
 8005646:	4403      	add	r3, r0
 8005648:	2a07      	cmp	r2, #7
 800564a:	6060      	str	r0, [r4, #4]
 800564c:	e9cd 2327 	strd	r2, r3, [sp, #156]	; 0x9c
 8005650:	dd08      	ble.n	8005664 <_vfprintf_r+0xe5c>
 8005652:	aa26      	add	r2, sp, #152	; 0x98
 8005654:	4641      	mov	r1, r8
 8005656:	4658      	mov	r0, fp
 8005658:	f002 fd9b 	bl	8008192 <__sprint_r>
 800565c:	2800      	cmp	r0, #0
 800565e:	f040 830f 	bne.w	8005c80 <_vfprintf_r+0x1478>
 8005662:	a929      	add	r1, sp, #164	; 0xa4
 8005664:	9b13      	ldr	r3, [sp, #76]	; 0x4c
 8005666:	3b10      	subs	r3, #16
 8005668:	9313      	str	r3, [sp, #76]	; 0x4c
 800566a:	460c      	mov	r4, r1
 800566c:	e66d      	b.n	800534a <_vfprintf_r+0xb42>
 800566e:	460c      	mov	r4, r1
 8005670:	e688      	b.n	8005384 <_vfprintf_r+0xb7c>
 8005672:	2010      	movs	r0, #16
 8005674:	4403      	add	r3, r0
 8005676:	2a07      	cmp	r2, #7
 8005678:	6060      	str	r0, [r4, #4]
 800567a:	e9cd 2327 	strd	r2, r3, [sp, #156]	; 0x9c
 800567e:	dd08      	ble.n	8005692 <_vfprintf_r+0xe8a>
 8005680:	aa26      	add	r2, sp, #152	; 0x98
 8005682:	4641      	mov	r1, r8
 8005684:	4658      	mov	r0, fp
 8005686:	f002 fd84 	bl	8008192 <__sprint_r>
 800568a:	2800      	cmp	r0, #0
 800568c:	f040 82f8 	bne.w	8005c80 <_vfprintf_r+0x1478>
 8005690:	a929      	add	r1, sp, #164	; 0xa4
 8005692:	9b10      	ldr	r3, [sp, #64]	; 0x40
 8005694:	3b10      	subs	r3, #16
 8005696:	9310      	str	r3, [sp, #64]	; 0x40
 8005698:	460c      	mov	r4, r1
 800569a:	e678      	b.n	800538e <_vfprintf_r+0xb86>
 800569c:	460c      	mov	r4, r1
 800569e:	e693      	b.n	80053c8 <_vfprintf_r+0xbc0>
 80056a0:	9b06      	ldr	r3, [sp, #24]
 80056a2:	2b65      	cmp	r3, #101	; 0x65
 80056a4:	f340 8234 	ble.w	8005b10 <_vfprintf_r+0x1308>
 80056a8:	2200      	movs	r2, #0
 80056aa:	2300      	movs	r3, #0
 80056ac:	e9dd 010a 	ldrd	r0, r1, [sp, #40]	; 0x28
 80056b0:	f7fb fa2a 	bl	8000b08 <__aeabi_dcmpeq>
 80056b4:	2800      	cmp	r0, #0
 80056b6:	d069      	beq.n	800578c <_vfprintf_r+0xf84>
 80056b8:	4b6e      	ldr	r3, [pc, #440]	; (8005874 <_vfprintf_r+0x106c>)
 80056ba:	9d10      	ldr	r5, [sp, #64]	; 0x40
 80056bc:	6023      	str	r3, [r4, #0]
 80056be:	2301      	movs	r3, #1
 80056c0:	441d      	add	r5, r3
 80056c2:	6063      	str	r3, [r4, #4]
 80056c4:	9b27      	ldr	r3, [sp, #156]	; 0x9c
 80056c6:	9528      	str	r5, [sp, #160]	; 0xa0
 80056c8:	3301      	adds	r3, #1
 80056ca:	2b07      	cmp	r3, #7
 80056cc:	9327      	str	r3, [sp, #156]	; 0x9c
 80056ce:	dc37      	bgt.n	8005740 <_vfprintf_r+0xf38>
 80056d0:	3408      	adds	r4, #8
 80056d2:	9b20      	ldr	r3, [sp, #128]	; 0x80
 80056d4:	9a04      	ldr	r2, [sp, #16]
 80056d6:	4293      	cmp	r3, r2
 80056d8:	db03      	blt.n	80056e2 <_vfprintf_r+0xeda>
 80056da:	f01a 0f01 	tst.w	sl, #1
 80056de:	f43f ae84 	beq.w	80053ea <_vfprintf_r+0xbe2>
 80056e2:	9b16      	ldr	r3, [sp, #88]	; 0x58
 80056e4:	6023      	str	r3, [r4, #0]
 80056e6:	9b0d      	ldr	r3, [sp, #52]	; 0x34
 80056e8:	6063      	str	r3, [r4, #4]
 80056ea:	9a0d      	ldr	r2, [sp, #52]	; 0x34
 80056ec:	9b28      	ldr	r3, [sp, #160]	; 0xa0
 80056ee:	4413      	add	r3, r2
 80056f0:	9328      	str	r3, [sp, #160]	; 0xa0
 80056f2:	9b27      	ldr	r3, [sp, #156]	; 0x9c
 80056f4:	3301      	adds	r3, #1
 80056f6:	2b07      	cmp	r3, #7
 80056f8:	9327      	str	r3, [sp, #156]	; 0x9c
 80056fa:	dc2b      	bgt.n	8005754 <_vfprintf_r+0xf4c>
 80056fc:	3408      	adds	r4, #8
 80056fe:	9b04      	ldr	r3, [sp, #16]
 8005700:	1e5d      	subs	r5, r3, #1
 8005702:	2d00      	cmp	r5, #0
 8005704:	f77f ae71 	ble.w	80053ea <_vfprintf_r+0xbe2>
 8005708:	4e5b      	ldr	r6, [pc, #364]	; (8005878 <_vfprintf_r+0x1070>)
 800570a:	2710      	movs	r7, #16
 800570c:	e9dd 3227 	ldrd	r3, r2, [sp, #156]	; 0x9c
 8005710:	2d10      	cmp	r5, #16
 8005712:	f103 0301 	add.w	r3, r3, #1
 8005716:	f104 0108 	add.w	r1, r4, #8
 800571a:	6026      	str	r6, [r4, #0]
 800571c:	dc24      	bgt.n	8005768 <_vfprintf_r+0xf60>
 800571e:	6065      	str	r5, [r4, #4]
 8005720:	2b07      	cmp	r3, #7
 8005722:	4415      	add	r5, r2
 8005724:	e9cd 3527 	strd	r3, r5, [sp, #156]	; 0x9c
 8005728:	f340 8289 	ble.w	8005c3e <_vfprintf_r+0x1436>
 800572c:	aa26      	add	r2, sp, #152	; 0x98
 800572e:	4641      	mov	r1, r8
 8005730:	4658      	mov	r0, fp
 8005732:	f002 fd2e 	bl	8008192 <__sprint_r>
 8005736:	2800      	cmp	r0, #0
 8005738:	f040 82a2 	bne.w	8005c80 <_vfprintf_r+0x1478>
 800573c:	ac29      	add	r4, sp, #164	; 0xa4
 800573e:	e654      	b.n	80053ea <_vfprintf_r+0xbe2>
 8005740:	aa26      	add	r2, sp, #152	; 0x98
 8005742:	4641      	mov	r1, r8
 8005744:	4658      	mov	r0, fp
 8005746:	f002 fd24 	bl	8008192 <__sprint_r>
 800574a:	2800      	cmp	r0, #0
 800574c:	f040 8298 	bne.w	8005c80 <_vfprintf_r+0x1478>
 8005750:	ac29      	add	r4, sp, #164	; 0xa4
 8005752:	e7be      	b.n	80056d2 <_vfprintf_r+0xeca>
 8005754:	aa26      	add	r2, sp, #152	; 0x98
 8005756:	4641      	mov	r1, r8
 8005758:	4658      	mov	r0, fp
 800575a:	f002 fd1a 	bl	8008192 <__sprint_r>
 800575e:	2800      	cmp	r0, #0
 8005760:	f040 828e 	bne.w	8005c80 <_vfprintf_r+0x1478>
 8005764:	ac29      	add	r4, sp, #164	; 0xa4
 8005766:	e7ca      	b.n	80056fe <_vfprintf_r+0xef6>
 8005768:	3210      	adds	r2, #16
 800576a:	2b07      	cmp	r3, #7
 800576c:	6067      	str	r7, [r4, #4]
 800576e:	e9cd 3227 	strd	r3, r2, [sp, #156]	; 0x9c
 8005772:	dd08      	ble.n	8005786 <_vfprintf_r+0xf7e>
 8005774:	aa26      	add	r2, sp, #152	; 0x98
 8005776:	4641      	mov	r1, r8
 8005778:	4658      	mov	r0, fp
 800577a:	f002 fd0a 	bl	8008192 <__sprint_r>
 800577e:	2800      	cmp	r0, #0
 8005780:	f040 827e 	bne.w	8005c80 <_vfprintf_r+0x1478>
 8005784:	a929      	add	r1, sp, #164	; 0xa4
 8005786:	3d10      	subs	r5, #16
 8005788:	460c      	mov	r4, r1
 800578a:	e7bf      	b.n	800570c <_vfprintf_r+0xf04>
 800578c:	9b20      	ldr	r3, [sp, #128]	; 0x80
 800578e:	2b00      	cmp	r3, #0
 8005790:	dc74      	bgt.n	800587c <_vfprintf_r+0x1074>
 8005792:	4b38      	ldr	r3, [pc, #224]	; (8005874 <_vfprintf_r+0x106c>)
 8005794:	9d10      	ldr	r5, [sp, #64]	; 0x40
 8005796:	6023      	str	r3, [r4, #0]
 8005798:	2301      	movs	r3, #1
 800579a:	441d      	add	r5, r3
 800579c:	6063      	str	r3, [r4, #4]
 800579e:	9b27      	ldr	r3, [sp, #156]	; 0x9c
 80057a0:	9528      	str	r5, [sp, #160]	; 0xa0
 80057a2:	3301      	adds	r3, #1
 80057a4:	2b07      	cmp	r3, #7
 80057a6:	9327      	str	r3, [sp, #156]	; 0x9c
 80057a8:	dc3e      	bgt.n	8005828 <_vfprintf_r+0x1020>
 80057aa:	3408      	adds	r4, #8
 80057ac:	9b20      	ldr	r3, [sp, #128]	; 0x80
 80057ae:	b92b      	cbnz	r3, 80057bc <_vfprintf_r+0xfb4>
 80057b0:	9b04      	ldr	r3, [sp, #16]
 80057b2:	b91b      	cbnz	r3, 80057bc <_vfprintf_r+0xfb4>
 80057b4:	f01a 0f01 	tst.w	sl, #1
 80057b8:	f43f ae17 	beq.w	80053ea <_vfprintf_r+0xbe2>
 80057bc:	9b16      	ldr	r3, [sp, #88]	; 0x58
 80057be:	6023      	str	r3, [r4, #0]
 80057c0:	9b0d      	ldr	r3, [sp, #52]	; 0x34
 80057c2:	6063      	str	r3, [r4, #4]
 80057c4:	9a0d      	ldr	r2, [sp, #52]	; 0x34
 80057c6:	9b28      	ldr	r3, [sp, #160]	; 0xa0
 80057c8:	4413      	add	r3, r2
 80057ca:	9328      	str	r3, [sp, #160]	; 0xa0
 80057cc:	9b27      	ldr	r3, [sp, #156]	; 0x9c
 80057ce:	3301      	adds	r3, #1
 80057d0:	2b07      	cmp	r3, #7
 80057d2:	9327      	str	r3, [sp, #156]	; 0x9c
 80057d4:	dc32      	bgt.n	800583c <_vfprintf_r+0x1034>
 80057d6:	3408      	adds	r4, #8
 80057d8:	9d20      	ldr	r5, [sp, #128]	; 0x80
 80057da:	2d00      	cmp	r5, #0
 80057dc:	da1b      	bge.n	8005816 <_vfprintf_r+0x100e>
 80057de:	4e26      	ldr	r6, [pc, #152]	; (8005878 <_vfprintf_r+0x1070>)
 80057e0:	426d      	negs	r5, r5
 80057e2:	4623      	mov	r3, r4
 80057e4:	2710      	movs	r7, #16
 80057e6:	e9dd 2127 	ldrd	r2, r1, [sp, #156]	; 0x9c
 80057ea:	2d10      	cmp	r5, #16
 80057ec:	f102 0201 	add.w	r2, r2, #1
 80057f0:	f104 0408 	add.w	r4, r4, #8
 80057f4:	601e      	str	r6, [r3, #0]
 80057f6:	dc2b      	bgt.n	8005850 <_vfprintf_r+0x1048>
 80057f8:	605d      	str	r5, [r3, #4]
 80057fa:	2a07      	cmp	r2, #7
 80057fc:	440d      	add	r5, r1
 80057fe:	e9cd 2527 	strd	r2, r5, [sp, #156]	; 0x9c
 8005802:	dd08      	ble.n	8005816 <_vfprintf_r+0x100e>
 8005804:	aa26      	add	r2, sp, #152	; 0x98
 8005806:	4641      	mov	r1, r8
 8005808:	4658      	mov	r0, fp
 800580a:	f002 fcc2 	bl	8008192 <__sprint_r>
 800580e:	2800      	cmp	r0, #0
 8005810:	f040 8236 	bne.w	8005c80 <_vfprintf_r+0x1478>
 8005814:	ac29      	add	r4, sp, #164	; 0xa4
 8005816:	9b04      	ldr	r3, [sp, #16]
 8005818:	6063      	str	r3, [r4, #4]
 800581a:	9a04      	ldr	r2, [sp, #16]
 800581c:	9b28      	ldr	r3, [sp, #160]	; 0xa0
 800581e:	f8c4 9000 	str.w	r9, [r4]
 8005822:	4413      	add	r3, r2
 8005824:	9328      	str	r3, [sp, #160]	; 0xa0
 8005826:	e5d9      	b.n	80053dc <_vfprintf_r+0xbd4>
 8005828:	aa26      	add	r2, sp, #152	; 0x98
 800582a:	4641      	mov	r1, r8
 800582c:	4658      	mov	r0, fp
 800582e:	f002 fcb0 	bl	8008192 <__sprint_r>
 8005832:	2800      	cmp	r0, #0
 8005834:	f040 8224 	bne.w	8005c80 <_vfprintf_r+0x1478>
 8005838:	ac29      	add	r4, sp, #164	; 0xa4
 800583a:	e7b7      	b.n	80057ac <_vfprintf_r+0xfa4>
 800583c:	aa26      	add	r2, sp, #152	; 0x98
 800583e:	4641      	mov	r1, r8
 8005840:	4658      	mov	r0, fp
 8005842:	f002 fca6 	bl	8008192 <__sprint_r>
 8005846:	2800      	cmp	r0, #0
 8005848:	f040 821a 	bne.w	8005c80 <_vfprintf_r+0x1478>
 800584c:	ac29      	add	r4, sp, #164	; 0xa4
 800584e:	e7c3      	b.n	80057d8 <_vfprintf_r+0xfd0>
 8005850:	3110      	adds	r1, #16
 8005852:	2a07      	cmp	r2, #7
 8005854:	605f      	str	r7, [r3, #4]
 8005856:	e9cd 2127 	strd	r2, r1, [sp, #156]	; 0x9c
 800585a:	dd08      	ble.n	800586e <_vfprintf_r+0x1066>
 800585c:	aa26      	add	r2, sp, #152	; 0x98
 800585e:	4641      	mov	r1, r8
 8005860:	4658      	mov	r0, fp
 8005862:	f002 fc96 	bl	8008192 <__sprint_r>
 8005866:	2800      	cmp	r0, #0
 8005868:	f040 820a 	bne.w	8005c80 <_vfprintf_r+0x1478>
 800586c:	ac29      	add	r4, sp, #164	; 0xa4
 800586e:	3d10      	subs	r5, #16
 8005870:	4623      	mov	r3, r4
 8005872:	e7b8      	b.n	80057e6 <_vfprintf_r+0xfde>
 8005874:	080088f9 	.word	0x080088f9
 8005878:	08008aae 	.word	0x08008aae
 800587c:	9b04      	ldr	r3, [sp, #16]
 800587e:	42b3      	cmp	r3, r6
 8005880:	bfa8      	it	ge
 8005882:	4633      	movge	r3, r6
 8005884:	2b00      	cmp	r3, #0
 8005886:	461d      	mov	r5, r3
 8005888:	dd0b      	ble.n	80058a2 <_vfprintf_r+0x109a>
 800588a:	e9c4 9300 	strd	r9, r3, [r4]
 800588e:	9b10      	ldr	r3, [sp, #64]	; 0x40
 8005890:	442b      	add	r3, r5
 8005892:	9328      	str	r3, [sp, #160]	; 0xa0
 8005894:	9b27      	ldr	r3, [sp, #156]	; 0x9c
 8005896:	3301      	adds	r3, #1
 8005898:	2b07      	cmp	r3, #7
 800589a:	9327      	str	r3, [sp, #156]	; 0x9c
 800589c:	f300 8086 	bgt.w	80059ac <_vfprintf_r+0x11a4>
 80058a0:	3408      	adds	r4, #8
 80058a2:	2d00      	cmp	r5, #0
 80058a4:	bfac      	ite	ge
 80058a6:	1b75      	subge	r5, r6, r5
 80058a8:	4635      	movlt	r5, r6
 80058aa:	2d00      	cmp	r5, #0
 80058ac:	dd19      	ble.n	80058e2 <_vfprintf_r+0x10da>
 80058ae:	e9dd 3227 	ldrd	r3, r2, [sp, #156]	; 0x9c
 80058b2:	4896      	ldr	r0, [pc, #600]	; (8005b0c <_vfprintf_r+0x1304>)
 80058b4:	6020      	str	r0, [r4, #0]
 80058b6:	2d10      	cmp	r5, #16
 80058b8:	f103 0301 	add.w	r3, r3, #1
 80058bc:	f104 0108 	add.w	r1, r4, #8
 80058c0:	dc7e      	bgt.n	80059c0 <_vfprintf_r+0x11b8>
 80058c2:	6065      	str	r5, [r4, #4]
 80058c4:	2b07      	cmp	r3, #7
 80058c6:	4415      	add	r5, r2
 80058c8:	e9cd 3527 	strd	r3, r5, [sp, #156]	; 0x9c
 80058cc:	f340 808b 	ble.w	80059e6 <_vfprintf_r+0x11de>
 80058d0:	aa26      	add	r2, sp, #152	; 0x98
 80058d2:	4641      	mov	r1, r8
 80058d4:	4658      	mov	r0, fp
 80058d6:	f002 fc5c 	bl	8008192 <__sprint_r>
 80058da:	2800      	cmp	r0, #0
 80058dc:	f040 81d0 	bne.w	8005c80 <_vfprintf_r+0x1478>
 80058e0:	ac29      	add	r4, sp, #164	; 0xa4
 80058e2:	f41a 6f80 	tst.w	sl, #1024	; 0x400
 80058e6:	444e      	add	r6, r9
 80058e8:	d009      	beq.n	80058fe <_vfprintf_r+0x10f6>
 80058ea:	9b07      	ldr	r3, [sp, #28]
 80058ec:	2b00      	cmp	r3, #0
 80058ee:	d17c      	bne.n	80059ea <_vfprintf_r+0x11e2>
 80058f0:	2f00      	cmp	r7, #0
 80058f2:	d17c      	bne.n	80059ee <_vfprintf_r+0x11e6>
 80058f4:	9b04      	ldr	r3, [sp, #16]
 80058f6:	444b      	add	r3, r9
 80058f8:	429e      	cmp	r6, r3
 80058fa:	bf28      	it	cs
 80058fc:	461e      	movcs	r6, r3
 80058fe:	9b20      	ldr	r3, [sp, #128]	; 0x80
 8005900:	9a04      	ldr	r2, [sp, #16]
 8005902:	4293      	cmp	r3, r2
 8005904:	db02      	blt.n	800590c <_vfprintf_r+0x1104>
 8005906:	f01a 0f01 	tst.w	sl, #1
 800590a:	d00e      	beq.n	800592a <_vfprintf_r+0x1122>
 800590c:	9b16      	ldr	r3, [sp, #88]	; 0x58
 800590e:	6023      	str	r3, [r4, #0]
 8005910:	9b0d      	ldr	r3, [sp, #52]	; 0x34
 8005912:	6063      	str	r3, [r4, #4]
 8005914:	9a0d      	ldr	r2, [sp, #52]	; 0x34
 8005916:	9b28      	ldr	r3, [sp, #160]	; 0xa0
 8005918:	4413      	add	r3, r2
 800591a:	9328      	str	r3, [sp, #160]	; 0xa0
 800591c:	9b27      	ldr	r3, [sp, #156]	; 0x9c
 800591e:	3301      	adds	r3, #1
 8005920:	2b07      	cmp	r3, #7
 8005922:	9327      	str	r3, [sp, #156]	; 0x9c
 8005924:	f300 80dd 	bgt.w	8005ae2 <_vfprintf_r+0x12da>
 8005928:	3408      	adds	r4, #8
 800592a:	9b04      	ldr	r3, [sp, #16]
 800592c:	9a04      	ldr	r2, [sp, #16]
 800592e:	eb09 0503 	add.w	r5, r9, r3
 8005932:	1bab      	subs	r3, r5, r6
 8005934:	9d20      	ldr	r5, [sp, #128]	; 0x80
 8005936:	1b55      	subs	r5, r2, r5
 8005938:	429d      	cmp	r5, r3
 800593a:	bfa8      	it	ge
 800593c:	461d      	movge	r5, r3
 800593e:	2d00      	cmp	r5, #0
 8005940:	dd0b      	ble.n	800595a <_vfprintf_r+0x1152>
 8005942:	9b28      	ldr	r3, [sp, #160]	; 0xa0
 8005944:	442b      	add	r3, r5
 8005946:	9328      	str	r3, [sp, #160]	; 0xa0
 8005948:	9b27      	ldr	r3, [sp, #156]	; 0x9c
 800594a:	3301      	adds	r3, #1
 800594c:	2b07      	cmp	r3, #7
 800594e:	e9c4 6500 	strd	r6, r5, [r4]
 8005952:	9327      	str	r3, [sp, #156]	; 0x9c
 8005954:	f300 80cf 	bgt.w	8005af6 <_vfprintf_r+0x12ee>
 8005958:	3408      	adds	r4, #8
 800595a:	9b20      	ldr	r3, [sp, #128]	; 0x80
 800595c:	9a04      	ldr	r2, [sp, #16]
 800595e:	2d00      	cmp	r5, #0
 8005960:	eba2 0303 	sub.w	r3, r2, r3
 8005964:	bfac      	ite	ge
 8005966:	1b5d      	subge	r5, r3, r5
 8005968:	461d      	movlt	r5, r3
 800596a:	2d00      	cmp	r5, #0
 800596c:	f77f ad3d 	ble.w	80053ea <_vfprintf_r+0xbe2>
 8005970:	4e66      	ldr	r6, [pc, #408]	; (8005b0c <_vfprintf_r+0x1304>)
 8005972:	2710      	movs	r7, #16
 8005974:	e9dd 3227 	ldrd	r3, r2, [sp, #156]	; 0x9c
 8005978:	2d10      	cmp	r5, #16
 800597a:	f103 0301 	add.w	r3, r3, #1
 800597e:	f104 0108 	add.w	r1, r4, #8
 8005982:	6026      	str	r6, [r4, #0]
 8005984:	f77f aecb 	ble.w	800571e <_vfprintf_r+0xf16>
 8005988:	3210      	adds	r2, #16
 800598a:	2b07      	cmp	r3, #7
 800598c:	6067      	str	r7, [r4, #4]
 800598e:	e9cd 3227 	strd	r3, r2, [sp, #156]	; 0x9c
 8005992:	dd08      	ble.n	80059a6 <_vfprintf_r+0x119e>
 8005994:	aa26      	add	r2, sp, #152	; 0x98
 8005996:	4641      	mov	r1, r8
 8005998:	4658      	mov	r0, fp
 800599a:	f002 fbfa 	bl	8008192 <__sprint_r>
 800599e:	2800      	cmp	r0, #0
 80059a0:	f040 816e 	bne.w	8005c80 <_vfprintf_r+0x1478>
 80059a4:	a929      	add	r1, sp, #164	; 0xa4
 80059a6:	3d10      	subs	r5, #16
 80059a8:	460c      	mov	r4, r1
 80059aa:	e7e3      	b.n	8005974 <_vfprintf_r+0x116c>
 80059ac:	aa26      	add	r2, sp, #152	; 0x98
 80059ae:	4641      	mov	r1, r8
 80059b0:	4658      	mov	r0, fp
 80059b2:	f002 fbee 	bl	8008192 <__sprint_r>
 80059b6:	2800      	cmp	r0, #0
 80059b8:	f040 8162 	bne.w	8005c80 <_vfprintf_r+0x1478>
 80059bc:	ac29      	add	r4, sp, #164	; 0xa4
 80059be:	e770      	b.n	80058a2 <_vfprintf_r+0x109a>
 80059c0:	2010      	movs	r0, #16
 80059c2:	4402      	add	r2, r0
 80059c4:	2b07      	cmp	r3, #7
 80059c6:	6060      	str	r0, [r4, #4]
 80059c8:	e9cd 3227 	strd	r3, r2, [sp, #156]	; 0x9c
 80059cc:	dd08      	ble.n	80059e0 <_vfprintf_r+0x11d8>
 80059ce:	aa26      	add	r2, sp, #152	; 0x98
 80059d0:	4641      	mov	r1, r8
 80059d2:	4658      	mov	r0, fp
 80059d4:	f002 fbdd 	bl	8008192 <__sprint_r>
 80059d8:	2800      	cmp	r0, #0
 80059da:	f040 8151 	bne.w	8005c80 <_vfprintf_r+0x1478>
 80059de:	a929      	add	r1, sp, #164	; 0xa4
 80059e0:	3d10      	subs	r5, #16
 80059e2:	460c      	mov	r4, r1
 80059e4:	e763      	b.n	80058ae <_vfprintf_r+0x10a6>
 80059e6:	460c      	mov	r4, r1
 80059e8:	e77b      	b.n	80058e2 <_vfprintf_r+0x10da>
 80059ea:	2f00      	cmp	r7, #0
 80059ec:	d049      	beq.n	8005a82 <_vfprintf_r+0x127a>
 80059ee:	3f01      	subs	r7, #1
 80059f0:	9b19      	ldr	r3, [sp, #100]	; 0x64
 80059f2:	6023      	str	r3, [r4, #0]
 80059f4:	9b12      	ldr	r3, [sp, #72]	; 0x48
 80059f6:	6063      	str	r3, [r4, #4]
 80059f8:	9a12      	ldr	r2, [sp, #72]	; 0x48
 80059fa:	9b28      	ldr	r3, [sp, #160]	; 0xa0
 80059fc:	4413      	add	r3, r2
 80059fe:	9328      	str	r3, [sp, #160]	; 0xa0
 8005a00:	9b27      	ldr	r3, [sp, #156]	; 0x9c
 8005a02:	3301      	adds	r3, #1
 8005a04:	2b07      	cmp	r3, #7
 8005a06:	9327      	str	r3, [sp, #156]	; 0x9c
 8005a08:	dc42      	bgt.n	8005a90 <_vfprintf_r+0x1288>
 8005a0a:	3408      	adds	r4, #8
 8005a0c:	9b04      	ldr	r3, [sp, #16]
 8005a0e:	444b      	add	r3, r9
 8005a10:	1b9a      	subs	r2, r3, r6
 8005a12:	9b08      	ldr	r3, [sp, #32]
 8005a14:	781b      	ldrb	r3, [r3, #0]
 8005a16:	4293      	cmp	r3, r2
 8005a18:	bfa8      	it	ge
 8005a1a:	4613      	movge	r3, r2
 8005a1c:	2b00      	cmp	r3, #0
 8005a1e:	461d      	mov	r5, r3
 8005a20:	dd0a      	ble.n	8005a38 <_vfprintf_r+0x1230>
 8005a22:	e9c4 6300 	strd	r6, r3, [r4]
 8005a26:	9b28      	ldr	r3, [sp, #160]	; 0xa0
 8005a28:	442b      	add	r3, r5
 8005a2a:	9328      	str	r3, [sp, #160]	; 0xa0
 8005a2c:	9b27      	ldr	r3, [sp, #156]	; 0x9c
 8005a2e:	3301      	adds	r3, #1
 8005a30:	2b07      	cmp	r3, #7
 8005a32:	9327      	str	r3, [sp, #156]	; 0x9c
 8005a34:	dc36      	bgt.n	8005aa4 <_vfprintf_r+0x129c>
 8005a36:	3408      	adds	r4, #8
 8005a38:	9b08      	ldr	r3, [sp, #32]
 8005a3a:	781b      	ldrb	r3, [r3, #0]
 8005a3c:	2d00      	cmp	r5, #0
 8005a3e:	bfac      	ite	ge
 8005a40:	1b5d      	subge	r5, r3, r5
 8005a42:	461d      	movlt	r5, r3
 8005a44:	2d00      	cmp	r5, #0
 8005a46:	dd18      	ble.n	8005a7a <_vfprintf_r+0x1272>
 8005a48:	e9dd 2327 	ldrd	r2, r3, [sp, #156]	; 0x9c
 8005a4c:	482f      	ldr	r0, [pc, #188]	; (8005b0c <_vfprintf_r+0x1304>)
 8005a4e:	6020      	str	r0, [r4, #0]
 8005a50:	2d10      	cmp	r5, #16
 8005a52:	f102 0201 	add.w	r2, r2, #1
 8005a56:	f104 0108 	add.w	r1, r4, #8
 8005a5a:	dc2d      	bgt.n	8005ab8 <_vfprintf_r+0x12b0>
 8005a5c:	442b      	add	r3, r5
 8005a5e:	2a07      	cmp	r2, #7
 8005a60:	6065      	str	r5, [r4, #4]
 8005a62:	e9cd 2327 	strd	r2, r3, [sp, #156]	; 0x9c
 8005a66:	dd3a      	ble.n	8005ade <_vfprintf_r+0x12d6>
 8005a68:	aa26      	add	r2, sp, #152	; 0x98
 8005a6a:	4641      	mov	r1, r8
 8005a6c:	4658      	mov	r0, fp
 8005a6e:	f002 fb90 	bl	8008192 <__sprint_r>
 8005a72:	2800      	cmp	r0, #0
 8005a74:	f040 8104 	bne.w	8005c80 <_vfprintf_r+0x1478>
 8005a78:	ac29      	add	r4, sp, #164	; 0xa4
 8005a7a:	9b08      	ldr	r3, [sp, #32]
 8005a7c:	781b      	ldrb	r3, [r3, #0]
 8005a7e:	441e      	add	r6, r3
 8005a80:	e733      	b.n	80058ea <_vfprintf_r+0x10e2>
 8005a82:	9b08      	ldr	r3, [sp, #32]
 8005a84:	3b01      	subs	r3, #1
 8005a86:	9308      	str	r3, [sp, #32]
 8005a88:	9b07      	ldr	r3, [sp, #28]
 8005a8a:	3b01      	subs	r3, #1
 8005a8c:	9307      	str	r3, [sp, #28]
 8005a8e:	e7af      	b.n	80059f0 <_vfprintf_r+0x11e8>
 8005a90:	aa26      	add	r2, sp, #152	; 0x98
 8005a92:	4641      	mov	r1, r8
 8005a94:	4658      	mov	r0, fp
 8005a96:	f002 fb7c 	bl	8008192 <__sprint_r>
 8005a9a:	2800      	cmp	r0, #0
 8005a9c:	f040 80f0 	bne.w	8005c80 <_vfprintf_r+0x1478>
 8005aa0:	ac29      	add	r4, sp, #164	; 0xa4
 8005aa2:	e7b3      	b.n	8005a0c <_vfprintf_r+0x1204>
 8005aa4:	aa26      	add	r2, sp, #152	; 0x98
 8005aa6:	4641      	mov	r1, r8
 8005aa8:	4658      	mov	r0, fp
 8005aaa:	f002 fb72 	bl	8008192 <__sprint_r>
 8005aae:	2800      	cmp	r0, #0
 8005ab0:	f040 80e6 	bne.w	8005c80 <_vfprintf_r+0x1478>
 8005ab4:	ac29      	add	r4, sp, #164	; 0xa4
 8005ab6:	e7bf      	b.n	8005a38 <_vfprintf_r+0x1230>
 8005ab8:	2010      	movs	r0, #16
 8005aba:	4403      	add	r3, r0
 8005abc:	2a07      	cmp	r2, #7
 8005abe:	6060      	str	r0, [r4, #4]
 8005ac0:	e9cd 2327 	strd	r2, r3, [sp, #156]	; 0x9c
 8005ac4:	dd08      	ble.n	8005ad8 <_vfprintf_r+0x12d0>
 8005ac6:	aa26      	add	r2, sp, #152	; 0x98
 8005ac8:	4641      	mov	r1, r8
 8005aca:	4658      	mov	r0, fp
 8005acc:	f002 fb61 	bl	8008192 <__sprint_r>
 8005ad0:	2800      	cmp	r0, #0
 8005ad2:	f040 80d5 	bne.w	8005c80 <_vfprintf_r+0x1478>
 8005ad6:	a929      	add	r1, sp, #164	; 0xa4
 8005ad8:	3d10      	subs	r5, #16
 8005ada:	460c      	mov	r4, r1
 8005adc:	e7b4      	b.n	8005a48 <_vfprintf_r+0x1240>
 8005ade:	460c      	mov	r4, r1
 8005ae0:	e7cb      	b.n	8005a7a <_vfprintf_r+0x1272>
 8005ae2:	aa26      	add	r2, sp, #152	; 0x98
 8005ae4:	4641      	mov	r1, r8
 8005ae6:	4658      	mov	r0, fp
 8005ae8:	f002 fb53 	bl	8008192 <__sprint_r>
 8005aec:	2800      	cmp	r0, #0
 8005aee:	f040 80c7 	bne.w	8005c80 <_vfprintf_r+0x1478>
 8005af2:	ac29      	add	r4, sp, #164	; 0xa4
 8005af4:	e719      	b.n	800592a <_vfprintf_r+0x1122>
 8005af6:	aa26      	add	r2, sp, #152	; 0x98
 8005af8:	4641      	mov	r1, r8
 8005afa:	4658      	mov	r0, fp
 8005afc:	f002 fb49 	bl	8008192 <__sprint_r>
 8005b00:	2800      	cmp	r0, #0
 8005b02:	f040 80bd 	bne.w	8005c80 <_vfprintf_r+0x1478>
 8005b06:	ac29      	add	r4, sp, #164	; 0xa4
 8005b08:	e727      	b.n	800595a <_vfprintf_r+0x1152>
 8005b0a:	bf00      	nop
 8005b0c:	08008aae 	.word	0x08008aae
 8005b10:	9a04      	ldr	r2, [sp, #16]
 8005b12:	9d10      	ldr	r5, [sp, #64]	; 0x40
 8005b14:	9b27      	ldr	r3, [sp, #156]	; 0x9c
 8005b16:	2a01      	cmp	r2, #1
 8005b18:	f105 0501 	add.w	r5, r5, #1
 8005b1c:	f103 0301 	add.w	r3, r3, #1
 8005b20:	f104 0608 	add.w	r6, r4, #8
 8005b24:	dc02      	bgt.n	8005b2c <_vfprintf_r+0x1324>
 8005b26:	f01a 0f01 	tst.w	sl, #1
 8005b2a:	d07d      	beq.n	8005c28 <_vfprintf_r+0x1420>
 8005b2c:	2201      	movs	r2, #1
 8005b2e:	2b07      	cmp	r3, #7
 8005b30:	f8c4 9000 	str.w	r9, [r4]
 8005b34:	6062      	str	r2, [r4, #4]
 8005b36:	e9cd 3527 	strd	r3, r5, [sp, #156]	; 0x9c
 8005b3a:	dd08      	ble.n	8005b4e <_vfprintf_r+0x1346>
 8005b3c:	aa26      	add	r2, sp, #152	; 0x98
 8005b3e:	4641      	mov	r1, r8
 8005b40:	4658      	mov	r0, fp
 8005b42:	f002 fb26 	bl	8008192 <__sprint_r>
 8005b46:	2800      	cmp	r0, #0
 8005b48:	f040 809a 	bne.w	8005c80 <_vfprintf_r+0x1478>
 8005b4c:	ae29      	add	r6, sp, #164	; 0xa4
 8005b4e:	9b16      	ldr	r3, [sp, #88]	; 0x58
 8005b50:	6033      	str	r3, [r6, #0]
 8005b52:	9b0d      	ldr	r3, [sp, #52]	; 0x34
 8005b54:	6073      	str	r3, [r6, #4]
 8005b56:	9a0d      	ldr	r2, [sp, #52]	; 0x34
 8005b58:	9b28      	ldr	r3, [sp, #160]	; 0xa0
 8005b5a:	4413      	add	r3, r2
 8005b5c:	9328      	str	r3, [sp, #160]	; 0xa0
 8005b5e:	9b27      	ldr	r3, [sp, #156]	; 0x9c
 8005b60:	3301      	adds	r3, #1
 8005b62:	2b07      	cmp	r3, #7
 8005b64:	9327      	str	r3, [sp, #156]	; 0x9c
 8005b66:	dc31      	bgt.n	8005bcc <_vfprintf_r+0x13c4>
 8005b68:	3608      	adds	r6, #8
 8005b6a:	9b04      	ldr	r3, [sp, #16]
 8005b6c:	2200      	movs	r2, #0
 8005b6e:	1e5c      	subs	r4, r3, #1
 8005b70:	e9dd 010a 	ldrd	r0, r1, [sp, #40]	; 0x28
 8005b74:	2300      	movs	r3, #0
 8005b76:	f7fa ffc7 	bl	8000b08 <__aeabi_dcmpeq>
 8005b7a:	2800      	cmp	r0, #0
 8005b7c:	d12f      	bne.n	8005bde <_vfprintf_r+0x13d6>
 8005b7e:	f109 0301 	add.w	r3, r9, #1
 8005b82:	9a27      	ldr	r2, [sp, #156]	; 0x9c
 8005b84:	9904      	ldr	r1, [sp, #16]
 8005b86:	e9c6 3400 	strd	r3, r4, [r6]
 8005b8a:	9b28      	ldr	r3, [sp, #160]	; 0xa0
 8005b8c:	3201      	adds	r2, #1
 8005b8e:	3b01      	subs	r3, #1
 8005b90:	440b      	add	r3, r1
 8005b92:	2a07      	cmp	r2, #7
 8005b94:	e9cd 2327 	strd	r2, r3, [sp, #156]	; 0x9c
 8005b98:	dd4f      	ble.n	8005c3a <_vfprintf_r+0x1432>
 8005b9a:	aa26      	add	r2, sp, #152	; 0x98
 8005b9c:	4641      	mov	r1, r8
 8005b9e:	4658      	mov	r0, fp
 8005ba0:	f002 faf7 	bl	8008192 <__sprint_r>
 8005ba4:	2800      	cmp	r0, #0
 8005ba6:	d16b      	bne.n	8005c80 <_vfprintf_r+0x1478>
 8005ba8:	ae29      	add	r6, sp, #164	; 0xa4
 8005baa:	ab22      	add	r3, sp, #136	; 0x88
 8005bac:	6033      	str	r3, [r6, #0]
 8005bae:	9b17      	ldr	r3, [sp, #92]	; 0x5c
 8005bb0:	6073      	str	r3, [r6, #4]
 8005bb2:	9a17      	ldr	r2, [sp, #92]	; 0x5c
 8005bb4:	9b28      	ldr	r3, [sp, #160]	; 0xa0
 8005bb6:	4413      	add	r3, r2
 8005bb8:	9328      	str	r3, [sp, #160]	; 0xa0
 8005bba:	9b27      	ldr	r3, [sp, #156]	; 0x9c
 8005bbc:	3301      	adds	r3, #1
 8005bbe:	2b07      	cmp	r3, #7
 8005bc0:	9327      	str	r3, [sp, #156]	; 0x9c
 8005bc2:	f73f adb3 	bgt.w	800572c <_vfprintf_r+0xf24>
 8005bc6:	f106 0408 	add.w	r4, r6, #8
 8005bca:	e40e      	b.n	80053ea <_vfprintf_r+0xbe2>
 8005bcc:	aa26      	add	r2, sp, #152	; 0x98
 8005bce:	4641      	mov	r1, r8
 8005bd0:	4658      	mov	r0, fp
 8005bd2:	f002 fade 	bl	8008192 <__sprint_r>
 8005bd6:	2800      	cmp	r0, #0
 8005bd8:	d152      	bne.n	8005c80 <_vfprintf_r+0x1478>
 8005bda:	ae29      	add	r6, sp, #164	; 0xa4
 8005bdc:	e7c5      	b.n	8005b6a <_vfprintf_r+0x1362>
 8005bde:	2c00      	cmp	r4, #0
 8005be0:	dde3      	ble.n	8005baa <_vfprintf_r+0x13a2>
 8005be2:	4d40      	ldr	r5, [pc, #256]	; (8005ce4 <_vfprintf_r+0x14dc>)
 8005be4:	2710      	movs	r7, #16
 8005be6:	e9dd 3227 	ldrd	r3, r2, [sp, #156]	; 0x9c
 8005bea:	2c10      	cmp	r4, #16
 8005bec:	f103 0301 	add.w	r3, r3, #1
 8005bf0:	f106 0108 	add.w	r1, r6, #8
 8005bf4:	6035      	str	r5, [r6, #0]
 8005bf6:	dc07      	bgt.n	8005c08 <_vfprintf_r+0x1400>
 8005bf8:	6074      	str	r4, [r6, #4]
 8005bfa:	2b07      	cmp	r3, #7
 8005bfc:	4414      	add	r4, r2
 8005bfe:	e9cd 3427 	strd	r3, r4, [sp, #156]	; 0x9c
 8005c02:	dcca      	bgt.n	8005b9a <_vfprintf_r+0x1392>
 8005c04:	460e      	mov	r6, r1
 8005c06:	e7d0      	b.n	8005baa <_vfprintf_r+0x13a2>
 8005c08:	3210      	adds	r2, #16
 8005c0a:	2b07      	cmp	r3, #7
 8005c0c:	6077      	str	r7, [r6, #4]
 8005c0e:	e9cd 3227 	strd	r3, r2, [sp, #156]	; 0x9c
 8005c12:	dd06      	ble.n	8005c22 <_vfprintf_r+0x141a>
 8005c14:	aa26      	add	r2, sp, #152	; 0x98
 8005c16:	4641      	mov	r1, r8
 8005c18:	4658      	mov	r0, fp
 8005c1a:	f002 faba 	bl	8008192 <__sprint_r>
 8005c1e:	bb78      	cbnz	r0, 8005c80 <_vfprintf_r+0x1478>
 8005c20:	a929      	add	r1, sp, #164	; 0xa4
 8005c22:	3c10      	subs	r4, #16
 8005c24:	460e      	mov	r6, r1
 8005c26:	e7de      	b.n	8005be6 <_vfprintf_r+0x13de>
 8005c28:	2201      	movs	r2, #1
 8005c2a:	2b07      	cmp	r3, #7
 8005c2c:	f8c4 9000 	str.w	r9, [r4]
 8005c30:	6062      	str	r2, [r4, #4]
 8005c32:	e9cd 3527 	strd	r3, r5, [sp, #156]	; 0x9c
 8005c36:	ddb8      	ble.n	8005baa <_vfprintf_r+0x13a2>
 8005c38:	e7af      	b.n	8005b9a <_vfprintf_r+0x1392>
 8005c3a:	3608      	adds	r6, #8
 8005c3c:	e7b5      	b.n	8005baa <_vfprintf_r+0x13a2>
 8005c3e:	460c      	mov	r4, r1
 8005c40:	f7ff bbd3 	b.w	80053ea <_vfprintf_r+0xbe2>
 8005c44:	9b0f      	ldr	r3, [sp, #60]	; 0x3c
 8005c46:	9a11      	ldr	r2, [sp, #68]	; 0x44
 8005c48:	1a9d      	subs	r5, r3, r2
 8005c4a:	2d00      	cmp	r5, #0
 8005c4c:	f77f abd1 	ble.w	80053f2 <_vfprintf_r+0xbea>
 8005c50:	4e25      	ldr	r6, [pc, #148]	; (8005ce8 <_vfprintf_r+0x14e0>)
 8005c52:	2710      	movs	r7, #16
 8005c54:	e9dd 3227 	ldrd	r3, r2, [sp, #156]	; 0x9c
 8005c58:	2d10      	cmp	r5, #16
 8005c5a:	f103 0301 	add.w	r3, r3, #1
 8005c5e:	6026      	str	r6, [r4, #0]
 8005c60:	dc18      	bgt.n	8005c94 <_vfprintf_r+0x148c>
 8005c62:	6065      	str	r5, [r4, #4]
 8005c64:	2b07      	cmp	r3, #7
 8005c66:	4415      	add	r5, r2
 8005c68:	e9cd 3527 	strd	r3, r5, [sp, #156]	; 0x9c
 8005c6c:	f77f abc1 	ble.w	80053f2 <_vfprintf_r+0xbea>
 8005c70:	aa26      	add	r2, sp, #152	; 0x98
 8005c72:	4641      	mov	r1, r8
 8005c74:	4658      	mov	r0, fp
 8005c76:	f002 fa8c 	bl	8008192 <__sprint_r>
 8005c7a:	2800      	cmp	r0, #0
 8005c7c:	f43f abb9 	beq.w	80053f2 <_vfprintf_r+0xbea>
 8005c80:	9b03      	ldr	r3, [sp, #12]
 8005c82:	2b00      	cmp	r3, #0
 8005c84:	f43f a895 	beq.w	8004db2 <_vfprintf_r+0x5aa>
 8005c88:	4619      	mov	r1, r3
 8005c8a:	4658      	mov	r0, fp
 8005c8c:	f001 f896 	bl	8006dbc <_free_r>
 8005c90:	f7ff b88f 	b.w	8004db2 <_vfprintf_r+0x5aa>
 8005c94:	3210      	adds	r2, #16
 8005c96:	2b07      	cmp	r3, #7
 8005c98:	6067      	str	r7, [r4, #4]
 8005c9a:	e9cd 3227 	strd	r3, r2, [sp, #156]	; 0x9c
 8005c9e:	dc02      	bgt.n	8005ca6 <_vfprintf_r+0x149e>
 8005ca0:	3408      	adds	r4, #8
 8005ca2:	3d10      	subs	r5, #16
 8005ca4:	e7d6      	b.n	8005c54 <_vfprintf_r+0x144c>
 8005ca6:	aa26      	add	r2, sp, #152	; 0x98
 8005ca8:	4641      	mov	r1, r8
 8005caa:	4658      	mov	r0, fp
 8005cac:	f002 fa71 	bl	8008192 <__sprint_r>
 8005cb0:	2800      	cmp	r0, #0
 8005cb2:	d1e5      	bne.n	8005c80 <_vfprintf_r+0x1478>
 8005cb4:	ac29      	add	r4, sp, #164	; 0xa4
 8005cb6:	e7f4      	b.n	8005ca2 <_vfprintf_r+0x149a>
 8005cb8:	9903      	ldr	r1, [sp, #12]
 8005cba:	4658      	mov	r0, fp
 8005cbc:	f001 f87e 	bl	8006dbc <_free_r>
 8005cc0:	f7ff bbaf 	b.w	8005422 <_vfprintf_r+0xc1a>
 8005cc4:	9b28      	ldr	r3, [sp, #160]	; 0xa0
 8005cc6:	b91b      	cbnz	r3, 8005cd0 <_vfprintf_r+0x14c8>
 8005cc8:	2300      	movs	r3, #0
 8005cca:	9327      	str	r3, [sp, #156]	; 0x9c
 8005ccc:	f7ff b871 	b.w	8004db2 <_vfprintf_r+0x5aa>
 8005cd0:	aa26      	add	r2, sp, #152	; 0x98
 8005cd2:	4641      	mov	r1, r8
 8005cd4:	4658      	mov	r0, fp
 8005cd6:	f002 fa5c 	bl	8008192 <__sprint_r>
 8005cda:	2800      	cmp	r0, #0
 8005cdc:	f47f a869 	bne.w	8004db2 <_vfprintf_r+0x5aa>
 8005ce0:	e7f2      	b.n	8005cc8 <_vfprintf_r+0x14c0>
 8005ce2:	bf00      	nop
 8005ce4:	08008aae 	.word	0x08008aae
 8005ce8:	08008a9e 	.word	0x08008a9e

08005cec <__sbprintf>:
 8005cec:	b5f0      	push	{r4, r5, r6, r7, lr}
 8005cee:	460c      	mov	r4, r1
 8005cf0:	f2ad 4d6c 	subw	sp, sp, #1132	; 0x46c
 8005cf4:	461f      	mov	r7, r3
 8005cf6:	8989      	ldrh	r1, [r1, #12]
 8005cf8:	6e63      	ldr	r3, [r4, #100]	; 0x64
 8005cfa:	9319      	str	r3, [sp, #100]	; 0x64
 8005cfc:	89e3      	ldrh	r3, [r4, #14]
 8005cfe:	f8ad 300e 	strh.w	r3, [sp, #14]
 8005d02:	f021 0102 	bic.w	r1, r1, #2
 8005d06:	69e3      	ldr	r3, [r4, #28]
 8005d08:	f8ad 100c 	strh.w	r1, [sp, #12]
 8005d0c:	9307      	str	r3, [sp, #28]
 8005d0e:	a91a      	add	r1, sp, #104	; 0x68
 8005d10:	6a63      	ldr	r3, [r4, #36]	; 0x24
 8005d12:	9309      	str	r3, [sp, #36]	; 0x24
 8005d14:	4615      	mov	r5, r2
 8005d16:	2300      	movs	r3, #0
 8005d18:	4606      	mov	r6, r0
 8005d1a:	9100      	str	r1, [sp, #0]
 8005d1c:	9104      	str	r1, [sp, #16]
 8005d1e:	a816      	add	r0, sp, #88	; 0x58
 8005d20:	f44f 6180 	mov.w	r1, #1024	; 0x400
 8005d24:	9102      	str	r1, [sp, #8]
 8005d26:	9105      	str	r1, [sp, #20]
 8005d28:	9306      	str	r3, [sp, #24]
 8005d2a:	f001 fa7d 	bl	8007228 <__retarget_lock_init_recursive>
 8005d2e:	462a      	mov	r2, r5
 8005d30:	463b      	mov	r3, r7
 8005d32:	4669      	mov	r1, sp
 8005d34:	4630      	mov	r0, r6
 8005d36:	f7fe fd67 	bl	8004808 <_vfprintf_r>
 8005d3a:	1e05      	subs	r5, r0, #0
 8005d3c:	db07      	blt.n	8005d4e <__sbprintf+0x62>
 8005d3e:	4669      	mov	r1, sp
 8005d40:	4630      	mov	r0, r6
 8005d42:	f000 ff3f 	bl	8006bc4 <_fflush_r>
 8005d46:	2800      	cmp	r0, #0
 8005d48:	bf18      	it	ne
 8005d4a:	f04f 35ff 	movne.w	r5, #4294967295
 8005d4e:	f8bd 300c 	ldrh.w	r3, [sp, #12]
 8005d52:	9816      	ldr	r0, [sp, #88]	; 0x58
 8005d54:	065b      	lsls	r3, r3, #25
 8005d56:	bf42      	ittt	mi
 8005d58:	89a3      	ldrhmi	r3, [r4, #12]
 8005d5a:	f043 0340 	orrmi.w	r3, r3, #64	; 0x40
 8005d5e:	81a3      	strhmi	r3, [r4, #12]
 8005d60:	f001 fa63 	bl	800722a <__retarget_lock_close_recursive>
 8005d64:	4628      	mov	r0, r5
 8005d66:	f20d 4d6c 	addw	sp, sp, #1132	; 0x46c
 8005d6a:	bdf0      	pop	{r4, r5, r6, r7, pc}

08005d6c <__swsetup_r>:
 8005d6c:	b538      	push	{r3, r4, r5, lr}
 8005d6e:	4b2a      	ldr	r3, [pc, #168]	; (8005e18 <__swsetup_r+0xac>)
 8005d70:	4605      	mov	r5, r0
 8005d72:	6818      	ldr	r0, [r3, #0]
 8005d74:	460c      	mov	r4, r1
 8005d76:	b118      	cbz	r0, 8005d80 <__swsetup_r+0x14>
 8005d78:	6b83      	ldr	r3, [r0, #56]	; 0x38
 8005d7a:	b90b      	cbnz	r3, 8005d80 <__swsetup_r+0x14>
 8005d7c:	f000 ff8e 	bl	8006c9c <__sinit>
 8005d80:	f9b4 300c 	ldrsh.w	r3, [r4, #12]
 8005d84:	b29a      	uxth	r2, r3
 8005d86:	0711      	lsls	r1, r2, #28
 8005d88:	d422      	bmi.n	8005dd0 <__swsetup_r+0x64>
 8005d8a:	06d0      	lsls	r0, r2, #27
 8005d8c:	d407      	bmi.n	8005d9e <__swsetup_r+0x32>
 8005d8e:	2209      	movs	r2, #9
 8005d90:	602a      	str	r2, [r5, #0]
 8005d92:	f043 0340 	orr.w	r3, r3, #64	; 0x40
 8005d96:	81a3      	strh	r3, [r4, #12]
 8005d98:	f04f 30ff 	mov.w	r0, #4294967295
 8005d9c:	e034      	b.n	8005e08 <__swsetup_r+0x9c>
 8005d9e:	0751      	lsls	r1, r2, #29
 8005da0:	d512      	bpl.n	8005dc8 <__swsetup_r+0x5c>
 8005da2:	6b21      	ldr	r1, [r4, #48]	; 0x30
 8005da4:	b141      	cbz	r1, 8005db8 <__swsetup_r+0x4c>
 8005da6:	f104 0340 	add.w	r3, r4, #64	; 0x40
 8005daa:	4299      	cmp	r1, r3
 8005dac:	d002      	beq.n	8005db4 <__swsetup_r+0x48>
 8005dae:	4628      	mov	r0, r5
 8005db0:	f001 f804 	bl	8006dbc <_free_r>
 8005db4:	2300      	movs	r3, #0
 8005db6:	6323      	str	r3, [r4, #48]	; 0x30
 8005db8:	89a3      	ldrh	r3, [r4, #12]
 8005dba:	f023 0324 	bic.w	r3, r3, #36	; 0x24
 8005dbe:	81a3      	strh	r3, [r4, #12]
 8005dc0:	2300      	movs	r3, #0
 8005dc2:	6063      	str	r3, [r4, #4]
 8005dc4:	6923      	ldr	r3, [r4, #16]
 8005dc6:	6023      	str	r3, [r4, #0]
 8005dc8:	89a3      	ldrh	r3, [r4, #12]
 8005dca:	f043 0308 	orr.w	r3, r3, #8
 8005dce:	81a3      	strh	r3, [r4, #12]
 8005dd0:	6923      	ldr	r3, [r4, #16]
 8005dd2:	b94b      	cbnz	r3, 8005de8 <__swsetup_r+0x7c>
 8005dd4:	89a3      	ldrh	r3, [r4, #12]
 8005dd6:	f403 7320 	and.w	r3, r3, #640	; 0x280
 8005dda:	f5b3 7f00 	cmp.w	r3, #512	; 0x200
 8005dde:	d003      	beq.n	8005de8 <__swsetup_r+0x7c>
 8005de0:	4621      	mov	r1, r4
 8005de2:	4628      	mov	r0, r5
 8005de4:	f001 fa50 	bl	8007288 <__smakebuf_r>
 8005de8:	89a2      	ldrh	r2, [r4, #12]
 8005dea:	f012 0301 	ands.w	r3, r2, #1
 8005dee:	d00c      	beq.n	8005e0a <__swsetup_r+0x9e>
 8005df0:	2300      	movs	r3, #0
 8005df2:	60a3      	str	r3, [r4, #8]
 8005df4:	6963      	ldr	r3, [r4, #20]
 8005df6:	425b      	negs	r3, r3
 8005df8:	61a3      	str	r3, [r4, #24]
 8005dfa:	6923      	ldr	r3, [r4, #16]
 8005dfc:	b953      	cbnz	r3, 8005e14 <__swsetup_r+0xa8>
 8005dfe:	f9b4 300c 	ldrsh.w	r3, [r4, #12]
 8005e02:	f013 0080 	ands.w	r0, r3, #128	; 0x80
 8005e06:	d1c4      	bne.n	8005d92 <__swsetup_r+0x26>
 8005e08:	bd38      	pop	{r3, r4, r5, pc}
 8005e0a:	0792      	lsls	r2, r2, #30
 8005e0c:	bf58      	it	pl
 8005e0e:	6963      	ldrpl	r3, [r4, #20]
 8005e10:	60a3      	str	r3, [r4, #8]
 8005e12:	e7f2      	b.n	8005dfa <__swsetup_r+0x8e>
 8005e14:	2000      	movs	r0, #0
 8005e16:	e7f7      	b.n	8005e08 <__swsetup_r+0x9c>
 8005e18:	20000010 	.word	0x20000010

08005e1c <register_fini>:
 8005e1c:	4b02      	ldr	r3, [pc, #8]	; (8005e28 <register_fini+0xc>)
 8005e1e:	b113      	cbz	r3, 8005e26 <register_fini+0xa>
 8005e20:	4802      	ldr	r0, [pc, #8]	; (8005e2c <register_fini+0x10>)
 8005e22:	f000 b805 	b.w	8005e30 <atexit>
 8005e26:	4770      	bx	lr
 8005e28:	00000000 	.word	0x00000000
 8005e2c:	08006ced 	.word	0x08006ced

08005e30 <atexit>:
 8005e30:	2300      	movs	r3, #0
 8005e32:	4601      	mov	r1, r0
 8005e34:	461a      	mov	r2, r3
 8005e36:	4618      	mov	r0, r3
 8005e38:	f002 b9f0 	b.w	800821c <__register_exitproc>

08005e3c <quorem>:
 8005e3c:	e92d 4ff7 	stmdb	sp!, {r0, r1, r2, r4, r5, r6, r7, r8, r9, sl, fp, lr}
 8005e40:	6903      	ldr	r3, [r0, #16]
 8005e42:	690c      	ldr	r4, [r1, #16]
 8005e44:	42a3      	cmp	r3, r4
 8005e46:	4680      	mov	r8, r0
 8005e48:	f2c0 8082 	blt.w	8005f50 <quorem+0x114>
 8005e4c:	3c01      	subs	r4, #1
 8005e4e:	f101 0714 	add.w	r7, r1, #20
 8005e52:	ea4f 0c84 	mov.w	ip, r4, lsl #2
 8005e56:	f100 0614 	add.w	r6, r0, #20
 8005e5a:	f857 5024 	ldr.w	r5, [r7, r4, lsl #2]
 8005e5e:	f856 0024 	ldr.w	r0, [r6, r4, lsl #2]
 8005e62:	eb06 030c 	add.w	r3, r6, ip
 8005e66:	3501      	adds	r5, #1
 8005e68:	eb07 090c 	add.w	r9, r7, ip
 8005e6c:	9301      	str	r3, [sp, #4]
 8005e6e:	fbb0 f5f5 	udiv	r5, r0, r5
 8005e72:	b395      	cbz	r5, 8005eda <quorem+0x9e>
 8005e74:	f04f 0a00 	mov.w	sl, #0
 8005e78:	4638      	mov	r0, r7
 8005e7a:	46b6      	mov	lr, r6
 8005e7c:	46d3      	mov	fp, sl
 8005e7e:	f850 2b04 	ldr.w	r2, [r0], #4
 8005e82:	b293      	uxth	r3, r2
 8005e84:	fb05 a303 	mla	r3, r5, r3, sl
 8005e88:	ea4f 4a13 	mov.w	sl, r3, lsr #16
 8005e8c:	b29b      	uxth	r3, r3
 8005e8e:	ebab 0303 	sub.w	r3, fp, r3
 8005e92:	0c12      	lsrs	r2, r2, #16
 8005e94:	f8de b000 	ldr.w	fp, [lr]
 8005e98:	fb05 a202 	mla	r2, r5, r2, sl
 8005e9c:	fa13 f38b 	uxtah	r3, r3, fp
 8005ea0:	ea4f 4a12 	mov.w	sl, r2, lsr #16
 8005ea4:	fa1f fb82 	uxth.w	fp, r2
 8005ea8:	f8de 2000 	ldr.w	r2, [lr]
 8005eac:	ebcb 4212 	rsb	r2, fp, r2, lsr #16
 8005eb0:	eb02 4223 	add.w	r2, r2, r3, asr #16
 8005eb4:	b29b      	uxth	r3, r3
 8005eb6:	ea43 4302 	orr.w	r3, r3, r2, lsl #16
 8005eba:	4581      	cmp	r9, r0
 8005ebc:	ea4f 4b22 	mov.w	fp, r2, asr #16
 8005ec0:	f84e 3b04 	str.w	r3, [lr], #4
 8005ec4:	d2db      	bcs.n	8005e7e <quorem+0x42>
 8005ec6:	f856 300c 	ldr.w	r3, [r6, ip]
 8005eca:	b933      	cbnz	r3, 8005eda <quorem+0x9e>
 8005ecc:	9b01      	ldr	r3, [sp, #4]
 8005ece:	3b04      	subs	r3, #4
 8005ed0:	429e      	cmp	r6, r3
 8005ed2:	461a      	mov	r2, r3
 8005ed4:	d330      	bcc.n	8005f38 <quorem+0xfc>
 8005ed6:	f8c8 4010 	str.w	r4, [r8, #16]
 8005eda:	4640      	mov	r0, r8
 8005edc:	f001 fe40 	bl	8007b60 <__mcmp>
 8005ee0:	2800      	cmp	r0, #0
 8005ee2:	db25      	blt.n	8005f30 <quorem+0xf4>
 8005ee4:	3501      	adds	r5, #1
 8005ee6:	4630      	mov	r0, r6
 8005ee8:	f04f 0c00 	mov.w	ip, #0
 8005eec:	f857 2b04 	ldr.w	r2, [r7], #4
 8005ef0:	f8d0 e000 	ldr.w	lr, [r0]
 8005ef4:	b293      	uxth	r3, r2
 8005ef6:	ebac 0303 	sub.w	r3, ip, r3
 8005efa:	0c12      	lsrs	r2, r2, #16
 8005efc:	fa13 f38e 	uxtah	r3, r3, lr
 8005f00:	ebc2 421e 	rsb	r2, r2, lr, lsr #16
 8005f04:	eb02 4223 	add.w	r2, r2, r3, asr #16
 8005f08:	b29b      	uxth	r3, r3
 8005f0a:	ea43 4302 	orr.w	r3, r3, r2, lsl #16
 8005f0e:	45b9      	cmp	r9, r7
 8005f10:	ea4f 4c22 	mov.w	ip, r2, asr #16
 8005f14:	f840 3b04 	str.w	r3, [r0], #4
 8005f18:	d2e8      	bcs.n	8005eec <quorem+0xb0>
 8005f1a:	f856 2024 	ldr.w	r2, [r6, r4, lsl #2]
 8005f1e:	eb06 0384 	add.w	r3, r6, r4, lsl #2
 8005f22:	b92a      	cbnz	r2, 8005f30 <quorem+0xf4>
 8005f24:	3b04      	subs	r3, #4
 8005f26:	429e      	cmp	r6, r3
 8005f28:	461a      	mov	r2, r3
 8005f2a:	d30b      	bcc.n	8005f44 <quorem+0x108>
 8005f2c:	f8c8 4010 	str.w	r4, [r8, #16]
 8005f30:	4628      	mov	r0, r5
 8005f32:	b003      	add	sp, #12
 8005f34:	e8bd 8ff0 	ldmia.w	sp!, {r4, r5, r6, r7, r8, r9, sl, fp, pc}
 8005f38:	6812      	ldr	r2, [r2, #0]
 8005f3a:	3b04      	subs	r3, #4
 8005f3c:	2a00      	cmp	r2, #0
 8005f3e:	d1ca      	bne.n	8005ed6 <quorem+0x9a>
 8005f40:	3c01      	subs	r4, #1
 8005f42:	e7c5      	b.n	8005ed0 <quorem+0x94>
 8005f44:	6812      	ldr	r2, [r2, #0]
 8005f46:	3b04      	subs	r3, #4
 8005f48:	2a00      	cmp	r2, #0
 8005f4a:	d1ef      	bne.n	8005f2c <quorem+0xf0>
 8005f4c:	3c01      	subs	r4, #1
 8005f4e:	e7ea      	b.n	8005f26 <quorem+0xea>
 8005f50:	2000      	movs	r0, #0
 8005f52:	e7ee      	b.n	8005f32 <quorem+0xf6>
 8005f54:	0000      	movs	r0, r0
	...

08005f58 <_dtoa_r>:
 8005f58:	e92d 4ff0 	stmdb	sp!, {r4, r5, r6, r7, r8, r9, sl, fp, lr}
 8005f5c:	b097      	sub	sp, #92	; 0x5c
 8005f5e:	ec57 6b10 	vmov	r6, r7, d0
 8005f62:	9106      	str	r1, [sp, #24]
 8005f64:	6c01      	ldr	r1, [r0, #64]	; 0x40
 8005f66:	920b      	str	r2, [sp, #44]	; 0x2c
 8005f68:	4604      	mov	r4, r0
 8005f6a:	9312      	str	r3, [sp, #72]	; 0x48
 8005f6c:	9d20      	ldr	r5, [sp, #128]	; 0x80
 8005f6e:	e9cd 6700 	strd	r6, r7, [sp]
 8005f72:	b141      	cbz	r1, 8005f86 <_dtoa_r+0x2e>
 8005f74:	6c42      	ldr	r2, [r0, #68]	; 0x44
 8005f76:	604a      	str	r2, [r1, #4]
 8005f78:	2301      	movs	r3, #1
 8005f7a:	4093      	lsls	r3, r2
 8005f7c:	608b      	str	r3, [r1, #8]
 8005f7e:	f001 fc2a 	bl	80077d6 <_Bfree>
 8005f82:	2300      	movs	r3, #0
 8005f84:	6423      	str	r3, [r4, #64]	; 0x40
 8005f86:	1e3b      	subs	r3, r7, #0
 8005f88:	bfb9      	ittee	lt
 8005f8a:	f023 4300 	biclt.w	r3, r3, #2147483648	; 0x80000000
 8005f8e:	9301      	strlt	r3, [sp, #4]
 8005f90:	2300      	movge	r3, #0
 8005f92:	602b      	strge	r3, [r5, #0]
 8005f94:	f8dd 8004 	ldr.w	r8, [sp, #4]
 8005f98:	4baf      	ldr	r3, [pc, #700]	; (8006258 <_dtoa_r+0x300>)
 8005f9a:	bfbc      	itt	lt
 8005f9c:	2201      	movlt	r2, #1
 8005f9e:	602a      	strlt	r2, [r5, #0]
 8005fa0:	ea33 0308 	bics.w	r3, r3, r8
 8005fa4:	d116      	bne.n	8005fd4 <_dtoa_r+0x7c>
 8005fa6:	9a12      	ldr	r2, [sp, #72]	; 0x48
 8005fa8:	f242 730f 	movw	r3, #9999	; 0x270f
 8005fac:	6013      	str	r3, [r2, #0]
 8005fae:	9b00      	ldr	r3, [sp, #0]
 8005fb0:	b923      	cbnz	r3, 8005fbc <_dtoa_r+0x64>
 8005fb2:	f3c8 0013 	ubfx	r0, r8, #0, #20
 8005fb6:	2800      	cmp	r0, #0
 8005fb8:	f000 8543 	beq.w	8006a42 <_dtoa_r+0xaea>
 8005fbc:	9b21      	ldr	r3, [sp, #132]	; 0x84
 8005fbe:	f8df b2ac 	ldr.w	fp, [pc, #684]	; 800626c <_dtoa_r+0x314>
 8005fc2:	b11b      	cbz	r3, 8005fcc <_dtoa_r+0x74>
 8005fc4:	f10b 0303 	add.w	r3, fp, #3
 8005fc8:	9a21      	ldr	r2, [sp, #132]	; 0x84
 8005fca:	6013      	str	r3, [r2, #0]
 8005fcc:	4658      	mov	r0, fp
 8005fce:	b017      	add	sp, #92	; 0x5c
 8005fd0:	e8bd 8ff0 	ldmia.w	sp!, {r4, r5, r6, r7, r8, r9, sl, fp, pc}
 8005fd4:	e9dd 6700 	ldrd	r6, r7, [sp]
 8005fd8:	2200      	movs	r2, #0
 8005fda:	2300      	movs	r3, #0
 8005fdc:	4630      	mov	r0, r6
 8005fde:	4639      	mov	r1, r7
 8005fe0:	f7fa fd92 	bl	8000b08 <__aeabi_dcmpeq>
 8005fe4:	4681      	mov	r9, r0
 8005fe6:	b160      	cbz	r0, 8006002 <_dtoa_r+0xaa>
 8005fe8:	9a12      	ldr	r2, [sp, #72]	; 0x48
 8005fea:	2301      	movs	r3, #1
 8005fec:	6013      	str	r3, [r2, #0]
 8005fee:	9b21      	ldr	r3, [sp, #132]	; 0x84
 8005ff0:	2b00      	cmp	r3, #0
 8005ff2:	f000 8522 	beq.w	8006a3a <_dtoa_r+0xae2>
 8005ff6:	4b99      	ldr	r3, [pc, #612]	; (800625c <_dtoa_r+0x304>)
 8005ff8:	9a21      	ldr	r2, [sp, #132]	; 0x84
 8005ffa:	f103 3bff 	add.w	fp, r3, #4294967295
 8005ffe:	6013      	str	r3, [r2, #0]
 8006000:	e7e4      	b.n	8005fcc <_dtoa_r+0x74>
 8006002:	aa14      	add	r2, sp, #80	; 0x50
 8006004:	a915      	add	r1, sp, #84	; 0x54
 8006006:	ec47 6b10 	vmov	d0, r6, r7
 800600a:	4620      	mov	r0, r4
 800600c:	f001 fe1f 	bl	8007c4e <__d2b>
 8006010:	f3c8 550a 	ubfx	r5, r8, #20, #11
 8006014:	9004      	str	r0, [sp, #16]
 8006016:	2d00      	cmp	r5, #0
 8006018:	d07c      	beq.n	8006114 <_dtoa_r+0x1bc>
 800601a:	f3c7 0313 	ubfx	r3, r7, #0, #20
 800601e:	f043 5b7f 	orr.w	fp, r3, #1069547520	; 0x3fc00000
 8006022:	46b2      	mov	sl, r6
 8006024:	f44b 1b40 	orr.w	fp, fp, #3145728	; 0x300000
 8006028:	f2a5 35ff 	subw	r5, r5, #1023	; 0x3ff
 800602c:	f8cd 904c 	str.w	r9, [sp, #76]	; 0x4c
 8006030:	2200      	movs	r2, #0
 8006032:	4b8b      	ldr	r3, [pc, #556]	; (8006260 <_dtoa_r+0x308>)
 8006034:	4650      	mov	r0, sl
 8006036:	4659      	mov	r1, fp
 8006038:	f7fa f946 	bl	80002c8 <__aeabi_dsub>
 800603c:	a380      	add	r3, pc, #512	; (adr r3, 8006240 <_dtoa_r+0x2e8>)
 800603e:	e9d3 2300 	ldrd	r2, r3, [r3]
 8006042:	f7fa faf9 	bl	8000638 <__aeabi_dmul>
 8006046:	a380      	add	r3, pc, #512	; (adr r3, 8006248 <_dtoa_r+0x2f0>)
 8006048:	e9d3 2300 	ldrd	r2, r3, [r3]
 800604c:	f7fa f93e 	bl	80002cc <__adddf3>
 8006050:	4606      	mov	r6, r0
 8006052:	4628      	mov	r0, r5
 8006054:	460f      	mov	r7, r1
 8006056:	f7fa fa85 	bl	8000564 <__aeabi_i2d>
 800605a:	a37d      	add	r3, pc, #500	; (adr r3, 8006250 <_dtoa_r+0x2f8>)
 800605c:	e9d3 2300 	ldrd	r2, r3, [r3]
 8006060:	f7fa faea 	bl	8000638 <__aeabi_dmul>
 8006064:	4602      	mov	r2, r0
 8006066:	460b      	mov	r3, r1
 8006068:	4630      	mov	r0, r6
 800606a:	4639      	mov	r1, r7
 800606c:	f7fa f92e 	bl	80002cc <__adddf3>
 8006070:	4606      	mov	r6, r0
 8006072:	460f      	mov	r7, r1
 8006074:	f7fa fd90 	bl	8000b98 <__aeabi_d2iz>
 8006078:	2200      	movs	r2, #0
 800607a:	4682      	mov	sl, r0
 800607c:	2300      	movs	r3, #0
 800607e:	4630      	mov	r0, r6
 8006080:	4639      	mov	r1, r7
 8006082:	f7fa fd4b 	bl	8000b1c <__aeabi_dcmplt>
 8006086:	b148      	cbz	r0, 800609c <_dtoa_r+0x144>
 8006088:	4650      	mov	r0, sl
 800608a:	f7fa fa6b 	bl	8000564 <__aeabi_i2d>
 800608e:	4632      	mov	r2, r6
 8006090:	463b      	mov	r3, r7
 8006092:	f7fa fd39 	bl	8000b08 <__aeabi_dcmpeq>
 8006096:	b908      	cbnz	r0, 800609c <_dtoa_r+0x144>
 8006098:	f10a 3aff 	add.w	sl, sl, #4294967295
 800609c:	f1ba 0f16 	cmp.w	sl, #22
 80060a0:	d859      	bhi.n	8006156 <_dtoa_r+0x1fe>
 80060a2:	4970      	ldr	r1, [pc, #448]	; (8006264 <_dtoa_r+0x30c>)
 80060a4:	eb01 01ca 	add.w	r1, r1, sl, lsl #3
 80060a8:	e9dd 2300 	ldrd	r2, r3, [sp]
 80060ac:	e9d1 0100 	ldrd	r0, r1, [r1]
 80060b0:	f7fa fd52 	bl	8000b58 <__aeabi_dcmpgt>
 80060b4:	2800      	cmp	r0, #0
 80060b6:	d050      	beq.n	800615a <_dtoa_r+0x202>
 80060b8:	f10a 3aff 	add.w	sl, sl, #4294967295
 80060bc:	2300      	movs	r3, #0
 80060be:	930f      	str	r3, [sp, #60]	; 0x3c
 80060c0:	9b14      	ldr	r3, [sp, #80]	; 0x50
 80060c2:	1b5d      	subs	r5, r3, r5
 80060c4:	f1b5 0801 	subs.w	r8, r5, #1
 80060c8:	bf49      	itett	mi
 80060ca:	f1c5 0301 	rsbmi	r3, r5, #1
 80060ce:	2300      	movpl	r3, #0
 80060d0:	9305      	strmi	r3, [sp, #20]
 80060d2:	f04f 0800 	movmi.w	r8, #0
 80060d6:	bf58      	it	pl
 80060d8:	9305      	strpl	r3, [sp, #20]
 80060da:	f1ba 0f00 	cmp.w	sl, #0
 80060de:	db3e      	blt.n	800615e <_dtoa_r+0x206>
 80060e0:	2300      	movs	r3, #0
 80060e2:	44d0      	add	r8, sl
 80060e4:	f8cd a038 	str.w	sl, [sp, #56]	; 0x38
 80060e8:	9307      	str	r3, [sp, #28]
 80060ea:	9b06      	ldr	r3, [sp, #24]
 80060ec:	2b09      	cmp	r3, #9
 80060ee:	f200 808d 	bhi.w	800620c <_dtoa_r+0x2b4>
 80060f2:	2b05      	cmp	r3, #5
 80060f4:	bfc4      	itt	gt
 80060f6:	3b04      	subgt	r3, #4
 80060f8:	9306      	strgt	r3, [sp, #24]
 80060fa:	9b06      	ldr	r3, [sp, #24]
 80060fc:	f1a3 0302 	sub.w	r3, r3, #2
 8006100:	bfcc      	ite	gt
 8006102:	2500      	movgt	r5, #0
 8006104:	2501      	movle	r5, #1
 8006106:	2b03      	cmp	r3, #3
 8006108:	f200 808c 	bhi.w	8006224 <_dtoa_r+0x2cc>
 800610c:	e8df f003 	tbb	[pc, r3]
 8006110:	6e317c7a 	.word	0x6e317c7a
 8006114:	e9dd 5314 	ldrd	r5, r3, [sp, #80]	; 0x50
 8006118:	441d      	add	r5, r3
 800611a:	f205 4032 	addw	r0, r5, #1074	; 0x432
 800611e:	2820      	cmp	r0, #32
 8006120:	dd13      	ble.n	800614a <_dtoa_r+0x1f2>
 8006122:	f1c0 0040 	rsb	r0, r0, #64	; 0x40
 8006126:	9b00      	ldr	r3, [sp, #0]
 8006128:	fa08 f800 	lsl.w	r8, r8, r0
 800612c:	f205 4012 	addw	r0, r5, #1042	; 0x412
 8006130:	fa23 f000 	lsr.w	r0, r3, r0
 8006134:	ea48 0000 	orr.w	r0, r8, r0
 8006138:	f7fa fa04 	bl	8000544 <__aeabi_ui2d>
 800613c:	2301      	movs	r3, #1
 800613e:	4682      	mov	sl, r0
 8006140:	f1a1 7bf8 	sub.w	fp, r1, #32505856	; 0x1f00000
 8006144:	3d01      	subs	r5, #1
 8006146:	9313      	str	r3, [sp, #76]	; 0x4c
 8006148:	e772      	b.n	8006030 <_dtoa_r+0xd8>
 800614a:	9b00      	ldr	r3, [sp, #0]
 800614c:	f1c0 0020 	rsb	r0, r0, #32
 8006150:	fa03 f000 	lsl.w	r0, r3, r0
 8006154:	e7f0      	b.n	8006138 <_dtoa_r+0x1e0>
 8006156:	2301      	movs	r3, #1
 8006158:	e7b1      	b.n	80060be <_dtoa_r+0x166>
 800615a:	900f      	str	r0, [sp, #60]	; 0x3c
 800615c:	e7b0      	b.n	80060c0 <_dtoa_r+0x168>
 800615e:	9b05      	ldr	r3, [sp, #20]
 8006160:	eba3 030a 	sub.w	r3, r3, sl
 8006164:	9305      	str	r3, [sp, #20]
 8006166:	f1ca 0300 	rsb	r3, sl, #0
 800616a:	9307      	str	r3, [sp, #28]
 800616c:	2300      	movs	r3, #0
 800616e:	930e      	str	r3, [sp, #56]	; 0x38
 8006170:	e7bb      	b.n	80060ea <_dtoa_r+0x192>
 8006172:	2301      	movs	r3, #1
 8006174:	930a      	str	r3, [sp, #40]	; 0x28
 8006176:	9b0b      	ldr	r3, [sp, #44]	; 0x2c
 8006178:	2b00      	cmp	r3, #0
 800617a:	dd56      	ble.n	800622a <_dtoa_r+0x2d2>
 800617c:	9302      	str	r3, [sp, #8]
 800617e:	4699      	mov	r9, r3
 8006180:	2200      	movs	r2, #0
 8006182:	6462      	str	r2, [r4, #68]	; 0x44
 8006184:	2204      	movs	r2, #4
 8006186:	f102 0014 	add.w	r0, r2, #20
 800618a:	4298      	cmp	r0, r3
 800618c:	6c61      	ldr	r1, [r4, #68]	; 0x44
 800618e:	d951      	bls.n	8006234 <_dtoa_r+0x2dc>
 8006190:	4620      	mov	r0, r4
 8006192:	f001 fafb 	bl	800778c <_Balloc>
 8006196:	f1b9 0f0e 	cmp.w	r9, #14
 800619a:	4683      	mov	fp, r0
 800619c:	6420      	str	r0, [r4, #64]	; 0x40
 800619e:	f200 80e8 	bhi.w	8006372 <_dtoa_r+0x41a>
 80061a2:	2d00      	cmp	r5, #0
 80061a4:	f000 80e5 	beq.w	8006372 <_dtoa_r+0x41a>
 80061a8:	ed9d 7b00 	vldr	d7, [sp]
 80061ac:	f1ba 0f00 	cmp.w	sl, #0
 80061b0:	ed8d 7b10 	vstr	d7, [sp, #64]	; 0x40
 80061b4:	dd76      	ble.n	80062a4 <_dtoa_r+0x34c>
 80061b6:	4a2b      	ldr	r2, [pc, #172]	; (8006264 <_dtoa_r+0x30c>)
 80061b8:	f00a 030f 	and.w	r3, sl, #15
 80061bc:	eb02 03c3 	add.w	r3, r2, r3, lsl #3
 80061c0:	ed93 7b00 	vldr	d7, [r3]
 80061c4:	ea4f 162a 	mov.w	r6, sl, asr #4
 80061c8:	06f0      	lsls	r0, r6, #27
 80061ca:	ed8d 7b08 	vstr	d7, [sp, #32]
 80061ce:	d567      	bpl.n	80062a0 <_dtoa_r+0x348>
 80061d0:	4b25      	ldr	r3, [pc, #148]	; (8006268 <_dtoa_r+0x310>)
 80061d2:	e9dd 0110 	ldrd	r0, r1, [sp, #64]	; 0x40
 80061d6:	e9d3 2308 	ldrd	r2, r3, [r3, #32]
 80061da:	f7fa fb57 	bl	800088c <__aeabi_ddiv>
 80061de:	e9cd 0100 	strd	r0, r1, [sp]
 80061e2:	f006 060f 	and.w	r6, r6, #15
 80061e6:	2503      	movs	r5, #3
 80061e8:	4f1f      	ldr	r7, [pc, #124]	; (8006268 <_dtoa_r+0x310>)
 80061ea:	e04e      	b.n	800628a <_dtoa_r+0x332>
 80061ec:	2301      	movs	r3, #1
 80061ee:	930a      	str	r3, [sp, #40]	; 0x28
 80061f0:	9b0b      	ldr	r3, [sp, #44]	; 0x2c
 80061f2:	4453      	add	r3, sl
 80061f4:	f103 0901 	add.w	r9, r3, #1
 80061f8:	9302      	str	r3, [sp, #8]
 80061fa:	464b      	mov	r3, r9
 80061fc:	2b01      	cmp	r3, #1
 80061fe:	bfb8      	it	lt
 8006200:	2301      	movlt	r3, #1
 8006202:	e7bd      	b.n	8006180 <_dtoa_r+0x228>
 8006204:	2300      	movs	r3, #0
 8006206:	e7b5      	b.n	8006174 <_dtoa_r+0x21c>
 8006208:	2300      	movs	r3, #0
 800620a:	e7f0      	b.n	80061ee <_dtoa_r+0x296>
 800620c:	2501      	movs	r5, #1
 800620e:	2300      	movs	r3, #0
 8006210:	9306      	str	r3, [sp, #24]
 8006212:	950a      	str	r5, [sp, #40]	; 0x28
 8006214:	f04f 33ff 	mov.w	r3, #4294967295
 8006218:	9302      	str	r3, [sp, #8]
 800621a:	4699      	mov	r9, r3
 800621c:	2200      	movs	r2, #0
 800621e:	2312      	movs	r3, #18
 8006220:	920b      	str	r2, [sp, #44]	; 0x2c
 8006222:	e7ad      	b.n	8006180 <_dtoa_r+0x228>
 8006224:	2301      	movs	r3, #1
 8006226:	930a      	str	r3, [sp, #40]	; 0x28
 8006228:	e7f4      	b.n	8006214 <_dtoa_r+0x2bc>
 800622a:	2301      	movs	r3, #1
 800622c:	9302      	str	r3, [sp, #8]
 800622e:	4699      	mov	r9, r3
 8006230:	461a      	mov	r2, r3
 8006232:	e7f5      	b.n	8006220 <_dtoa_r+0x2c8>
 8006234:	3101      	adds	r1, #1
 8006236:	6461      	str	r1, [r4, #68]	; 0x44
 8006238:	0052      	lsls	r2, r2, #1
 800623a:	e7a4      	b.n	8006186 <_dtoa_r+0x22e>
 800623c:	f3af 8000 	nop.w
 8006240:	636f4361 	.word	0x636f4361
 8006244:	3fd287a7 	.word	0x3fd287a7
 8006248:	8b60c8b3 	.word	0x8b60c8b3
 800624c:	3fc68a28 	.word	0x3fc68a28
 8006250:	509f79fb 	.word	0x509f79fb
 8006254:	3fd34413 	.word	0x3fd34413
 8006258:	7ff00000 	.word	0x7ff00000
 800625c:	080088fa 	.word	0x080088fa
 8006260:	3ff80000 	.word	0x3ff80000
 8006264:	08008af8 	.word	0x08008af8
 8006268:	08008ad0 	.word	0x08008ad0
 800626c:	08008ac7 	.word	0x08008ac7
 8006270:	07f1      	lsls	r1, r6, #31
 8006272:	d508      	bpl.n	8006286 <_dtoa_r+0x32e>
 8006274:	e9dd 0108 	ldrd	r0, r1, [sp, #32]
 8006278:	e9d7 2300 	ldrd	r2, r3, [r7]
 800627c:	f7fa f9dc 	bl	8000638 <__aeabi_dmul>
 8006280:	e9cd 0108 	strd	r0, r1, [sp, #32]
 8006284:	3501      	adds	r5, #1
 8006286:	1076      	asrs	r6, r6, #1
 8006288:	3708      	adds	r7, #8
 800628a:	2e00      	cmp	r6, #0
 800628c:	d1f0      	bne.n	8006270 <_dtoa_r+0x318>
 800628e:	e9dd 2308 	ldrd	r2, r3, [sp, #32]
 8006292:	e9dd 0100 	ldrd	r0, r1, [sp]
 8006296:	f7fa faf9 	bl	800088c <__aeabi_ddiv>
 800629a:	e9cd 0100 	strd	r0, r1, [sp]
 800629e:	e01a      	b.n	80062d6 <_dtoa_r+0x37e>
 80062a0:	2502      	movs	r5, #2
 80062a2:	e7a1      	b.n	80061e8 <_dtoa_r+0x290>
 80062a4:	f000 80a0 	beq.w	80063e8 <_dtoa_r+0x490>
 80062a8:	f1ca 0600 	rsb	r6, sl, #0
 80062ac:	4b9f      	ldr	r3, [pc, #636]	; (800652c <_dtoa_r+0x5d4>)
 80062ae:	4fa0      	ldr	r7, [pc, #640]	; (8006530 <_dtoa_r+0x5d8>)
 80062b0:	f006 020f 	and.w	r2, r6, #15
 80062b4:	eb03 03c2 	add.w	r3, r3, r2, lsl #3
 80062b8:	e9d3 2300 	ldrd	r2, r3, [r3]
 80062bc:	e9dd 0110 	ldrd	r0, r1, [sp, #64]	; 0x40
 80062c0:	f7fa f9ba 	bl	8000638 <__aeabi_dmul>
 80062c4:	e9cd 0100 	strd	r0, r1, [sp]
 80062c8:	1136      	asrs	r6, r6, #4
 80062ca:	2300      	movs	r3, #0
 80062cc:	2502      	movs	r5, #2
 80062ce:	2e00      	cmp	r6, #0
 80062d0:	d17f      	bne.n	80063d2 <_dtoa_r+0x47a>
 80062d2:	2b00      	cmp	r3, #0
 80062d4:	d1e1      	bne.n	800629a <_dtoa_r+0x342>
 80062d6:	9b0f      	ldr	r3, [sp, #60]	; 0x3c
 80062d8:	2b00      	cmp	r3, #0
 80062da:	f000 8087 	beq.w	80063ec <_dtoa_r+0x494>
 80062de:	e9dd 6700 	ldrd	r6, r7, [sp]
 80062e2:	2200      	movs	r2, #0
 80062e4:	4b93      	ldr	r3, [pc, #588]	; (8006534 <_dtoa_r+0x5dc>)
 80062e6:	4630      	mov	r0, r6
 80062e8:	4639      	mov	r1, r7
 80062ea:	f7fa fc17 	bl	8000b1c <__aeabi_dcmplt>
 80062ee:	2800      	cmp	r0, #0
 80062f0:	d07c      	beq.n	80063ec <_dtoa_r+0x494>
 80062f2:	f1b9 0f00 	cmp.w	r9, #0
 80062f6:	d079      	beq.n	80063ec <_dtoa_r+0x494>
 80062f8:	9b02      	ldr	r3, [sp, #8]
 80062fa:	2b00      	cmp	r3, #0
 80062fc:	dd35      	ble.n	800636a <_dtoa_r+0x412>
 80062fe:	f10a 33ff 	add.w	r3, sl, #4294967295
 8006302:	9308      	str	r3, [sp, #32]
 8006304:	4639      	mov	r1, r7
 8006306:	2200      	movs	r2, #0
 8006308:	4b8b      	ldr	r3, [pc, #556]	; (8006538 <_dtoa_r+0x5e0>)
 800630a:	4630      	mov	r0, r6
 800630c:	f7fa f994 	bl	8000638 <__aeabi_dmul>
 8006310:	e9cd 0100 	strd	r0, r1, [sp]
 8006314:	9f02      	ldr	r7, [sp, #8]
 8006316:	3501      	adds	r5, #1
 8006318:	4628      	mov	r0, r5
 800631a:	f7fa f923 	bl	8000564 <__aeabi_i2d>
 800631e:	e9dd 2300 	ldrd	r2, r3, [sp]
 8006322:	f7fa f989 	bl	8000638 <__aeabi_dmul>
 8006326:	2200      	movs	r2, #0
 8006328:	4b84      	ldr	r3, [pc, #528]	; (800653c <_dtoa_r+0x5e4>)
 800632a:	f7f9 ffcf 	bl	80002cc <__adddf3>
 800632e:	4605      	mov	r5, r0
 8006330:	f1a1 7650 	sub.w	r6, r1, #54525952	; 0x3400000
 8006334:	2f00      	cmp	r7, #0
 8006336:	d15d      	bne.n	80063f4 <_dtoa_r+0x49c>
 8006338:	2200      	movs	r2, #0
 800633a:	4b81      	ldr	r3, [pc, #516]	; (8006540 <_dtoa_r+0x5e8>)
 800633c:	e9dd 0100 	ldrd	r0, r1, [sp]
 8006340:	f7f9 ffc2 	bl	80002c8 <__aeabi_dsub>
 8006344:	462a      	mov	r2, r5
 8006346:	4633      	mov	r3, r6
 8006348:	e9cd 0100 	strd	r0, r1, [sp]
 800634c:	f7fa fc04 	bl	8000b58 <__aeabi_dcmpgt>
 8006350:	2800      	cmp	r0, #0
 8006352:	f040 8288 	bne.w	8006866 <_dtoa_r+0x90e>
 8006356:	462a      	mov	r2, r5
 8006358:	f106 4300 	add.w	r3, r6, #2147483648	; 0x80000000
 800635c:	e9dd 0100 	ldrd	r0, r1, [sp]
 8006360:	f7fa fbdc 	bl	8000b1c <__aeabi_dcmplt>
 8006364:	2800      	cmp	r0, #0
 8006366:	f040 827c 	bne.w	8006862 <_dtoa_r+0x90a>
 800636a:	e9dd 2310 	ldrd	r2, r3, [sp, #64]	; 0x40
 800636e:	e9cd 2300 	strd	r2, r3, [sp]
 8006372:	9b15      	ldr	r3, [sp, #84]	; 0x54
 8006374:	2b00      	cmp	r3, #0
 8006376:	f2c0 8150 	blt.w	800661a <_dtoa_r+0x6c2>
 800637a:	f1ba 0f0e 	cmp.w	sl, #14
 800637e:	f300 814c 	bgt.w	800661a <_dtoa_r+0x6c2>
 8006382:	4b6a      	ldr	r3, [pc, #424]	; (800652c <_dtoa_r+0x5d4>)
 8006384:	eb03 03ca 	add.w	r3, r3, sl, lsl #3
 8006388:	ed93 7b00 	vldr	d7, [r3]
 800638c:	9b0b      	ldr	r3, [sp, #44]	; 0x2c
 800638e:	2b00      	cmp	r3, #0
 8006390:	ed8d 7b02 	vstr	d7, [sp, #8]
 8006394:	f280 80d8 	bge.w	8006548 <_dtoa_r+0x5f0>
 8006398:	f1b9 0f00 	cmp.w	r9, #0
 800639c:	f300 80d4 	bgt.w	8006548 <_dtoa_r+0x5f0>
 80063a0:	f040 825e 	bne.w	8006860 <_dtoa_r+0x908>
 80063a4:	2200      	movs	r2, #0
 80063a6:	4b66      	ldr	r3, [pc, #408]	; (8006540 <_dtoa_r+0x5e8>)
 80063a8:	ec51 0b17 	vmov	r0, r1, d7
 80063ac:	f7fa f944 	bl	8000638 <__aeabi_dmul>
 80063b0:	e9dd 2300 	ldrd	r2, r3, [sp]
 80063b4:	f7fa fbc6 	bl	8000b44 <__aeabi_dcmpge>
 80063b8:	464f      	mov	r7, r9
 80063ba:	464e      	mov	r6, r9
 80063bc:	2800      	cmp	r0, #0
 80063be:	f040 8234 	bne.w	800682a <_dtoa_r+0x8d2>
 80063c2:	2331      	movs	r3, #49	; 0x31
 80063c4:	f10b 0501 	add.w	r5, fp, #1
 80063c8:	f88b 3000 	strb.w	r3, [fp]
 80063cc:	f10a 0a01 	add.w	sl, sl, #1
 80063d0:	e22f      	b.n	8006832 <_dtoa_r+0x8da>
 80063d2:	07f2      	lsls	r2, r6, #31
 80063d4:	d505      	bpl.n	80063e2 <_dtoa_r+0x48a>
 80063d6:	e9d7 2300 	ldrd	r2, r3, [r7]
 80063da:	f7fa f92d 	bl	8000638 <__aeabi_dmul>
 80063de:	3501      	adds	r5, #1
 80063e0:	2301      	movs	r3, #1
 80063e2:	1076      	asrs	r6, r6, #1
 80063e4:	3708      	adds	r7, #8
 80063e6:	e772      	b.n	80062ce <_dtoa_r+0x376>
 80063e8:	2502      	movs	r5, #2
 80063ea:	e774      	b.n	80062d6 <_dtoa_r+0x37e>
 80063ec:	f8cd a020 	str.w	sl, [sp, #32]
 80063f0:	464f      	mov	r7, r9
 80063f2:	e791      	b.n	8006318 <_dtoa_r+0x3c0>
 80063f4:	4b4d      	ldr	r3, [pc, #308]	; (800652c <_dtoa_r+0x5d4>)
 80063f6:	eb03 03c7 	add.w	r3, r3, r7, lsl #3
 80063fa:	e953 0102 	ldrd	r0, r1, [r3, #-8]
 80063fe:	9b0a      	ldr	r3, [sp, #40]	; 0x28
 8006400:	2b00      	cmp	r3, #0
 8006402:	d047      	beq.n	8006494 <_dtoa_r+0x53c>
 8006404:	4602      	mov	r2, r0
 8006406:	460b      	mov	r3, r1
 8006408:	2000      	movs	r0, #0
 800640a:	494e      	ldr	r1, [pc, #312]	; (8006544 <_dtoa_r+0x5ec>)
 800640c:	f7fa fa3e 	bl	800088c <__aeabi_ddiv>
 8006410:	462a      	mov	r2, r5
 8006412:	4633      	mov	r3, r6
 8006414:	f7f9 ff58 	bl	80002c8 <__aeabi_dsub>
 8006418:	e9cd 010c 	strd	r0, r1, [sp, #48]	; 0x30
 800641c:	465d      	mov	r5, fp
 800641e:	e9dd 0100 	ldrd	r0, r1, [sp]
 8006422:	f7fa fbb9 	bl	8000b98 <__aeabi_d2iz>
 8006426:	4606      	mov	r6, r0
 8006428:	f7fa f89c 	bl	8000564 <__aeabi_i2d>
 800642c:	4602      	mov	r2, r0
 800642e:	460b      	mov	r3, r1
 8006430:	e9dd 0100 	ldrd	r0, r1, [sp]
 8006434:	f7f9 ff48 	bl	80002c8 <__aeabi_dsub>
 8006438:	3630      	adds	r6, #48	; 0x30
 800643a:	f805 6b01 	strb.w	r6, [r5], #1
 800643e:	e9dd 230c 	ldrd	r2, r3, [sp, #48]	; 0x30
 8006442:	e9cd 0100 	strd	r0, r1, [sp]
 8006446:	f7fa fb69 	bl	8000b1c <__aeabi_dcmplt>
 800644a:	2800      	cmp	r0, #0
 800644c:	d163      	bne.n	8006516 <_dtoa_r+0x5be>
 800644e:	e9dd 2300 	ldrd	r2, r3, [sp]
 8006452:	2000      	movs	r0, #0
 8006454:	4937      	ldr	r1, [pc, #220]	; (8006534 <_dtoa_r+0x5dc>)
 8006456:	f7f9 ff37 	bl	80002c8 <__aeabi_dsub>
 800645a:	e9dd 230c 	ldrd	r2, r3, [sp, #48]	; 0x30
 800645e:	f7fa fb5d 	bl	8000b1c <__aeabi_dcmplt>
 8006462:	2800      	cmp	r0, #0
 8006464:	f040 80b7 	bne.w	80065d6 <_dtoa_r+0x67e>
 8006468:	eba5 030b 	sub.w	r3, r5, fp
 800646c:	429f      	cmp	r7, r3
 800646e:	f77f af7c 	ble.w	800636a <_dtoa_r+0x412>
 8006472:	2200      	movs	r2, #0
 8006474:	4b30      	ldr	r3, [pc, #192]	; (8006538 <_dtoa_r+0x5e0>)
 8006476:	e9dd 010c 	ldrd	r0, r1, [sp, #48]	; 0x30
 800647a:	f7fa f8dd 	bl	8000638 <__aeabi_dmul>
 800647e:	2200      	movs	r2, #0
 8006480:	e9cd 010c 	strd	r0, r1, [sp, #48]	; 0x30
 8006484:	4b2c      	ldr	r3, [pc, #176]	; (8006538 <_dtoa_r+0x5e0>)
 8006486:	e9dd 0100 	ldrd	r0, r1, [sp]
 800648a:	f7fa f8d5 	bl	8000638 <__aeabi_dmul>
 800648e:	e9cd 0100 	strd	r0, r1, [sp]
 8006492:	e7c4      	b.n	800641e <_dtoa_r+0x4c6>
 8006494:	462a      	mov	r2, r5
 8006496:	4633      	mov	r3, r6
 8006498:	f7fa f8ce 	bl	8000638 <__aeabi_dmul>
 800649c:	e9cd 010c 	strd	r0, r1, [sp, #48]	; 0x30
 80064a0:	eb0b 0507 	add.w	r5, fp, r7
 80064a4:	465e      	mov	r6, fp
 80064a6:	e9dd 0100 	ldrd	r0, r1, [sp]
 80064aa:	f7fa fb75 	bl	8000b98 <__aeabi_d2iz>
 80064ae:	4607      	mov	r7, r0
 80064b0:	f7fa f858 	bl	8000564 <__aeabi_i2d>
 80064b4:	3730      	adds	r7, #48	; 0x30
 80064b6:	4602      	mov	r2, r0
 80064b8:	460b      	mov	r3, r1
 80064ba:	e9dd 0100 	ldrd	r0, r1, [sp]
 80064be:	f7f9 ff03 	bl	80002c8 <__aeabi_dsub>
 80064c2:	f806 7b01 	strb.w	r7, [r6], #1
 80064c6:	42ae      	cmp	r6, r5
 80064c8:	e9cd 0100 	strd	r0, r1, [sp]
 80064cc:	f04f 0200 	mov.w	r2, #0
 80064d0:	d126      	bne.n	8006520 <_dtoa_r+0x5c8>
 80064d2:	4b1c      	ldr	r3, [pc, #112]	; (8006544 <_dtoa_r+0x5ec>)
 80064d4:	e9dd 010c 	ldrd	r0, r1, [sp, #48]	; 0x30
 80064d8:	f7f9 fef8 	bl	80002cc <__adddf3>
 80064dc:	4602      	mov	r2, r0
 80064de:	460b      	mov	r3, r1
 80064e0:	e9dd 0100 	ldrd	r0, r1, [sp]
 80064e4:	f7fa fb38 	bl	8000b58 <__aeabi_dcmpgt>
 80064e8:	2800      	cmp	r0, #0
 80064ea:	d174      	bne.n	80065d6 <_dtoa_r+0x67e>
 80064ec:	e9dd 230c 	ldrd	r2, r3, [sp, #48]	; 0x30
 80064f0:	2000      	movs	r0, #0
 80064f2:	4914      	ldr	r1, [pc, #80]	; (8006544 <_dtoa_r+0x5ec>)
 80064f4:	f7f9 fee8 	bl	80002c8 <__aeabi_dsub>
 80064f8:	4602      	mov	r2, r0
 80064fa:	460b      	mov	r3, r1
 80064fc:	e9dd 0100 	ldrd	r0, r1, [sp]
 8006500:	f7fa fb0c 	bl	8000b1c <__aeabi_dcmplt>
 8006504:	2800      	cmp	r0, #0
 8006506:	f43f af30 	beq.w	800636a <_dtoa_r+0x412>
 800650a:	f815 3c01 	ldrb.w	r3, [r5, #-1]
 800650e:	2b30      	cmp	r3, #48	; 0x30
 8006510:	f105 32ff 	add.w	r2, r5, #4294967295
 8006514:	d002      	beq.n	800651c <_dtoa_r+0x5c4>
 8006516:	f8dd a020 	ldr.w	sl, [sp, #32]
 800651a:	e04a      	b.n	80065b2 <_dtoa_r+0x65a>
 800651c:	4615      	mov	r5, r2
 800651e:	e7f4      	b.n	800650a <_dtoa_r+0x5b2>
 8006520:	4b05      	ldr	r3, [pc, #20]	; (8006538 <_dtoa_r+0x5e0>)
 8006522:	f7fa f889 	bl	8000638 <__aeabi_dmul>
 8006526:	e9cd 0100 	strd	r0, r1, [sp]
 800652a:	e7bc      	b.n	80064a6 <_dtoa_r+0x54e>
 800652c:	08008af8 	.word	0x08008af8
 8006530:	08008ad0 	.word	0x08008ad0
 8006534:	3ff00000 	.word	0x3ff00000
 8006538:	40240000 	.word	0x40240000
 800653c:	401c0000 	.word	0x401c0000
 8006540:	40140000 	.word	0x40140000
 8006544:	3fe00000 	.word	0x3fe00000
 8006548:	e9dd 6700 	ldrd	r6, r7, [sp]
 800654c:	465d      	mov	r5, fp
 800654e:	e9dd 2302 	ldrd	r2, r3, [sp, #8]
 8006552:	4630      	mov	r0, r6
 8006554:	4639      	mov	r1, r7
 8006556:	f7fa f999 	bl	800088c <__aeabi_ddiv>
 800655a:	f7fa fb1d 	bl	8000b98 <__aeabi_d2iz>
 800655e:	4680      	mov	r8, r0
 8006560:	f7fa f800 	bl	8000564 <__aeabi_i2d>
 8006564:	e9dd 2302 	ldrd	r2, r3, [sp, #8]
 8006568:	f7fa f866 	bl	8000638 <__aeabi_dmul>
 800656c:	4602      	mov	r2, r0
 800656e:	460b      	mov	r3, r1
 8006570:	4630      	mov	r0, r6
 8006572:	4639      	mov	r1, r7
 8006574:	f108 0630 	add.w	r6, r8, #48	; 0x30
 8006578:	f7f9 fea6 	bl	80002c8 <__aeabi_dsub>
 800657c:	f805 6b01 	strb.w	r6, [r5], #1
 8006580:	eba5 060b 	sub.w	r6, r5, fp
 8006584:	45b1      	cmp	r9, r6
 8006586:	4602      	mov	r2, r0
 8006588:	460b      	mov	r3, r1
 800658a:	d139      	bne.n	8006600 <_dtoa_r+0x6a8>
 800658c:	f7f9 fe9e 	bl	80002cc <__adddf3>
 8006590:	e9dd 2302 	ldrd	r2, r3, [sp, #8]
 8006594:	4606      	mov	r6, r0
 8006596:	460f      	mov	r7, r1
 8006598:	f7fa fade 	bl	8000b58 <__aeabi_dcmpgt>
 800659c:	b9c8      	cbnz	r0, 80065d2 <_dtoa_r+0x67a>
 800659e:	e9dd 2302 	ldrd	r2, r3, [sp, #8]
 80065a2:	4630      	mov	r0, r6
 80065a4:	4639      	mov	r1, r7
 80065a6:	f7fa faaf 	bl	8000b08 <__aeabi_dcmpeq>
 80065aa:	b110      	cbz	r0, 80065b2 <_dtoa_r+0x65a>
 80065ac:	f018 0f01 	tst.w	r8, #1
 80065b0:	d10f      	bne.n	80065d2 <_dtoa_r+0x67a>
 80065b2:	9904      	ldr	r1, [sp, #16]
 80065b4:	4620      	mov	r0, r4
 80065b6:	f001 f90e 	bl	80077d6 <_Bfree>
 80065ba:	2300      	movs	r3, #0
 80065bc:	9a12      	ldr	r2, [sp, #72]	; 0x48
 80065be:	702b      	strb	r3, [r5, #0]
 80065c0:	f10a 0301 	add.w	r3, sl, #1
 80065c4:	6013      	str	r3, [r2, #0]
 80065c6:	9b21      	ldr	r3, [sp, #132]	; 0x84
 80065c8:	2b00      	cmp	r3, #0
 80065ca:	f43f acff 	beq.w	8005fcc <_dtoa_r+0x74>
 80065ce:	601d      	str	r5, [r3, #0]
 80065d0:	e4fc      	b.n	8005fcc <_dtoa_r+0x74>
 80065d2:	f8cd a020 	str.w	sl, [sp, #32]
 80065d6:	f815 2c01 	ldrb.w	r2, [r5, #-1]
 80065da:	2a39      	cmp	r2, #57	; 0x39
 80065dc:	f105 33ff 	add.w	r3, r5, #4294967295
 80065e0:	d108      	bne.n	80065f4 <_dtoa_r+0x69c>
 80065e2:	459b      	cmp	fp, r3
 80065e4:	d10a      	bne.n	80065fc <_dtoa_r+0x6a4>
 80065e6:	9b08      	ldr	r3, [sp, #32]
 80065e8:	3301      	adds	r3, #1
 80065ea:	9308      	str	r3, [sp, #32]
 80065ec:	2330      	movs	r3, #48	; 0x30
 80065ee:	f88b 3000 	strb.w	r3, [fp]
 80065f2:	465b      	mov	r3, fp
 80065f4:	781a      	ldrb	r2, [r3, #0]
 80065f6:	3201      	adds	r2, #1
 80065f8:	701a      	strb	r2, [r3, #0]
 80065fa:	e78c      	b.n	8006516 <_dtoa_r+0x5be>
 80065fc:	461d      	mov	r5, r3
 80065fe:	e7ea      	b.n	80065d6 <_dtoa_r+0x67e>
 8006600:	2200      	movs	r2, #0
 8006602:	4b9b      	ldr	r3, [pc, #620]	; (8006870 <_dtoa_r+0x918>)
 8006604:	f7fa f818 	bl	8000638 <__aeabi_dmul>
 8006608:	2200      	movs	r2, #0
 800660a:	2300      	movs	r3, #0
 800660c:	4606      	mov	r6, r0
 800660e:	460f      	mov	r7, r1
 8006610:	f7fa fa7a 	bl	8000b08 <__aeabi_dcmpeq>
 8006614:	2800      	cmp	r0, #0
 8006616:	d09a      	beq.n	800654e <_dtoa_r+0x5f6>
 8006618:	e7cb      	b.n	80065b2 <_dtoa_r+0x65a>
 800661a:	9a0a      	ldr	r2, [sp, #40]	; 0x28
 800661c:	2a00      	cmp	r2, #0
 800661e:	f000 808b 	beq.w	8006738 <_dtoa_r+0x7e0>
 8006622:	9a06      	ldr	r2, [sp, #24]
 8006624:	2a01      	cmp	r2, #1
 8006626:	dc6e      	bgt.n	8006706 <_dtoa_r+0x7ae>
 8006628:	9a13      	ldr	r2, [sp, #76]	; 0x4c
 800662a:	2a00      	cmp	r2, #0
 800662c:	d067      	beq.n	80066fe <_dtoa_r+0x7a6>
 800662e:	f203 4333 	addw	r3, r3, #1075	; 0x433
 8006632:	9f07      	ldr	r7, [sp, #28]
 8006634:	9d05      	ldr	r5, [sp, #20]
 8006636:	9a05      	ldr	r2, [sp, #20]
 8006638:	2101      	movs	r1, #1
 800663a:	441a      	add	r2, r3
 800663c:	4620      	mov	r0, r4
 800663e:	9205      	str	r2, [sp, #20]
 8006640:	4498      	add	r8, r3
 8006642:	f001 f95a 	bl	80078fa <__i2b>
 8006646:	4606      	mov	r6, r0
 8006648:	2d00      	cmp	r5, #0
 800664a:	dd0c      	ble.n	8006666 <_dtoa_r+0x70e>
 800664c:	f1b8 0f00 	cmp.w	r8, #0
 8006650:	dd09      	ble.n	8006666 <_dtoa_r+0x70e>
 8006652:	4545      	cmp	r5, r8
 8006654:	9a05      	ldr	r2, [sp, #20]
 8006656:	462b      	mov	r3, r5
 8006658:	bfa8      	it	ge
 800665a:	4643      	movge	r3, r8
 800665c:	1ad2      	subs	r2, r2, r3
 800665e:	9205      	str	r2, [sp, #20]
 8006660:	1aed      	subs	r5, r5, r3
 8006662:	eba8 0803 	sub.w	r8, r8, r3
 8006666:	9b07      	ldr	r3, [sp, #28]
 8006668:	b1eb      	cbz	r3, 80066a6 <_dtoa_r+0x74e>
 800666a:	9b0a      	ldr	r3, [sp, #40]	; 0x28
 800666c:	2b00      	cmp	r3, #0
 800666e:	d067      	beq.n	8006740 <_dtoa_r+0x7e8>
 8006670:	b18f      	cbz	r7, 8006696 <_dtoa_r+0x73e>
 8006672:	4631      	mov	r1, r6
 8006674:	463a      	mov	r2, r7
 8006676:	4620      	mov	r0, r4
 8006678:	f001 f9de 	bl	8007a38 <__pow5mult>
 800667c:	9a04      	ldr	r2, [sp, #16]
 800667e:	4601      	mov	r1, r0
 8006680:	4606      	mov	r6, r0
 8006682:	4620      	mov	r0, r4
 8006684:	f001 f942 	bl	800790c <__multiply>
 8006688:	9904      	ldr	r1, [sp, #16]
 800668a:	9008      	str	r0, [sp, #32]
 800668c:	4620      	mov	r0, r4
 800668e:	f001 f8a2 	bl	80077d6 <_Bfree>
 8006692:	9b08      	ldr	r3, [sp, #32]
 8006694:	9304      	str	r3, [sp, #16]
 8006696:	9b07      	ldr	r3, [sp, #28]
 8006698:	1bda      	subs	r2, r3, r7
 800669a:	d004      	beq.n	80066a6 <_dtoa_r+0x74e>
 800669c:	9904      	ldr	r1, [sp, #16]
 800669e:	4620      	mov	r0, r4
 80066a0:	f001 f9ca 	bl	8007a38 <__pow5mult>
 80066a4:	9004      	str	r0, [sp, #16]
 80066a6:	2101      	movs	r1, #1
 80066a8:	4620      	mov	r0, r4
 80066aa:	f001 f926 	bl	80078fa <__i2b>
 80066ae:	9b0e      	ldr	r3, [sp, #56]	; 0x38
 80066b0:	4607      	mov	r7, r0
 80066b2:	2b00      	cmp	r3, #0
 80066b4:	f000 81cf 	beq.w	8006a56 <_dtoa_r+0xafe>
 80066b8:	461a      	mov	r2, r3
 80066ba:	4601      	mov	r1, r0
 80066bc:	4620      	mov	r0, r4
 80066be:	f001 f9bb 	bl	8007a38 <__pow5mult>
 80066c2:	9b06      	ldr	r3, [sp, #24]
 80066c4:	2b01      	cmp	r3, #1
 80066c6:	4607      	mov	r7, r0
 80066c8:	dc40      	bgt.n	800674c <_dtoa_r+0x7f4>
 80066ca:	9b00      	ldr	r3, [sp, #0]
 80066cc:	2b00      	cmp	r3, #0
 80066ce:	d139      	bne.n	8006744 <_dtoa_r+0x7ec>
 80066d0:	9b01      	ldr	r3, [sp, #4]
 80066d2:	f3c3 0313 	ubfx	r3, r3, #0, #20
 80066d6:	2b00      	cmp	r3, #0
 80066d8:	d136      	bne.n	8006748 <_dtoa_r+0x7f0>
 80066da:	9b01      	ldr	r3, [sp, #4]
 80066dc:	f023 4300 	bic.w	r3, r3, #2147483648	; 0x80000000
 80066e0:	0d1b      	lsrs	r3, r3, #20
 80066e2:	051b      	lsls	r3, r3, #20
 80066e4:	b12b      	cbz	r3, 80066f2 <_dtoa_r+0x79a>
 80066e6:	9b05      	ldr	r3, [sp, #20]
 80066e8:	3301      	adds	r3, #1
 80066ea:	9305      	str	r3, [sp, #20]
 80066ec:	f108 0801 	add.w	r8, r8, #1
 80066f0:	2301      	movs	r3, #1
 80066f2:	9307      	str	r3, [sp, #28]
 80066f4:	9b0e      	ldr	r3, [sp, #56]	; 0x38
 80066f6:	2b00      	cmp	r3, #0
 80066f8:	d12a      	bne.n	8006750 <_dtoa_r+0x7f8>
 80066fa:	2001      	movs	r0, #1
 80066fc:	e030      	b.n	8006760 <_dtoa_r+0x808>
 80066fe:	9b14      	ldr	r3, [sp, #80]	; 0x50
 8006700:	f1c3 0336 	rsb	r3, r3, #54	; 0x36
 8006704:	e795      	b.n	8006632 <_dtoa_r+0x6da>
 8006706:	9b07      	ldr	r3, [sp, #28]
 8006708:	f109 37ff 	add.w	r7, r9, #4294967295
 800670c:	42bb      	cmp	r3, r7
 800670e:	bfbf      	itttt	lt
 8006710:	9b07      	ldrlt	r3, [sp, #28]
 8006712:	9707      	strlt	r7, [sp, #28]
 8006714:	1afa      	sublt	r2, r7, r3
 8006716:	9b0e      	ldrlt	r3, [sp, #56]	; 0x38
 8006718:	bfbb      	ittet	lt
 800671a:	189b      	addlt	r3, r3, r2
 800671c:	930e      	strlt	r3, [sp, #56]	; 0x38
 800671e:	1bdf      	subge	r7, r3, r7
 8006720:	2700      	movlt	r7, #0
 8006722:	f1b9 0f00 	cmp.w	r9, #0
 8006726:	bfb5      	itete	lt
 8006728:	9b05      	ldrlt	r3, [sp, #20]
 800672a:	9d05      	ldrge	r5, [sp, #20]
 800672c:	eba3 0509 	sublt.w	r5, r3, r9
 8006730:	464b      	movge	r3, r9
 8006732:	bfb8      	it	lt
 8006734:	2300      	movlt	r3, #0
 8006736:	e77e      	b.n	8006636 <_dtoa_r+0x6de>
 8006738:	9f07      	ldr	r7, [sp, #28]
 800673a:	9d05      	ldr	r5, [sp, #20]
 800673c:	9e0a      	ldr	r6, [sp, #40]	; 0x28
 800673e:	e783      	b.n	8006648 <_dtoa_r+0x6f0>
 8006740:	9a07      	ldr	r2, [sp, #28]
 8006742:	e7ab      	b.n	800669c <_dtoa_r+0x744>
 8006744:	2300      	movs	r3, #0
 8006746:	e7d4      	b.n	80066f2 <_dtoa_r+0x79a>
 8006748:	9b00      	ldr	r3, [sp, #0]
 800674a:	e7d2      	b.n	80066f2 <_dtoa_r+0x79a>
 800674c:	2300      	movs	r3, #0
 800674e:	9307      	str	r3, [sp, #28]
 8006750:	693b      	ldr	r3, [r7, #16]
 8006752:	eb07 0383 	add.w	r3, r7, r3, lsl #2
 8006756:	6918      	ldr	r0, [r3, #16]
 8006758:	f001 f881 	bl	800785e <__hi0bits>
 800675c:	f1c0 0020 	rsb	r0, r0, #32
 8006760:	4440      	add	r0, r8
 8006762:	f010 001f 	ands.w	r0, r0, #31
 8006766:	d047      	beq.n	80067f8 <_dtoa_r+0x8a0>
 8006768:	f1c0 0320 	rsb	r3, r0, #32
 800676c:	2b04      	cmp	r3, #4
 800676e:	dd3b      	ble.n	80067e8 <_dtoa_r+0x890>
 8006770:	9b05      	ldr	r3, [sp, #20]
 8006772:	f1c0 001c 	rsb	r0, r0, #28
 8006776:	4403      	add	r3, r0
 8006778:	9305      	str	r3, [sp, #20]
 800677a:	4405      	add	r5, r0
 800677c:	4480      	add	r8, r0
 800677e:	9b05      	ldr	r3, [sp, #20]
 8006780:	2b00      	cmp	r3, #0
 8006782:	dd05      	ble.n	8006790 <_dtoa_r+0x838>
 8006784:	461a      	mov	r2, r3
 8006786:	9904      	ldr	r1, [sp, #16]
 8006788:	4620      	mov	r0, r4
 800678a:	f001 f995 	bl	8007ab8 <__lshift>
 800678e:	9004      	str	r0, [sp, #16]
 8006790:	f1b8 0f00 	cmp.w	r8, #0
 8006794:	dd05      	ble.n	80067a2 <_dtoa_r+0x84a>
 8006796:	4639      	mov	r1, r7
 8006798:	4642      	mov	r2, r8
 800679a:	4620      	mov	r0, r4
 800679c:	f001 f98c 	bl	8007ab8 <__lshift>
 80067a0:	4607      	mov	r7, r0
 80067a2:	9b0f      	ldr	r3, [sp, #60]	; 0x3c
 80067a4:	b353      	cbz	r3, 80067fc <_dtoa_r+0x8a4>
 80067a6:	4639      	mov	r1, r7
 80067a8:	9804      	ldr	r0, [sp, #16]
 80067aa:	f001 f9d9 	bl	8007b60 <__mcmp>
 80067ae:	2800      	cmp	r0, #0
 80067b0:	da24      	bge.n	80067fc <_dtoa_r+0x8a4>
 80067b2:	2300      	movs	r3, #0
 80067b4:	220a      	movs	r2, #10
 80067b6:	9904      	ldr	r1, [sp, #16]
 80067b8:	4620      	mov	r0, r4
 80067ba:	f001 f815 	bl	80077e8 <__multadd>
 80067be:	9b0a      	ldr	r3, [sp, #40]	; 0x28
 80067c0:	9004      	str	r0, [sp, #16]
 80067c2:	f10a 3aff 	add.w	sl, sl, #4294967295
 80067c6:	2b00      	cmp	r3, #0
 80067c8:	f000 814c 	beq.w	8006a64 <_dtoa_r+0xb0c>
 80067cc:	2300      	movs	r3, #0
 80067ce:	4631      	mov	r1, r6
 80067d0:	220a      	movs	r2, #10
 80067d2:	4620      	mov	r0, r4
 80067d4:	f001 f808 	bl	80077e8 <__multadd>
 80067d8:	9b02      	ldr	r3, [sp, #8]
 80067da:	2b00      	cmp	r3, #0
 80067dc:	4606      	mov	r6, r0
 80067de:	dc4f      	bgt.n	8006880 <_dtoa_r+0x928>
 80067e0:	9b06      	ldr	r3, [sp, #24]
 80067e2:	2b02      	cmp	r3, #2
 80067e4:	dd4c      	ble.n	8006880 <_dtoa_r+0x928>
 80067e6:	e011      	b.n	800680c <_dtoa_r+0x8b4>
 80067e8:	d0c9      	beq.n	800677e <_dtoa_r+0x826>
 80067ea:	9a05      	ldr	r2, [sp, #20]
 80067ec:	331c      	adds	r3, #28
 80067ee:	441a      	add	r2, r3
 80067f0:	9205      	str	r2, [sp, #20]
 80067f2:	441d      	add	r5, r3
 80067f4:	4498      	add	r8, r3
 80067f6:	e7c2      	b.n	800677e <_dtoa_r+0x826>
 80067f8:	4603      	mov	r3, r0
 80067fa:	e7f6      	b.n	80067ea <_dtoa_r+0x892>
 80067fc:	f1b9 0f00 	cmp.w	r9, #0
 8006800:	dc38      	bgt.n	8006874 <_dtoa_r+0x91c>
 8006802:	9b06      	ldr	r3, [sp, #24]
 8006804:	2b02      	cmp	r3, #2
 8006806:	dd35      	ble.n	8006874 <_dtoa_r+0x91c>
 8006808:	f8cd 9008 	str.w	r9, [sp, #8]
 800680c:	9b02      	ldr	r3, [sp, #8]
 800680e:	b963      	cbnz	r3, 800682a <_dtoa_r+0x8d2>
 8006810:	4639      	mov	r1, r7
 8006812:	2205      	movs	r2, #5
 8006814:	4620      	mov	r0, r4
 8006816:	f000 ffe7 	bl	80077e8 <__multadd>
 800681a:	4601      	mov	r1, r0
 800681c:	4607      	mov	r7, r0
 800681e:	9804      	ldr	r0, [sp, #16]
 8006820:	f001 f99e 	bl	8007b60 <__mcmp>
 8006824:	2800      	cmp	r0, #0
 8006826:	f73f adcc 	bgt.w	80063c2 <_dtoa_r+0x46a>
 800682a:	9b0b      	ldr	r3, [sp, #44]	; 0x2c
 800682c:	465d      	mov	r5, fp
 800682e:	ea6f 0a03 	mvn.w	sl, r3
 8006832:	f04f 0900 	mov.w	r9, #0
 8006836:	4639      	mov	r1, r7
 8006838:	4620      	mov	r0, r4
 800683a:	f000 ffcc 	bl	80077d6 <_Bfree>
 800683e:	2e00      	cmp	r6, #0
 8006840:	f43f aeb7 	beq.w	80065b2 <_dtoa_r+0x65a>
 8006844:	f1b9 0f00 	cmp.w	r9, #0
 8006848:	d005      	beq.n	8006856 <_dtoa_r+0x8fe>
 800684a:	45b1      	cmp	r9, r6
 800684c:	d003      	beq.n	8006856 <_dtoa_r+0x8fe>
 800684e:	4649      	mov	r1, r9
 8006850:	4620      	mov	r0, r4
 8006852:	f000 ffc0 	bl	80077d6 <_Bfree>
 8006856:	4631      	mov	r1, r6
 8006858:	4620      	mov	r0, r4
 800685a:	f000 ffbc 	bl	80077d6 <_Bfree>
 800685e:	e6a8      	b.n	80065b2 <_dtoa_r+0x65a>
 8006860:	2700      	movs	r7, #0
 8006862:	463e      	mov	r6, r7
 8006864:	e7e1      	b.n	800682a <_dtoa_r+0x8d2>
 8006866:	f8dd a020 	ldr.w	sl, [sp, #32]
 800686a:	463e      	mov	r6, r7
 800686c:	e5a9      	b.n	80063c2 <_dtoa_r+0x46a>
 800686e:	bf00      	nop
 8006870:	40240000 	.word	0x40240000
 8006874:	9b0a      	ldr	r3, [sp, #40]	; 0x28
 8006876:	f8cd 9008 	str.w	r9, [sp, #8]
 800687a:	2b00      	cmp	r3, #0
 800687c:	f000 80f9 	beq.w	8006a72 <_dtoa_r+0xb1a>
 8006880:	2d00      	cmp	r5, #0
 8006882:	dd05      	ble.n	8006890 <_dtoa_r+0x938>
 8006884:	4631      	mov	r1, r6
 8006886:	462a      	mov	r2, r5
 8006888:	4620      	mov	r0, r4
 800688a:	f001 f915 	bl	8007ab8 <__lshift>
 800688e:	4606      	mov	r6, r0
 8006890:	9b07      	ldr	r3, [sp, #28]
 8006892:	2b00      	cmp	r3, #0
 8006894:	d04c      	beq.n	8006930 <_dtoa_r+0x9d8>
 8006896:	6871      	ldr	r1, [r6, #4]
 8006898:	4620      	mov	r0, r4
 800689a:	f000 ff77 	bl	800778c <_Balloc>
 800689e:	6932      	ldr	r2, [r6, #16]
 80068a0:	3202      	adds	r2, #2
 80068a2:	4605      	mov	r5, r0
 80068a4:	0092      	lsls	r2, r2, #2
 80068a6:	f106 010c 	add.w	r1, r6, #12
 80068aa:	300c      	adds	r0, #12
 80068ac:	f7fd ff20 	bl	80046f0 <memcpy>
 80068b0:	2201      	movs	r2, #1
 80068b2:	4629      	mov	r1, r5
 80068b4:	4620      	mov	r0, r4
 80068b6:	f001 f8ff 	bl	8007ab8 <__lshift>
 80068ba:	9b00      	ldr	r3, [sp, #0]
 80068bc:	f8cd b014 	str.w	fp, [sp, #20]
 80068c0:	f003 0301 	and.w	r3, r3, #1
 80068c4:	46b1      	mov	r9, r6
 80068c6:	9307      	str	r3, [sp, #28]
 80068c8:	4606      	mov	r6, r0
 80068ca:	4639      	mov	r1, r7
 80068cc:	9804      	ldr	r0, [sp, #16]
 80068ce:	f7ff fab5 	bl	8005e3c <quorem>
 80068d2:	4649      	mov	r1, r9
 80068d4:	4605      	mov	r5, r0
 80068d6:	f100 0830 	add.w	r8, r0, #48	; 0x30
 80068da:	9804      	ldr	r0, [sp, #16]
 80068dc:	f001 f940 	bl	8007b60 <__mcmp>
 80068e0:	4632      	mov	r2, r6
 80068e2:	9000      	str	r0, [sp, #0]
 80068e4:	4639      	mov	r1, r7
 80068e6:	4620      	mov	r0, r4
 80068e8:	f001 f954 	bl	8007b94 <__mdiff>
 80068ec:	68c3      	ldr	r3, [r0, #12]
 80068ee:	4602      	mov	r2, r0
 80068f0:	bb03      	cbnz	r3, 8006934 <_dtoa_r+0x9dc>
 80068f2:	4601      	mov	r1, r0
 80068f4:	9008      	str	r0, [sp, #32]
 80068f6:	9804      	ldr	r0, [sp, #16]
 80068f8:	f001 f932 	bl	8007b60 <__mcmp>
 80068fc:	9a08      	ldr	r2, [sp, #32]
 80068fe:	4603      	mov	r3, r0
 8006900:	4611      	mov	r1, r2
 8006902:	4620      	mov	r0, r4
 8006904:	9308      	str	r3, [sp, #32]
 8006906:	f000 ff66 	bl	80077d6 <_Bfree>
 800690a:	9b08      	ldr	r3, [sp, #32]
 800690c:	b9a3      	cbnz	r3, 8006938 <_dtoa_r+0x9e0>
 800690e:	9a06      	ldr	r2, [sp, #24]
 8006910:	b992      	cbnz	r2, 8006938 <_dtoa_r+0x9e0>
 8006912:	9a07      	ldr	r2, [sp, #28]
 8006914:	b982      	cbnz	r2, 8006938 <_dtoa_r+0x9e0>
 8006916:	f1b8 0f39 	cmp.w	r8, #57	; 0x39
 800691a:	d029      	beq.n	8006970 <_dtoa_r+0xa18>
 800691c:	9b00      	ldr	r3, [sp, #0]
 800691e:	2b00      	cmp	r3, #0
 8006920:	dd01      	ble.n	8006926 <_dtoa_r+0x9ce>
 8006922:	f105 0831 	add.w	r8, r5, #49	; 0x31
 8006926:	9b05      	ldr	r3, [sp, #20]
 8006928:	1c5d      	adds	r5, r3, #1
 800692a:	f883 8000 	strb.w	r8, [r3]
 800692e:	e782      	b.n	8006836 <_dtoa_r+0x8de>
 8006930:	4630      	mov	r0, r6
 8006932:	e7c2      	b.n	80068ba <_dtoa_r+0x962>
 8006934:	2301      	movs	r3, #1
 8006936:	e7e3      	b.n	8006900 <_dtoa_r+0x9a8>
 8006938:	9a00      	ldr	r2, [sp, #0]
 800693a:	2a00      	cmp	r2, #0
 800693c:	db04      	blt.n	8006948 <_dtoa_r+0x9f0>
 800693e:	d125      	bne.n	800698c <_dtoa_r+0xa34>
 8006940:	9a06      	ldr	r2, [sp, #24]
 8006942:	bb1a      	cbnz	r2, 800698c <_dtoa_r+0xa34>
 8006944:	9a07      	ldr	r2, [sp, #28]
 8006946:	bb0a      	cbnz	r2, 800698c <_dtoa_r+0xa34>
 8006948:	2b00      	cmp	r3, #0
 800694a:	ddec      	ble.n	8006926 <_dtoa_r+0x9ce>
 800694c:	2201      	movs	r2, #1
 800694e:	9904      	ldr	r1, [sp, #16]
 8006950:	4620      	mov	r0, r4
 8006952:	f001 f8b1 	bl	8007ab8 <__lshift>
 8006956:	4639      	mov	r1, r7
 8006958:	9004      	str	r0, [sp, #16]
 800695a:	f001 f901 	bl	8007b60 <__mcmp>
 800695e:	2800      	cmp	r0, #0
 8006960:	dc03      	bgt.n	800696a <_dtoa_r+0xa12>
 8006962:	d1e0      	bne.n	8006926 <_dtoa_r+0x9ce>
 8006964:	f018 0f01 	tst.w	r8, #1
 8006968:	d0dd      	beq.n	8006926 <_dtoa_r+0x9ce>
 800696a:	f1b8 0f39 	cmp.w	r8, #57	; 0x39
 800696e:	d1d8      	bne.n	8006922 <_dtoa_r+0x9ca>
 8006970:	9b05      	ldr	r3, [sp, #20]
 8006972:	9a05      	ldr	r2, [sp, #20]
 8006974:	1c5d      	adds	r5, r3, #1
 8006976:	2339      	movs	r3, #57	; 0x39
 8006978:	7013      	strb	r3, [r2, #0]
 800697a:	f815 3c01 	ldrb.w	r3, [r5, #-1]
 800697e:	2b39      	cmp	r3, #57	; 0x39
 8006980:	f105 32ff 	add.w	r2, r5, #4294967295
 8006984:	d04f      	beq.n	8006a26 <_dtoa_r+0xace>
 8006986:	3301      	adds	r3, #1
 8006988:	7013      	strb	r3, [r2, #0]
 800698a:	e754      	b.n	8006836 <_dtoa_r+0x8de>
 800698c:	9a05      	ldr	r2, [sp, #20]
 800698e:	2b00      	cmp	r3, #0
 8006990:	f102 0501 	add.w	r5, r2, #1
 8006994:	dd06      	ble.n	80069a4 <_dtoa_r+0xa4c>
 8006996:	f1b8 0f39 	cmp.w	r8, #57	; 0x39
 800699a:	d0e9      	beq.n	8006970 <_dtoa_r+0xa18>
 800699c:	f108 0801 	add.w	r8, r8, #1
 80069a0:	9b05      	ldr	r3, [sp, #20]
 80069a2:	e7c2      	b.n	800692a <_dtoa_r+0x9d2>
 80069a4:	9a02      	ldr	r2, [sp, #8]
 80069a6:	f805 8c01 	strb.w	r8, [r5, #-1]
 80069aa:	eba5 030b 	sub.w	r3, r5, fp
 80069ae:	4293      	cmp	r3, r2
 80069b0:	d021      	beq.n	80069f6 <_dtoa_r+0xa9e>
 80069b2:	2300      	movs	r3, #0
 80069b4:	220a      	movs	r2, #10
 80069b6:	9904      	ldr	r1, [sp, #16]
 80069b8:	4620      	mov	r0, r4
 80069ba:	f000 ff15 	bl	80077e8 <__multadd>
 80069be:	45b1      	cmp	r9, r6
 80069c0:	9004      	str	r0, [sp, #16]
 80069c2:	f04f 0300 	mov.w	r3, #0
 80069c6:	f04f 020a 	mov.w	r2, #10
 80069ca:	4649      	mov	r1, r9
 80069cc:	4620      	mov	r0, r4
 80069ce:	d105      	bne.n	80069dc <_dtoa_r+0xa84>
 80069d0:	f000 ff0a 	bl	80077e8 <__multadd>
 80069d4:	4681      	mov	r9, r0
 80069d6:	4606      	mov	r6, r0
 80069d8:	9505      	str	r5, [sp, #20]
 80069da:	e776      	b.n	80068ca <_dtoa_r+0x972>
 80069dc:	f000 ff04 	bl	80077e8 <__multadd>
 80069e0:	4631      	mov	r1, r6
 80069e2:	4681      	mov	r9, r0
 80069e4:	2300      	movs	r3, #0
 80069e6:	220a      	movs	r2, #10
 80069e8:	4620      	mov	r0, r4
 80069ea:	f000 fefd 	bl	80077e8 <__multadd>
 80069ee:	4606      	mov	r6, r0
 80069f0:	e7f2      	b.n	80069d8 <_dtoa_r+0xa80>
 80069f2:	f04f 0900 	mov.w	r9, #0
 80069f6:	2201      	movs	r2, #1
 80069f8:	9904      	ldr	r1, [sp, #16]
 80069fa:	4620      	mov	r0, r4
 80069fc:	f001 f85c 	bl	8007ab8 <__lshift>
 8006a00:	4639      	mov	r1, r7
 8006a02:	9004      	str	r0, [sp, #16]
 8006a04:	f001 f8ac 	bl	8007b60 <__mcmp>
 8006a08:	2800      	cmp	r0, #0
 8006a0a:	dcb6      	bgt.n	800697a <_dtoa_r+0xa22>
 8006a0c:	d102      	bne.n	8006a14 <_dtoa_r+0xabc>
 8006a0e:	f018 0f01 	tst.w	r8, #1
 8006a12:	d1b2      	bne.n	800697a <_dtoa_r+0xa22>
 8006a14:	f815 3c01 	ldrb.w	r3, [r5, #-1]
 8006a18:	2b30      	cmp	r3, #48	; 0x30
 8006a1a:	f105 32ff 	add.w	r2, r5, #4294967295
 8006a1e:	f47f af0a 	bne.w	8006836 <_dtoa_r+0x8de>
 8006a22:	4615      	mov	r5, r2
 8006a24:	e7f6      	b.n	8006a14 <_dtoa_r+0xabc>
 8006a26:	4593      	cmp	fp, r2
 8006a28:	d105      	bne.n	8006a36 <_dtoa_r+0xade>
 8006a2a:	2331      	movs	r3, #49	; 0x31
 8006a2c:	f10a 0a01 	add.w	sl, sl, #1
 8006a30:	f88b 3000 	strb.w	r3, [fp]
 8006a34:	e6ff      	b.n	8006836 <_dtoa_r+0x8de>
 8006a36:	4615      	mov	r5, r2
 8006a38:	e79f      	b.n	800697a <_dtoa_r+0xa22>
 8006a3a:	f8df b064 	ldr.w	fp, [pc, #100]	; 8006aa0 <_dtoa_r+0xb48>
 8006a3e:	f7ff bac5 	b.w	8005fcc <_dtoa_r+0x74>
 8006a42:	9b21      	ldr	r3, [sp, #132]	; 0x84
 8006a44:	f8df b05c 	ldr.w	fp, [pc, #92]	; 8006aa4 <_dtoa_r+0xb4c>
 8006a48:	2b00      	cmp	r3, #0
 8006a4a:	f43f aabf 	beq.w	8005fcc <_dtoa_r+0x74>
 8006a4e:	f10b 0308 	add.w	r3, fp, #8
 8006a52:	f7ff bab9 	b.w	8005fc8 <_dtoa_r+0x70>
 8006a56:	9b06      	ldr	r3, [sp, #24]
 8006a58:	2b01      	cmp	r3, #1
 8006a5a:	f77f ae36 	ble.w	80066ca <_dtoa_r+0x772>
 8006a5e:	9b0e      	ldr	r3, [sp, #56]	; 0x38
 8006a60:	9307      	str	r3, [sp, #28]
 8006a62:	e64a      	b.n	80066fa <_dtoa_r+0x7a2>
 8006a64:	9b02      	ldr	r3, [sp, #8]
 8006a66:	2b00      	cmp	r3, #0
 8006a68:	dc03      	bgt.n	8006a72 <_dtoa_r+0xb1a>
 8006a6a:	9b06      	ldr	r3, [sp, #24]
 8006a6c:	2b02      	cmp	r3, #2
 8006a6e:	f73f aecd 	bgt.w	800680c <_dtoa_r+0x8b4>
 8006a72:	465d      	mov	r5, fp
 8006a74:	4639      	mov	r1, r7
 8006a76:	9804      	ldr	r0, [sp, #16]
 8006a78:	f7ff f9e0 	bl	8005e3c <quorem>
 8006a7c:	f100 0830 	add.w	r8, r0, #48	; 0x30
 8006a80:	f805 8b01 	strb.w	r8, [r5], #1
 8006a84:	9a02      	ldr	r2, [sp, #8]
 8006a86:	eba5 030b 	sub.w	r3, r5, fp
 8006a8a:	429a      	cmp	r2, r3
 8006a8c:	ddb1      	ble.n	80069f2 <_dtoa_r+0xa9a>
 8006a8e:	2300      	movs	r3, #0
 8006a90:	220a      	movs	r2, #10
 8006a92:	9904      	ldr	r1, [sp, #16]
 8006a94:	4620      	mov	r0, r4
 8006a96:	f000 fea7 	bl	80077e8 <__multadd>
 8006a9a:	9004      	str	r0, [sp, #16]
 8006a9c:	e7ea      	b.n	8006a74 <_dtoa_r+0xb1c>
 8006a9e:	bf00      	nop
 8006aa0:	080088f9 	.word	0x080088f9
 8006aa4:	08008abe 	.word	0x08008abe

08006aa8 <__sflush_r>:
 8006aa8:	f9b1 200c 	ldrsh.w	r2, [r1, #12]
 8006aac:	b293      	uxth	r3, r2
 8006aae:	e92d 41f0 	stmdb	sp!, {r4, r5, r6, r7, r8, lr}
 8006ab2:	4605      	mov	r5, r0
 8006ab4:	0718      	lsls	r0, r3, #28
 8006ab6:	460c      	mov	r4, r1
 8006ab8:	d45f      	bmi.n	8006b7a <__sflush_r+0xd2>
 8006aba:	684b      	ldr	r3, [r1, #4]
 8006abc:	f442 6200 	orr.w	r2, r2, #2048	; 0x800
 8006ac0:	2b00      	cmp	r3, #0
 8006ac2:	818a      	strh	r2, [r1, #12]
 8006ac4:	dc05      	bgt.n	8006ad2 <__sflush_r+0x2a>
 8006ac6:	6bcb      	ldr	r3, [r1, #60]	; 0x3c
 8006ac8:	2b00      	cmp	r3, #0
 8006aca:	dc02      	bgt.n	8006ad2 <__sflush_r+0x2a>
 8006acc:	2000      	movs	r0, #0
 8006ace:	e8bd 81f0 	ldmia.w	sp!, {r4, r5, r6, r7, r8, pc}
 8006ad2:	6aa6      	ldr	r6, [r4, #40]	; 0x28
 8006ad4:	2e00      	cmp	r6, #0
 8006ad6:	d0f9      	beq.n	8006acc <__sflush_r+0x24>
 8006ad8:	2300      	movs	r3, #0
 8006ada:	f412 5280 	ands.w	r2, r2, #4096	; 0x1000
 8006ade:	682f      	ldr	r7, [r5, #0]
 8006ae0:	69e1      	ldr	r1, [r4, #28]
 8006ae2:	602b      	str	r3, [r5, #0]
 8006ae4:	d036      	beq.n	8006b54 <__sflush_r+0xac>
 8006ae6:	6d20      	ldr	r0, [r4, #80]	; 0x50
 8006ae8:	89a3      	ldrh	r3, [r4, #12]
 8006aea:	075a      	lsls	r2, r3, #29
 8006aec:	d505      	bpl.n	8006afa <__sflush_r+0x52>
 8006aee:	6863      	ldr	r3, [r4, #4]
 8006af0:	1ac0      	subs	r0, r0, r3
 8006af2:	6b23      	ldr	r3, [r4, #48]	; 0x30
 8006af4:	b10b      	cbz	r3, 8006afa <__sflush_r+0x52>
 8006af6:	6be3      	ldr	r3, [r4, #60]	; 0x3c
 8006af8:	1ac0      	subs	r0, r0, r3
 8006afa:	2300      	movs	r3, #0
 8006afc:	4602      	mov	r2, r0
 8006afe:	6aa6      	ldr	r6, [r4, #40]	; 0x28
 8006b00:	69e1      	ldr	r1, [r4, #28]
 8006b02:	4628      	mov	r0, r5
 8006b04:	47b0      	blx	r6
 8006b06:	1c43      	adds	r3, r0, #1
 8006b08:	89a3      	ldrh	r3, [r4, #12]
 8006b0a:	d106      	bne.n	8006b1a <__sflush_r+0x72>
 8006b0c:	6829      	ldr	r1, [r5, #0]
 8006b0e:	291d      	cmp	r1, #29
 8006b10:	d84c      	bhi.n	8006bac <__sflush_r+0x104>
 8006b12:	4a2b      	ldr	r2, [pc, #172]	; (8006bc0 <__sflush_r+0x118>)
 8006b14:	40ca      	lsrs	r2, r1
 8006b16:	07d6      	lsls	r6, r2, #31
 8006b18:	d548      	bpl.n	8006bac <__sflush_r+0x104>
 8006b1a:	f423 6300 	bic.w	r3, r3, #2048	; 0x800
 8006b1e:	b21b      	sxth	r3, r3
 8006b20:	2200      	movs	r2, #0
 8006b22:	6062      	str	r2, [r4, #4]
 8006b24:	04d9      	lsls	r1, r3, #19
 8006b26:	6922      	ldr	r2, [r4, #16]
 8006b28:	81a3      	strh	r3, [r4, #12]
 8006b2a:	6022      	str	r2, [r4, #0]
 8006b2c:	d504      	bpl.n	8006b38 <__sflush_r+0x90>
 8006b2e:	1c42      	adds	r2, r0, #1
 8006b30:	d101      	bne.n	8006b36 <__sflush_r+0x8e>
 8006b32:	682b      	ldr	r3, [r5, #0]
 8006b34:	b903      	cbnz	r3, 8006b38 <__sflush_r+0x90>
 8006b36:	6520      	str	r0, [r4, #80]	; 0x50
 8006b38:	6b21      	ldr	r1, [r4, #48]	; 0x30
 8006b3a:	602f      	str	r7, [r5, #0]
 8006b3c:	2900      	cmp	r1, #0
 8006b3e:	d0c5      	beq.n	8006acc <__sflush_r+0x24>
 8006b40:	f104 0340 	add.w	r3, r4, #64	; 0x40
 8006b44:	4299      	cmp	r1, r3
 8006b46:	d002      	beq.n	8006b4e <__sflush_r+0xa6>
 8006b48:	4628      	mov	r0, r5
 8006b4a:	f000 f937 	bl	8006dbc <_free_r>
 8006b4e:	2000      	movs	r0, #0
 8006b50:	6320      	str	r0, [r4, #48]	; 0x30
 8006b52:	e7bc      	b.n	8006ace <__sflush_r+0x26>
 8006b54:	2301      	movs	r3, #1
 8006b56:	4628      	mov	r0, r5
 8006b58:	47b0      	blx	r6
 8006b5a:	1c41      	adds	r1, r0, #1
 8006b5c:	d1c4      	bne.n	8006ae8 <__sflush_r+0x40>
 8006b5e:	682b      	ldr	r3, [r5, #0]
 8006b60:	2b00      	cmp	r3, #0
 8006b62:	d0c1      	beq.n	8006ae8 <__sflush_r+0x40>
 8006b64:	2b1d      	cmp	r3, #29
 8006b66:	d001      	beq.n	8006b6c <__sflush_r+0xc4>
 8006b68:	2b16      	cmp	r3, #22
 8006b6a:	d101      	bne.n	8006b70 <__sflush_r+0xc8>
 8006b6c:	602f      	str	r7, [r5, #0]
 8006b6e:	e7ad      	b.n	8006acc <__sflush_r+0x24>
 8006b70:	89a3      	ldrh	r3, [r4, #12]
 8006b72:	f043 0340 	orr.w	r3, r3, #64	; 0x40
 8006b76:	81a3      	strh	r3, [r4, #12]
 8006b78:	e7a9      	b.n	8006ace <__sflush_r+0x26>
 8006b7a:	690f      	ldr	r7, [r1, #16]
 8006b7c:	2f00      	cmp	r7, #0
 8006b7e:	d0a5      	beq.n	8006acc <__sflush_r+0x24>
 8006b80:	079b      	lsls	r3, r3, #30
 8006b82:	680e      	ldr	r6, [r1, #0]
 8006b84:	bf08      	it	eq
 8006b86:	694b      	ldreq	r3, [r1, #20]
 8006b88:	600f      	str	r7, [r1, #0]
 8006b8a:	bf18      	it	ne
 8006b8c:	2300      	movne	r3, #0
 8006b8e:	eba6 0807 	sub.w	r8, r6, r7
 8006b92:	608b      	str	r3, [r1, #8]
 8006b94:	f1b8 0f00 	cmp.w	r8, #0
 8006b98:	dd98      	ble.n	8006acc <__sflush_r+0x24>
 8006b9a:	4643      	mov	r3, r8
 8006b9c:	463a      	mov	r2, r7
 8006b9e:	69e1      	ldr	r1, [r4, #28]
 8006ba0:	6a66      	ldr	r6, [r4, #36]	; 0x24
 8006ba2:	4628      	mov	r0, r5
 8006ba4:	47b0      	blx	r6
 8006ba6:	2800      	cmp	r0, #0
 8006ba8:	dc06      	bgt.n	8006bb8 <__sflush_r+0x110>
 8006baa:	89a3      	ldrh	r3, [r4, #12]
 8006bac:	f043 0340 	orr.w	r3, r3, #64	; 0x40
 8006bb0:	81a3      	strh	r3, [r4, #12]
 8006bb2:	f04f 30ff 	mov.w	r0, #4294967295
 8006bb6:	e78a      	b.n	8006ace <__sflush_r+0x26>
 8006bb8:	4407      	add	r7, r0
 8006bba:	eba8 0800 	sub.w	r8, r8, r0
 8006bbe:	e7e9      	b.n	8006b94 <__sflush_r+0xec>
 8006bc0:	20400001 	.word	0x20400001

08006bc4 <_fflush_r>:
 8006bc4:	b538      	push	{r3, r4, r5, lr}
 8006bc6:	460c      	mov	r4, r1
 8006bc8:	4605      	mov	r5, r0
 8006bca:	b118      	cbz	r0, 8006bd4 <_fflush_r+0x10>
 8006bcc:	6b83      	ldr	r3, [r0, #56]	; 0x38
 8006bce:	b90b      	cbnz	r3, 8006bd4 <_fflush_r+0x10>
 8006bd0:	f000 f864 	bl	8006c9c <__sinit>
 8006bd4:	f9b4 000c 	ldrsh.w	r0, [r4, #12]
 8006bd8:	b1b8      	cbz	r0, 8006c0a <_fflush_r+0x46>
 8006bda:	6e63      	ldr	r3, [r4, #100]	; 0x64
 8006bdc:	07db      	lsls	r3, r3, #31
 8006bde:	d404      	bmi.n	8006bea <_fflush_r+0x26>
 8006be0:	0581      	lsls	r1, r0, #22
 8006be2:	d402      	bmi.n	8006bea <_fflush_r+0x26>
 8006be4:	6da0      	ldr	r0, [r4, #88]	; 0x58
 8006be6:	f000 fb21 	bl	800722c <__retarget_lock_acquire_recursive>
 8006bea:	4628      	mov	r0, r5
 8006bec:	4621      	mov	r1, r4
 8006bee:	f7ff ff5b 	bl	8006aa8 <__sflush_r>
 8006bf2:	6e63      	ldr	r3, [r4, #100]	; 0x64
 8006bf4:	07da      	lsls	r2, r3, #31
 8006bf6:	4605      	mov	r5, r0
 8006bf8:	d405      	bmi.n	8006c06 <_fflush_r+0x42>
 8006bfa:	89a3      	ldrh	r3, [r4, #12]
 8006bfc:	059b      	lsls	r3, r3, #22
 8006bfe:	d402      	bmi.n	8006c06 <_fflush_r+0x42>
 8006c00:	6da0      	ldr	r0, [r4, #88]	; 0x58
 8006c02:	f000 fb14 	bl	800722e <__retarget_lock_release_recursive>
 8006c06:	4628      	mov	r0, r5
 8006c08:	bd38      	pop	{r3, r4, r5, pc}
 8006c0a:	4605      	mov	r5, r0
 8006c0c:	e7fb      	b.n	8006c06 <_fflush_r+0x42>
	...

08006c10 <std>:
 8006c10:	2300      	movs	r3, #0
 8006c12:	b510      	push	{r4, lr}
 8006c14:	4604      	mov	r4, r0
 8006c16:	e9c0 3300 	strd	r3, r3, [r0]
 8006c1a:	6083      	str	r3, [r0, #8]
 8006c1c:	8181      	strh	r1, [r0, #12]
 8006c1e:	6643      	str	r3, [r0, #100]	; 0x64
 8006c20:	81c2      	strh	r2, [r0, #14]
 8006c22:	e9c0 3304 	strd	r3, r3, [r0, #16]
 8006c26:	6183      	str	r3, [r0, #24]
 8006c28:	4619      	mov	r1, r3
 8006c2a:	2208      	movs	r2, #8
 8006c2c:	305c      	adds	r0, #92	; 0x5c
 8006c2e:	f7fd fd83 	bl	8004738 <memset>
 8006c32:	4b07      	ldr	r3, [pc, #28]	; (8006c50 <std+0x40>)
 8006c34:	6223      	str	r3, [r4, #32]
 8006c36:	4b07      	ldr	r3, [pc, #28]	; (8006c54 <std+0x44>)
 8006c38:	6263      	str	r3, [r4, #36]	; 0x24
 8006c3a:	4b07      	ldr	r3, [pc, #28]	; (8006c58 <std+0x48>)
 8006c3c:	62a3      	str	r3, [r4, #40]	; 0x28
 8006c3e:	4b07      	ldr	r3, [pc, #28]	; (8006c5c <std+0x4c>)
 8006c40:	61e4      	str	r4, [r4, #28]
 8006c42:	62e3      	str	r3, [r4, #44]	; 0x2c
 8006c44:	f104 0058 	add.w	r0, r4, #88	; 0x58
 8006c48:	e8bd 4010 	ldmia.w	sp!, {r4, lr}
 8006c4c:	f000 baec 	b.w	8007228 <__retarget_lock_init_recursive>
 8006c50:	080080c9 	.word	0x080080c9
 8006c54:	080080eb 	.word	0x080080eb
 8006c58:	08008123 	.word	0x08008123
 8006c5c:	08008147 	.word	0x08008147

08006c60 <_cleanup_r>:
 8006c60:	4901      	ldr	r1, [pc, #4]	; (8006c68 <_cleanup_r+0x8>)
 8006c62:	f000 bab5 	b.w	80071d0 <_fwalk_reent>
 8006c66:	bf00      	nop
 8006c68:	08008345 	.word	0x08008345

08006c6c <__sfp_lock_acquire>:
 8006c6c:	4801      	ldr	r0, [pc, #4]	; (8006c74 <__sfp_lock_acquire+0x8>)
 8006c6e:	f000 badd 	b.w	800722c <__retarget_lock_acquire_recursive>
 8006c72:	bf00      	nop
 8006c74:	200017bc 	.word	0x200017bc

08006c78 <__sfp_lock_release>:
 8006c78:	4801      	ldr	r0, [pc, #4]	; (8006c80 <__sfp_lock_release+0x8>)
 8006c7a:	f000 bad8 	b.w	800722e <__retarget_lock_release_recursive>
 8006c7e:	bf00      	nop
 8006c80:	200017bc 	.word	0x200017bc

08006c84 <__sinit_lock_acquire>:
 8006c84:	4801      	ldr	r0, [pc, #4]	; (8006c8c <__sinit_lock_acquire+0x8>)
 8006c86:	f000 bad1 	b.w	800722c <__retarget_lock_acquire_recursive>
 8006c8a:	bf00      	nop
 8006c8c:	200017b7 	.word	0x200017b7

08006c90 <__sinit_lock_release>:
 8006c90:	4801      	ldr	r0, [pc, #4]	; (8006c98 <__sinit_lock_release+0x8>)
 8006c92:	f000 bacc 	b.w	800722e <__retarget_lock_release_recursive>
 8006c96:	bf00      	nop
 8006c98:	200017b7 	.word	0x200017b7

08006c9c <__sinit>:
 8006c9c:	b510      	push	{r4, lr}
 8006c9e:	4604      	mov	r4, r0
 8006ca0:	f7ff fff0 	bl	8006c84 <__sinit_lock_acquire>
 8006ca4:	6ba2      	ldr	r2, [r4, #56]	; 0x38
 8006ca6:	b11a      	cbz	r2, 8006cb0 <__sinit+0x14>
 8006ca8:	e8bd 4010 	ldmia.w	sp!, {r4, lr}
 8006cac:	f7ff bff0 	b.w	8006c90 <__sinit_lock_release>
 8006cb0:	4b0d      	ldr	r3, [pc, #52]	; (8006ce8 <__sinit+0x4c>)
 8006cb2:	63e3      	str	r3, [r4, #60]	; 0x3c
 8006cb4:	2303      	movs	r3, #3
 8006cb6:	f8c4 32e4 	str.w	r3, [r4, #740]	; 0x2e4
 8006cba:	f504 733b 	add.w	r3, r4, #748	; 0x2ec
 8006cbe:	f8c4 32e8 	str.w	r3, [r4, #744]	; 0x2e8
 8006cc2:	f8c4 22e0 	str.w	r2, [r4, #736]	; 0x2e0
 8006cc6:	2104      	movs	r1, #4
 8006cc8:	6860      	ldr	r0, [r4, #4]
 8006cca:	f7ff ffa1 	bl	8006c10 <std>
 8006cce:	2201      	movs	r2, #1
 8006cd0:	2109      	movs	r1, #9
 8006cd2:	68a0      	ldr	r0, [r4, #8]
 8006cd4:	f7ff ff9c 	bl	8006c10 <std>
 8006cd8:	2202      	movs	r2, #2
 8006cda:	2112      	movs	r1, #18
 8006cdc:	68e0      	ldr	r0, [r4, #12]
 8006cde:	f7ff ff97 	bl	8006c10 <std>
 8006ce2:	2301      	movs	r3, #1
 8006ce4:	63a3      	str	r3, [r4, #56]	; 0x38
 8006ce6:	e7df      	b.n	8006ca8 <__sinit+0xc>
 8006ce8:	08006c61 	.word	0x08006c61

08006cec <__libc_fini_array>:
 8006cec:	b538      	push	{r3, r4, r5, lr}
 8006cee:	4d07      	ldr	r5, [pc, #28]	; (8006d0c <__libc_fini_array+0x20>)
 8006cf0:	4c07      	ldr	r4, [pc, #28]	; (8006d10 <__libc_fini_array+0x24>)
 8006cf2:	1b64      	subs	r4, r4, r5
 8006cf4:	10a4      	asrs	r4, r4, #2
 8006cf6:	b91c      	cbnz	r4, 8006d00 <__libc_fini_array+0x14>
 8006cf8:	e8bd 4038 	ldmia.w	sp!, {r3, r4, r5, lr}
 8006cfc:	f001 bccc 	b.w	8008698 <_fini>
 8006d00:	3c01      	subs	r4, #1
 8006d02:	f855 3024 	ldr.w	r3, [r5, r4, lsl #2]
 8006d06:	4798      	blx	r3
 8006d08:	e7f5      	b.n	8006cf6 <__libc_fini_array+0xa>
 8006d0a:	bf00      	nop
 8006d0c:	08008ce8 	.word	0x08008ce8
 8006d10:	08008cec 	.word	0x08008cec

08006d14 <_malloc_trim_r>:
 8006d14:	e92d 41f0 	stmdb	sp!, {r4, r5, r6, r7, r8, lr}
 8006d18:	4605      	mov	r5, r0
 8006d1a:	2008      	movs	r0, #8
 8006d1c:	460c      	mov	r4, r1
 8006d1e:	f001 fa2b 	bl	8008178 <sysconf>
 8006d22:	4f23      	ldr	r7, [pc, #140]	; (8006db0 <_malloc_trim_r+0x9c>)
 8006d24:	4680      	mov	r8, r0
 8006d26:	4628      	mov	r0, r5
 8006d28:	f000 fd24 	bl	8007774 <__malloc_lock>
 8006d2c:	68bb      	ldr	r3, [r7, #8]
 8006d2e:	685e      	ldr	r6, [r3, #4]
 8006d30:	f026 0603 	bic.w	r6, r6, #3
 8006d34:	1b34      	subs	r4, r6, r4
 8006d36:	3c11      	subs	r4, #17
 8006d38:	4444      	add	r4, r8
 8006d3a:	fbb4 f4f8 	udiv	r4, r4, r8
 8006d3e:	3c01      	subs	r4, #1
 8006d40:	fb08 f404 	mul.w	r4, r8, r4
 8006d44:	45a0      	cmp	r8, r4
 8006d46:	dd05      	ble.n	8006d54 <_malloc_trim_r+0x40>
 8006d48:	4628      	mov	r0, r5
 8006d4a:	f000 fd19 	bl	8007780 <__malloc_unlock>
 8006d4e:	2000      	movs	r0, #0
 8006d50:	e8bd 81f0 	ldmia.w	sp!, {r4, r5, r6, r7, r8, pc}
 8006d54:	2100      	movs	r1, #0
 8006d56:	4628      	mov	r0, r5
 8006d58:	f001 f9a6 	bl	80080a8 <_sbrk_r>
 8006d5c:	68bb      	ldr	r3, [r7, #8]
 8006d5e:	4433      	add	r3, r6
 8006d60:	4298      	cmp	r0, r3
 8006d62:	d1f1      	bne.n	8006d48 <_malloc_trim_r+0x34>
 8006d64:	4261      	negs	r1, r4
 8006d66:	4628      	mov	r0, r5
 8006d68:	f001 f99e 	bl	80080a8 <_sbrk_r>
 8006d6c:	3001      	adds	r0, #1
 8006d6e:	d110      	bne.n	8006d92 <_malloc_trim_r+0x7e>
 8006d70:	2100      	movs	r1, #0
 8006d72:	4628      	mov	r0, r5
 8006d74:	f001 f998 	bl	80080a8 <_sbrk_r>
 8006d78:	68ba      	ldr	r2, [r7, #8]
 8006d7a:	1a83      	subs	r3, r0, r2
 8006d7c:	2b0f      	cmp	r3, #15
 8006d7e:	dde3      	ble.n	8006d48 <_malloc_trim_r+0x34>
 8006d80:	490c      	ldr	r1, [pc, #48]	; (8006db4 <_malloc_trim_r+0xa0>)
 8006d82:	6809      	ldr	r1, [r1, #0]
 8006d84:	1a40      	subs	r0, r0, r1
 8006d86:	490c      	ldr	r1, [pc, #48]	; (8006db8 <_malloc_trim_r+0xa4>)
 8006d88:	f043 0301 	orr.w	r3, r3, #1
 8006d8c:	6008      	str	r0, [r1, #0]
 8006d8e:	6053      	str	r3, [r2, #4]
 8006d90:	e7da      	b.n	8006d48 <_malloc_trim_r+0x34>
 8006d92:	68bb      	ldr	r3, [r7, #8]
 8006d94:	4a08      	ldr	r2, [pc, #32]	; (8006db8 <_malloc_trim_r+0xa4>)
 8006d96:	1b36      	subs	r6, r6, r4
 8006d98:	f046 0601 	orr.w	r6, r6, #1
 8006d9c:	605e      	str	r6, [r3, #4]
 8006d9e:	6813      	ldr	r3, [r2, #0]
 8006da0:	4628      	mov	r0, r5
 8006da2:	1b1c      	subs	r4, r3, r4
 8006da4:	6014      	str	r4, [r2, #0]
 8006da6:	f000 fceb 	bl	8007780 <__malloc_unlock>
 8006daa:	2001      	movs	r0, #1
 8006dac:	e7d0      	b.n	8006d50 <_malloc_trim_r+0x3c>
 8006dae:	bf00      	nop
 8006db0:	20000444 	.word	0x20000444
 8006db4:	2000084c 	.word	0x2000084c
 8006db8:	200009e0 	.word	0x200009e0

08006dbc <_free_r>:
 8006dbc:	e92d 41f0 	stmdb	sp!, {r4, r5, r6, r7, r8, lr}
 8006dc0:	4604      	mov	r4, r0
 8006dc2:	4688      	mov	r8, r1
 8006dc4:	2900      	cmp	r1, #0
 8006dc6:	f000 80ab 	beq.w	8006f20 <_free_r+0x164>
 8006dca:	f000 fcd3 	bl	8007774 <__malloc_lock>
 8006dce:	f858 2c04 	ldr.w	r2, [r8, #-4]
 8006dd2:	4d54      	ldr	r5, [pc, #336]	; (8006f24 <_free_r+0x168>)
 8006dd4:	f022 0001 	bic.w	r0, r2, #1
 8006dd8:	f1a8 0308 	sub.w	r3, r8, #8
 8006ddc:	181f      	adds	r7, r3, r0
 8006dde:	68a9      	ldr	r1, [r5, #8]
 8006de0:	687e      	ldr	r6, [r7, #4]
 8006de2:	42b9      	cmp	r1, r7
 8006de4:	f026 0603 	bic.w	r6, r6, #3
 8006de8:	f002 0201 	and.w	r2, r2, #1
 8006dec:	d11b      	bne.n	8006e26 <_free_r+0x6a>
 8006dee:	4430      	add	r0, r6
 8006df0:	b93a      	cbnz	r2, 8006e02 <_free_r+0x46>
 8006df2:	f858 2c08 	ldr.w	r2, [r8, #-8]
 8006df6:	1a9b      	subs	r3, r3, r2
 8006df8:	4410      	add	r0, r2
 8006dfa:	e9d3 1202 	ldrd	r1, r2, [r3, #8]
 8006dfe:	60ca      	str	r2, [r1, #12]
 8006e00:	6091      	str	r1, [r2, #8]
 8006e02:	f040 0201 	orr.w	r2, r0, #1
 8006e06:	605a      	str	r2, [r3, #4]
 8006e08:	60ab      	str	r3, [r5, #8]
 8006e0a:	4b47      	ldr	r3, [pc, #284]	; (8006f28 <_free_r+0x16c>)
 8006e0c:	681b      	ldr	r3, [r3, #0]
 8006e0e:	4283      	cmp	r3, r0
 8006e10:	d804      	bhi.n	8006e1c <_free_r+0x60>
 8006e12:	4b46      	ldr	r3, [pc, #280]	; (8006f2c <_free_r+0x170>)
 8006e14:	4620      	mov	r0, r4
 8006e16:	6819      	ldr	r1, [r3, #0]
 8006e18:	f7ff ff7c 	bl	8006d14 <_malloc_trim_r>
 8006e1c:	4620      	mov	r0, r4
 8006e1e:	e8bd 41f0 	ldmia.w	sp!, {r4, r5, r6, r7, r8, lr}
 8006e22:	f000 bcad 	b.w	8007780 <__malloc_unlock>
 8006e26:	607e      	str	r6, [r7, #4]
 8006e28:	2a00      	cmp	r2, #0
 8006e2a:	d139      	bne.n	8006ea0 <_free_r+0xe4>
 8006e2c:	f858 1c08 	ldr.w	r1, [r8, #-8]
 8006e30:	1a5b      	subs	r3, r3, r1
 8006e32:	4408      	add	r0, r1
 8006e34:	6899      	ldr	r1, [r3, #8]
 8006e36:	f105 0c08 	add.w	ip, r5, #8
 8006e3a:	4561      	cmp	r1, ip
 8006e3c:	d032      	beq.n	8006ea4 <_free_r+0xe8>
 8006e3e:	f8d3 c00c 	ldr.w	ip, [r3, #12]
 8006e42:	f8c1 c00c 	str.w	ip, [r1, #12]
 8006e46:	f8cc 1008 	str.w	r1, [ip, #8]
 8006e4a:	19b9      	adds	r1, r7, r6
 8006e4c:	6849      	ldr	r1, [r1, #4]
 8006e4e:	07c9      	lsls	r1, r1, #31
 8006e50:	d40a      	bmi.n	8006e68 <_free_r+0xac>
 8006e52:	4430      	add	r0, r6
 8006e54:	68b9      	ldr	r1, [r7, #8]
 8006e56:	bb3a      	cbnz	r2, 8006ea8 <_free_r+0xec>
 8006e58:	4e35      	ldr	r6, [pc, #212]	; (8006f30 <_free_r+0x174>)
 8006e5a:	42b1      	cmp	r1, r6
 8006e5c:	d124      	bne.n	8006ea8 <_free_r+0xec>
 8006e5e:	e9c5 3304 	strd	r3, r3, [r5, #16]
 8006e62:	e9c3 1102 	strd	r1, r1, [r3, #8]
 8006e66:	2201      	movs	r2, #1
 8006e68:	f040 0101 	orr.w	r1, r0, #1
 8006e6c:	6059      	str	r1, [r3, #4]
 8006e6e:	5018      	str	r0, [r3, r0]
 8006e70:	2a00      	cmp	r2, #0
 8006e72:	d1d3      	bne.n	8006e1c <_free_r+0x60>
 8006e74:	f5b0 7f00 	cmp.w	r0, #512	; 0x200
 8006e78:	d21a      	bcs.n	8006eb0 <_free_r+0xf4>
 8006e7a:	08c0      	lsrs	r0, r0, #3
 8006e7c:	1081      	asrs	r1, r0, #2
 8006e7e:	2201      	movs	r2, #1
 8006e80:	408a      	lsls	r2, r1
 8006e82:	6869      	ldr	r1, [r5, #4]
 8006e84:	3001      	adds	r0, #1
 8006e86:	430a      	orrs	r2, r1
 8006e88:	606a      	str	r2, [r5, #4]
 8006e8a:	f855 1030 	ldr.w	r1, [r5, r0, lsl #3]
 8006e8e:	eb05 02c0 	add.w	r2, r5, r0, lsl #3
 8006e92:	3a08      	subs	r2, #8
 8006e94:	e9c3 1202 	strd	r1, r2, [r3, #8]
 8006e98:	f845 3030 	str.w	r3, [r5, r0, lsl #3]
 8006e9c:	60cb      	str	r3, [r1, #12]
 8006e9e:	e7bd      	b.n	8006e1c <_free_r+0x60>
 8006ea0:	2200      	movs	r2, #0
 8006ea2:	e7d2      	b.n	8006e4a <_free_r+0x8e>
 8006ea4:	2201      	movs	r2, #1
 8006ea6:	e7d0      	b.n	8006e4a <_free_r+0x8e>
 8006ea8:	68fe      	ldr	r6, [r7, #12]
 8006eaa:	60ce      	str	r6, [r1, #12]
 8006eac:	60b1      	str	r1, [r6, #8]
 8006eae:	e7db      	b.n	8006e68 <_free_r+0xac>
 8006eb0:	0a42      	lsrs	r2, r0, #9
 8006eb2:	2a04      	cmp	r2, #4
 8006eb4:	d813      	bhi.n	8006ede <_free_r+0x122>
 8006eb6:	0982      	lsrs	r2, r0, #6
 8006eb8:	3238      	adds	r2, #56	; 0x38
 8006eba:	1c51      	adds	r1, r2, #1
 8006ebc:	eb05 06c2 	add.w	r6, r5, r2, lsl #3
 8006ec0:	f855 1031 	ldr.w	r1, [r5, r1, lsl #3]
 8006ec4:	428e      	cmp	r6, r1
 8006ec6:	d124      	bne.n	8006f12 <_free_r+0x156>
 8006ec8:	2001      	movs	r0, #1
 8006eca:	1092      	asrs	r2, r2, #2
 8006ecc:	fa00 f202 	lsl.w	r2, r0, r2
 8006ed0:	6868      	ldr	r0, [r5, #4]
 8006ed2:	4302      	orrs	r2, r0
 8006ed4:	606a      	str	r2, [r5, #4]
 8006ed6:	e9c3 1602 	strd	r1, r6, [r3, #8]
 8006eda:	60b3      	str	r3, [r6, #8]
 8006edc:	e7de      	b.n	8006e9c <_free_r+0xe0>
 8006ede:	2a14      	cmp	r2, #20
 8006ee0:	d801      	bhi.n	8006ee6 <_free_r+0x12a>
 8006ee2:	325b      	adds	r2, #91	; 0x5b
 8006ee4:	e7e9      	b.n	8006eba <_free_r+0xfe>
 8006ee6:	2a54      	cmp	r2, #84	; 0x54
 8006ee8:	d802      	bhi.n	8006ef0 <_free_r+0x134>
 8006eea:	0b02      	lsrs	r2, r0, #12
 8006eec:	326e      	adds	r2, #110	; 0x6e
 8006eee:	e7e4      	b.n	8006eba <_free_r+0xfe>
 8006ef0:	f5b2 7faa 	cmp.w	r2, #340	; 0x154
 8006ef4:	d802      	bhi.n	8006efc <_free_r+0x140>
 8006ef6:	0bc2      	lsrs	r2, r0, #15
 8006ef8:	3277      	adds	r2, #119	; 0x77
 8006efa:	e7de      	b.n	8006eba <_free_r+0xfe>
 8006efc:	f240 5154 	movw	r1, #1364	; 0x554
 8006f00:	428a      	cmp	r2, r1
 8006f02:	bf9a      	itte	ls
 8006f04:	0c82      	lsrls	r2, r0, #18
 8006f06:	327c      	addls	r2, #124	; 0x7c
 8006f08:	227e      	movhi	r2, #126	; 0x7e
 8006f0a:	e7d6      	b.n	8006eba <_free_r+0xfe>
 8006f0c:	6889      	ldr	r1, [r1, #8]
 8006f0e:	428e      	cmp	r6, r1
 8006f10:	d004      	beq.n	8006f1c <_free_r+0x160>
 8006f12:	684a      	ldr	r2, [r1, #4]
 8006f14:	f022 0203 	bic.w	r2, r2, #3
 8006f18:	4282      	cmp	r2, r0
 8006f1a:	d8f7      	bhi.n	8006f0c <_free_r+0x150>
 8006f1c:	68ce      	ldr	r6, [r1, #12]
 8006f1e:	e7da      	b.n	8006ed6 <_free_r+0x11a>
 8006f20:	e8bd 81f0 	ldmia.w	sp!, {r4, r5, r6, r7, r8, pc}
 8006f24:	20000444 	.word	0x20000444
 8006f28:	20000850 	.word	0x20000850
 8006f2c:	20000a10 	.word	0x20000a10
 8006f30:	2000044c 	.word	0x2000044c

08006f34 <__sfvwrite_r>:
 8006f34:	6893      	ldr	r3, [r2, #8]
 8006f36:	e92d 4ff7 	stmdb	sp!, {r0, r1, r2, r4, r5, r6, r7, r8, r9, sl, fp, lr}
 8006f3a:	4680      	mov	r8, r0
 8006f3c:	460c      	mov	r4, r1
 8006f3e:	4691      	mov	r9, r2
 8006f40:	b91b      	cbnz	r3, 8006f4a <__sfvwrite_r+0x16>
 8006f42:	2000      	movs	r0, #0
 8006f44:	b003      	add	sp, #12
 8006f46:	e8bd 8ff0 	ldmia.w	sp!, {r4, r5, r6, r7, r8, r9, sl, fp, pc}
 8006f4a:	898b      	ldrh	r3, [r1, #12]
 8006f4c:	0718      	lsls	r0, r3, #28
 8006f4e:	d54f      	bpl.n	8006ff0 <__sfvwrite_r+0xbc>
 8006f50:	690b      	ldr	r3, [r1, #16]
 8006f52:	2b00      	cmp	r3, #0
 8006f54:	d04c      	beq.n	8006ff0 <__sfvwrite_r+0xbc>
 8006f56:	89a5      	ldrh	r5, [r4, #12]
 8006f58:	f8d9 6000 	ldr.w	r6, [r9]
 8006f5c:	f015 0702 	ands.w	r7, r5, #2
 8006f60:	d169      	bne.n	8007036 <__sfvwrite_r+0x102>
 8006f62:	f015 0501 	ands.w	r5, r5, #1
 8006f66:	f000 809a 	beq.w	800709e <__sfvwrite_r+0x16a>
 8006f6a:	4638      	mov	r0, r7
 8006f6c:	46ba      	mov	sl, r7
 8006f6e:	46bb      	mov	fp, r7
 8006f70:	f1bb 0f00 	cmp.w	fp, #0
 8006f74:	f000 8103 	beq.w	800717e <__sfvwrite_r+0x24a>
 8006f78:	b950      	cbnz	r0, 8006f90 <__sfvwrite_r+0x5c>
 8006f7a:	465a      	mov	r2, fp
 8006f7c:	210a      	movs	r1, #10
 8006f7e:	4650      	mov	r0, sl
 8006f80:	f7f9 f94e 	bl	8000220 <memchr>
 8006f84:	2800      	cmp	r0, #0
 8006f86:	f000 80ff 	beq.w	8007188 <__sfvwrite_r+0x254>
 8006f8a:	3001      	adds	r0, #1
 8006f8c:	eba0 070a 	sub.w	r7, r0, sl
 8006f90:	6820      	ldr	r0, [r4, #0]
 8006f92:	6921      	ldr	r1, [r4, #16]
 8006f94:	6962      	ldr	r2, [r4, #20]
 8006f96:	455f      	cmp	r7, fp
 8006f98:	463b      	mov	r3, r7
 8006f9a:	bf28      	it	cs
 8006f9c:	465b      	movcs	r3, fp
 8006f9e:	4288      	cmp	r0, r1
 8006fa0:	f240 80f5 	bls.w	800718e <__sfvwrite_r+0x25a>
 8006fa4:	68a5      	ldr	r5, [r4, #8]
 8006fa6:	4415      	add	r5, r2
 8006fa8:	42ab      	cmp	r3, r5
 8006faa:	f340 80f0 	ble.w	800718e <__sfvwrite_r+0x25a>
 8006fae:	4651      	mov	r1, sl
 8006fb0:	462a      	mov	r2, r5
 8006fb2:	f7fd fba8 	bl	8004706 <memmove>
 8006fb6:	6823      	ldr	r3, [r4, #0]
 8006fb8:	442b      	add	r3, r5
 8006fba:	6023      	str	r3, [r4, #0]
 8006fbc:	4621      	mov	r1, r4
 8006fbe:	4640      	mov	r0, r8
 8006fc0:	f7ff fe00 	bl	8006bc4 <_fflush_r>
 8006fc4:	2800      	cmp	r0, #0
 8006fc6:	d165      	bne.n	8007094 <__sfvwrite_r+0x160>
 8006fc8:	1b7f      	subs	r7, r7, r5
 8006fca:	f040 80fa 	bne.w	80071c2 <__sfvwrite_r+0x28e>
 8006fce:	4621      	mov	r1, r4
 8006fd0:	4640      	mov	r0, r8
 8006fd2:	f7ff fdf7 	bl	8006bc4 <_fflush_r>
 8006fd6:	2800      	cmp	r0, #0
 8006fd8:	d15c      	bne.n	8007094 <__sfvwrite_r+0x160>
 8006fda:	f8d9 3008 	ldr.w	r3, [r9, #8]
 8006fde:	44aa      	add	sl, r5
 8006fe0:	ebab 0b05 	sub.w	fp, fp, r5
 8006fe4:	1b5d      	subs	r5, r3, r5
 8006fe6:	f8c9 5008 	str.w	r5, [r9, #8]
 8006fea:	2d00      	cmp	r5, #0
 8006fec:	d1c0      	bne.n	8006f70 <__sfvwrite_r+0x3c>
 8006fee:	e7a8      	b.n	8006f42 <__sfvwrite_r+0xe>
 8006ff0:	4621      	mov	r1, r4
 8006ff2:	4640      	mov	r0, r8
 8006ff4:	f7fe feba 	bl	8005d6c <__swsetup_r>
 8006ff8:	2800      	cmp	r0, #0
 8006ffa:	d0ac      	beq.n	8006f56 <__sfvwrite_r+0x22>
 8006ffc:	f04f 30ff 	mov.w	r0, #4294967295
 8007000:	e7a0      	b.n	8006f44 <__sfvwrite_r+0x10>
 8007002:	e9d6 a700 	ldrd	sl, r7, [r6]
 8007006:	3608      	adds	r6, #8
 8007008:	2f00      	cmp	r7, #0
 800700a:	d0fa      	beq.n	8007002 <__sfvwrite_r+0xce>
 800700c:	455f      	cmp	r7, fp
 800700e:	463b      	mov	r3, r7
 8007010:	4652      	mov	r2, sl
 8007012:	bf28      	it	cs
 8007014:	465b      	movcs	r3, fp
 8007016:	69e1      	ldr	r1, [r4, #28]
 8007018:	6a65      	ldr	r5, [r4, #36]	; 0x24
 800701a:	4640      	mov	r0, r8
 800701c:	47a8      	blx	r5
 800701e:	2800      	cmp	r0, #0
 8007020:	dd38      	ble.n	8007094 <__sfvwrite_r+0x160>
 8007022:	f8d9 3008 	ldr.w	r3, [r9, #8]
 8007026:	4482      	add	sl, r0
 8007028:	1a3f      	subs	r7, r7, r0
 800702a:	1a18      	subs	r0, r3, r0
 800702c:	f8c9 0008 	str.w	r0, [r9, #8]
 8007030:	2800      	cmp	r0, #0
 8007032:	d1e9      	bne.n	8007008 <__sfvwrite_r+0xd4>
 8007034:	e785      	b.n	8006f42 <__sfvwrite_r+0xe>
 8007036:	f04f 0a00 	mov.w	sl, #0
 800703a:	4657      	mov	r7, sl
 800703c:	f8df b18c 	ldr.w	fp, [pc, #396]	; 80071cc <__sfvwrite_r+0x298>
 8007040:	e7e2      	b.n	8007008 <__sfvwrite_r+0xd4>
 8007042:	e9d6 5a00 	ldrd	r5, sl, [r6]
 8007046:	3608      	adds	r6, #8
 8007048:	f1ba 0f00 	cmp.w	sl, #0
 800704c:	d0f9      	beq.n	8007042 <__sfvwrite_r+0x10e>
 800704e:	89a2      	ldrh	r2, [r4, #12]
 8007050:	68a3      	ldr	r3, [r4, #8]
 8007052:	6820      	ldr	r0, [r4, #0]
 8007054:	0591      	lsls	r1, r2, #22
 8007056:	d564      	bpl.n	8007122 <__sfvwrite_r+0x1ee>
 8007058:	4553      	cmp	r3, sl
 800705a:	d836      	bhi.n	80070ca <__sfvwrite_r+0x196>
 800705c:	f412 6f90 	tst.w	r2, #1152	; 0x480
 8007060:	d033      	beq.n	80070ca <__sfvwrite_r+0x196>
 8007062:	6921      	ldr	r1, [r4, #16]
 8007064:	6967      	ldr	r7, [r4, #20]
 8007066:	eba0 0b01 	sub.w	fp, r0, r1
 800706a:	2302      	movs	r3, #2
 800706c:	eb07 0747 	add.w	r7, r7, r7, lsl #1
 8007070:	fb97 f7f3 	sdiv	r7, r7, r3
 8007074:	f10b 0301 	add.w	r3, fp, #1
 8007078:	4453      	add	r3, sl
 800707a:	429f      	cmp	r7, r3
 800707c:	bf38      	it	cc
 800707e:	461f      	movcc	r7, r3
 8007080:	0553      	lsls	r3, r2, #21
 8007082:	d53e      	bpl.n	8007102 <__sfvwrite_r+0x1ce>
 8007084:	4639      	mov	r1, r7
 8007086:	4640      	mov	r0, r8
 8007088:	f000 f93e 	bl	8007308 <_malloc_r>
 800708c:	b948      	cbnz	r0, 80070a2 <__sfvwrite_r+0x16e>
 800708e:	230c      	movs	r3, #12
 8007090:	f8c8 3000 	str.w	r3, [r8]
 8007094:	89a3      	ldrh	r3, [r4, #12]
 8007096:	f043 0340 	orr.w	r3, r3, #64	; 0x40
 800709a:	81a3      	strh	r3, [r4, #12]
 800709c:	e7ae      	b.n	8006ffc <__sfvwrite_r+0xc8>
 800709e:	46aa      	mov	sl, r5
 80070a0:	e7d2      	b.n	8007048 <__sfvwrite_r+0x114>
 80070a2:	465a      	mov	r2, fp
 80070a4:	6921      	ldr	r1, [r4, #16]
 80070a6:	9001      	str	r0, [sp, #4]
 80070a8:	f7fd fb22 	bl	80046f0 <memcpy>
 80070ac:	89a2      	ldrh	r2, [r4, #12]
 80070ae:	9b01      	ldr	r3, [sp, #4]
 80070b0:	f422 6290 	bic.w	r2, r2, #1152	; 0x480
 80070b4:	f042 0280 	orr.w	r2, r2, #128	; 0x80
 80070b8:	81a2      	strh	r2, [r4, #12]
 80070ba:	6123      	str	r3, [r4, #16]
 80070bc:	6167      	str	r7, [r4, #20]
 80070be:	445b      	add	r3, fp
 80070c0:	eba7 070b 	sub.w	r7, r7, fp
 80070c4:	6023      	str	r3, [r4, #0]
 80070c6:	60a7      	str	r7, [r4, #8]
 80070c8:	4653      	mov	r3, sl
 80070ca:	4553      	cmp	r3, sl
 80070cc:	bf28      	it	cs
 80070ce:	4653      	movcs	r3, sl
 80070d0:	461a      	mov	r2, r3
 80070d2:	4629      	mov	r1, r5
 80070d4:	6820      	ldr	r0, [r4, #0]
 80070d6:	9301      	str	r3, [sp, #4]
 80070d8:	f7fd fb15 	bl	8004706 <memmove>
 80070dc:	68a2      	ldr	r2, [r4, #8]
 80070de:	9b01      	ldr	r3, [sp, #4]
 80070e0:	1ad2      	subs	r2, r2, r3
 80070e2:	60a2      	str	r2, [r4, #8]
 80070e4:	6822      	ldr	r2, [r4, #0]
 80070e6:	4413      	add	r3, r2
 80070e8:	4657      	mov	r7, sl
 80070ea:	6023      	str	r3, [r4, #0]
 80070ec:	f8d9 3008 	ldr.w	r3, [r9, #8]
 80070f0:	443d      	add	r5, r7
 80070f2:	ebaa 0a07 	sub.w	sl, sl, r7
 80070f6:	1bdf      	subs	r7, r3, r7
 80070f8:	f8c9 7008 	str.w	r7, [r9, #8]
 80070fc:	2f00      	cmp	r7, #0
 80070fe:	d1a3      	bne.n	8007048 <__sfvwrite_r+0x114>
 8007100:	e71f      	b.n	8006f42 <__sfvwrite_r+0xe>
 8007102:	463a      	mov	r2, r7
 8007104:	4640      	mov	r0, r8
 8007106:	f000 fdf1 	bl	8007cec <_realloc_r>
 800710a:	4603      	mov	r3, r0
 800710c:	2800      	cmp	r0, #0
 800710e:	d1d4      	bne.n	80070ba <__sfvwrite_r+0x186>
 8007110:	6921      	ldr	r1, [r4, #16]
 8007112:	4640      	mov	r0, r8
 8007114:	f7ff fe52 	bl	8006dbc <_free_r>
 8007118:	89a3      	ldrh	r3, [r4, #12]
 800711a:	f023 0380 	bic.w	r3, r3, #128	; 0x80
 800711e:	81a3      	strh	r3, [r4, #12]
 8007120:	e7b5      	b.n	800708e <__sfvwrite_r+0x15a>
 8007122:	6922      	ldr	r2, [r4, #16]
 8007124:	4282      	cmp	r2, r0
 8007126:	d302      	bcc.n	800712e <__sfvwrite_r+0x1fa>
 8007128:	6962      	ldr	r2, [r4, #20]
 800712a:	4552      	cmp	r2, sl
 800712c:	d916      	bls.n	800715c <__sfvwrite_r+0x228>
 800712e:	4553      	cmp	r3, sl
 8007130:	bf28      	it	cs
 8007132:	4653      	movcs	r3, sl
 8007134:	461a      	mov	r2, r3
 8007136:	4629      	mov	r1, r5
 8007138:	461f      	mov	r7, r3
 800713a:	f7fd fae4 	bl	8004706 <memmove>
 800713e:	68a3      	ldr	r3, [r4, #8]
 8007140:	6822      	ldr	r2, [r4, #0]
 8007142:	1bdb      	subs	r3, r3, r7
 8007144:	443a      	add	r2, r7
 8007146:	60a3      	str	r3, [r4, #8]
 8007148:	6022      	str	r2, [r4, #0]
 800714a:	2b00      	cmp	r3, #0
 800714c:	d1ce      	bne.n	80070ec <__sfvwrite_r+0x1b8>
 800714e:	4621      	mov	r1, r4
 8007150:	4640      	mov	r0, r8
 8007152:	f7ff fd37 	bl	8006bc4 <_fflush_r>
 8007156:	2800      	cmp	r0, #0
 8007158:	d0c8      	beq.n	80070ec <__sfvwrite_r+0x1b8>
 800715a:	e79b      	b.n	8007094 <__sfvwrite_r+0x160>
 800715c:	4b1a      	ldr	r3, [pc, #104]	; (80071c8 <__sfvwrite_r+0x294>)
 800715e:	6a67      	ldr	r7, [r4, #36]	; 0x24
 8007160:	69e1      	ldr	r1, [r4, #28]
 8007162:	459a      	cmp	sl, r3
 8007164:	bf94      	ite	ls
 8007166:	4653      	movls	r3, sl
 8007168:	f06f 4300 	mvnhi.w	r3, #2147483648	; 0x80000000
 800716c:	4640      	mov	r0, r8
 800716e:	fb93 f3f2 	sdiv	r3, r3, r2
 8007172:	4353      	muls	r3, r2
 8007174:	462a      	mov	r2, r5
 8007176:	47b8      	blx	r7
 8007178:	1e07      	subs	r7, r0, #0
 800717a:	dcb7      	bgt.n	80070ec <__sfvwrite_r+0x1b8>
 800717c:	e78a      	b.n	8007094 <__sfvwrite_r+0x160>
 800717e:	e9d6 ab00 	ldrd	sl, fp, [r6]
 8007182:	2000      	movs	r0, #0
 8007184:	3608      	adds	r6, #8
 8007186:	e6f3      	b.n	8006f70 <__sfvwrite_r+0x3c>
 8007188:	f10b 0701 	add.w	r7, fp, #1
 800718c:	e700      	b.n	8006f90 <__sfvwrite_r+0x5c>
 800718e:	429a      	cmp	r2, r3
 8007190:	dc09      	bgt.n	80071a6 <__sfvwrite_r+0x272>
 8007192:	6a65      	ldr	r5, [r4, #36]	; 0x24
 8007194:	69e1      	ldr	r1, [r4, #28]
 8007196:	4613      	mov	r3, r2
 8007198:	4640      	mov	r0, r8
 800719a:	4652      	mov	r2, sl
 800719c:	47a8      	blx	r5
 800719e:	1e05      	subs	r5, r0, #0
 80071a0:	f73f af12 	bgt.w	8006fc8 <__sfvwrite_r+0x94>
 80071a4:	e776      	b.n	8007094 <__sfvwrite_r+0x160>
 80071a6:	461a      	mov	r2, r3
 80071a8:	4651      	mov	r1, sl
 80071aa:	9301      	str	r3, [sp, #4]
 80071ac:	f7fd faab 	bl	8004706 <memmove>
 80071b0:	9b01      	ldr	r3, [sp, #4]
 80071b2:	68a2      	ldr	r2, [r4, #8]
 80071b4:	1ad2      	subs	r2, r2, r3
 80071b6:	60a2      	str	r2, [r4, #8]
 80071b8:	6822      	ldr	r2, [r4, #0]
 80071ba:	441a      	add	r2, r3
 80071bc:	6022      	str	r2, [r4, #0]
 80071be:	461d      	mov	r5, r3
 80071c0:	e702      	b.n	8006fc8 <__sfvwrite_r+0x94>
 80071c2:	2001      	movs	r0, #1
 80071c4:	e709      	b.n	8006fda <__sfvwrite_r+0xa6>
 80071c6:	bf00      	nop
 80071c8:	7ffffffe 	.word	0x7ffffffe
 80071cc:	7ffffc00 	.word	0x7ffffc00

080071d0 <_fwalk_reent>:
 80071d0:	e92d 43f8 	stmdb	sp!, {r3, r4, r5, r6, r7, r8, r9, lr}
 80071d4:	4680      	mov	r8, r0
 80071d6:	4689      	mov	r9, r1
 80071d8:	f500 7438 	add.w	r4, r0, #736	; 0x2e0
 80071dc:	2600      	movs	r6, #0
 80071de:	b914      	cbnz	r4, 80071e6 <_fwalk_reent+0x16>
 80071e0:	4630      	mov	r0, r6
 80071e2:	e8bd 83f8 	ldmia.w	sp!, {r3, r4, r5, r6, r7, r8, r9, pc}
 80071e6:	e9d4 7501 	ldrd	r7, r5, [r4, #4]
 80071ea:	3f01      	subs	r7, #1
 80071ec:	d501      	bpl.n	80071f2 <_fwalk_reent+0x22>
 80071ee:	6824      	ldr	r4, [r4, #0]
 80071f0:	e7f5      	b.n	80071de <_fwalk_reent+0xe>
 80071f2:	89ab      	ldrh	r3, [r5, #12]
 80071f4:	2b01      	cmp	r3, #1
 80071f6:	d907      	bls.n	8007208 <_fwalk_reent+0x38>
 80071f8:	f9b5 300e 	ldrsh.w	r3, [r5, #14]
 80071fc:	3301      	adds	r3, #1
 80071fe:	d003      	beq.n	8007208 <_fwalk_reent+0x38>
 8007200:	4629      	mov	r1, r5
 8007202:	4640      	mov	r0, r8
 8007204:	47c8      	blx	r9
 8007206:	4306      	orrs	r6, r0
 8007208:	3568      	adds	r5, #104	; 0x68
 800720a:	e7ee      	b.n	80071ea <_fwalk_reent+0x1a>

0800720c <_localeconv_r>:
 800720c:	4b04      	ldr	r3, [pc, #16]	; (8007220 <_localeconv_r+0x14>)
 800720e:	681b      	ldr	r3, [r3, #0]
 8007210:	6b58      	ldr	r0, [r3, #52]	; 0x34
 8007212:	4b04      	ldr	r3, [pc, #16]	; (8007224 <_localeconv_r+0x18>)
 8007214:	2800      	cmp	r0, #0
 8007216:	bf08      	it	eq
 8007218:	4618      	moveq	r0, r3
 800721a:	30f0      	adds	r0, #240	; 0xf0
 800721c:	4770      	bx	lr
 800721e:	bf00      	nop
 8007220:	20000010 	.word	0x20000010
 8007224:	20000854 	.word	0x20000854

08007228 <__retarget_lock_init_recursive>:
 8007228:	4770      	bx	lr

0800722a <__retarget_lock_close_recursive>:
 800722a:	4770      	bx	lr

0800722c <__retarget_lock_acquire_recursive>:
 800722c:	4770      	bx	lr

0800722e <__retarget_lock_release_recursive>:
 800722e:	4770      	bx	lr

08007230 <__swhatbuf_r>:
 8007230:	b570      	push	{r4, r5, r6, lr}
 8007232:	460e      	mov	r6, r1
 8007234:	f9b1 100e 	ldrsh.w	r1, [r1, #14]
 8007238:	2900      	cmp	r1, #0
 800723a:	b096      	sub	sp, #88	; 0x58
 800723c:	4614      	mov	r4, r2
 800723e:	461d      	mov	r5, r3
 8007240:	da09      	bge.n	8007256 <__swhatbuf_r+0x26>
 8007242:	89b3      	ldrh	r3, [r6, #12]
 8007244:	2200      	movs	r2, #0
 8007246:	f013 0080 	ands.w	r0, r3, #128	; 0x80
 800724a:	602a      	str	r2, [r5, #0]
 800724c:	d116      	bne.n	800727c <__swhatbuf_r+0x4c>
 800724e:	f44f 6380 	mov.w	r3, #1024	; 0x400
 8007252:	6023      	str	r3, [r4, #0]
 8007254:	e015      	b.n	8007282 <__swhatbuf_r+0x52>
 8007256:	466a      	mov	r2, sp
 8007258:	f001 f936 	bl	80084c8 <_fstat_r>
 800725c:	2800      	cmp	r0, #0
 800725e:	dbf0      	blt.n	8007242 <__swhatbuf_r+0x12>
 8007260:	9a01      	ldr	r2, [sp, #4]
 8007262:	f402 4270 	and.w	r2, r2, #61440	; 0xf000
 8007266:	f5a2 5300 	sub.w	r3, r2, #8192	; 0x2000
 800726a:	425a      	negs	r2, r3
 800726c:	415a      	adcs	r2, r3
 800726e:	f44f 6380 	mov.w	r3, #1024	; 0x400
 8007272:	602a      	str	r2, [r5, #0]
 8007274:	f44f 6000 	mov.w	r0, #2048	; 0x800
 8007278:	6023      	str	r3, [r4, #0]
 800727a:	e002      	b.n	8007282 <__swhatbuf_r+0x52>
 800727c:	2340      	movs	r3, #64	; 0x40
 800727e:	6023      	str	r3, [r4, #0]
 8007280:	4610      	mov	r0, r2
 8007282:	b016      	add	sp, #88	; 0x58
 8007284:	bd70      	pop	{r4, r5, r6, pc}
	...

08007288 <__smakebuf_r>:
 8007288:	898b      	ldrh	r3, [r1, #12]
 800728a:	b573      	push	{r0, r1, r4, r5, r6, lr}
 800728c:	079d      	lsls	r5, r3, #30
 800728e:	4606      	mov	r6, r0
 8007290:	460c      	mov	r4, r1
 8007292:	d507      	bpl.n	80072a4 <__smakebuf_r+0x1c>
 8007294:	f104 0343 	add.w	r3, r4, #67	; 0x43
 8007298:	6023      	str	r3, [r4, #0]
 800729a:	6123      	str	r3, [r4, #16]
 800729c:	2301      	movs	r3, #1
 800729e:	6163      	str	r3, [r4, #20]
 80072a0:	b002      	add	sp, #8
 80072a2:	bd70      	pop	{r4, r5, r6, pc}
 80072a4:	ab01      	add	r3, sp, #4
 80072a6:	466a      	mov	r2, sp
 80072a8:	f7ff ffc2 	bl	8007230 <__swhatbuf_r>
 80072ac:	9900      	ldr	r1, [sp, #0]
 80072ae:	4605      	mov	r5, r0
 80072b0:	4630      	mov	r0, r6
 80072b2:	f000 f829 	bl	8007308 <_malloc_r>
 80072b6:	b948      	cbnz	r0, 80072cc <__smakebuf_r+0x44>
 80072b8:	f9b4 300c 	ldrsh.w	r3, [r4, #12]
 80072bc:	059a      	lsls	r2, r3, #22
 80072be:	d4ef      	bmi.n	80072a0 <__smakebuf_r+0x18>
 80072c0:	f023 0303 	bic.w	r3, r3, #3
 80072c4:	f043 0302 	orr.w	r3, r3, #2
 80072c8:	81a3      	strh	r3, [r4, #12]
 80072ca:	e7e3      	b.n	8007294 <__smakebuf_r+0xc>
 80072cc:	4b0d      	ldr	r3, [pc, #52]	; (8007304 <__smakebuf_r+0x7c>)
 80072ce:	63f3      	str	r3, [r6, #60]	; 0x3c
 80072d0:	89a3      	ldrh	r3, [r4, #12]
 80072d2:	6020      	str	r0, [r4, #0]
 80072d4:	f043 0380 	orr.w	r3, r3, #128	; 0x80
 80072d8:	81a3      	strh	r3, [r4, #12]
 80072da:	9b00      	ldr	r3, [sp, #0]
 80072dc:	6163      	str	r3, [r4, #20]
 80072de:	9b01      	ldr	r3, [sp, #4]
 80072e0:	6120      	str	r0, [r4, #16]
 80072e2:	b15b      	cbz	r3, 80072fc <__smakebuf_r+0x74>
 80072e4:	f9b4 100e 	ldrsh.w	r1, [r4, #14]
 80072e8:	4630      	mov	r0, r6
 80072ea:	f001 f8ff 	bl	80084ec <_isatty_r>
 80072ee:	b128      	cbz	r0, 80072fc <__smakebuf_r+0x74>
 80072f0:	89a3      	ldrh	r3, [r4, #12]
 80072f2:	f023 0303 	bic.w	r3, r3, #3
 80072f6:	f043 0301 	orr.w	r3, r3, #1
 80072fa:	81a3      	strh	r3, [r4, #12]
 80072fc:	89a3      	ldrh	r3, [r4, #12]
 80072fe:	431d      	orrs	r5, r3
 8007300:	81a5      	strh	r5, [r4, #12]
 8007302:	e7cd      	b.n	80072a0 <__smakebuf_r+0x18>
 8007304:	08006c61 	.word	0x08006c61

08007308 <_malloc_r>:
 8007308:	e92d 4ff7 	stmdb	sp!, {r0, r1, r2, r4, r5, r6, r7, r8, r9, sl, fp, lr}
 800730c:	f101 050b 	add.w	r5, r1, #11
 8007310:	2d16      	cmp	r5, #22
 8007312:	4606      	mov	r6, r0
 8007314:	d906      	bls.n	8007324 <_malloc_r+0x1c>
 8007316:	f035 0507 	bics.w	r5, r5, #7
 800731a:	d504      	bpl.n	8007326 <_malloc_r+0x1e>
 800731c:	230c      	movs	r3, #12
 800731e:	6033      	str	r3, [r6, #0]
 8007320:	2400      	movs	r4, #0
 8007322:	e1a8      	b.n	8007676 <_malloc_r+0x36e>
 8007324:	2510      	movs	r5, #16
 8007326:	428d      	cmp	r5, r1
 8007328:	d3f8      	bcc.n	800731c <_malloc_r+0x14>
 800732a:	4630      	mov	r0, r6
 800732c:	f000 fa22 	bl	8007774 <__malloc_lock>
 8007330:	f5b5 7ffc 	cmp.w	r5, #504	; 0x1f8
 8007334:	4fc0      	ldr	r7, [pc, #768]	; (8007638 <_malloc_r+0x330>)
 8007336:	d238      	bcs.n	80073aa <_malloc_r+0xa2>
 8007338:	f105 0208 	add.w	r2, r5, #8
 800733c:	443a      	add	r2, r7
 800733e:	f1a2 0108 	sub.w	r1, r2, #8
 8007342:	6854      	ldr	r4, [r2, #4]
 8007344:	428c      	cmp	r4, r1
 8007346:	ea4f 03d5 	mov.w	r3, r5, lsr #3
 800734a:	d102      	bne.n	8007352 <_malloc_r+0x4a>
 800734c:	68d4      	ldr	r4, [r2, #12]
 800734e:	42a2      	cmp	r2, r4
 8007350:	d010      	beq.n	8007374 <_malloc_r+0x6c>
 8007352:	6863      	ldr	r3, [r4, #4]
 8007354:	e9d4 1202 	ldrd	r1, r2, [r4, #8]
 8007358:	f023 0303 	bic.w	r3, r3, #3
 800735c:	60ca      	str	r2, [r1, #12]
 800735e:	4423      	add	r3, r4
 8007360:	6091      	str	r1, [r2, #8]
 8007362:	685a      	ldr	r2, [r3, #4]
 8007364:	f042 0201 	orr.w	r2, r2, #1
 8007368:	605a      	str	r2, [r3, #4]
 800736a:	4630      	mov	r0, r6
 800736c:	f000 fa08 	bl	8007780 <__malloc_unlock>
 8007370:	3408      	adds	r4, #8
 8007372:	e180      	b.n	8007676 <_malloc_r+0x36e>
 8007374:	3302      	adds	r3, #2
 8007376:	4ab1      	ldr	r2, [pc, #708]	; (800763c <_malloc_r+0x334>)
 8007378:	693c      	ldr	r4, [r7, #16]
 800737a:	4294      	cmp	r4, r2
 800737c:	4611      	mov	r1, r2
 800737e:	d075      	beq.n	800746c <_malloc_r+0x164>
 8007380:	6860      	ldr	r0, [r4, #4]
 8007382:	f020 0c03 	bic.w	ip, r0, #3
 8007386:	ebac 0005 	sub.w	r0, ip, r5
 800738a:	280f      	cmp	r0, #15
 800738c:	dd48      	ble.n	8007420 <_malloc_r+0x118>
 800738e:	1963      	adds	r3, r4, r5
 8007390:	f045 0501 	orr.w	r5, r5, #1
 8007394:	6065      	str	r5, [r4, #4]
 8007396:	e9c7 3304 	strd	r3, r3, [r7, #16]
 800739a:	e9c3 2202 	strd	r2, r2, [r3, #8]
 800739e:	f040 0201 	orr.w	r2, r0, #1
 80073a2:	605a      	str	r2, [r3, #4]
 80073a4:	f844 000c 	str.w	r0, [r4, ip]
 80073a8:	e7df      	b.n	800736a <_malloc_r+0x62>
 80073aa:	0a6b      	lsrs	r3, r5, #9
 80073ac:	d02a      	beq.n	8007404 <_malloc_r+0xfc>
 80073ae:	2b04      	cmp	r3, #4
 80073b0:	d812      	bhi.n	80073d8 <_malloc_r+0xd0>
 80073b2:	09ab      	lsrs	r3, r5, #6
 80073b4:	3338      	adds	r3, #56	; 0x38
 80073b6:	1c5a      	adds	r2, r3, #1
 80073b8:	eb07 02c2 	add.w	r2, r7, r2, lsl #3
 80073bc:	f1a2 0c08 	sub.w	ip, r2, #8
 80073c0:	6854      	ldr	r4, [r2, #4]
 80073c2:	4564      	cmp	r4, ip
 80073c4:	d006      	beq.n	80073d4 <_malloc_r+0xcc>
 80073c6:	6862      	ldr	r2, [r4, #4]
 80073c8:	f022 0203 	bic.w	r2, r2, #3
 80073cc:	1b50      	subs	r0, r2, r5
 80073ce:	280f      	cmp	r0, #15
 80073d0:	dd1c      	ble.n	800740c <_malloc_r+0x104>
 80073d2:	3b01      	subs	r3, #1
 80073d4:	3301      	adds	r3, #1
 80073d6:	e7ce      	b.n	8007376 <_malloc_r+0x6e>
 80073d8:	2b14      	cmp	r3, #20
 80073da:	d801      	bhi.n	80073e0 <_malloc_r+0xd8>
 80073dc:	335b      	adds	r3, #91	; 0x5b
 80073de:	e7ea      	b.n	80073b6 <_malloc_r+0xae>
 80073e0:	2b54      	cmp	r3, #84	; 0x54
 80073e2:	d802      	bhi.n	80073ea <_malloc_r+0xe2>
 80073e4:	0b2b      	lsrs	r3, r5, #12
 80073e6:	336e      	adds	r3, #110	; 0x6e
 80073e8:	e7e5      	b.n	80073b6 <_malloc_r+0xae>
 80073ea:	f5b3 7faa 	cmp.w	r3, #340	; 0x154
 80073ee:	d802      	bhi.n	80073f6 <_malloc_r+0xee>
 80073f0:	0beb      	lsrs	r3, r5, #15
 80073f2:	3377      	adds	r3, #119	; 0x77
 80073f4:	e7df      	b.n	80073b6 <_malloc_r+0xae>
 80073f6:	f240 5254 	movw	r2, #1364	; 0x554
 80073fa:	4293      	cmp	r3, r2
 80073fc:	d804      	bhi.n	8007408 <_malloc_r+0x100>
 80073fe:	0cab      	lsrs	r3, r5, #18
 8007400:	337c      	adds	r3, #124	; 0x7c
 8007402:	e7d8      	b.n	80073b6 <_malloc_r+0xae>
 8007404:	233f      	movs	r3, #63	; 0x3f
 8007406:	e7d6      	b.n	80073b6 <_malloc_r+0xae>
 8007408:	237e      	movs	r3, #126	; 0x7e
 800740a:	e7d4      	b.n	80073b6 <_malloc_r+0xae>
 800740c:	2800      	cmp	r0, #0
 800740e:	68e1      	ldr	r1, [r4, #12]
 8007410:	db04      	blt.n	800741c <_malloc_r+0x114>
 8007412:	68a3      	ldr	r3, [r4, #8]
 8007414:	60d9      	str	r1, [r3, #12]
 8007416:	608b      	str	r3, [r1, #8]
 8007418:	18a3      	adds	r3, r4, r2
 800741a:	e7a2      	b.n	8007362 <_malloc_r+0x5a>
 800741c:	460c      	mov	r4, r1
 800741e:	e7d0      	b.n	80073c2 <_malloc_r+0xba>
 8007420:	2800      	cmp	r0, #0
 8007422:	e9c7 2204 	strd	r2, r2, [r7, #16]
 8007426:	db07      	blt.n	8007438 <_malloc_r+0x130>
 8007428:	44a4      	add	ip, r4
 800742a:	f8dc 3004 	ldr.w	r3, [ip, #4]
 800742e:	f043 0301 	orr.w	r3, r3, #1
 8007432:	f8cc 3004 	str.w	r3, [ip, #4]
 8007436:	e798      	b.n	800736a <_malloc_r+0x62>
 8007438:	f5bc 7f00 	cmp.w	ip, #512	; 0x200
 800743c:	6878      	ldr	r0, [r7, #4]
 800743e:	f080 8099 	bcs.w	8007574 <_malloc_r+0x26c>
 8007442:	ea4f 0cdc 	mov.w	ip, ip, lsr #3
 8007446:	ea4f 0eac 	mov.w	lr, ip, asr #2
 800744a:	2201      	movs	r2, #1
 800744c:	f10c 0c01 	add.w	ip, ip, #1
 8007450:	fa02 f20e 	lsl.w	r2, r2, lr
 8007454:	4310      	orrs	r0, r2
 8007456:	6078      	str	r0, [r7, #4]
 8007458:	eb07 02cc 	add.w	r2, r7, ip, lsl #3
 800745c:	f857 003c 	ldr.w	r0, [r7, ip, lsl #3]
 8007460:	3a08      	subs	r2, #8
 8007462:	e9c4 0202 	strd	r0, r2, [r4, #8]
 8007466:	f847 403c 	str.w	r4, [r7, ip, lsl #3]
 800746a:	60c4      	str	r4, [r0, #12]
 800746c:	2001      	movs	r0, #1
 800746e:	109a      	asrs	r2, r3, #2
 8007470:	fa00 f202 	lsl.w	r2, r0, r2
 8007474:	6878      	ldr	r0, [r7, #4]
 8007476:	4290      	cmp	r0, r2
 8007478:	d326      	bcc.n	80074c8 <_malloc_r+0x1c0>
 800747a:	4210      	tst	r0, r2
 800747c:	d106      	bne.n	800748c <_malloc_r+0x184>
 800747e:	f023 0303 	bic.w	r3, r3, #3
 8007482:	0052      	lsls	r2, r2, #1
 8007484:	4210      	tst	r0, r2
 8007486:	f103 0304 	add.w	r3, r3, #4
 800748a:	d0fa      	beq.n	8007482 <_malloc_r+0x17a>
 800748c:	eb07 0cc3 	add.w	ip, r7, r3, lsl #3
 8007490:	46e1      	mov	r9, ip
 8007492:	4698      	mov	r8, r3
 8007494:	f8d9 400c 	ldr.w	r4, [r9, #12]
 8007498:	454c      	cmp	r4, r9
 800749a:	f040 80af 	bne.w	80075fc <_malloc_r+0x2f4>
 800749e:	f108 0801 	add.w	r8, r8, #1
 80074a2:	f018 0f03 	tst.w	r8, #3
 80074a6:	f109 0908 	add.w	r9, r9, #8
 80074aa:	d1f3      	bne.n	8007494 <_malloc_r+0x18c>
 80074ac:	0798      	lsls	r0, r3, #30
 80074ae:	f040 80e8 	bne.w	8007682 <_malloc_r+0x37a>
 80074b2:	687b      	ldr	r3, [r7, #4]
 80074b4:	ea23 0302 	bic.w	r3, r3, r2
 80074b8:	607b      	str	r3, [r7, #4]
 80074ba:	6878      	ldr	r0, [r7, #4]
 80074bc:	0052      	lsls	r2, r2, #1
 80074be:	4290      	cmp	r0, r2
 80074c0:	d302      	bcc.n	80074c8 <_malloc_r+0x1c0>
 80074c2:	2a00      	cmp	r2, #0
 80074c4:	f040 80ec 	bne.w	80076a0 <_malloc_r+0x398>
 80074c8:	f8d7 a008 	ldr.w	sl, [r7, #8]
 80074cc:	f8da 4004 	ldr.w	r4, [sl, #4]
 80074d0:	f024 0203 	bic.w	r2, r4, #3
 80074d4:	42aa      	cmp	r2, r5
 80074d6:	d303      	bcc.n	80074e0 <_malloc_r+0x1d8>
 80074d8:	1b53      	subs	r3, r2, r5
 80074da:	2b0f      	cmp	r3, #15
 80074dc:	f300 8140 	bgt.w	8007760 <_malloc_r+0x458>
 80074e0:	4b57      	ldr	r3, [pc, #348]	; (8007640 <_malloc_r+0x338>)
 80074e2:	9200      	str	r2, [sp, #0]
 80074e4:	2008      	movs	r0, #8
 80074e6:	681c      	ldr	r4, [r3, #0]
 80074e8:	f000 fe46 	bl	8008178 <sysconf>
 80074ec:	4b55      	ldr	r3, [pc, #340]	; (8007644 <_malloc_r+0x33c>)
 80074ee:	9a00      	ldr	r2, [sp, #0]
 80074f0:	6819      	ldr	r1, [r3, #0]
 80074f2:	3410      	adds	r4, #16
 80074f4:	3101      	adds	r1, #1
 80074f6:	442c      	add	r4, r5
 80074f8:	bf1f      	itttt	ne
 80074fa:	f104 34ff 	addne.w	r4, r4, #4294967295
 80074fe:	1824      	addne	r4, r4, r0
 8007500:	4241      	negne	r1, r0
 8007502:	400c      	andne	r4, r1
 8007504:	4680      	mov	r8, r0
 8007506:	4621      	mov	r1, r4
 8007508:	4630      	mov	r0, r6
 800750a:	e9cd 2300 	strd	r2, r3, [sp]
 800750e:	f000 fdcb 	bl	80080a8 <_sbrk_r>
 8007512:	f1b0 3fff 	cmp.w	r0, #4294967295
 8007516:	4683      	mov	fp, r0
 8007518:	f000 80fb 	beq.w	8007712 <_malloc_r+0x40a>
 800751c:	9a00      	ldr	r2, [sp, #0]
 800751e:	9b01      	ldr	r3, [sp, #4]
 8007520:	eb0a 0102 	add.w	r1, sl, r2
 8007524:	4281      	cmp	r1, r0
 8007526:	d902      	bls.n	800752e <_malloc_r+0x226>
 8007528:	45ba      	cmp	sl, r7
 800752a:	f040 80f2 	bne.w	8007712 <_malloc_r+0x40a>
 800752e:	f8df 9120 	ldr.w	r9, [pc, #288]	; 8007650 <_malloc_r+0x348>
 8007532:	f8d9 0000 	ldr.w	r0, [r9]
 8007536:	4559      	cmp	r1, fp
 8007538:	eb00 0e04 	add.w	lr, r0, r4
 800753c:	f8c9 e000 	str.w	lr, [r9]
 8007540:	f108 3cff 	add.w	ip, r8, #4294967295
 8007544:	f040 80ae 	bne.w	80076a4 <_malloc_r+0x39c>
 8007548:	ea11 0f0c 	tst.w	r1, ip
 800754c:	f040 80aa 	bne.w	80076a4 <_malloc_r+0x39c>
 8007550:	68bb      	ldr	r3, [r7, #8]
 8007552:	4414      	add	r4, r2
 8007554:	f044 0401 	orr.w	r4, r4, #1
 8007558:	605c      	str	r4, [r3, #4]
 800755a:	4a3b      	ldr	r2, [pc, #236]	; (8007648 <_malloc_r+0x340>)
 800755c:	f8d9 3000 	ldr.w	r3, [r9]
 8007560:	6811      	ldr	r1, [r2, #0]
 8007562:	428b      	cmp	r3, r1
 8007564:	bf88      	it	hi
 8007566:	6013      	strhi	r3, [r2, #0]
 8007568:	4a38      	ldr	r2, [pc, #224]	; (800764c <_malloc_r+0x344>)
 800756a:	6811      	ldr	r1, [r2, #0]
 800756c:	428b      	cmp	r3, r1
 800756e:	bf88      	it	hi
 8007570:	6013      	strhi	r3, [r2, #0]
 8007572:	e0ce      	b.n	8007712 <_malloc_r+0x40a>
 8007574:	ea4f 225c 	mov.w	r2, ip, lsr #9
 8007578:	2a04      	cmp	r2, #4
 800757a:	d818      	bhi.n	80075ae <_malloc_r+0x2a6>
 800757c:	ea4f 129c 	mov.w	r2, ip, lsr #6
 8007580:	3238      	adds	r2, #56	; 0x38
 8007582:	f102 0e01 	add.w	lr, r2, #1
 8007586:	eb07 08c2 	add.w	r8, r7, r2, lsl #3
 800758a:	f857 e03e 	ldr.w	lr, [r7, lr, lsl #3]
 800758e:	45f0      	cmp	r8, lr
 8007590:	d12b      	bne.n	80075ea <_malloc_r+0x2e2>
 8007592:	1092      	asrs	r2, r2, #2
 8007594:	f04f 0c01 	mov.w	ip, #1
 8007598:	fa0c f202 	lsl.w	r2, ip, r2
 800759c:	4310      	orrs	r0, r2
 800759e:	6078      	str	r0, [r7, #4]
 80075a0:	e9c4 e802 	strd	lr, r8, [r4, #8]
 80075a4:	f8c8 4008 	str.w	r4, [r8, #8]
 80075a8:	f8ce 400c 	str.w	r4, [lr, #12]
 80075ac:	e75e      	b.n	800746c <_malloc_r+0x164>
 80075ae:	2a14      	cmp	r2, #20
 80075b0:	d801      	bhi.n	80075b6 <_malloc_r+0x2ae>
 80075b2:	325b      	adds	r2, #91	; 0x5b
 80075b4:	e7e5      	b.n	8007582 <_malloc_r+0x27a>
 80075b6:	2a54      	cmp	r2, #84	; 0x54
 80075b8:	d803      	bhi.n	80075c2 <_malloc_r+0x2ba>
 80075ba:	ea4f 321c 	mov.w	r2, ip, lsr #12
 80075be:	326e      	adds	r2, #110	; 0x6e
 80075c0:	e7df      	b.n	8007582 <_malloc_r+0x27a>
 80075c2:	f5b2 7faa 	cmp.w	r2, #340	; 0x154
 80075c6:	d803      	bhi.n	80075d0 <_malloc_r+0x2c8>
 80075c8:	ea4f 32dc 	mov.w	r2, ip, lsr #15
 80075cc:	3277      	adds	r2, #119	; 0x77
 80075ce:	e7d8      	b.n	8007582 <_malloc_r+0x27a>
 80075d0:	f240 5e54 	movw	lr, #1364	; 0x554
 80075d4:	4572      	cmp	r2, lr
 80075d6:	bf9a      	itte	ls
 80075d8:	ea4f 429c 	movls.w	r2, ip, lsr #18
 80075dc:	327c      	addls	r2, #124	; 0x7c
 80075de:	227e      	movhi	r2, #126	; 0x7e
 80075e0:	e7cf      	b.n	8007582 <_malloc_r+0x27a>
 80075e2:	f8de e008 	ldr.w	lr, [lr, #8]
 80075e6:	45f0      	cmp	r8, lr
 80075e8:	d005      	beq.n	80075f6 <_malloc_r+0x2ee>
 80075ea:	f8de 2004 	ldr.w	r2, [lr, #4]
 80075ee:	f022 0203 	bic.w	r2, r2, #3
 80075f2:	4562      	cmp	r2, ip
 80075f4:	d8f5      	bhi.n	80075e2 <_malloc_r+0x2da>
 80075f6:	f8de 800c 	ldr.w	r8, [lr, #12]
 80075fa:	e7d1      	b.n	80075a0 <_malloc_r+0x298>
 80075fc:	6860      	ldr	r0, [r4, #4]
 80075fe:	f8d4 e00c 	ldr.w	lr, [r4, #12]
 8007602:	f020 0003 	bic.w	r0, r0, #3
 8007606:	eba0 0a05 	sub.w	sl, r0, r5
 800760a:	f1ba 0f0f 	cmp.w	sl, #15
 800760e:	dd21      	ble.n	8007654 <_malloc_r+0x34c>
 8007610:	68a2      	ldr	r2, [r4, #8]
 8007612:	1963      	adds	r3, r4, r5
 8007614:	f045 0501 	orr.w	r5, r5, #1
 8007618:	6065      	str	r5, [r4, #4]
 800761a:	f8c2 e00c 	str.w	lr, [r2, #12]
 800761e:	f8ce 2008 	str.w	r2, [lr, #8]
 8007622:	f04a 0201 	orr.w	r2, sl, #1
 8007626:	e9c7 3304 	strd	r3, r3, [r7, #16]
 800762a:	e9c3 1102 	strd	r1, r1, [r3, #8]
 800762e:	605a      	str	r2, [r3, #4]
 8007630:	f844 a000 	str.w	sl, [r4, r0]
 8007634:	e699      	b.n	800736a <_malloc_r+0x62>
 8007636:	bf00      	nop
 8007638:	20000444 	.word	0x20000444
 800763c:	2000044c 	.word	0x2000044c
 8007640:	20000a10 	.word	0x20000a10
 8007644:	2000084c 	.word	0x2000084c
 8007648:	20000a08 	.word	0x20000a08
 800764c:	20000a0c 	.word	0x20000a0c
 8007650:	200009e0 	.word	0x200009e0
 8007654:	f1ba 0f00 	cmp.w	sl, #0
 8007658:	db11      	blt.n	800767e <_malloc_r+0x376>
 800765a:	4420      	add	r0, r4
 800765c:	6843      	ldr	r3, [r0, #4]
 800765e:	f043 0301 	orr.w	r3, r3, #1
 8007662:	6043      	str	r3, [r0, #4]
 8007664:	f854 3f08 	ldr.w	r3, [r4, #8]!
 8007668:	4630      	mov	r0, r6
 800766a:	f8c3 e00c 	str.w	lr, [r3, #12]
 800766e:	f8ce 3008 	str.w	r3, [lr, #8]
 8007672:	f000 f885 	bl	8007780 <__malloc_unlock>
 8007676:	4620      	mov	r0, r4
 8007678:	b003      	add	sp, #12
 800767a:	e8bd 8ff0 	ldmia.w	sp!, {r4, r5, r6, r7, r8, r9, sl, fp, pc}
 800767e:	4674      	mov	r4, lr
 8007680:	e70a      	b.n	8007498 <_malloc_r+0x190>
 8007682:	f1ac 0008 	sub.w	r0, ip, #8
 8007686:	f8dc c000 	ldr.w	ip, [ip]
 800768a:	4584      	cmp	ip, r0
 800768c:	f103 33ff 	add.w	r3, r3, #4294967295
 8007690:	f43f af0c 	beq.w	80074ac <_malloc_r+0x1a4>
 8007694:	e711      	b.n	80074ba <_malloc_r+0x1b2>
 8007696:	3304      	adds	r3, #4
 8007698:	0052      	lsls	r2, r2, #1
 800769a:	4210      	tst	r0, r2
 800769c:	d0fb      	beq.n	8007696 <_malloc_r+0x38e>
 800769e:	e6f5      	b.n	800748c <_malloc_r+0x184>
 80076a0:	4643      	mov	r3, r8
 80076a2:	e7fa      	b.n	800769a <_malloc_r+0x392>
 80076a4:	6818      	ldr	r0, [r3, #0]
 80076a6:	9200      	str	r2, [sp, #0]
 80076a8:	3001      	adds	r0, #1
 80076aa:	bf1b      	ittet	ne
 80076ac:	ebab 0101 	subne.w	r1, fp, r1
 80076b0:	4471      	addne	r1, lr
 80076b2:	f8c3 b000 	streq.w	fp, [r3]
 80076b6:	f8c9 1000 	strne.w	r1, [r9]
 80076ba:	f01b 0307 	ands.w	r3, fp, #7
 80076be:	bf1c      	itt	ne
 80076c0:	f1c3 0308 	rsbne	r3, r3, #8
 80076c4:	449b      	addne	fp, r3
 80076c6:	445c      	add	r4, fp
 80076c8:	4498      	add	r8, r3
 80076ca:	ea04 030c 	and.w	r3, r4, ip
 80076ce:	eba8 0803 	sub.w	r8, r8, r3
 80076d2:	4641      	mov	r1, r8
 80076d4:	4630      	mov	r0, r6
 80076d6:	f000 fce7 	bl	80080a8 <_sbrk_r>
 80076da:	1c43      	adds	r3, r0, #1
 80076dc:	bf04      	itt	eq
 80076de:	4658      	moveq	r0, fp
 80076e0:	f04f 0800 	moveq.w	r8, #0
 80076e4:	f8d9 3000 	ldr.w	r3, [r9]
 80076e8:	f8c7 b008 	str.w	fp, [r7, #8]
 80076ec:	eba0 000b 	sub.w	r0, r0, fp
 80076f0:	4440      	add	r0, r8
 80076f2:	4443      	add	r3, r8
 80076f4:	f040 0001 	orr.w	r0, r0, #1
 80076f8:	45ba      	cmp	sl, r7
 80076fa:	9a00      	ldr	r2, [sp, #0]
 80076fc:	f8c9 3000 	str.w	r3, [r9]
 8007700:	f8cb 0004 	str.w	r0, [fp, #4]
 8007704:	f43f af29 	beq.w	800755a <_malloc_r+0x252>
 8007708:	2a0f      	cmp	r2, #15
 800770a:	d810      	bhi.n	800772e <_malloc_r+0x426>
 800770c:	2301      	movs	r3, #1
 800770e:	f8cb 3004 	str.w	r3, [fp, #4]
 8007712:	68bb      	ldr	r3, [r7, #8]
 8007714:	685a      	ldr	r2, [r3, #4]
 8007716:	f022 0203 	bic.w	r2, r2, #3
 800771a:	42aa      	cmp	r2, r5
 800771c:	eba2 0305 	sub.w	r3, r2, r5
 8007720:	d301      	bcc.n	8007726 <_malloc_r+0x41e>
 8007722:	2b0f      	cmp	r3, #15
 8007724:	dc1c      	bgt.n	8007760 <_malloc_r+0x458>
 8007726:	4630      	mov	r0, r6
 8007728:	f000 f82a 	bl	8007780 <__malloc_unlock>
 800772c:	e5f8      	b.n	8007320 <_malloc_r+0x18>
 800772e:	f8da 3004 	ldr.w	r3, [sl, #4]
 8007732:	f1a2 040c 	sub.w	r4, r2, #12
 8007736:	f024 0407 	bic.w	r4, r4, #7
 800773a:	f003 0301 	and.w	r3, r3, #1
 800773e:	4323      	orrs	r3, r4
 8007740:	f8ca 3004 	str.w	r3, [sl, #4]
 8007744:	2205      	movs	r2, #5
 8007746:	eb0a 0304 	add.w	r3, sl, r4
 800774a:	2c0f      	cmp	r4, #15
 800774c:	e9c3 2201 	strd	r2, r2, [r3, #4]
 8007750:	f67f af03 	bls.w	800755a <_malloc_r+0x252>
 8007754:	f10a 0108 	add.w	r1, sl, #8
 8007758:	4630      	mov	r0, r6
 800775a:	f7ff fb2f 	bl	8006dbc <_free_r>
 800775e:	e6fc      	b.n	800755a <_malloc_r+0x252>
 8007760:	68bc      	ldr	r4, [r7, #8]
 8007762:	f045 0201 	orr.w	r2, r5, #1
 8007766:	4425      	add	r5, r4
 8007768:	f043 0301 	orr.w	r3, r3, #1
 800776c:	6062      	str	r2, [r4, #4]
 800776e:	60bd      	str	r5, [r7, #8]
 8007770:	606b      	str	r3, [r5, #4]
 8007772:	e5fa      	b.n	800736a <_malloc_r+0x62>

08007774 <__malloc_lock>:
 8007774:	4801      	ldr	r0, [pc, #4]	; (800777c <__malloc_lock+0x8>)
 8007776:	f7ff bd59 	b.w	800722c <__retarget_lock_acquire_recursive>
 800777a:	bf00      	nop
 800777c:	200017b8 	.word	0x200017b8

08007780 <__malloc_unlock>:
 8007780:	4801      	ldr	r0, [pc, #4]	; (8007788 <__malloc_unlock+0x8>)
 8007782:	f7ff bd54 	b.w	800722e <__retarget_lock_release_recursive>
 8007786:	bf00      	nop
 8007788:	200017b8 	.word	0x200017b8

0800778c <_Balloc>:
 800778c:	6cc3      	ldr	r3, [r0, #76]	; 0x4c
 800778e:	b570      	push	{r4, r5, r6, lr}
 8007790:	4605      	mov	r5, r0
 8007792:	460c      	mov	r4, r1
 8007794:	b17b      	cbz	r3, 80077b6 <_Balloc+0x2a>
 8007796:	6ceb      	ldr	r3, [r5, #76]	; 0x4c
 8007798:	f853 0024 	ldr.w	r0, [r3, r4, lsl #2]
 800779c:	b9a0      	cbnz	r0, 80077c8 <_Balloc+0x3c>
 800779e:	2101      	movs	r1, #1
 80077a0:	fa01 f604 	lsl.w	r6, r1, r4
 80077a4:	1d72      	adds	r2, r6, #5
 80077a6:	0092      	lsls	r2, r2, #2
 80077a8:	4628      	mov	r0, r5
 80077aa:	f000 fd8d 	bl	80082c8 <_calloc_r>
 80077ae:	b148      	cbz	r0, 80077c4 <_Balloc+0x38>
 80077b0:	e9c0 4601 	strd	r4, r6, [r0, #4]
 80077b4:	e00b      	b.n	80077ce <_Balloc+0x42>
 80077b6:	2221      	movs	r2, #33	; 0x21
 80077b8:	2104      	movs	r1, #4
 80077ba:	f000 fd85 	bl	80082c8 <_calloc_r>
 80077be:	64e8      	str	r0, [r5, #76]	; 0x4c
 80077c0:	2800      	cmp	r0, #0
 80077c2:	d1e8      	bne.n	8007796 <_Balloc+0xa>
 80077c4:	2000      	movs	r0, #0
 80077c6:	bd70      	pop	{r4, r5, r6, pc}
 80077c8:	6802      	ldr	r2, [r0, #0]
 80077ca:	f843 2024 	str.w	r2, [r3, r4, lsl #2]
 80077ce:	2300      	movs	r3, #0
 80077d0:	e9c0 3303 	strd	r3, r3, [r0, #12]
 80077d4:	e7f7      	b.n	80077c6 <_Balloc+0x3a>

080077d6 <_Bfree>:
 80077d6:	b131      	cbz	r1, 80077e6 <_Bfree+0x10>
 80077d8:	6cc3      	ldr	r3, [r0, #76]	; 0x4c
 80077da:	684a      	ldr	r2, [r1, #4]
 80077dc:	f853 0022 	ldr.w	r0, [r3, r2, lsl #2]
 80077e0:	6008      	str	r0, [r1, #0]
 80077e2:	f843 1022 	str.w	r1, [r3, r2, lsl #2]
 80077e6:	4770      	bx	lr

080077e8 <__multadd>:
 80077e8:	e92d 41f0 	stmdb	sp!, {r4, r5, r6, r7, r8, lr}
 80077ec:	690d      	ldr	r5, [r1, #16]
 80077ee:	461f      	mov	r7, r3
 80077f0:	4606      	mov	r6, r0
 80077f2:	460c      	mov	r4, r1
 80077f4:	f101 0c14 	add.w	ip, r1, #20
 80077f8:	2300      	movs	r3, #0
 80077fa:	f8dc 0000 	ldr.w	r0, [ip]
 80077fe:	b281      	uxth	r1, r0
 8007800:	fb02 7101 	mla	r1, r2, r1, r7
 8007804:	0c0f      	lsrs	r7, r1, #16
 8007806:	0c00      	lsrs	r0, r0, #16
 8007808:	fb02 7000 	mla	r0, r2, r0, r7
 800780c:	b289      	uxth	r1, r1
 800780e:	3301      	adds	r3, #1
 8007810:	eb01 4100 	add.w	r1, r1, r0, lsl #16
 8007814:	429d      	cmp	r5, r3
 8007816:	ea4f 4710 	mov.w	r7, r0, lsr #16
 800781a:	f84c 1b04 	str.w	r1, [ip], #4
 800781e:	dcec      	bgt.n	80077fa <__multadd+0x12>
 8007820:	b1d7      	cbz	r7, 8007858 <__multadd+0x70>
 8007822:	68a3      	ldr	r3, [r4, #8]
 8007824:	42ab      	cmp	r3, r5
 8007826:	dc12      	bgt.n	800784e <__multadd+0x66>
 8007828:	6861      	ldr	r1, [r4, #4]
 800782a:	4630      	mov	r0, r6
 800782c:	3101      	adds	r1, #1
 800782e:	f7ff ffad 	bl	800778c <_Balloc>
 8007832:	6922      	ldr	r2, [r4, #16]
 8007834:	3202      	adds	r2, #2
 8007836:	f104 010c 	add.w	r1, r4, #12
 800783a:	4680      	mov	r8, r0
 800783c:	0092      	lsls	r2, r2, #2
 800783e:	300c      	adds	r0, #12
 8007840:	f7fc ff56 	bl	80046f0 <memcpy>
 8007844:	4621      	mov	r1, r4
 8007846:	4630      	mov	r0, r6
 8007848:	f7ff ffc5 	bl	80077d6 <_Bfree>
 800784c:	4644      	mov	r4, r8
 800784e:	eb04 0385 	add.w	r3, r4, r5, lsl #2
 8007852:	3501      	adds	r5, #1
 8007854:	615f      	str	r7, [r3, #20]
 8007856:	6125      	str	r5, [r4, #16]
 8007858:	4620      	mov	r0, r4
 800785a:	e8bd 81f0 	ldmia.w	sp!, {r4, r5, r6, r7, r8, pc}

0800785e <__hi0bits>:
 800785e:	0c02      	lsrs	r2, r0, #16
 8007860:	0412      	lsls	r2, r2, #16
 8007862:	4603      	mov	r3, r0
 8007864:	b9b2      	cbnz	r2, 8007894 <__hi0bits+0x36>
 8007866:	0403      	lsls	r3, r0, #16
 8007868:	2010      	movs	r0, #16
 800786a:	f013 4f7f 	tst.w	r3, #4278190080	; 0xff000000
 800786e:	bf04      	itt	eq
 8007870:	021b      	lsleq	r3, r3, #8
 8007872:	3008      	addeq	r0, #8
 8007874:	f013 4f70 	tst.w	r3, #4026531840	; 0xf0000000
 8007878:	bf04      	itt	eq
 800787a:	011b      	lsleq	r3, r3, #4
 800787c:	3004      	addeq	r0, #4
 800787e:	f013 4f40 	tst.w	r3, #3221225472	; 0xc0000000
 8007882:	bf04      	itt	eq
 8007884:	009b      	lsleq	r3, r3, #2
 8007886:	3002      	addeq	r0, #2
 8007888:	2b00      	cmp	r3, #0
 800788a:	db06      	blt.n	800789a <__hi0bits+0x3c>
 800788c:	005b      	lsls	r3, r3, #1
 800788e:	d503      	bpl.n	8007898 <__hi0bits+0x3a>
 8007890:	3001      	adds	r0, #1
 8007892:	4770      	bx	lr
 8007894:	2000      	movs	r0, #0
 8007896:	e7e8      	b.n	800786a <__hi0bits+0xc>
 8007898:	2020      	movs	r0, #32
 800789a:	4770      	bx	lr

0800789c <__lo0bits>:
 800789c:	6803      	ldr	r3, [r0, #0]
 800789e:	f013 0207 	ands.w	r2, r3, #7
 80078a2:	4601      	mov	r1, r0
 80078a4:	d00b      	beq.n	80078be <__lo0bits+0x22>
 80078a6:	07da      	lsls	r2, r3, #31
 80078a8:	d423      	bmi.n	80078f2 <__lo0bits+0x56>
 80078aa:	0798      	lsls	r0, r3, #30
 80078ac:	bf49      	itett	mi
 80078ae:	085b      	lsrmi	r3, r3, #1
 80078b0:	089b      	lsrpl	r3, r3, #2
 80078b2:	2001      	movmi	r0, #1
 80078b4:	600b      	strmi	r3, [r1, #0]
 80078b6:	bf5c      	itt	pl
 80078b8:	600b      	strpl	r3, [r1, #0]
 80078ba:	2002      	movpl	r0, #2
 80078bc:	4770      	bx	lr
 80078be:	b298      	uxth	r0, r3
 80078c0:	b9a8      	cbnz	r0, 80078ee <__lo0bits+0x52>
 80078c2:	0c1b      	lsrs	r3, r3, #16
 80078c4:	2010      	movs	r0, #16
 80078c6:	f013 0fff 	tst.w	r3, #255	; 0xff
 80078ca:	bf04      	itt	eq
 80078cc:	0a1b      	lsreq	r3, r3, #8
 80078ce:	3008      	addeq	r0, #8
 80078d0:	071a      	lsls	r2, r3, #28
 80078d2:	bf04      	itt	eq
 80078d4:	091b      	lsreq	r3, r3, #4
 80078d6:	3004      	addeq	r0, #4
 80078d8:	079a      	lsls	r2, r3, #30
 80078da:	bf04      	itt	eq
 80078dc:	089b      	lsreq	r3, r3, #2
 80078de:	3002      	addeq	r0, #2
 80078e0:	07da      	lsls	r2, r3, #31
 80078e2:	d402      	bmi.n	80078ea <__lo0bits+0x4e>
 80078e4:	085b      	lsrs	r3, r3, #1
 80078e6:	d006      	beq.n	80078f6 <__lo0bits+0x5a>
 80078e8:	3001      	adds	r0, #1
 80078ea:	600b      	str	r3, [r1, #0]
 80078ec:	4770      	bx	lr
 80078ee:	4610      	mov	r0, r2
 80078f0:	e7e9      	b.n	80078c6 <__lo0bits+0x2a>
 80078f2:	2000      	movs	r0, #0
 80078f4:	4770      	bx	lr
 80078f6:	2020      	movs	r0, #32
 80078f8:	4770      	bx	lr

080078fa <__i2b>:
 80078fa:	b510      	push	{r4, lr}
 80078fc:	460c      	mov	r4, r1
 80078fe:	2101      	movs	r1, #1
 8007900:	f7ff ff44 	bl	800778c <_Balloc>
 8007904:	2201      	movs	r2, #1
 8007906:	6144      	str	r4, [r0, #20]
 8007908:	6102      	str	r2, [r0, #16]
 800790a:	bd10      	pop	{r4, pc}

0800790c <__multiply>:
 800790c:	e92d 4ff7 	stmdb	sp!, {r0, r1, r2, r4, r5, r6, r7, r8, r9, sl, fp, lr}
 8007910:	4614      	mov	r4, r2
 8007912:	690a      	ldr	r2, [r1, #16]
 8007914:	6923      	ldr	r3, [r4, #16]
 8007916:	429a      	cmp	r2, r3
 8007918:	bfb8      	it	lt
 800791a:	460b      	movlt	r3, r1
 800791c:	4688      	mov	r8, r1
 800791e:	bfbc      	itt	lt
 8007920:	46a0      	movlt	r8, r4
 8007922:	461c      	movlt	r4, r3
 8007924:	f8d8 7010 	ldr.w	r7, [r8, #16]
 8007928:	f8d4 9010 	ldr.w	r9, [r4, #16]
 800792c:	f8d8 3008 	ldr.w	r3, [r8, #8]
 8007930:	f8d8 1004 	ldr.w	r1, [r8, #4]
 8007934:	eb07 0609 	add.w	r6, r7, r9
 8007938:	42b3      	cmp	r3, r6
 800793a:	bfb8      	it	lt
 800793c:	3101      	addlt	r1, #1
 800793e:	f7ff ff25 	bl	800778c <_Balloc>
 8007942:	f100 0514 	add.w	r5, r0, #20
 8007946:	eb05 0e86 	add.w	lr, r5, r6, lsl #2
 800794a:	462b      	mov	r3, r5
 800794c:	2200      	movs	r2, #0
 800794e:	4573      	cmp	r3, lr
 8007950:	d316      	bcc.n	8007980 <__multiply+0x74>
 8007952:	f104 0214 	add.w	r2, r4, #20
 8007956:	f108 0114 	add.w	r1, r8, #20
 800795a:	eb02 0389 	add.w	r3, r2, r9, lsl #2
 800795e:	eb01 0787 	add.w	r7, r1, r7, lsl #2
 8007962:	9300      	str	r3, [sp, #0]
 8007964:	9b00      	ldr	r3, [sp, #0]
 8007966:	9201      	str	r2, [sp, #4]
 8007968:	4293      	cmp	r3, r2
 800796a:	d80c      	bhi.n	8007986 <__multiply+0x7a>
 800796c:	2e00      	cmp	r6, #0
 800796e:	dd03      	ble.n	8007978 <__multiply+0x6c>
 8007970:	f85e 3d04 	ldr.w	r3, [lr, #-4]!
 8007974:	2b00      	cmp	r3, #0
 8007976:	d05d      	beq.n	8007a34 <__multiply+0x128>
 8007978:	6106      	str	r6, [r0, #16]
 800797a:	b003      	add	sp, #12
 800797c:	e8bd 8ff0 	ldmia.w	sp!, {r4, r5, r6, r7, r8, r9, sl, fp, pc}
 8007980:	f843 2b04 	str.w	r2, [r3], #4
 8007984:	e7e3      	b.n	800794e <__multiply+0x42>
 8007986:	f8b2 b000 	ldrh.w	fp, [r2]
 800798a:	f1bb 0f00 	cmp.w	fp, #0
 800798e:	d023      	beq.n	80079d8 <__multiply+0xcc>
 8007990:	4689      	mov	r9, r1
 8007992:	46ac      	mov	ip, r5
 8007994:	f04f 0800 	mov.w	r8, #0
 8007998:	f859 4b04 	ldr.w	r4, [r9], #4
 800799c:	f8dc a000 	ldr.w	sl, [ip]
 80079a0:	b2a3      	uxth	r3, r4
 80079a2:	fa1f fa8a 	uxth.w	sl, sl
 80079a6:	fb0b a303 	mla	r3, fp, r3, sl
 80079aa:	ea4f 4a14 	mov.w	sl, r4, lsr #16
 80079ae:	f8dc 4000 	ldr.w	r4, [ip]
 80079b2:	4443      	add	r3, r8
 80079b4:	ea4f 4814 	mov.w	r8, r4, lsr #16
 80079b8:	fb0b 840a 	mla	r4, fp, sl, r8
 80079bc:	eb04 4413 	add.w	r4, r4, r3, lsr #16
 80079c0:	46e2      	mov	sl, ip
 80079c2:	b29b      	uxth	r3, r3
 80079c4:	ea43 4304 	orr.w	r3, r3, r4, lsl #16
 80079c8:	454f      	cmp	r7, r9
 80079ca:	ea4f 4814 	mov.w	r8, r4, lsr #16
 80079ce:	f84a 3b04 	str.w	r3, [sl], #4
 80079d2:	d82b      	bhi.n	8007a2c <__multiply+0x120>
 80079d4:	f8cc 8004 	str.w	r8, [ip, #4]
 80079d8:	9b01      	ldr	r3, [sp, #4]
 80079da:	f8b3 a002 	ldrh.w	sl, [r3, #2]
 80079de:	3204      	adds	r2, #4
 80079e0:	f1ba 0f00 	cmp.w	sl, #0
 80079e4:	d020      	beq.n	8007a28 <__multiply+0x11c>
 80079e6:	682b      	ldr	r3, [r5, #0]
 80079e8:	4689      	mov	r9, r1
 80079ea:	46a8      	mov	r8, r5
 80079ec:	f04f 0b00 	mov.w	fp, #0
 80079f0:	f8b9 c000 	ldrh.w	ip, [r9]
 80079f4:	f8b8 4002 	ldrh.w	r4, [r8, #2]
 80079f8:	fb0a 440c 	mla	r4, sl, ip, r4
 80079fc:	445c      	add	r4, fp
 80079fe:	46c4      	mov	ip, r8
 8007a00:	b29b      	uxth	r3, r3
 8007a02:	ea43 4304 	orr.w	r3, r3, r4, lsl #16
 8007a06:	f84c 3b04 	str.w	r3, [ip], #4
 8007a0a:	f859 3b04 	ldr.w	r3, [r9], #4
 8007a0e:	f8b8 b004 	ldrh.w	fp, [r8, #4]
 8007a12:	0c1b      	lsrs	r3, r3, #16
 8007a14:	fb0a b303 	mla	r3, sl, r3, fp
 8007a18:	eb03 4314 	add.w	r3, r3, r4, lsr #16
 8007a1c:	454f      	cmp	r7, r9
 8007a1e:	ea4f 4b13 	mov.w	fp, r3, lsr #16
 8007a22:	d805      	bhi.n	8007a30 <__multiply+0x124>
 8007a24:	f8c8 3004 	str.w	r3, [r8, #4]
 8007a28:	3504      	adds	r5, #4
 8007a2a:	e79b      	b.n	8007964 <__multiply+0x58>
 8007a2c:	46d4      	mov	ip, sl
 8007a2e:	e7b3      	b.n	8007998 <__multiply+0x8c>
 8007a30:	46e0      	mov	r8, ip
 8007a32:	e7dd      	b.n	80079f0 <__multiply+0xe4>
 8007a34:	3e01      	subs	r6, #1
 8007a36:	e799      	b.n	800796c <__multiply+0x60>

08007a38 <__pow5mult>:
 8007a38:	e92d 43f8 	stmdb	sp!, {r3, r4, r5, r6, r7, r8, r9, lr}
 8007a3c:	4615      	mov	r5, r2
 8007a3e:	f012 0203 	ands.w	r2, r2, #3
 8007a42:	4606      	mov	r6, r0
 8007a44:	460f      	mov	r7, r1
 8007a46:	d007      	beq.n	8007a58 <__pow5mult+0x20>
 8007a48:	3a01      	subs	r2, #1
 8007a4a:	4c1a      	ldr	r4, [pc, #104]	; (8007ab4 <__pow5mult+0x7c>)
 8007a4c:	2300      	movs	r3, #0
 8007a4e:	f854 2022 	ldr.w	r2, [r4, r2, lsl #2]
 8007a52:	f7ff fec9 	bl	80077e8 <__multadd>
 8007a56:	4607      	mov	r7, r0
 8007a58:	10ad      	asrs	r5, r5, #2
 8007a5a:	d027      	beq.n	8007aac <__pow5mult+0x74>
 8007a5c:	6cb4      	ldr	r4, [r6, #72]	; 0x48
 8007a5e:	b944      	cbnz	r4, 8007a72 <__pow5mult+0x3a>
 8007a60:	f240 2171 	movw	r1, #625	; 0x271
 8007a64:	4630      	mov	r0, r6
 8007a66:	f7ff ff48 	bl	80078fa <__i2b>
 8007a6a:	2300      	movs	r3, #0
 8007a6c:	64b0      	str	r0, [r6, #72]	; 0x48
 8007a6e:	4604      	mov	r4, r0
 8007a70:	6003      	str	r3, [r0, #0]
 8007a72:	f04f 0800 	mov.w	r8, #0
 8007a76:	07eb      	lsls	r3, r5, #31
 8007a78:	d50a      	bpl.n	8007a90 <__pow5mult+0x58>
 8007a7a:	4639      	mov	r1, r7
 8007a7c:	4622      	mov	r2, r4
 8007a7e:	4630      	mov	r0, r6
 8007a80:	f7ff ff44 	bl	800790c <__multiply>
 8007a84:	4639      	mov	r1, r7
 8007a86:	4681      	mov	r9, r0
 8007a88:	4630      	mov	r0, r6
 8007a8a:	f7ff fea4 	bl	80077d6 <_Bfree>
 8007a8e:	464f      	mov	r7, r9
 8007a90:	106d      	asrs	r5, r5, #1
 8007a92:	d00b      	beq.n	8007aac <__pow5mult+0x74>
 8007a94:	6820      	ldr	r0, [r4, #0]
 8007a96:	b938      	cbnz	r0, 8007aa8 <__pow5mult+0x70>
 8007a98:	4622      	mov	r2, r4
 8007a9a:	4621      	mov	r1, r4
 8007a9c:	4630      	mov	r0, r6
 8007a9e:	f7ff ff35 	bl	800790c <__multiply>
 8007aa2:	6020      	str	r0, [r4, #0]
 8007aa4:	f8c0 8000 	str.w	r8, [r0]
 8007aa8:	4604      	mov	r4, r0
 8007aaa:	e7e4      	b.n	8007a76 <__pow5mult+0x3e>
 8007aac:	4638      	mov	r0, r7
 8007aae:	e8bd 83f8 	ldmia.w	sp!, {r3, r4, r5, r6, r7, r8, r9, pc}
 8007ab2:	bf00      	nop
 8007ab4:	08008bc0 	.word	0x08008bc0

08007ab8 <__lshift>:
 8007ab8:	e92d 47f0 	stmdb	sp!, {r4, r5, r6, r7, r8, r9, sl, lr}
 8007abc:	460c      	mov	r4, r1
 8007abe:	ea4f 1a62 	mov.w	sl, r2, asr #5
 8007ac2:	6923      	ldr	r3, [r4, #16]
 8007ac4:	6849      	ldr	r1, [r1, #4]
 8007ac6:	eb0a 0903 	add.w	r9, sl, r3
 8007aca:	68a3      	ldr	r3, [r4, #8]
 8007acc:	4607      	mov	r7, r0
 8007ace:	4616      	mov	r6, r2
 8007ad0:	f109 0501 	add.w	r5, r9, #1
 8007ad4:	42ab      	cmp	r3, r5
 8007ad6:	db32      	blt.n	8007b3e <__lshift+0x86>
 8007ad8:	4638      	mov	r0, r7
 8007ada:	f7ff fe57 	bl	800778c <_Balloc>
 8007ade:	2300      	movs	r3, #0
 8007ae0:	4680      	mov	r8, r0
 8007ae2:	f100 0114 	add.w	r1, r0, #20
 8007ae6:	461a      	mov	r2, r3
 8007ae8:	4553      	cmp	r3, sl
 8007aea:	db2b      	blt.n	8007b44 <__lshift+0x8c>
 8007aec:	6920      	ldr	r0, [r4, #16]
 8007aee:	ea2a 7aea 	bic.w	sl, sl, sl, asr #31
 8007af2:	f104 0314 	add.w	r3, r4, #20
 8007af6:	f016 021f 	ands.w	r2, r6, #31
 8007afa:	eb01 018a 	add.w	r1, r1, sl, lsl #2
 8007afe:	eb03 0c80 	add.w	ip, r3, r0, lsl #2
 8007b02:	d025      	beq.n	8007b50 <__lshift+0x98>
 8007b04:	f1c2 0e20 	rsb	lr, r2, #32
 8007b08:	2000      	movs	r0, #0
 8007b0a:	681e      	ldr	r6, [r3, #0]
 8007b0c:	468a      	mov	sl, r1
 8007b0e:	4096      	lsls	r6, r2
 8007b10:	4330      	orrs	r0, r6
 8007b12:	f84a 0b04 	str.w	r0, [sl], #4
 8007b16:	f853 0b04 	ldr.w	r0, [r3], #4
 8007b1a:	459c      	cmp	ip, r3
 8007b1c:	fa20 f00e 	lsr.w	r0, r0, lr
 8007b20:	d814      	bhi.n	8007b4c <__lshift+0x94>
 8007b22:	6048      	str	r0, [r1, #4]
 8007b24:	b108      	cbz	r0, 8007b2a <__lshift+0x72>
 8007b26:	f109 0502 	add.w	r5, r9, #2
 8007b2a:	3d01      	subs	r5, #1
 8007b2c:	4638      	mov	r0, r7
 8007b2e:	f8c8 5010 	str.w	r5, [r8, #16]
 8007b32:	4621      	mov	r1, r4
 8007b34:	f7ff fe4f 	bl	80077d6 <_Bfree>
 8007b38:	4640      	mov	r0, r8
 8007b3a:	e8bd 87f0 	ldmia.w	sp!, {r4, r5, r6, r7, r8, r9, sl, pc}
 8007b3e:	3101      	adds	r1, #1
 8007b40:	005b      	lsls	r3, r3, #1
 8007b42:	e7c7      	b.n	8007ad4 <__lshift+0x1c>
 8007b44:	f841 2023 	str.w	r2, [r1, r3, lsl #2]
 8007b48:	3301      	adds	r3, #1
 8007b4a:	e7cd      	b.n	8007ae8 <__lshift+0x30>
 8007b4c:	4651      	mov	r1, sl
 8007b4e:	e7dc      	b.n	8007b0a <__lshift+0x52>
 8007b50:	3904      	subs	r1, #4
 8007b52:	f853 2b04 	ldr.w	r2, [r3], #4
 8007b56:	f841 2f04 	str.w	r2, [r1, #4]!
 8007b5a:	459c      	cmp	ip, r3
 8007b5c:	d8f9      	bhi.n	8007b52 <__lshift+0x9a>
 8007b5e:	e7e4      	b.n	8007b2a <__lshift+0x72>

08007b60 <__mcmp>:
 8007b60:	6903      	ldr	r3, [r0, #16]
 8007b62:	690a      	ldr	r2, [r1, #16]
 8007b64:	1a9b      	subs	r3, r3, r2
 8007b66:	b530      	push	{r4, r5, lr}
 8007b68:	d10c      	bne.n	8007b84 <__mcmp+0x24>
 8007b6a:	0092      	lsls	r2, r2, #2
 8007b6c:	3014      	adds	r0, #20
 8007b6e:	3114      	adds	r1, #20
 8007b70:	1884      	adds	r4, r0, r2
 8007b72:	4411      	add	r1, r2
 8007b74:	f854 5d04 	ldr.w	r5, [r4, #-4]!
 8007b78:	f851 2d04 	ldr.w	r2, [r1, #-4]!
 8007b7c:	4295      	cmp	r5, r2
 8007b7e:	d003      	beq.n	8007b88 <__mcmp+0x28>
 8007b80:	d305      	bcc.n	8007b8e <__mcmp+0x2e>
 8007b82:	2301      	movs	r3, #1
 8007b84:	4618      	mov	r0, r3
 8007b86:	bd30      	pop	{r4, r5, pc}
 8007b88:	42a0      	cmp	r0, r4
 8007b8a:	d3f3      	bcc.n	8007b74 <__mcmp+0x14>
 8007b8c:	e7fa      	b.n	8007b84 <__mcmp+0x24>
 8007b8e:	f04f 33ff 	mov.w	r3, #4294967295
 8007b92:	e7f7      	b.n	8007b84 <__mcmp+0x24>

08007b94 <__mdiff>:
 8007b94:	e92d 47f0 	stmdb	sp!, {r4, r5, r6, r7, r8, r9, sl, lr}
 8007b98:	460d      	mov	r5, r1
 8007b9a:	4607      	mov	r7, r0
 8007b9c:	4611      	mov	r1, r2
 8007b9e:	4628      	mov	r0, r5
 8007ba0:	4614      	mov	r4, r2
 8007ba2:	f7ff ffdd 	bl	8007b60 <__mcmp>
 8007ba6:	1e06      	subs	r6, r0, #0
 8007ba8:	d108      	bne.n	8007bbc <__mdiff+0x28>
 8007baa:	4631      	mov	r1, r6
 8007bac:	4638      	mov	r0, r7
 8007bae:	f7ff fded 	bl	800778c <_Balloc>
 8007bb2:	2301      	movs	r3, #1
 8007bb4:	e9c0 3604 	strd	r3, r6, [r0, #16]
 8007bb8:	e8bd 87f0 	ldmia.w	sp!, {r4, r5, r6, r7, r8, r9, sl, pc}
 8007bbc:	bfa4      	itt	ge
 8007bbe:	4623      	movge	r3, r4
 8007bc0:	462c      	movge	r4, r5
 8007bc2:	4638      	mov	r0, r7
 8007bc4:	6861      	ldr	r1, [r4, #4]
 8007bc6:	bfa6      	itte	ge
 8007bc8:	461d      	movge	r5, r3
 8007bca:	2600      	movge	r6, #0
 8007bcc:	2601      	movlt	r6, #1
 8007bce:	f7ff fddd 	bl	800778c <_Balloc>
 8007bd2:	692b      	ldr	r3, [r5, #16]
 8007bd4:	60c6      	str	r6, [r0, #12]
 8007bd6:	6926      	ldr	r6, [r4, #16]
 8007bd8:	f105 0914 	add.w	r9, r5, #20
 8007bdc:	f104 0214 	add.w	r2, r4, #20
 8007be0:	eb02 0786 	add.w	r7, r2, r6, lsl #2
 8007be4:	eb09 0883 	add.w	r8, r9, r3, lsl #2
 8007be8:	f100 0514 	add.w	r5, r0, #20
 8007bec:	f04f 0e00 	mov.w	lr, #0
 8007bf0:	f852 ab04 	ldr.w	sl, [r2], #4
 8007bf4:	f859 4b04 	ldr.w	r4, [r9], #4
 8007bf8:	fa1e f18a 	uxtah	r1, lr, sl
 8007bfc:	b2a3      	uxth	r3, r4
 8007bfe:	1ac9      	subs	r1, r1, r3
 8007c00:	0c23      	lsrs	r3, r4, #16
 8007c02:	ebc3 431a 	rsb	r3, r3, sl, lsr #16
 8007c06:	eb03 4321 	add.w	r3, r3, r1, asr #16
 8007c0a:	b289      	uxth	r1, r1
 8007c0c:	ea4f 4e23 	mov.w	lr, r3, asr #16
 8007c10:	45c8      	cmp	r8, r9
 8007c12:	ea41 4303 	orr.w	r3, r1, r3, lsl #16
 8007c16:	4694      	mov	ip, r2
 8007c18:	f845 3b04 	str.w	r3, [r5], #4
 8007c1c:	d8e8      	bhi.n	8007bf0 <__mdiff+0x5c>
 8007c1e:	45bc      	cmp	ip, r7
 8007c20:	d304      	bcc.n	8007c2c <__mdiff+0x98>
 8007c22:	f855 3d04 	ldr.w	r3, [r5, #-4]!
 8007c26:	b183      	cbz	r3, 8007c4a <__mdiff+0xb6>
 8007c28:	6106      	str	r6, [r0, #16]
 8007c2a:	e7c5      	b.n	8007bb8 <__mdiff+0x24>
 8007c2c:	f85c 1b04 	ldr.w	r1, [ip], #4
 8007c30:	fa1e f381 	uxtah	r3, lr, r1
 8007c34:	141a      	asrs	r2, r3, #16
 8007c36:	eb02 4211 	add.w	r2, r2, r1, lsr #16
 8007c3a:	b29b      	uxth	r3, r3
 8007c3c:	ea43 4302 	orr.w	r3, r3, r2, lsl #16
 8007c40:	ea4f 4e22 	mov.w	lr, r2, asr #16
 8007c44:	f845 3b04 	str.w	r3, [r5], #4
 8007c48:	e7e9      	b.n	8007c1e <__mdiff+0x8a>
 8007c4a:	3e01      	subs	r6, #1
 8007c4c:	e7e9      	b.n	8007c22 <__mdiff+0x8e>

08007c4e <__d2b>:
 8007c4e:	e92d 43f7 	stmdb	sp!, {r0, r1, r2, r4, r5, r6, r7, r8, r9, lr}
 8007c52:	460e      	mov	r6, r1
 8007c54:	2101      	movs	r1, #1
 8007c56:	ec59 8b10 	vmov	r8, r9, d0
 8007c5a:	4615      	mov	r5, r2
 8007c5c:	f7ff fd96 	bl	800778c <_Balloc>
 8007c60:	f3c9 540a 	ubfx	r4, r9, #20, #11
 8007c64:	4607      	mov	r7, r0
 8007c66:	f3c9 0313 	ubfx	r3, r9, #0, #20
 8007c6a:	bb34      	cbnz	r4, 8007cba <__d2b+0x6c>
 8007c6c:	9301      	str	r3, [sp, #4]
 8007c6e:	f1b8 0300 	subs.w	r3, r8, #0
 8007c72:	d027      	beq.n	8007cc4 <__d2b+0x76>
 8007c74:	a802      	add	r0, sp, #8
 8007c76:	f840 3d08 	str.w	r3, [r0, #-8]!
 8007c7a:	f7ff fe0f 	bl	800789c <__lo0bits>
 8007c7e:	9900      	ldr	r1, [sp, #0]
 8007c80:	b1f0      	cbz	r0, 8007cc0 <__d2b+0x72>
 8007c82:	9a01      	ldr	r2, [sp, #4]
 8007c84:	f1c0 0320 	rsb	r3, r0, #32
 8007c88:	fa02 f303 	lsl.w	r3, r2, r3
 8007c8c:	430b      	orrs	r3, r1
 8007c8e:	40c2      	lsrs	r2, r0
 8007c90:	617b      	str	r3, [r7, #20]
 8007c92:	9201      	str	r2, [sp, #4]
 8007c94:	9b01      	ldr	r3, [sp, #4]
 8007c96:	61bb      	str	r3, [r7, #24]
 8007c98:	2b00      	cmp	r3, #0
 8007c9a:	bf14      	ite	ne
 8007c9c:	2102      	movne	r1, #2
 8007c9e:	2101      	moveq	r1, #1
 8007ca0:	6139      	str	r1, [r7, #16]
 8007ca2:	b1c4      	cbz	r4, 8007cd6 <__d2b+0x88>
 8007ca4:	f2a4 4433 	subw	r4, r4, #1075	; 0x433
 8007ca8:	4404      	add	r4, r0
 8007caa:	6034      	str	r4, [r6, #0]
 8007cac:	f1c0 0035 	rsb	r0, r0, #53	; 0x35
 8007cb0:	6028      	str	r0, [r5, #0]
 8007cb2:	4638      	mov	r0, r7
 8007cb4:	b003      	add	sp, #12
 8007cb6:	e8bd 83f0 	ldmia.w	sp!, {r4, r5, r6, r7, r8, r9, pc}
 8007cba:	f443 1380 	orr.w	r3, r3, #1048576	; 0x100000
 8007cbe:	e7d5      	b.n	8007c6c <__d2b+0x1e>
 8007cc0:	6179      	str	r1, [r7, #20]
 8007cc2:	e7e7      	b.n	8007c94 <__d2b+0x46>
 8007cc4:	a801      	add	r0, sp, #4
 8007cc6:	f7ff fde9 	bl	800789c <__lo0bits>
 8007cca:	9b01      	ldr	r3, [sp, #4]
 8007ccc:	617b      	str	r3, [r7, #20]
 8007cce:	2101      	movs	r1, #1
 8007cd0:	6139      	str	r1, [r7, #16]
 8007cd2:	3020      	adds	r0, #32
 8007cd4:	e7e5      	b.n	8007ca2 <__d2b+0x54>
 8007cd6:	eb07 0381 	add.w	r3, r7, r1, lsl #2
 8007cda:	f2a0 4032 	subw	r0, r0, #1074	; 0x432
 8007cde:	6030      	str	r0, [r6, #0]
 8007ce0:	6918      	ldr	r0, [r3, #16]
 8007ce2:	f7ff fdbc 	bl	800785e <__hi0bits>
 8007ce6:	ebc0 1041 	rsb	r0, r0, r1, lsl #5
 8007cea:	e7e1      	b.n	8007cb0 <__d2b+0x62>

08007cec <_realloc_r>:
 8007cec:	e92d 4ff7 	stmdb	sp!, {r0, r1, r2, r4, r5, r6, r7, r8, r9, sl, fp, lr}
 8007cf0:	4682      	mov	sl, r0
 8007cf2:	460c      	mov	r4, r1
 8007cf4:	b929      	cbnz	r1, 8007d02 <_realloc_r+0x16>
 8007cf6:	4611      	mov	r1, r2
 8007cf8:	b003      	add	sp, #12
 8007cfa:	e8bd 4ff0 	ldmia.w	sp!, {r4, r5, r6, r7, r8, r9, sl, fp, lr}
 8007cfe:	f7ff bb03 	b.w	8007308 <_malloc_r>
 8007d02:	9201      	str	r2, [sp, #4]
 8007d04:	f7ff fd36 	bl	8007774 <__malloc_lock>
 8007d08:	9a01      	ldr	r2, [sp, #4]
 8007d0a:	f854 5c04 	ldr.w	r5, [r4, #-4]
 8007d0e:	f102 080b 	add.w	r8, r2, #11
 8007d12:	f1b8 0f16 	cmp.w	r8, #22
 8007d16:	f1a4 0908 	sub.w	r9, r4, #8
 8007d1a:	f025 0603 	bic.w	r6, r5, #3
 8007d1e:	d90b      	bls.n	8007d38 <_realloc_r+0x4c>
 8007d20:	f038 0807 	bics.w	r8, r8, #7
 8007d24:	d50a      	bpl.n	8007d3c <_realloc_r+0x50>
 8007d26:	230c      	movs	r3, #12
 8007d28:	f8ca 3000 	str.w	r3, [sl]
 8007d2c:	f04f 0b00 	mov.w	fp, #0
 8007d30:	4658      	mov	r0, fp
 8007d32:	b003      	add	sp, #12
 8007d34:	e8bd 8ff0 	ldmia.w	sp!, {r4, r5, r6, r7, r8, r9, sl, fp, pc}
 8007d38:	f04f 0810 	mov.w	r8, #16
 8007d3c:	4590      	cmp	r8, r2
 8007d3e:	d3f2      	bcc.n	8007d26 <_realloc_r+0x3a>
 8007d40:	45b0      	cmp	r8, r6
 8007d42:	f340 8170 	ble.w	8008026 <_realloc_r+0x33a>
 8007d46:	49a9      	ldr	r1, [pc, #676]	; (8007fec <_realloc_r+0x300>)
 8007d48:	9101      	str	r1, [sp, #4]
 8007d4a:	f8d1 c008 	ldr.w	ip, [r1, #8]
 8007d4e:	eb09 0306 	add.w	r3, r9, r6
 8007d52:	459c      	cmp	ip, r3
 8007d54:	6858      	ldr	r0, [r3, #4]
 8007d56:	d005      	beq.n	8007d64 <_realloc_r+0x78>
 8007d58:	f020 0101 	bic.w	r1, r0, #1
 8007d5c:	4419      	add	r1, r3
 8007d5e:	6849      	ldr	r1, [r1, #4]
 8007d60:	07cf      	lsls	r7, r1, #31
 8007d62:	d447      	bmi.n	8007df4 <_realloc_r+0x108>
 8007d64:	f020 0003 	bic.w	r0, r0, #3
 8007d68:	459c      	cmp	ip, r3
 8007d6a:	eb06 0700 	add.w	r7, r6, r0
 8007d6e:	d119      	bne.n	8007da4 <_realloc_r+0xb8>
 8007d70:	f108 0110 	add.w	r1, r8, #16
 8007d74:	42b9      	cmp	r1, r7
 8007d76:	dc3f      	bgt.n	8007df8 <_realloc_r+0x10c>
 8007d78:	eb09 0308 	add.w	r3, r9, r8
 8007d7c:	9a01      	ldr	r2, [sp, #4]
 8007d7e:	eba7 0708 	sub.w	r7, r7, r8
 8007d82:	f047 0701 	orr.w	r7, r7, #1
 8007d86:	6093      	str	r3, [r2, #8]
 8007d88:	605f      	str	r7, [r3, #4]
 8007d8a:	f854 3c04 	ldr.w	r3, [r4, #-4]
 8007d8e:	f003 0301 	and.w	r3, r3, #1
 8007d92:	ea43 0308 	orr.w	r3, r3, r8
 8007d96:	f844 3c04 	str.w	r3, [r4, #-4]
 8007d9a:	4650      	mov	r0, sl
 8007d9c:	f7ff fcf0 	bl	8007780 <__malloc_unlock>
 8007da0:	46a3      	mov	fp, r4
 8007da2:	e7c5      	b.n	8007d30 <_realloc_r+0x44>
 8007da4:	45b8      	cmp	r8, r7
 8007da6:	dc27      	bgt.n	8007df8 <_realloc_r+0x10c>
 8007da8:	e9d3 3202 	ldrd	r3, r2, [r3, #8]
 8007dac:	60da      	str	r2, [r3, #12]
 8007dae:	6093      	str	r3, [r2, #8]
 8007db0:	eba7 0008 	sub.w	r0, r7, r8
 8007db4:	f8d9 2004 	ldr.w	r2, [r9, #4]
 8007db8:	280f      	cmp	r0, #15
 8007dba:	f002 0201 	and.w	r2, r2, #1
 8007dbe:	eb09 0307 	add.w	r3, r9, r7
 8007dc2:	f240 8132 	bls.w	800802a <_realloc_r+0x33e>
 8007dc6:	eb09 0108 	add.w	r1, r9, r8
 8007dca:	ea48 0202 	orr.w	r2, r8, r2
 8007dce:	f040 0001 	orr.w	r0, r0, #1
 8007dd2:	f8c9 2004 	str.w	r2, [r9, #4]
 8007dd6:	6048      	str	r0, [r1, #4]
 8007dd8:	685a      	ldr	r2, [r3, #4]
 8007dda:	f042 0201 	orr.w	r2, r2, #1
 8007dde:	605a      	str	r2, [r3, #4]
 8007de0:	3108      	adds	r1, #8
 8007de2:	4650      	mov	r0, sl
 8007de4:	f7fe ffea 	bl	8006dbc <_free_r>
 8007de8:	4650      	mov	r0, sl
 8007dea:	f7ff fcc9 	bl	8007780 <__malloc_unlock>
 8007dee:	f109 0b08 	add.w	fp, r9, #8
 8007df2:	e79d      	b.n	8007d30 <_realloc_r+0x44>
 8007df4:	2000      	movs	r0, #0
 8007df6:	4603      	mov	r3, r0
 8007df8:	07e9      	lsls	r1, r5, #31
 8007dfa:	f100 80c6 	bmi.w	8007f8a <_realloc_r+0x29e>
 8007dfe:	f854 5c08 	ldr.w	r5, [r4, #-8]
 8007e02:	eba9 0505 	sub.w	r5, r9, r5
 8007e06:	6869      	ldr	r1, [r5, #4]
 8007e08:	f021 0103 	bic.w	r1, r1, #3
 8007e0c:	eb01 0b06 	add.w	fp, r1, r6
 8007e10:	2b00      	cmp	r3, #0
 8007e12:	f000 8086 	beq.w	8007f22 <_realloc_r+0x236>
 8007e16:	459c      	cmp	ip, r3
 8007e18:	eb00 070b 	add.w	r7, r0, fp
 8007e1c:	d149      	bne.n	8007eb2 <_realloc_r+0x1c6>
 8007e1e:	f108 0310 	add.w	r3, r8, #16
 8007e22:	42bb      	cmp	r3, r7
 8007e24:	dc7d      	bgt.n	8007f22 <_realloc_r+0x236>
 8007e26:	46ab      	mov	fp, r5
 8007e28:	68eb      	ldr	r3, [r5, #12]
 8007e2a:	f85b 2f08 	ldr.w	r2, [fp, #8]!
 8007e2e:	60d3      	str	r3, [r2, #12]
 8007e30:	609a      	str	r2, [r3, #8]
 8007e32:	1f32      	subs	r2, r6, #4
 8007e34:	2a24      	cmp	r2, #36	; 0x24
 8007e36:	d837      	bhi.n	8007ea8 <_realloc_r+0x1bc>
 8007e38:	2a13      	cmp	r2, #19
 8007e3a:	d933      	bls.n	8007ea4 <_realloc_r+0x1b8>
 8007e3c:	6823      	ldr	r3, [r4, #0]
 8007e3e:	60ab      	str	r3, [r5, #8]
 8007e40:	6863      	ldr	r3, [r4, #4]
 8007e42:	60eb      	str	r3, [r5, #12]
 8007e44:	2a1b      	cmp	r2, #27
 8007e46:	d81b      	bhi.n	8007e80 <_realloc_r+0x194>
 8007e48:	3408      	adds	r4, #8
 8007e4a:	f105 0310 	add.w	r3, r5, #16
 8007e4e:	6822      	ldr	r2, [r4, #0]
 8007e50:	601a      	str	r2, [r3, #0]
 8007e52:	6862      	ldr	r2, [r4, #4]
 8007e54:	605a      	str	r2, [r3, #4]
 8007e56:	68a2      	ldr	r2, [r4, #8]
 8007e58:	609a      	str	r2, [r3, #8]
 8007e5a:	eb05 0308 	add.w	r3, r5, r8
 8007e5e:	9a01      	ldr	r2, [sp, #4]
 8007e60:	eba7 0708 	sub.w	r7, r7, r8
 8007e64:	f047 0701 	orr.w	r7, r7, #1
 8007e68:	6093      	str	r3, [r2, #8]
 8007e6a:	605f      	str	r7, [r3, #4]
 8007e6c:	686b      	ldr	r3, [r5, #4]
 8007e6e:	f003 0301 	and.w	r3, r3, #1
 8007e72:	ea43 0308 	orr.w	r3, r3, r8
 8007e76:	606b      	str	r3, [r5, #4]
 8007e78:	4650      	mov	r0, sl
 8007e7a:	f7ff fc81 	bl	8007780 <__malloc_unlock>
 8007e7e:	e757      	b.n	8007d30 <_realloc_r+0x44>
 8007e80:	68a3      	ldr	r3, [r4, #8]
 8007e82:	612b      	str	r3, [r5, #16]
 8007e84:	68e3      	ldr	r3, [r4, #12]
 8007e86:	616b      	str	r3, [r5, #20]
 8007e88:	2a24      	cmp	r2, #36	; 0x24
 8007e8a:	bf01      	itttt	eq
 8007e8c:	6923      	ldreq	r3, [r4, #16]
 8007e8e:	61ab      	streq	r3, [r5, #24]
 8007e90:	6962      	ldreq	r2, [r4, #20]
 8007e92:	61ea      	streq	r2, [r5, #28]
 8007e94:	bf19      	ittee	ne
 8007e96:	3410      	addne	r4, #16
 8007e98:	f105 0318 	addne.w	r3, r5, #24
 8007e9c:	f105 0320 	addeq.w	r3, r5, #32
 8007ea0:	3418      	addeq	r4, #24
 8007ea2:	e7d4      	b.n	8007e4e <_realloc_r+0x162>
 8007ea4:	465b      	mov	r3, fp
 8007ea6:	e7d2      	b.n	8007e4e <_realloc_r+0x162>
 8007ea8:	4621      	mov	r1, r4
 8007eaa:	4658      	mov	r0, fp
 8007eac:	f7fc fc2b 	bl	8004706 <memmove>
 8007eb0:	e7d3      	b.n	8007e5a <_realloc_r+0x16e>
 8007eb2:	45b8      	cmp	r8, r7
 8007eb4:	dc35      	bgt.n	8007f22 <_realloc_r+0x236>
 8007eb6:	e9d3 3202 	ldrd	r3, r2, [r3, #8]
 8007eba:	4628      	mov	r0, r5
 8007ebc:	60da      	str	r2, [r3, #12]
 8007ebe:	6093      	str	r3, [r2, #8]
 8007ec0:	f850 2f08 	ldr.w	r2, [r0, #8]!
 8007ec4:	68eb      	ldr	r3, [r5, #12]
 8007ec6:	60d3      	str	r3, [r2, #12]
 8007ec8:	609a      	str	r2, [r3, #8]
 8007eca:	1f32      	subs	r2, r6, #4
 8007ecc:	2a24      	cmp	r2, #36	; 0x24
 8007ece:	d824      	bhi.n	8007f1a <_realloc_r+0x22e>
 8007ed0:	2a13      	cmp	r2, #19
 8007ed2:	d908      	bls.n	8007ee6 <_realloc_r+0x1fa>
 8007ed4:	6823      	ldr	r3, [r4, #0]
 8007ed6:	60ab      	str	r3, [r5, #8]
 8007ed8:	6863      	ldr	r3, [r4, #4]
 8007eda:	60eb      	str	r3, [r5, #12]
 8007edc:	2a1b      	cmp	r2, #27
 8007ede:	d80a      	bhi.n	8007ef6 <_realloc_r+0x20a>
 8007ee0:	3408      	adds	r4, #8
 8007ee2:	f105 0010 	add.w	r0, r5, #16
 8007ee6:	6823      	ldr	r3, [r4, #0]
 8007ee8:	6003      	str	r3, [r0, #0]
 8007eea:	6863      	ldr	r3, [r4, #4]
 8007eec:	6043      	str	r3, [r0, #4]
 8007eee:	68a3      	ldr	r3, [r4, #8]
 8007ef0:	6083      	str	r3, [r0, #8]
 8007ef2:	46a9      	mov	r9, r5
 8007ef4:	e75c      	b.n	8007db0 <_realloc_r+0xc4>
 8007ef6:	68a3      	ldr	r3, [r4, #8]
 8007ef8:	612b      	str	r3, [r5, #16]
 8007efa:	68e3      	ldr	r3, [r4, #12]
 8007efc:	616b      	str	r3, [r5, #20]
 8007efe:	2a24      	cmp	r2, #36	; 0x24
 8007f00:	bf01      	itttt	eq
 8007f02:	6923      	ldreq	r3, [r4, #16]
 8007f04:	61ab      	streq	r3, [r5, #24]
 8007f06:	6963      	ldreq	r3, [r4, #20]
 8007f08:	61eb      	streq	r3, [r5, #28]
 8007f0a:	bf19      	ittee	ne
 8007f0c:	3410      	addne	r4, #16
 8007f0e:	f105 0018 	addne.w	r0, r5, #24
 8007f12:	f105 0020 	addeq.w	r0, r5, #32
 8007f16:	3418      	addeq	r4, #24
 8007f18:	e7e5      	b.n	8007ee6 <_realloc_r+0x1fa>
 8007f1a:	4621      	mov	r1, r4
 8007f1c:	f7fc fbf3 	bl	8004706 <memmove>
 8007f20:	e7e7      	b.n	8007ef2 <_realloc_r+0x206>
 8007f22:	45d8      	cmp	r8, fp
 8007f24:	dc31      	bgt.n	8007f8a <_realloc_r+0x29e>
 8007f26:	4628      	mov	r0, r5
 8007f28:	68eb      	ldr	r3, [r5, #12]
 8007f2a:	f850 2f08 	ldr.w	r2, [r0, #8]!
 8007f2e:	60d3      	str	r3, [r2, #12]
 8007f30:	609a      	str	r2, [r3, #8]
 8007f32:	1f32      	subs	r2, r6, #4
 8007f34:	2a24      	cmp	r2, #36	; 0x24
 8007f36:	d824      	bhi.n	8007f82 <_realloc_r+0x296>
 8007f38:	2a13      	cmp	r2, #19
 8007f3a:	d908      	bls.n	8007f4e <_realloc_r+0x262>
 8007f3c:	6823      	ldr	r3, [r4, #0]
 8007f3e:	60ab      	str	r3, [r5, #8]
 8007f40:	6863      	ldr	r3, [r4, #4]
 8007f42:	60eb      	str	r3, [r5, #12]
 8007f44:	2a1b      	cmp	r2, #27
 8007f46:	d80a      	bhi.n	8007f5e <_realloc_r+0x272>
 8007f48:	3408      	adds	r4, #8
 8007f4a:	f105 0010 	add.w	r0, r5, #16
 8007f4e:	6823      	ldr	r3, [r4, #0]
 8007f50:	6003      	str	r3, [r0, #0]
 8007f52:	6863      	ldr	r3, [r4, #4]
 8007f54:	6043      	str	r3, [r0, #4]
 8007f56:	68a3      	ldr	r3, [r4, #8]
 8007f58:	6083      	str	r3, [r0, #8]
 8007f5a:	465f      	mov	r7, fp
 8007f5c:	e7c9      	b.n	8007ef2 <_realloc_r+0x206>
 8007f5e:	68a3      	ldr	r3, [r4, #8]
 8007f60:	612b      	str	r3, [r5, #16]
 8007f62:	68e3      	ldr	r3, [r4, #12]
 8007f64:	616b      	str	r3, [r5, #20]
 8007f66:	2a24      	cmp	r2, #36	; 0x24
 8007f68:	bf01      	itttt	eq
 8007f6a:	6923      	ldreq	r3, [r4, #16]
 8007f6c:	61ab      	streq	r3, [r5, #24]
 8007f6e:	6963      	ldreq	r3, [r4, #20]
 8007f70:	61eb      	streq	r3, [r5, #28]
 8007f72:	bf19      	ittee	ne
 8007f74:	3410      	addne	r4, #16
 8007f76:	f105 0018 	addne.w	r0, r5, #24
 8007f7a:	f105 0020 	addeq.w	r0, r5, #32
 8007f7e:	3418      	addeq	r4, #24
 8007f80:	e7e5      	b.n	8007f4e <_realloc_r+0x262>
 8007f82:	4621      	mov	r1, r4
 8007f84:	f7fc fbbf 	bl	8004706 <memmove>
 8007f88:	e7e7      	b.n	8007f5a <_realloc_r+0x26e>
 8007f8a:	4611      	mov	r1, r2
 8007f8c:	4650      	mov	r0, sl
 8007f8e:	f7ff f9bb 	bl	8007308 <_malloc_r>
 8007f92:	4683      	mov	fp, r0
 8007f94:	2800      	cmp	r0, #0
 8007f96:	f43f af6f 	beq.w	8007e78 <_realloc_r+0x18c>
 8007f9a:	f854 3c04 	ldr.w	r3, [r4, #-4]
 8007f9e:	f023 0301 	bic.w	r3, r3, #1
 8007fa2:	444b      	add	r3, r9
 8007fa4:	f1a0 0208 	sub.w	r2, r0, #8
 8007fa8:	4293      	cmp	r3, r2
 8007faa:	d105      	bne.n	8007fb8 <_realloc_r+0x2cc>
 8007fac:	f850 7c04 	ldr.w	r7, [r0, #-4]
 8007fb0:	f027 0703 	bic.w	r7, r7, #3
 8007fb4:	4437      	add	r7, r6
 8007fb6:	e6fb      	b.n	8007db0 <_realloc_r+0xc4>
 8007fb8:	1f32      	subs	r2, r6, #4
 8007fba:	2a24      	cmp	r2, #36	; 0x24
 8007fbc:	d82f      	bhi.n	800801e <_realloc_r+0x332>
 8007fbe:	2a13      	cmp	r2, #19
 8007fc0:	d92a      	bls.n	8008018 <_realloc_r+0x32c>
 8007fc2:	6823      	ldr	r3, [r4, #0]
 8007fc4:	6003      	str	r3, [r0, #0]
 8007fc6:	6863      	ldr	r3, [r4, #4]
 8007fc8:	6043      	str	r3, [r0, #4]
 8007fca:	2a1b      	cmp	r2, #27
 8007fcc:	d810      	bhi.n	8007ff0 <_realloc_r+0x304>
 8007fce:	f104 0208 	add.w	r2, r4, #8
 8007fd2:	f100 0308 	add.w	r3, r0, #8
 8007fd6:	6811      	ldr	r1, [r2, #0]
 8007fd8:	6019      	str	r1, [r3, #0]
 8007fda:	6851      	ldr	r1, [r2, #4]
 8007fdc:	6059      	str	r1, [r3, #4]
 8007fde:	6892      	ldr	r2, [r2, #8]
 8007fe0:	609a      	str	r2, [r3, #8]
 8007fe2:	4621      	mov	r1, r4
 8007fe4:	4650      	mov	r0, sl
 8007fe6:	f7fe fee9 	bl	8006dbc <_free_r>
 8007fea:	e745      	b.n	8007e78 <_realloc_r+0x18c>
 8007fec:	20000444 	.word	0x20000444
 8007ff0:	68a3      	ldr	r3, [r4, #8]
 8007ff2:	6083      	str	r3, [r0, #8]
 8007ff4:	68e3      	ldr	r3, [r4, #12]
 8007ff6:	60c3      	str	r3, [r0, #12]
 8007ff8:	2a24      	cmp	r2, #36	; 0x24
 8007ffa:	bf01      	itttt	eq
 8007ffc:	6923      	ldreq	r3, [r4, #16]
 8007ffe:	6103      	streq	r3, [r0, #16]
 8008000:	6961      	ldreq	r1, [r4, #20]
 8008002:	6141      	streq	r1, [r0, #20]
 8008004:	bf19      	ittee	ne
 8008006:	f104 0210 	addne.w	r2, r4, #16
 800800a:	f100 0310 	addne.w	r3, r0, #16
 800800e:	f104 0218 	addeq.w	r2, r4, #24
 8008012:	f100 0318 	addeq.w	r3, r0, #24
 8008016:	e7de      	b.n	8007fd6 <_realloc_r+0x2ea>
 8008018:	4603      	mov	r3, r0
 800801a:	4622      	mov	r2, r4
 800801c:	e7db      	b.n	8007fd6 <_realloc_r+0x2ea>
 800801e:	4621      	mov	r1, r4
 8008020:	f7fc fb71 	bl	8004706 <memmove>
 8008024:	e7dd      	b.n	8007fe2 <_realloc_r+0x2f6>
 8008026:	4637      	mov	r7, r6
 8008028:	e6c2      	b.n	8007db0 <_realloc_r+0xc4>
 800802a:	4317      	orrs	r7, r2
 800802c:	f8c9 7004 	str.w	r7, [r9, #4]
 8008030:	685a      	ldr	r2, [r3, #4]
 8008032:	f042 0201 	orr.w	r2, r2, #1
 8008036:	605a      	str	r2, [r3, #4]
 8008038:	e6d6      	b.n	8007de8 <_realloc_r+0xfc>
 800803a:	bf00      	nop

0800803c <frexp>:
 800803c:	b570      	push	{r4, r5, r6, lr}
 800803e:	2100      	movs	r1, #0
 8008040:	ec55 4b10 	vmov	r4, r5, d0
 8008044:	6001      	str	r1, [r0, #0]
 8008046:	4916      	ldr	r1, [pc, #88]	; (80080a0 <frexp+0x64>)
 8008048:	f025 4300 	bic.w	r3, r5, #2147483648	; 0x80000000
 800804c:	428b      	cmp	r3, r1
 800804e:	4606      	mov	r6, r0
 8008050:	462a      	mov	r2, r5
 8008052:	dc22      	bgt.n	800809a <frexp+0x5e>
 8008054:	ee10 1a10 	vmov	r1, s0
 8008058:	4319      	orrs	r1, r3
 800805a:	d01e      	beq.n	800809a <frexp+0x5e>
 800805c:	f5b3 1f80 	cmp.w	r3, #1048576	; 0x100000
 8008060:	da0d      	bge.n	800807e <frexp+0x42>
 8008062:	2200      	movs	r2, #0
 8008064:	4b0f      	ldr	r3, [pc, #60]	; (80080a4 <frexp+0x68>)
 8008066:	ee10 0a10 	vmov	r0, s0
 800806a:	4629      	mov	r1, r5
 800806c:	f7f8 fae4 	bl	8000638 <__aeabi_dmul>
 8008070:	460a      	mov	r2, r1
 8008072:	f021 4300 	bic.w	r3, r1, #2147483648	; 0x80000000
 8008076:	f06f 0135 	mvn.w	r1, #53	; 0x35
 800807a:	4604      	mov	r4, r0
 800807c:	6031      	str	r1, [r6, #0]
 800807e:	6831      	ldr	r1, [r6, #0]
 8008080:	151b      	asrs	r3, r3, #20
 8008082:	f022 42ff 	bic.w	r2, r2, #2139095040	; 0x7f800000
 8008086:	f2a3 33fe 	subw	r3, r3, #1022	; 0x3fe
 800808a:	f422 02e0 	bic.w	r2, r2, #7340032	; 0x700000
 800808e:	440b      	add	r3, r1
 8008090:	f042 557f 	orr.w	r5, r2, #1069547520	; 0x3fc00000
 8008094:	6033      	str	r3, [r6, #0]
 8008096:	f445 1500 	orr.w	r5, r5, #2097152	; 0x200000
 800809a:	ec45 4b10 	vmov	d0, r4, r5
 800809e:	bd70      	pop	{r4, r5, r6, pc}
 80080a0:	7fefffff 	.word	0x7fefffff
 80080a4:	43500000 	.word	0x43500000

080080a8 <_sbrk_r>:
 80080a8:	b538      	push	{r3, r4, r5, lr}
 80080aa:	4c06      	ldr	r4, [pc, #24]	; (80080c4 <_sbrk_r+0x1c>)
 80080ac:	2300      	movs	r3, #0
 80080ae:	4605      	mov	r5, r0
 80080b0:	4608      	mov	r0, r1
 80080b2:	6023      	str	r3, [r4, #0]
 80080b4:	f7fa f914 	bl	80022e0 <_sbrk>
 80080b8:	1c43      	adds	r3, r0, #1
 80080ba:	d102      	bne.n	80080c2 <_sbrk_r+0x1a>
 80080bc:	6823      	ldr	r3, [r4, #0]
 80080be:	b103      	cbz	r3, 80080c2 <_sbrk_r+0x1a>
 80080c0:	602b      	str	r3, [r5, #0]
 80080c2:	bd38      	pop	{r3, r4, r5, pc}
 80080c4:	200017c0 	.word	0x200017c0

080080c8 <__sread>:
 80080c8:	b510      	push	{r4, lr}
 80080ca:	460c      	mov	r4, r1
 80080cc:	f9b1 100e 	ldrsh.w	r1, [r1, #14]
 80080d0:	f000 fa4e 	bl	8008570 <_read_r>
 80080d4:	2800      	cmp	r0, #0
 80080d6:	bfab      	itete	ge
 80080d8:	6d23      	ldrge	r3, [r4, #80]	; 0x50
 80080da:	89a3      	ldrhlt	r3, [r4, #12]
 80080dc:	181b      	addge	r3, r3, r0
 80080de:	f423 5380 	biclt.w	r3, r3, #4096	; 0x1000
 80080e2:	bfac      	ite	ge
 80080e4:	6523      	strge	r3, [r4, #80]	; 0x50
 80080e6:	81a3      	strhlt	r3, [r4, #12]
 80080e8:	bd10      	pop	{r4, pc}

080080ea <__swrite>:
 80080ea:	e92d 41f0 	stmdb	sp!, {r4, r5, r6, r7, r8, lr}
 80080ee:	461f      	mov	r7, r3
 80080f0:	898b      	ldrh	r3, [r1, #12]
 80080f2:	05db      	lsls	r3, r3, #23
 80080f4:	4605      	mov	r5, r0
 80080f6:	460c      	mov	r4, r1
 80080f8:	4616      	mov	r6, r2
 80080fa:	d505      	bpl.n	8008108 <__swrite+0x1e>
 80080fc:	2302      	movs	r3, #2
 80080fe:	2200      	movs	r2, #0
 8008100:	f9b1 100e 	ldrsh.w	r1, [r1, #14]
 8008104:	f000 fa10 	bl	8008528 <_lseek_r>
 8008108:	89a3      	ldrh	r3, [r4, #12]
 800810a:	f9b4 100e 	ldrsh.w	r1, [r4, #14]
 800810e:	f423 5380 	bic.w	r3, r3, #4096	; 0x1000
 8008112:	81a3      	strh	r3, [r4, #12]
 8008114:	4632      	mov	r2, r6
 8008116:	463b      	mov	r3, r7
 8008118:	4628      	mov	r0, r5
 800811a:	e8bd 41f0 	ldmia.w	sp!, {r4, r5, r6, r7, r8, lr}
 800811e:	f000 b86b 	b.w	80081f8 <_write_r>

08008122 <__sseek>:
 8008122:	b510      	push	{r4, lr}
 8008124:	460c      	mov	r4, r1
 8008126:	f9b1 100e 	ldrsh.w	r1, [r1, #14]
 800812a:	f000 f9fd 	bl	8008528 <_lseek_r>
 800812e:	1c43      	adds	r3, r0, #1
 8008130:	89a3      	ldrh	r3, [r4, #12]
 8008132:	bf15      	itete	ne
 8008134:	6520      	strne	r0, [r4, #80]	; 0x50
 8008136:	f423 5380 	biceq.w	r3, r3, #4096	; 0x1000
 800813a:	f443 5380 	orrne.w	r3, r3, #4096	; 0x1000
 800813e:	81a3      	strheq	r3, [r4, #12]
 8008140:	bf18      	it	ne
 8008142:	81a3      	strhne	r3, [r4, #12]
 8008144:	bd10      	pop	{r4, pc}

08008146 <__sclose>:
 8008146:	f9b1 100e 	ldrsh.w	r1, [r1, #14]
 800814a:	f000 b8eb 	b.w	8008324 <_close_r>

0800814e <strncpy>:
 800814e:	b570      	push	{r4, r5, r6, lr}
 8008150:	3901      	subs	r1, #1
 8008152:	4604      	mov	r4, r0
 8008154:	b902      	cbnz	r2, 8008158 <strncpy+0xa>
 8008156:	bd70      	pop	{r4, r5, r6, pc}
 8008158:	4623      	mov	r3, r4
 800815a:	f811 5f01 	ldrb.w	r5, [r1, #1]!
 800815e:	f803 5b01 	strb.w	r5, [r3], #1
 8008162:	1e56      	subs	r6, r2, #1
 8008164:	b92d      	cbnz	r5, 8008172 <strncpy+0x24>
 8008166:	4414      	add	r4, r2
 8008168:	42a3      	cmp	r3, r4
 800816a:	d0f4      	beq.n	8008156 <strncpy+0x8>
 800816c:	f803 5b01 	strb.w	r5, [r3], #1
 8008170:	e7fa      	b.n	8008168 <strncpy+0x1a>
 8008172:	461c      	mov	r4, r3
 8008174:	4632      	mov	r2, r6
 8008176:	e7ed      	b.n	8008154 <strncpy+0x6>

08008178 <sysconf>:
 8008178:	2808      	cmp	r0, #8
 800817a:	b508      	push	{r3, lr}
 800817c:	d006      	beq.n	800818c <sysconf+0x14>
 800817e:	f7fc fa8d 	bl	800469c <__errno>
 8008182:	2316      	movs	r3, #22
 8008184:	6003      	str	r3, [r0, #0]
 8008186:	f04f 30ff 	mov.w	r0, #4294967295
 800818a:	bd08      	pop	{r3, pc}
 800818c:	f44f 5080 	mov.w	r0, #4096	; 0x1000
 8008190:	e7fb      	b.n	800818a <sysconf+0x12>

08008192 <__sprint_r>:
 8008192:	e92d 4ff8 	stmdb	sp!, {r3, r4, r5, r6, r7, r8, r9, sl, fp, lr}
 8008196:	6893      	ldr	r3, [r2, #8]
 8008198:	4680      	mov	r8, r0
 800819a:	460f      	mov	r7, r1
 800819c:	4614      	mov	r4, r2
 800819e:	b91b      	cbnz	r3, 80081a8 <__sprint_r+0x16>
 80081a0:	6053      	str	r3, [r2, #4]
 80081a2:	4618      	mov	r0, r3
 80081a4:	e8bd 8ff8 	ldmia.w	sp!, {r3, r4, r5, r6, r7, r8, r9, sl, fp, pc}
 80081a8:	6e4b      	ldr	r3, [r1, #100]	; 0x64
 80081aa:	049d      	lsls	r5, r3, #18
 80081ac:	d520      	bpl.n	80081f0 <__sprint_r+0x5e>
 80081ae:	6815      	ldr	r5, [r2, #0]
 80081b0:	68a0      	ldr	r0, [r4, #8]
 80081b2:	3508      	adds	r5, #8
 80081b4:	b918      	cbnz	r0, 80081be <__sprint_r+0x2c>
 80081b6:	2300      	movs	r3, #0
 80081b8:	e9c4 3301 	strd	r3, r3, [r4, #4]
 80081bc:	e7f2      	b.n	80081a4 <__sprint_r+0x12>
 80081be:	e955 b602 	ldrd	fp, r6, [r5, #-8]
 80081c2:	f04f 0900 	mov.w	r9, #0
 80081c6:	ea4f 0a96 	mov.w	sl, r6, lsr #2
 80081ca:	45ca      	cmp	sl, r9
 80081cc:	dc05      	bgt.n	80081da <__sprint_r+0x48>
 80081ce:	68a3      	ldr	r3, [r4, #8]
 80081d0:	f026 0603 	bic.w	r6, r6, #3
 80081d4:	1b9e      	subs	r6, r3, r6
 80081d6:	60a6      	str	r6, [r4, #8]
 80081d8:	e7ea      	b.n	80081b0 <__sprint_r+0x1e>
 80081da:	463a      	mov	r2, r7
 80081dc:	f85b 1029 	ldr.w	r1, [fp, r9, lsl #2]
 80081e0:	4640      	mov	r0, r8
 80081e2:	f000 f947 	bl	8008474 <_fputwc_r>
 80081e6:	1c43      	adds	r3, r0, #1
 80081e8:	d0e5      	beq.n	80081b6 <__sprint_r+0x24>
 80081ea:	f109 0901 	add.w	r9, r9, #1
 80081ee:	e7ec      	b.n	80081ca <__sprint_r+0x38>
 80081f0:	f7fe fea0 	bl	8006f34 <__sfvwrite_r>
 80081f4:	e7df      	b.n	80081b6 <__sprint_r+0x24>
	...

080081f8 <_write_r>:
 80081f8:	b538      	push	{r3, r4, r5, lr}
 80081fa:	4c07      	ldr	r4, [pc, #28]	; (8008218 <_write_r+0x20>)
 80081fc:	4605      	mov	r5, r0
 80081fe:	4608      	mov	r0, r1
 8008200:	4611      	mov	r1, r2
 8008202:	2200      	movs	r2, #0
 8008204:	6022      	str	r2, [r4, #0]
 8008206:	461a      	mov	r2, r3
 8008208:	f7fa f850 	bl	80022ac <_write>
 800820c:	1c43      	adds	r3, r0, #1
 800820e:	d102      	bne.n	8008216 <_write_r+0x1e>
 8008210:	6823      	ldr	r3, [r4, #0]
 8008212:	b103      	cbz	r3, 8008216 <_write_r+0x1e>
 8008214:	602b      	str	r3, [r5, #0]
 8008216:	bd38      	pop	{r3, r4, r5, pc}
 8008218:	200017c0 	.word	0x200017c0

0800821c <__register_exitproc>:
 800821c:	e92d 43f8 	stmdb	sp!, {r3, r4, r5, r6, r7, r8, r9, lr}
 8008220:	4c26      	ldr	r4, [pc, #152]	; (80082bc <__register_exitproc+0xa0>)
 8008222:	4606      	mov	r6, r0
 8008224:	6820      	ldr	r0, [r4, #0]
 8008226:	4698      	mov	r8, r3
 8008228:	460f      	mov	r7, r1
 800822a:	4691      	mov	r9, r2
 800822c:	f7fe fffe 	bl	800722c <__retarget_lock_acquire_recursive>
 8008230:	4b23      	ldr	r3, [pc, #140]	; (80082c0 <__register_exitproc+0xa4>)
 8008232:	681d      	ldr	r5, [r3, #0]
 8008234:	f8d5 0148 	ldr.w	r0, [r5, #328]	; 0x148
 8008238:	b918      	cbnz	r0, 8008242 <__register_exitproc+0x26>
 800823a:	f505 70a6 	add.w	r0, r5, #332	; 0x14c
 800823e:	f8c5 0148 	str.w	r0, [r5, #328]	; 0x148
 8008242:	6843      	ldr	r3, [r0, #4]
 8008244:	2b1f      	cmp	r3, #31
 8008246:	dd19      	ble.n	800827c <__register_exitproc+0x60>
 8008248:	4b1e      	ldr	r3, [pc, #120]	; (80082c4 <__register_exitproc+0xa8>)
 800824a:	b933      	cbnz	r3, 800825a <__register_exitproc+0x3e>
 800824c:	6820      	ldr	r0, [r4, #0]
 800824e:	f7fe ffee 	bl	800722e <__retarget_lock_release_recursive>
 8008252:	f04f 30ff 	mov.w	r0, #4294967295
 8008256:	e8bd 83f8 	ldmia.w	sp!, {r3, r4, r5, r6, r7, r8, r9, pc}
 800825a:	f44f 70c8 	mov.w	r0, #400	; 0x190
 800825e:	f3af 8000 	nop.w
 8008262:	2800      	cmp	r0, #0
 8008264:	d0f2      	beq.n	800824c <__register_exitproc+0x30>
 8008266:	f8d5 3148 	ldr.w	r3, [r5, #328]	; 0x148
 800826a:	6003      	str	r3, [r0, #0]
 800826c:	2200      	movs	r2, #0
 800826e:	6042      	str	r2, [r0, #4]
 8008270:	f8c5 0148 	str.w	r0, [r5, #328]	; 0x148
 8008274:	f8c0 2188 	str.w	r2, [r0, #392]	; 0x188
 8008278:	f8c0 218c 	str.w	r2, [r0, #396]	; 0x18c
 800827c:	6843      	ldr	r3, [r0, #4]
 800827e:	b19e      	cbz	r6, 80082a8 <__register_exitproc+0x8c>
 8008280:	eb00 0583 	add.w	r5, r0, r3, lsl #2
 8008284:	2201      	movs	r2, #1
 8008286:	f8c5 9088 	str.w	r9, [r5, #136]	; 0x88
 800828a:	f8d0 1188 	ldr.w	r1, [r0, #392]	; 0x188
 800828e:	409a      	lsls	r2, r3
 8008290:	4311      	orrs	r1, r2
 8008292:	2e02      	cmp	r6, #2
 8008294:	f8c0 1188 	str.w	r1, [r0, #392]	; 0x188
 8008298:	f8c5 8108 	str.w	r8, [r5, #264]	; 0x108
 800829c:	bf02      	ittt	eq
 800829e:	f8d0 118c 	ldreq.w	r1, [r0, #396]	; 0x18c
 80082a2:	430a      	orreq	r2, r1
 80082a4:	f8c0 218c 	streq.w	r2, [r0, #396]	; 0x18c
 80082a8:	1c5a      	adds	r2, r3, #1
 80082aa:	3302      	adds	r3, #2
 80082ac:	6042      	str	r2, [r0, #4]
 80082ae:	f840 7023 	str.w	r7, [r0, r3, lsl #2]
 80082b2:	6820      	ldr	r0, [r4, #0]
 80082b4:	f7fe ffbb 	bl	800722e <__retarget_lock_release_recursive>
 80082b8:	2000      	movs	r0, #0
 80082ba:	e7cc      	b.n	8008256 <__register_exitproc+0x3a>
 80082bc:	20000440 	.word	0x20000440
 80082c0:	08008a68 	.word	0x08008a68
 80082c4:	00000000 	.word	0x00000000

080082c8 <_calloc_r>:
 80082c8:	b510      	push	{r4, lr}
 80082ca:	4351      	muls	r1, r2
 80082cc:	f7ff f81c 	bl	8007308 <_malloc_r>
 80082d0:	4604      	mov	r4, r0
 80082d2:	b198      	cbz	r0, 80082fc <_calloc_r+0x34>
 80082d4:	f850 2c04 	ldr.w	r2, [r0, #-4]
 80082d8:	f022 0203 	bic.w	r2, r2, #3
 80082dc:	3a04      	subs	r2, #4
 80082de:	2a24      	cmp	r2, #36	; 0x24
 80082e0:	d81b      	bhi.n	800831a <_calloc_r+0x52>
 80082e2:	2a13      	cmp	r2, #19
 80082e4:	d917      	bls.n	8008316 <_calloc_r+0x4e>
 80082e6:	2100      	movs	r1, #0
 80082e8:	2a1b      	cmp	r2, #27
 80082ea:	e9c0 1100 	strd	r1, r1, [r0]
 80082ee:	d807      	bhi.n	8008300 <_calloc_r+0x38>
 80082f0:	f100 0308 	add.w	r3, r0, #8
 80082f4:	2200      	movs	r2, #0
 80082f6:	e9c3 2200 	strd	r2, r2, [r3]
 80082fa:	609a      	str	r2, [r3, #8]
 80082fc:	4620      	mov	r0, r4
 80082fe:	bd10      	pop	{r4, pc}
 8008300:	2a24      	cmp	r2, #36	; 0x24
 8008302:	e9c0 1102 	strd	r1, r1, [r0, #8]
 8008306:	bf11      	iteee	ne
 8008308:	f100 0310 	addne.w	r3, r0, #16
 800830c:	6101      	streq	r1, [r0, #16]
 800830e:	f100 0318 	addeq.w	r3, r0, #24
 8008312:	6141      	streq	r1, [r0, #20]
 8008314:	e7ee      	b.n	80082f4 <_calloc_r+0x2c>
 8008316:	4603      	mov	r3, r0
 8008318:	e7ec      	b.n	80082f4 <_calloc_r+0x2c>
 800831a:	2100      	movs	r1, #0
 800831c:	f7fc fa0c 	bl	8004738 <memset>
 8008320:	e7ec      	b.n	80082fc <_calloc_r+0x34>
	...

08008324 <_close_r>:
 8008324:	b538      	push	{r3, r4, r5, lr}
 8008326:	4c06      	ldr	r4, [pc, #24]	; (8008340 <_close_r+0x1c>)
 8008328:	2300      	movs	r3, #0
 800832a:	4605      	mov	r5, r0
 800832c:	4608      	mov	r0, r1
 800832e:	6023      	str	r3, [r4, #0]
 8008330:	f7f9 ffca 	bl	80022c8 <_close>
 8008334:	1c43      	adds	r3, r0, #1
 8008336:	d102      	bne.n	800833e <_close_r+0x1a>
 8008338:	6823      	ldr	r3, [r4, #0]
 800833a:	b103      	cbz	r3, 800833e <_close_r+0x1a>
 800833c:	602b      	str	r3, [r5, #0]
 800833e:	bd38      	pop	{r3, r4, r5, pc}
 8008340:	200017c0 	.word	0x200017c0

08008344 <_fclose_r>:
 8008344:	b570      	push	{r4, r5, r6, lr}
 8008346:	4606      	mov	r6, r0
 8008348:	460c      	mov	r4, r1
 800834a:	b911      	cbnz	r1, 8008352 <_fclose_r+0xe>
 800834c:	2500      	movs	r5, #0
 800834e:	4628      	mov	r0, r5
 8008350:	bd70      	pop	{r4, r5, r6, pc}
 8008352:	b118      	cbz	r0, 800835c <_fclose_r+0x18>
 8008354:	6b83      	ldr	r3, [r0, #56]	; 0x38
 8008356:	b90b      	cbnz	r3, 800835c <_fclose_r+0x18>
 8008358:	f7fe fca0 	bl	8006c9c <__sinit>
 800835c:	6e63      	ldr	r3, [r4, #100]	; 0x64
 800835e:	07d8      	lsls	r0, r3, #31
 8008360:	d405      	bmi.n	800836e <_fclose_r+0x2a>
 8008362:	89a3      	ldrh	r3, [r4, #12]
 8008364:	0599      	lsls	r1, r3, #22
 8008366:	d402      	bmi.n	800836e <_fclose_r+0x2a>
 8008368:	6da0      	ldr	r0, [r4, #88]	; 0x58
 800836a:	f7fe ff5f 	bl	800722c <__retarget_lock_acquire_recursive>
 800836e:	f9b4 300c 	ldrsh.w	r3, [r4, #12]
 8008372:	b93b      	cbnz	r3, 8008384 <_fclose_r+0x40>
 8008374:	6e65      	ldr	r5, [r4, #100]	; 0x64
 8008376:	f015 0501 	ands.w	r5, r5, #1
 800837a:	d1e7      	bne.n	800834c <_fclose_r+0x8>
 800837c:	6da0      	ldr	r0, [r4, #88]	; 0x58
 800837e:	f7fe ff56 	bl	800722e <__retarget_lock_release_recursive>
 8008382:	e7e4      	b.n	800834e <_fclose_r+0xa>
 8008384:	4621      	mov	r1, r4
 8008386:	4630      	mov	r0, r6
 8008388:	f7fe fb8e 	bl	8006aa8 <__sflush_r>
 800838c:	6ae3      	ldr	r3, [r4, #44]	; 0x2c
 800838e:	4605      	mov	r5, r0
 8008390:	b133      	cbz	r3, 80083a0 <_fclose_r+0x5c>
 8008392:	69e1      	ldr	r1, [r4, #28]
 8008394:	4630      	mov	r0, r6
 8008396:	4798      	blx	r3
 8008398:	2800      	cmp	r0, #0
 800839a:	bfb8      	it	lt
 800839c:	f04f 35ff 	movlt.w	r5, #4294967295
 80083a0:	89a3      	ldrh	r3, [r4, #12]
 80083a2:	061a      	lsls	r2, r3, #24
 80083a4:	d503      	bpl.n	80083ae <_fclose_r+0x6a>
 80083a6:	6921      	ldr	r1, [r4, #16]
 80083a8:	4630      	mov	r0, r6
 80083aa:	f7fe fd07 	bl	8006dbc <_free_r>
 80083ae:	6b21      	ldr	r1, [r4, #48]	; 0x30
 80083b0:	b141      	cbz	r1, 80083c4 <_fclose_r+0x80>
 80083b2:	f104 0340 	add.w	r3, r4, #64	; 0x40
 80083b6:	4299      	cmp	r1, r3
 80083b8:	d002      	beq.n	80083c0 <_fclose_r+0x7c>
 80083ba:	4630      	mov	r0, r6
 80083bc:	f7fe fcfe 	bl	8006dbc <_free_r>
 80083c0:	2300      	movs	r3, #0
 80083c2:	6323      	str	r3, [r4, #48]	; 0x30
 80083c4:	6c61      	ldr	r1, [r4, #68]	; 0x44
 80083c6:	b121      	cbz	r1, 80083d2 <_fclose_r+0x8e>
 80083c8:	4630      	mov	r0, r6
 80083ca:	f7fe fcf7 	bl	8006dbc <_free_r>
 80083ce:	2300      	movs	r3, #0
 80083d0:	6463      	str	r3, [r4, #68]	; 0x44
 80083d2:	f7fe fc4b 	bl	8006c6c <__sfp_lock_acquire>
 80083d6:	2300      	movs	r3, #0
 80083d8:	81a3      	strh	r3, [r4, #12]
 80083da:	6e63      	ldr	r3, [r4, #100]	; 0x64
 80083dc:	07db      	lsls	r3, r3, #31
 80083de:	d402      	bmi.n	80083e6 <_fclose_r+0xa2>
 80083e0:	6da0      	ldr	r0, [r4, #88]	; 0x58
 80083e2:	f7fe ff24 	bl	800722e <__retarget_lock_release_recursive>
 80083e6:	6da0      	ldr	r0, [r4, #88]	; 0x58
 80083e8:	f7fe ff1f 	bl	800722a <__retarget_lock_close_recursive>
 80083ec:	f7fe fc44 	bl	8006c78 <__sfp_lock_release>
 80083f0:	e7ad      	b.n	800834e <_fclose_r+0xa>

080083f2 <__fputwc>:
 80083f2:	e92d 43f7 	stmdb	sp!, {r0, r1, r2, r4, r5, r6, r7, r8, r9, lr}
 80083f6:	4680      	mov	r8, r0
 80083f8:	460e      	mov	r6, r1
 80083fa:	4614      	mov	r4, r2
 80083fc:	f000 f886 	bl	800850c <__locale_mb_cur_max>
 8008400:	2801      	cmp	r0, #1
 8008402:	d11c      	bne.n	800843e <__fputwc+0x4c>
 8008404:	1e73      	subs	r3, r6, #1
 8008406:	2bfe      	cmp	r3, #254	; 0xfe
 8008408:	d819      	bhi.n	800843e <__fputwc+0x4c>
 800840a:	f88d 6004 	strb.w	r6, [sp, #4]
 800840e:	4605      	mov	r5, r0
 8008410:	2700      	movs	r7, #0
 8008412:	f10d 0904 	add.w	r9, sp, #4
 8008416:	42af      	cmp	r7, r5
 8008418:	d020      	beq.n	800845c <__fputwc+0x6a>
 800841a:	68a3      	ldr	r3, [r4, #8]
 800841c:	f817 1009 	ldrb.w	r1, [r7, r9]
 8008420:	3b01      	subs	r3, #1
 8008422:	2b00      	cmp	r3, #0
 8008424:	60a3      	str	r3, [r4, #8]
 8008426:	da04      	bge.n	8008432 <__fputwc+0x40>
 8008428:	69a2      	ldr	r2, [r4, #24]
 800842a:	4293      	cmp	r3, r2
 800842c:	db1a      	blt.n	8008464 <__fputwc+0x72>
 800842e:	290a      	cmp	r1, #10
 8008430:	d018      	beq.n	8008464 <__fputwc+0x72>
 8008432:	6823      	ldr	r3, [r4, #0]
 8008434:	1c5a      	adds	r2, r3, #1
 8008436:	6022      	str	r2, [r4, #0]
 8008438:	7019      	strb	r1, [r3, #0]
 800843a:	3701      	adds	r7, #1
 800843c:	e7eb      	b.n	8008416 <__fputwc+0x24>
 800843e:	4632      	mov	r2, r6
 8008440:	f104 035c 	add.w	r3, r4, #92	; 0x5c
 8008444:	a901      	add	r1, sp, #4
 8008446:	4640      	mov	r0, r8
 8008448:	f000 f8ee 	bl	8008628 <_wcrtomb_r>
 800844c:	1c42      	adds	r2, r0, #1
 800844e:	4605      	mov	r5, r0
 8008450:	d1de      	bne.n	8008410 <__fputwc+0x1e>
 8008452:	89a3      	ldrh	r3, [r4, #12]
 8008454:	f043 0340 	orr.w	r3, r3, #64	; 0x40
 8008458:	81a3      	strh	r3, [r4, #12]
 800845a:	4606      	mov	r6, r0
 800845c:	4630      	mov	r0, r6
 800845e:	b003      	add	sp, #12
 8008460:	e8bd 83f0 	ldmia.w	sp!, {r4, r5, r6, r7, r8, r9, pc}
 8008464:	4622      	mov	r2, r4
 8008466:	4640      	mov	r0, r8
 8008468:	f000 f894 	bl	8008594 <__swbuf_r>
 800846c:	1c43      	adds	r3, r0, #1
 800846e:	d1e4      	bne.n	800843a <__fputwc+0x48>
 8008470:	4606      	mov	r6, r0
 8008472:	e7f3      	b.n	800845c <__fputwc+0x6a>

08008474 <_fputwc_r>:
 8008474:	6e53      	ldr	r3, [r2, #100]	; 0x64
 8008476:	07db      	lsls	r3, r3, #31
 8008478:	b570      	push	{r4, r5, r6, lr}
 800847a:	4605      	mov	r5, r0
 800847c:	460e      	mov	r6, r1
 800847e:	4614      	mov	r4, r2
 8008480:	d405      	bmi.n	800848e <_fputwc_r+0x1a>
 8008482:	8993      	ldrh	r3, [r2, #12]
 8008484:	0598      	lsls	r0, r3, #22
 8008486:	d402      	bmi.n	800848e <_fputwc_r+0x1a>
 8008488:	6d90      	ldr	r0, [r2, #88]	; 0x58
 800848a:	f7fe fecf 	bl	800722c <__retarget_lock_acquire_recursive>
 800848e:	f9b4 300c 	ldrsh.w	r3, [r4, #12]
 8008492:	0499      	lsls	r1, r3, #18
 8008494:	d406      	bmi.n	80084a4 <_fputwc_r+0x30>
 8008496:	f443 5300 	orr.w	r3, r3, #8192	; 0x2000
 800849a:	81a3      	strh	r3, [r4, #12]
 800849c:	6e63      	ldr	r3, [r4, #100]	; 0x64
 800849e:	f443 5300 	orr.w	r3, r3, #8192	; 0x2000
 80084a2:	6663      	str	r3, [r4, #100]	; 0x64
 80084a4:	4622      	mov	r2, r4
 80084a6:	4628      	mov	r0, r5
 80084a8:	4631      	mov	r1, r6
 80084aa:	f7ff ffa2 	bl	80083f2 <__fputwc>
 80084ae:	6e63      	ldr	r3, [r4, #100]	; 0x64
 80084b0:	07da      	lsls	r2, r3, #31
 80084b2:	4605      	mov	r5, r0
 80084b4:	d405      	bmi.n	80084c2 <_fputwc_r+0x4e>
 80084b6:	89a3      	ldrh	r3, [r4, #12]
 80084b8:	059b      	lsls	r3, r3, #22
 80084ba:	d402      	bmi.n	80084c2 <_fputwc_r+0x4e>
 80084bc:	6da0      	ldr	r0, [r4, #88]	; 0x58
 80084be:	f7fe feb6 	bl	800722e <__retarget_lock_release_recursive>
 80084c2:	4628      	mov	r0, r5
 80084c4:	bd70      	pop	{r4, r5, r6, pc}
	...

080084c8 <_fstat_r>:
 80084c8:	b538      	push	{r3, r4, r5, lr}
 80084ca:	4c07      	ldr	r4, [pc, #28]	; (80084e8 <_fstat_r+0x20>)
 80084cc:	2300      	movs	r3, #0
 80084ce:	4605      	mov	r5, r0
 80084d0:	4608      	mov	r0, r1
 80084d2:	4611      	mov	r1, r2
 80084d4:	6023      	str	r3, [r4, #0]
 80084d6:	f7f9 fefa 	bl	80022ce <_fstat>
 80084da:	1c43      	adds	r3, r0, #1
 80084dc:	d102      	bne.n	80084e4 <_fstat_r+0x1c>
 80084de:	6823      	ldr	r3, [r4, #0]
 80084e0:	b103      	cbz	r3, 80084e4 <_fstat_r+0x1c>
 80084e2:	602b      	str	r3, [r5, #0]
 80084e4:	bd38      	pop	{r3, r4, r5, pc}
 80084e6:	bf00      	nop
 80084e8:	200017c0 	.word	0x200017c0

080084ec <_isatty_r>:
 80084ec:	b538      	push	{r3, r4, r5, lr}
 80084ee:	4c06      	ldr	r4, [pc, #24]	; (8008508 <_isatty_r+0x1c>)
 80084f0:	2300      	movs	r3, #0
 80084f2:	4605      	mov	r5, r0
 80084f4:	4608      	mov	r0, r1
 80084f6:	6023      	str	r3, [r4, #0]
 80084f8:	f7f9 feee 	bl	80022d8 <_isatty>
 80084fc:	1c43      	adds	r3, r0, #1
 80084fe:	d102      	bne.n	8008506 <_isatty_r+0x1a>
 8008500:	6823      	ldr	r3, [r4, #0]
 8008502:	b103      	cbz	r3, 8008506 <_isatty_r+0x1a>
 8008504:	602b      	str	r3, [r5, #0]
 8008506:	bd38      	pop	{r3, r4, r5, pc}
 8008508:	200017c0 	.word	0x200017c0

0800850c <__locale_mb_cur_max>:
 800850c:	4b04      	ldr	r3, [pc, #16]	; (8008520 <__locale_mb_cur_max+0x14>)
 800850e:	4a05      	ldr	r2, [pc, #20]	; (8008524 <__locale_mb_cur_max+0x18>)
 8008510:	681b      	ldr	r3, [r3, #0]
 8008512:	6b5b      	ldr	r3, [r3, #52]	; 0x34
 8008514:	2b00      	cmp	r3, #0
 8008516:	bf08      	it	eq
 8008518:	4613      	moveq	r3, r2
 800851a:	f893 0128 	ldrb.w	r0, [r3, #296]	; 0x128
 800851e:	4770      	bx	lr
 8008520:	20000010 	.word	0x20000010
 8008524:	20000854 	.word	0x20000854

08008528 <_lseek_r>:
 8008528:	b538      	push	{r3, r4, r5, lr}
 800852a:	4c07      	ldr	r4, [pc, #28]	; (8008548 <_lseek_r+0x20>)
 800852c:	4605      	mov	r5, r0
 800852e:	4608      	mov	r0, r1
 8008530:	4611      	mov	r1, r2
 8008532:	2200      	movs	r2, #0
 8008534:	6022      	str	r2, [r4, #0]
 8008536:	461a      	mov	r2, r3
 8008538:	f7f9 fed0 	bl	80022dc <_lseek>
 800853c:	1c43      	adds	r3, r0, #1
 800853e:	d102      	bne.n	8008546 <_lseek_r+0x1e>
 8008540:	6823      	ldr	r3, [r4, #0]
 8008542:	b103      	cbz	r3, 8008546 <_lseek_r+0x1e>
 8008544:	602b      	str	r3, [r5, #0]
 8008546:	bd38      	pop	{r3, r4, r5, pc}
 8008548:	200017c0 	.word	0x200017c0

0800854c <__ascii_mbtowc>:
 800854c:	b082      	sub	sp, #8
 800854e:	b901      	cbnz	r1, 8008552 <__ascii_mbtowc+0x6>
 8008550:	a901      	add	r1, sp, #4
 8008552:	b142      	cbz	r2, 8008566 <__ascii_mbtowc+0x1a>
 8008554:	b14b      	cbz	r3, 800856a <__ascii_mbtowc+0x1e>
 8008556:	7813      	ldrb	r3, [r2, #0]
 8008558:	600b      	str	r3, [r1, #0]
 800855a:	7812      	ldrb	r2, [r2, #0]
 800855c:	1c10      	adds	r0, r2, #0
 800855e:	bf18      	it	ne
 8008560:	2001      	movne	r0, #1
 8008562:	b002      	add	sp, #8
 8008564:	4770      	bx	lr
 8008566:	4610      	mov	r0, r2
 8008568:	e7fb      	b.n	8008562 <__ascii_mbtowc+0x16>
 800856a:	f06f 0001 	mvn.w	r0, #1
 800856e:	e7f8      	b.n	8008562 <__ascii_mbtowc+0x16>

08008570 <_read_r>:
 8008570:	b538      	push	{r3, r4, r5, lr}
 8008572:	4c07      	ldr	r4, [pc, #28]	; (8008590 <_read_r+0x20>)
 8008574:	4605      	mov	r5, r0
 8008576:	4608      	mov	r0, r1
 8008578:	4611      	mov	r1, r2
 800857a:	2200      	movs	r2, #0
 800857c:	6022      	str	r2, [r4, #0]
 800857e:	461a      	mov	r2, r3
 8008580:	f7f9 fe86 	bl	8002290 <_read>
 8008584:	1c43      	adds	r3, r0, #1
 8008586:	d102      	bne.n	800858e <_read_r+0x1e>
 8008588:	6823      	ldr	r3, [r4, #0]
 800858a:	b103      	cbz	r3, 800858e <_read_r+0x1e>
 800858c:	602b      	str	r3, [r5, #0]
 800858e:	bd38      	pop	{r3, r4, r5, pc}
 8008590:	200017c0 	.word	0x200017c0

08008594 <__swbuf_r>:
 8008594:	b5f8      	push	{r3, r4, r5, r6, r7, lr}
 8008596:	460d      	mov	r5, r1
 8008598:	4614      	mov	r4, r2
 800859a:	4606      	mov	r6, r0
 800859c:	b118      	cbz	r0, 80085a6 <__swbuf_r+0x12>
 800859e:	6b83      	ldr	r3, [r0, #56]	; 0x38
 80085a0:	b90b      	cbnz	r3, 80085a6 <__swbuf_r+0x12>
 80085a2:	f7fe fb7b 	bl	8006c9c <__sinit>
 80085a6:	69a3      	ldr	r3, [r4, #24]
 80085a8:	60a3      	str	r3, [r4, #8]
 80085aa:	89a3      	ldrh	r3, [r4, #12]
 80085ac:	0719      	lsls	r1, r3, #28
 80085ae:	d528      	bpl.n	8008602 <__swbuf_r+0x6e>
 80085b0:	6923      	ldr	r3, [r4, #16]
 80085b2:	b333      	cbz	r3, 8008602 <__swbuf_r+0x6e>
 80085b4:	f9b4 300c 	ldrsh.w	r3, [r4, #12]
 80085b8:	b2ed      	uxtb	r5, r5
 80085ba:	049a      	lsls	r2, r3, #18
 80085bc:	462f      	mov	r7, r5
 80085be:	d52a      	bpl.n	8008616 <__swbuf_r+0x82>
 80085c0:	6923      	ldr	r3, [r4, #16]
 80085c2:	6820      	ldr	r0, [r4, #0]
 80085c4:	1ac0      	subs	r0, r0, r3
 80085c6:	6963      	ldr	r3, [r4, #20]
 80085c8:	4283      	cmp	r3, r0
 80085ca:	dc04      	bgt.n	80085d6 <__swbuf_r+0x42>
 80085cc:	4621      	mov	r1, r4
 80085ce:	4630      	mov	r0, r6
 80085d0:	f7fe faf8 	bl	8006bc4 <_fflush_r>
 80085d4:	b9d8      	cbnz	r0, 800860e <__swbuf_r+0x7a>
 80085d6:	68a3      	ldr	r3, [r4, #8]
 80085d8:	3b01      	subs	r3, #1
 80085da:	60a3      	str	r3, [r4, #8]
 80085dc:	6823      	ldr	r3, [r4, #0]
 80085de:	1c5a      	adds	r2, r3, #1
 80085e0:	6022      	str	r2, [r4, #0]
 80085e2:	701d      	strb	r5, [r3, #0]
 80085e4:	6963      	ldr	r3, [r4, #20]
 80085e6:	3001      	adds	r0, #1
 80085e8:	4283      	cmp	r3, r0
 80085ea:	d004      	beq.n	80085f6 <__swbuf_r+0x62>
 80085ec:	89a3      	ldrh	r3, [r4, #12]
 80085ee:	07db      	lsls	r3, r3, #31
 80085f0:	d50f      	bpl.n	8008612 <__swbuf_r+0x7e>
 80085f2:	2d0a      	cmp	r5, #10
 80085f4:	d10d      	bne.n	8008612 <__swbuf_r+0x7e>
 80085f6:	4621      	mov	r1, r4
 80085f8:	4630      	mov	r0, r6
 80085fa:	f7fe fae3 	bl	8006bc4 <_fflush_r>
 80085fe:	b140      	cbz	r0, 8008612 <__swbuf_r+0x7e>
 8008600:	e005      	b.n	800860e <__swbuf_r+0x7a>
 8008602:	4621      	mov	r1, r4
 8008604:	4630      	mov	r0, r6
 8008606:	f7fd fbb1 	bl	8005d6c <__swsetup_r>
 800860a:	2800      	cmp	r0, #0
 800860c:	d0d2      	beq.n	80085b4 <__swbuf_r+0x20>
 800860e:	f04f 37ff 	mov.w	r7, #4294967295
 8008612:	4638      	mov	r0, r7
 8008614:	bdf8      	pop	{r3, r4, r5, r6, r7, pc}
 8008616:	f443 5300 	orr.w	r3, r3, #8192	; 0x2000
 800861a:	81a3      	strh	r3, [r4, #12]
 800861c:	6e63      	ldr	r3, [r4, #100]	; 0x64
 800861e:	f423 5300 	bic.w	r3, r3, #8192	; 0x2000
 8008622:	6663      	str	r3, [r4, #100]	; 0x64
 8008624:	e7cc      	b.n	80085c0 <__swbuf_r+0x2c>
	...

08008628 <_wcrtomb_r>:
 8008628:	b5f0      	push	{r4, r5, r6, r7, lr}
 800862a:	4c0f      	ldr	r4, [pc, #60]	; (8008668 <_wcrtomb_r+0x40>)
 800862c:	6824      	ldr	r4, [r4, #0]
 800862e:	b085      	sub	sp, #20
 8008630:	4605      	mov	r5, r0
 8008632:	461e      	mov	r6, r3
 8008634:	6b64      	ldr	r4, [r4, #52]	; 0x34
 8008636:	b981      	cbnz	r1, 800865a <_wcrtomb_r+0x32>
 8008638:	4a0c      	ldr	r2, [pc, #48]	; (800866c <_wcrtomb_r+0x44>)
 800863a:	2c00      	cmp	r4, #0
 800863c:	bf08      	it	eq
 800863e:	4614      	moveq	r4, r2
 8008640:	460a      	mov	r2, r1
 8008642:	f8d4 40e0 	ldr.w	r4, [r4, #224]	; 0xe0
 8008646:	a901      	add	r1, sp, #4
 8008648:	47a0      	blx	r4
 800864a:	1c43      	adds	r3, r0, #1
 800864c:	bf01      	itttt	eq
 800864e:	2300      	moveq	r3, #0
 8008650:	6033      	streq	r3, [r6, #0]
 8008652:	238a      	moveq	r3, #138	; 0x8a
 8008654:	602b      	streq	r3, [r5, #0]
 8008656:	b005      	add	sp, #20
 8008658:	bdf0      	pop	{r4, r5, r6, r7, pc}
 800865a:	4f04      	ldr	r7, [pc, #16]	; (800866c <_wcrtomb_r+0x44>)
 800865c:	2c00      	cmp	r4, #0
 800865e:	bf08      	it	eq
 8008660:	463c      	moveq	r4, r7
 8008662:	f8d4 40e0 	ldr.w	r4, [r4, #224]	; 0xe0
 8008666:	e7ef      	b.n	8008648 <_wcrtomb_r+0x20>
 8008668:	20000010 	.word	0x20000010
 800866c:	20000854 	.word	0x20000854

08008670 <__ascii_wctomb>:
 8008670:	b149      	cbz	r1, 8008686 <__ascii_wctomb+0x16>
 8008672:	2aff      	cmp	r2, #255	; 0xff
 8008674:	bf85      	ittet	hi
 8008676:	238a      	movhi	r3, #138	; 0x8a
 8008678:	6003      	strhi	r3, [r0, #0]
 800867a:	700a      	strbls	r2, [r1, #0]
 800867c:	f04f 30ff 	movhi.w	r0, #4294967295
 8008680:	bf98      	it	ls
 8008682:	2001      	movls	r0, #1
 8008684:	4770      	bx	lr
 8008686:	4608      	mov	r0, r1
 8008688:	4770      	bx	lr
	...

0800868c <_init>:
 800868c:	b5f8      	push	{r3, r4, r5, r6, r7, lr}
 800868e:	bf00      	nop
 8008690:	bcf8      	pop	{r3, r4, r5, r6, r7}
 8008692:	bc08      	pop	{r3}
 8008694:	469e      	mov	lr, r3
 8008696:	4770      	bx	lr

08008698 <_fini>:
 8008698:	b5f8      	push	{r3, r4, r5, r6, r7, lr}
 800869a:	bf00      	nop
 800869c:	bcf8      	pop	{r3, r4, r5, r6, r7}
 800869e:	bc08      	pop	{r3}
 80086a0:	469e      	mov	lr, r3
 80086a2:	4770      	bx	lr
